   1              	 .syntax unified
   2              	 .cpu cortex-m4
   3              	 .eabi_attribute 27,3
   4              	 .fpu fpv4-sp-d16
   5              	 .eabi_attribute 20,1
   6              	 .eabi_attribute 21,1
   7              	 .eabi_attribute 23,3
   8              	 .eabi_attribute 24,1
   9              	 .eabi_attribute 25,1
  10              	 .eabi_attribute 26,1
  11              	 .eabi_attribute 30,4
  12              	 .eabi_attribute 34,1
  13              	 .eabi_attribute 18,4
  14              	 .thumb
  15              	 .file "uart_conf.c"
  16              	 .text
  17              	.Ltext0:
  18              	 .cfi_sections .debug_frame
  19              	 .section .text.UART_0_init,"ax",%progbits
  20              	 .align 1
  21              	 .global UART_0_init
  22              	 .thumb
  23              	 .thumb_func
  25              	UART_0_init:
  26              	.LFB283:
  27              	 .file 1 "../Dave/Generated/UART/uart_conf.c"
   1:../Dave/Generated/UART/uart_conf.c **** /**************************************************************************************************
   2:../Dave/Generated/UART/uart_conf.c **** * DAVE APP Name : UART       APP Version: 4.1.12
   3:../Dave/Generated/UART/uart_conf.c **** *
   4:../Dave/Generated/UART/uart_conf.c **** * NOTE:
   5:../Dave/Generated/UART/uart_conf.c **** * This file is generated by DAVE. Any manual modification done to this file will be lost when the c
   6:../Dave/Generated/UART/uart_conf.c **** ***************************************************************************************************
   7:../Dave/Generated/UART/uart_conf.c **** 
   8:../Dave/Generated/UART/uart_conf.c **** /**
   9:../Dave/Generated/UART/uart_conf.c ****  * @cond
  10:../Dave/Generated/UART/uart_conf.c ****  **************************************************************************************************
  11:../Dave/Generated/UART/uart_conf.c ****  *
  12:../Dave/Generated/UART/uart_conf.c ****  * Copyright (c) 2015-2016, Infineon Technologies AG
  13:../Dave/Generated/UART/uart_conf.c ****  * All rights reserved.
  14:../Dave/Generated/UART/uart_conf.c ****  *
  15:../Dave/Generated/UART/uart_conf.c ****  * Redistribution and use in source and binary forms, with or without modification,are permitted pr
  16:../Dave/Generated/UART/uart_conf.c ****  * following conditions are met:
  17:../Dave/Generated/UART/uart_conf.c ****  *
  18:../Dave/Generated/UART/uart_conf.c ****  *   Redistributions of source code must retain the above copyright notice, this list of conditions
  19:../Dave/Generated/UART/uart_conf.c ****  *   disclaimer.
  20:../Dave/Generated/UART/uart_conf.c ****  *
  21:../Dave/Generated/UART/uart_conf.c ****  *   Redistributions in binary form must reproduce the above copyright notice, this list of conditi
  22:../Dave/Generated/UART/uart_conf.c ****  *   following disclaimer in the documentation and/or other materials provided with the distributio
  23:../Dave/Generated/UART/uart_conf.c ****  *
  24:../Dave/Generated/UART/uart_conf.c ****  *   Neither the name of the copyright holders nor the names of its contributors may be used to end
  25:../Dave/Generated/UART/uart_conf.c ****  *   products derived from this software without specific prior written permission.
  26:../Dave/Generated/UART/uart_conf.c ****  *
  27:../Dave/Generated/UART/uart_conf.c ****  * THIS SOFTWARE IS PROVIDED BY THE COPYRIGHT HOLDERS AND CONTRIBUTORS "AS IS" AND ANY EXPRESS OR I
  28:../Dave/Generated/UART/uart_conf.c ****  * INCLUDING, BUT NOT LIMITED TO, THE IMPLIED WARRANTIES OF MERCHANTABILITY AND FITNESS FOR A PARTI
  29:../Dave/Generated/UART/uart_conf.c ****  * DISCLAIMED. IN NO EVENT SHALL THE COPYRIGHT HOLDER OR CONTRIBUTORS BE LIABLE  FOR ANY DIRECT, IN
  30:../Dave/Generated/UART/uart_conf.c ****  * SPECIAL, EXEMPLARY, OR CONSEQUENTIAL DAMAGES (INCLUDING, BUT NOT LIMITED TO, PROCUREMENT OF SUBS
  31:../Dave/Generated/UART/uart_conf.c ****  * SERVICES; LOSS OF USE, DATA, OR PROFITS; OR BUSINESS INTERRUPTION) HOWEVER CAUSED AND ON ANY THE
  32:../Dave/Generated/UART/uart_conf.c ****  * WHETHER IN CONTRACT, STRICT LIABILITY,OR TORT (INCLUDING NEGLIGENCE OR OTHERWISE) ARISING IN ANY
  33:../Dave/Generated/UART/uart_conf.c ****  * USE OF THIS SOFTWARE, EVEN IF ADVISED OF THE POSSIBILITY OF SUCH DAMAGE.
  34:../Dave/Generated/UART/uart_conf.c ****  *
  35:../Dave/Generated/UART/uart_conf.c ****  * To improve the quality of the software, users are encouraged to share modifications, enhancement
  36:../Dave/Generated/UART/uart_conf.c ****  * with Infineon Technologies AG (dave@infineon.com).
  37:../Dave/Generated/UART/uart_conf.c ****  **************************************************************************************************
  38:../Dave/Generated/UART/uart_conf.c ****  *
  39:../Dave/Generated/UART/uart_conf.c ****  * Change History
  40:../Dave/Generated/UART/uart_conf.c ****  * --------------
  41:../Dave/Generated/UART/uart_conf.c ****  *
  42:../Dave/Generated/UART/uart_conf.c ****  * 2015-02-16:
  43:../Dave/Generated/UART/uart_conf.c ****  *     - Initial version for DAVEv4.
  44:../Dave/Generated/UART/uart_conf.c ****  *
  45:../Dave/Generated/UART/uart_conf.c ****  * 2015-06-20:
  46:../Dave/Generated/UART/uart_conf.c ****  *     - Service request value moved from runtime structure to config structure.
  47:../Dave/Generated/UART/uart_conf.c ****  *
  48:../Dave/Generated/UART/uart_conf.c ****  * 2015-07-06:
  49:../Dave/Generated/UART/uart_conf.c ****  *     - Structure name changed from UART_DYNAMIC_t to UART_RUNTIME_t
  50:../Dave/Generated/UART/uart_conf.c ****  *
  51:../Dave/Generated/UART/uart_conf.c ****  * 2015-07-30:
  52:../Dave/Generated/UART/uart_conf.c ****  *     - Added DMA and Direct mode configuration
  53:../Dave/Generated/UART/uart_conf.c ****  * @endcond
  54:../Dave/Generated/UART/uart_conf.c ****  *
  55:../Dave/Generated/UART/uart_conf.c ****  */
  56:../Dave/Generated/UART/uart_conf.c **** /**************************************************************************************************
  57:../Dave/Generated/UART/uart_conf.c ****  * HEADER FILES
  58:../Dave/Generated/UART/uart_conf.c ****  **************************************************************************************************
  59:../Dave/Generated/UART/uart_conf.c **** #include "uart.h"
  60:../Dave/Generated/UART/uart_conf.c **** 
  61:../Dave/Generated/UART/uart_conf.c **** /**************************************************************************************************
  62:../Dave/Generated/UART/uart_conf.c ****  * EXTERN DECLARATIONS
  63:../Dave/Generated/UART/uart_conf.c ****  **************************************************************************************************
  64:../Dave/Generated/UART/uart_conf.c **** 
  65:../Dave/Generated/UART/uart_conf.c **** /*
  66:../Dave/Generated/UART/uart_conf.c ****  * Function monitors the configured protocol interrupt flags. It is called from the protocol interr
  67:../Dave/Generated/UART/uart_conf.c ****  * service handler.
  68:../Dave/Generated/UART/uart_conf.c ****  * Function reads the status of the USIC channel and checks for configured flags in the APP UI.
  69:../Dave/Generated/UART/uart_conf.c ****  * If any callback function is provided in the APP UI, it will be called when the selected flag is 
  70:../Dave/Generated/UART/uart_conf.c ****  */
  71:../Dave/Generated/UART/uart_conf.c **** extern void UART_lProtocolHandler(const UART_t * const handle);
  72:../Dave/Generated/UART/uart_conf.c **** 
  73:../Dave/Generated/UART/uart_conf.c **** 
  74:../Dave/Generated/UART/uart_conf.c **** /**************************************************************************************************
  75:../Dave/Generated/UART/uart_conf.c ****  * DATA STRUCTURES
  76:../Dave/Generated/UART/uart_conf.c ****  **************************************************************************************************
  77:../Dave/Generated/UART/uart_conf.c **** UART_STATUS_t UART_0_init(void);
  78:../Dave/Generated/UART/uart_conf.c **** 
  79:../Dave/Generated/UART/uart_conf.c **** /*USIC channel configuration*/
  80:../Dave/Generated/UART/uart_conf.c **** const XMC_UART_CH_CONFIG_t UART_0_channel_config =
  81:../Dave/Generated/UART/uart_conf.c **** {
  82:../Dave/Generated/UART/uart_conf.c ****   .baudrate      = 19200U,
  83:../Dave/Generated/UART/uart_conf.c ****   .data_bits     = 8U,
  84:../Dave/Generated/UART/uart_conf.c ****   .frame_length  = 8U,
  85:../Dave/Generated/UART/uart_conf.c ****   .stop_bits     = 1U,
  86:../Dave/Generated/UART/uart_conf.c ****   .oversampling  = 16U,
  87:../Dave/Generated/UART/uart_conf.c ****   .parity_mode   = XMC_USIC_CH_PARITY_MODE_NONE
  88:../Dave/Generated/UART/uart_conf.c **** };
  89:../Dave/Generated/UART/uart_conf.c **** /*Transmit pin configuration*/
  90:../Dave/Generated/UART/uart_conf.c **** const XMC_GPIO_CONFIG_t UART_0_tx_pin_config   = 
  91:../Dave/Generated/UART/uart_conf.c **** { 
  92:../Dave/Generated/UART/uart_conf.c ****   .mode             = XMC_GPIO_MODE_OUTPUT_PUSH_PULL_ALT2, 
  93:../Dave/Generated/UART/uart_conf.c ****   .output_level     = XMC_GPIO_OUTPUT_LEVEL_HIGH,
  94:../Dave/Generated/UART/uart_conf.c ****   .output_strength  = XMC_GPIO_OUTPUT_STRENGTH_STRONG_SOFT_EDGE
  95:../Dave/Generated/UART/uart_conf.c **** };
  96:../Dave/Generated/UART/uart_conf.c **** 
  97:../Dave/Generated/UART/uart_conf.c **** /*Transmit pin configuration used for initializing*/
  98:../Dave/Generated/UART/uart_conf.c **** const UART_TX_CONFIG_t UART_0_tx_pin = 
  99:../Dave/Generated/UART/uart_conf.c **** {
 100:../Dave/Generated/UART/uart_conf.c ****   .port = (XMC_GPIO_PORT_t *)PORT1_BASE,
 101:../Dave/Generated/UART/uart_conf.c ****   .config = &UART_0_tx_pin_config,
 102:../Dave/Generated/UART/uart_conf.c ****   .pin = 5U
 103:../Dave/Generated/UART/uart_conf.c **** };
 104:../Dave/Generated/UART/uart_conf.c **** 
 105:../Dave/Generated/UART/uart_conf.c **** /*UART APP configuration structure*/
 106:../Dave/Generated/UART/uart_conf.c **** const UART_CONFIG_t UART_0_config = 
 107:../Dave/Generated/UART/uart_conf.c **** {
 108:../Dave/Generated/UART/uart_conf.c ****   .channel_config   = &UART_0_channel_config,
 109:../Dave/Generated/UART/uart_conf.c **** 
 110:../Dave/Generated/UART/uart_conf.c **** 
 111:../Dave/Generated/UART/uart_conf.c ****   .fptr_uart_config = UART_0_init,  
 112:../Dave/Generated/UART/uart_conf.c ****   .sync_error_cbhandler = NULL,  
 113:../Dave/Generated/UART/uart_conf.c ****   .rx_noise_error_cbhandler = NULL,  
 114:../Dave/Generated/UART/uart_conf.c ****   .format_error_bit0_cbhandler = NULL,  
 115:../Dave/Generated/UART/uart_conf.c ****   .format_error_bit1_cbhandler = NULL,  
 116:../Dave/Generated/UART/uart_conf.c ****   .collision_error_cbhandler = NULL,
 117:../Dave/Generated/UART/uart_conf.c ****   .tx_pin_config    = &UART_0_tx_pin,
 118:../Dave/Generated/UART/uart_conf.c ****   .mode             = UART_MODE_FULLDUPLEX,
 119:../Dave/Generated/UART/uart_conf.c ****   .transmit_mode = UART_TRANSFER_MODE_DIRECT,
 120:../Dave/Generated/UART/uart_conf.c ****   .receive_mode = UART_TRANSFER_MODE_DIRECT,
 121:../Dave/Generated/UART/uart_conf.c ****   .tx_fifo_size     = XMC_USIC_CH_FIFO_DISABLED,
 122:../Dave/Generated/UART/uart_conf.c ****   .rx_fifo_size     = XMC_USIC_CH_FIFO_DISABLED,
 123:../Dave/Generated/UART/uart_conf.c **** };
 124:../Dave/Generated/UART/uart_conf.c **** 
 125:../Dave/Generated/UART/uart_conf.c **** /*Runtime handler*/
 126:../Dave/Generated/UART/uart_conf.c **** UART_RUNTIME_t UART_0_runtime = 
 127:../Dave/Generated/UART/uart_conf.c **** {
 128:../Dave/Generated/UART/uart_conf.c ****   .tx_busy = false,  
 129:../Dave/Generated/UART/uart_conf.c ****   .rx_busy = false,
 130:../Dave/Generated/UART/uart_conf.c **** };
 131:../Dave/Generated/UART/uart_conf.c **** 
 132:../Dave/Generated/UART/uart_conf.c **** /*APP handle structure*/
 133:../Dave/Generated/UART/uart_conf.c **** UART_t UART_0 = 
 134:../Dave/Generated/UART/uart_conf.c **** {
 135:../Dave/Generated/UART/uart_conf.c ****   .channel = XMC_UART0_CH0,
 136:../Dave/Generated/UART/uart_conf.c ****   .config  = &UART_0_config,
 137:../Dave/Generated/UART/uart_conf.c ****   .runtime = &UART_0_runtime
 138:../Dave/Generated/UART/uart_conf.c **** };
 139:../Dave/Generated/UART/uart_conf.c **** 
 140:../Dave/Generated/UART/uart_conf.c **** /*Receive pin configuration*/
 141:../Dave/Generated/UART/uart_conf.c **** const XMC_GPIO_CONFIG_t UART_0_rx_pin_config   = {
 142:../Dave/Generated/UART/uart_conf.c ****   .mode             = XMC_GPIO_MODE_INPUT_TRISTATE,
 143:../Dave/Generated/UART/uart_conf.c ****   .output_level     = XMC_GPIO_OUTPUT_LEVEL_HIGH,
 144:../Dave/Generated/UART/uart_conf.c ****   .output_strength  = XMC_GPIO_OUTPUT_STRENGTH_STRONG_SOFT_EDGE
 145:../Dave/Generated/UART/uart_conf.c **** };
 146:../Dave/Generated/UART/uart_conf.c **** /**************************************************************************************************
 147:../Dave/Generated/UART/uart_conf.c ****  * API IMPLEMENTATION
 148:../Dave/Generated/UART/uart_conf.c ****  **************************************************************************************************
 149:../Dave/Generated/UART/uart_conf.c **** /*Channel initialization function*/
 150:../Dave/Generated/UART/uart_conf.c **** UART_STATUS_t UART_0_init()
 151:../Dave/Generated/UART/uart_conf.c **** {
  28              	 .loc 1 151 0
  29              	 .cfi_startproc
  30              	 
  31              	 
  32              	.LVL0:
  33 0000 38B5     	 push {r3,r4,r5,lr}
  34              	.LCFI0:
  35              	 .cfi_def_cfa_offset 16
  36              	 .cfi_offset 3,-16
  37              	 .cfi_offset 4,-12
  38              	 .cfi_offset 5,-8
  39              	 .cfi_offset 14,-4
 152:../Dave/Generated/UART/uart_conf.c ****   UART_STATUS_t status = UART_STATUS_SUCCESS;
 153:../Dave/Generated/UART/uart_conf.c ****   /*Configure Receive pin*/
 154:../Dave/Generated/UART/uart_conf.c ****   XMC_GPIO_Init((XMC_GPIO_PORT_t *)PORT1_BASE, 4U, &UART_0_rx_pin_config);
  40              	 .loc 1 154 0
  41 0002 164D     	 ldr r5,.L2
 155:../Dave/Generated/UART/uart_conf.c ****   /* Initialize USIC channel in UART mode*/
 156:../Dave/Generated/UART/uart_conf.c ****   XMC_UART_CH_Init(XMC_UART0_CH0, &UART_0_channel_config);
  42              	 .loc 1 156 0
  43 0004 164C     	 ldr r4,.L2+4
 154:../Dave/Generated/UART/uart_conf.c ****   /* Initialize USIC channel in UART mode*/
  44              	 .loc 1 154 0
  45 0006 174A     	 ldr r2,.L2+8
  46 0008 2846     	 mov r0,r5
  47 000a 0421     	 movs r1,#4
  48 000c FFF7FEFF 	 bl XMC_GPIO_Init
  49              	.LVL1:
  50              	 .loc 1 156 0
  51 0010 2046     	 mov r0,r4
  52 0012 1549     	 ldr r1,.L2+12
  53 0014 FFF7FEFF 	 bl XMC_UART_CH_Init
  54              	.LVL2:
  55              	.LBB12:
  56              	.LBB13:
  57              	 .file 2 "G:/DT/dt_g1_balancing_plate_wise20192020/XMC/Libraries/XMCLib/inc/xmc_usic.h"
   1:G:/DT/dt_g1_balancing_plate_wise20192020/XMC/Libraries/XMCLib/inc\xmc_usic.h **** /**
   2:G:/DT/dt_g1_balancing_plate_wise20192020/XMC/Libraries/XMCLib/inc\xmc_usic.h ****  * @file xmc_usic.h
   3:G:/DT/dt_g1_balancing_plate_wise20192020/XMC/Libraries/XMCLib/inc\xmc_usic.h ****  * @date 2019-05-07
   4:G:/DT/dt_g1_balancing_plate_wise20192020/XMC/Libraries/XMCLib/inc\xmc_usic.h ****  *
   5:G:/DT/dt_g1_balancing_plate_wise20192020/XMC/Libraries/XMCLib/inc\xmc_usic.h ****  * @cond
   6:G:/DT/dt_g1_balancing_plate_wise20192020/XMC/Libraries/XMCLib/inc\xmc_usic.h ****  **************************************************************************************************
   7:G:/DT/dt_g1_balancing_plate_wise20192020/XMC/Libraries/XMCLib/inc\xmc_usic.h ****  * XMClib v2.1.22 - XMC Peripheral Driver Library 
   8:G:/DT/dt_g1_balancing_plate_wise20192020/XMC/Libraries/XMCLib/inc\xmc_usic.h ****  *
   9:G:/DT/dt_g1_balancing_plate_wise20192020/XMC/Libraries/XMCLib/inc\xmc_usic.h ****  * Copyright (c) 2015-2019, Infineon Technologies AG
  10:G:/DT/dt_g1_balancing_plate_wise20192020/XMC/Libraries/XMCLib/inc\xmc_usic.h ****  * All rights reserved.                        
  11:G:/DT/dt_g1_balancing_plate_wise20192020/XMC/Libraries/XMCLib/inc\xmc_usic.h ****  *                                             
  12:G:/DT/dt_g1_balancing_plate_wise20192020/XMC/Libraries/XMCLib/inc\xmc_usic.h ****  * Redistribution and use in source and binary forms, with or without modification,are permitted pr
  13:G:/DT/dt_g1_balancing_plate_wise20192020/XMC/Libraries/XMCLib/inc\xmc_usic.h ****  * following conditions are met:   
  14:G:/DT/dt_g1_balancing_plate_wise20192020/XMC/Libraries/XMCLib/inc\xmc_usic.h ****  *                                                                              
  15:G:/DT/dt_g1_balancing_plate_wise20192020/XMC/Libraries/XMCLib/inc\xmc_usic.h ****  * Redistributions of source code must retain the above copyright notice, this list of conditions a
  16:G:/DT/dt_g1_balancing_plate_wise20192020/XMC/Libraries/XMCLib/inc\xmc_usic.h ****  * disclaimer.                        
  17:G:/DT/dt_g1_balancing_plate_wise20192020/XMC/Libraries/XMCLib/inc\xmc_usic.h ****  * 
  18:G:/DT/dt_g1_balancing_plate_wise20192020/XMC/Libraries/XMCLib/inc\xmc_usic.h ****  * Redistributions in binary form must reproduce the above copyright notice, this list of condition
  19:G:/DT/dt_g1_balancing_plate_wise20192020/XMC/Libraries/XMCLib/inc\xmc_usic.h ****  * disclaimer in the documentation and/or other materials provided with the distribution.          
  20:G:/DT/dt_g1_balancing_plate_wise20192020/XMC/Libraries/XMCLib/inc\xmc_usic.h ****  * 
  21:G:/DT/dt_g1_balancing_plate_wise20192020/XMC/Libraries/XMCLib/inc\xmc_usic.h ****  * Neither the name of the copyright holders nor the names of its contributors may be used to endor
  22:G:/DT/dt_g1_balancing_plate_wise20192020/XMC/Libraries/XMCLib/inc\xmc_usic.h ****  * products derived from this software without specific prior written permission.                  
  23:G:/DT/dt_g1_balancing_plate_wise20192020/XMC/Libraries/XMCLib/inc\xmc_usic.h ****  *                                                                              
  24:G:/DT/dt_g1_balancing_plate_wise20192020/XMC/Libraries/XMCLib/inc\xmc_usic.h ****  * THIS SOFTWARE IS PROVIDED BY THE COPYRIGHT HOLDERS AND CONTRIBUTORS "AS IS" AND ANY EXPRESS OR I
  25:G:/DT/dt_g1_balancing_plate_wise20192020/XMC/Libraries/XMCLib/inc\xmc_usic.h ****  * INCLUDING, BUT NOT LIMITED TO, THE IMPLIED WARRANTIES OF MERCHANTABILITY AND FITNESS FOR A PARTI
  26:G:/DT/dt_g1_balancing_plate_wise20192020/XMC/Libraries/XMCLib/inc\xmc_usic.h ****  * DISCLAIMED. IN NO EVENT SHALL THE COPYRIGHT HOLDER OR CONTRIBUTORS BE LIABLE  FOR ANY DIRECT, IN
  27:G:/DT/dt_g1_balancing_plate_wise20192020/XMC/Libraries/XMCLib/inc\xmc_usic.h ****  * SPECIAL, EXEMPLARY, OR CONSEQUENTIAL DAMAGES (INCLUDING, BUT NOT LIMITED TO, PROCUREMENT OF SUBS
  28:G:/DT/dt_g1_balancing_plate_wise20192020/XMC/Libraries/XMCLib/inc\xmc_usic.h ****  * SERVICES; LOSS OF USE, DATA, OR PROFITS; OR BUSINESS INTERRUPTION) HOWEVER CAUSED AND ON ANY THE
  29:G:/DT/dt_g1_balancing_plate_wise20192020/XMC/Libraries/XMCLib/inc\xmc_usic.h ****  * WHETHER IN CONTRACT, STRICT LIABILITY,OR TORT (INCLUDING NEGLIGENCE OR OTHERWISE) ARISING IN ANY
  30:G:/DT/dt_g1_balancing_plate_wise20192020/XMC/Libraries/XMCLib/inc\xmc_usic.h ****  * OF THIS SOFTWARE, EVEN IF ADVISED OF THE POSSIBILITY OF SUCH DAMAGE.                            
  31:G:/DT/dt_g1_balancing_plate_wise20192020/XMC/Libraries/XMCLib/inc\xmc_usic.h ****  *                                                                              
  32:G:/DT/dt_g1_balancing_plate_wise20192020/XMC/Libraries/XMCLib/inc\xmc_usic.h ****  * To improve the quality of the software, users are encouraged to share modifications, enhancement
  33:G:/DT/dt_g1_balancing_plate_wise20192020/XMC/Libraries/XMCLib/inc\xmc_usic.h ****  * Infineon Technologies AG dave@infineon.com).                                                    
  34:G:/DT/dt_g1_balancing_plate_wise20192020/XMC/Libraries/XMCLib/inc\xmc_usic.h ****  **************************************************************************************************
  35:G:/DT/dt_g1_balancing_plate_wise20192020/XMC/Libraries/XMCLib/inc\xmc_usic.h ****  *
  36:G:/DT/dt_g1_balancing_plate_wise20192020/XMC/Libraries/XMCLib/inc\xmc_usic.h ****  * Change History
  37:G:/DT/dt_g1_balancing_plate_wise20192020/XMC/Libraries/XMCLib/inc\xmc_usic.h ****  * --------------
  38:G:/DT/dt_g1_balancing_plate_wise20192020/XMC/Libraries/XMCLib/inc\xmc_usic.h ****  *
  39:G:/DT/dt_g1_balancing_plate_wise20192020/XMC/Libraries/XMCLib/inc\xmc_usic.h ****  * 2015-02-20:
  40:G:/DT/dt_g1_balancing_plate_wise20192020/XMC/Libraries/XMCLib/inc\xmc_usic.h ****  *     - Initial draft<br>
  41:G:/DT/dt_g1_balancing_plate_wise20192020/XMC/Libraries/XMCLib/inc\xmc_usic.h ****  *     - Documentation improved <br>
  42:G:/DT/dt_g1_balancing_plate_wise20192020/XMC/Libraries/XMCLib/inc\xmc_usic.h ****  *
  43:G:/DT/dt_g1_balancing_plate_wise20192020/XMC/Libraries/XMCLib/inc\xmc_usic.h ****  * 2015-05-08:
  44:G:/DT/dt_g1_balancing_plate_wise20192020/XMC/Libraries/XMCLib/inc\xmc_usic.h ****  *     - Added XMC_USIC_CH_SetInputTriggerCombinationMode() and XMC_USIC_CH_SetTransmitBufferStatus
  45:G:/DT/dt_g1_balancing_plate_wise20192020/XMC/Libraries/XMCLib/inc\xmc_usic.h ****  *      
  46:G:/DT/dt_g1_balancing_plate_wise20192020/XMC/Libraries/XMCLib/inc\xmc_usic.h ****  * 2015-06-20:
  47:G:/DT/dt_g1_balancing_plate_wise20192020/XMC/Libraries/XMCLib/inc\xmc_usic.h ****  *     - Removed version macros and declaration of GetDriverVersion API
  48:G:/DT/dt_g1_balancing_plate_wise20192020/XMC/Libraries/XMCLib/inc\xmc_usic.h ****  * 
  49:G:/DT/dt_g1_balancing_plate_wise20192020/XMC/Libraries/XMCLib/inc\xmc_usic.h ****  * 2015-08-17:
  50:G:/DT/dt_g1_balancing_plate_wise20192020/XMC/Libraries/XMCLib/inc\xmc_usic.h ****  *     - Bug fixed in XMC_USIC_CH_SetTransmitBufferStatus API. OR operator removed.
  51:G:/DT/dt_g1_balancing_plate_wise20192020/XMC/Libraries/XMCLib/inc\xmc_usic.h ****  *
  52:G:/DT/dt_g1_balancing_plate_wise20192020/XMC/Libraries/XMCLib/inc\xmc_usic.h ****  * 2015-08-24:
  53:G:/DT/dt_g1_balancing_plate_wise20192020/XMC/Libraries/XMCLib/inc\xmc_usic.h ****  *     - Added APIs for enabling/disabling delay compensation XMC_USIC_CH_DisableDelayCompensation(
  54:G:/DT/dt_g1_balancing_plate_wise20192020/XMC/Libraries/XMCLib/inc\xmc_usic.h ****  *       XMC_USIC_CH_DisableDelayCompensation()
  55:G:/DT/dt_g1_balancing_plate_wise20192020/XMC/Libraries/XMCLib/inc\xmc_usic.h ****  *
  56:G:/DT/dt_g1_balancing_plate_wise20192020/XMC/Libraries/XMCLib/inc\xmc_usic.h ****  * 2015-08-25:
  57:G:/DT/dt_g1_balancing_plate_wise20192020/XMC/Libraries/XMCLib/inc\xmc_usic.h ****  *     - Added APIs for defining if the data shift unit input is derived
  58:G:/DT/dt_g1_balancing_plate_wise20192020/XMC/Libraries/XMCLib/inc\xmc_usic.h ****  *       from the input data path DXn or from the selected protocol pre-processors: XMC_USIC_CH_Con
  59:G:/DT/dt_g1_balancing_plate_wise20192020/XMC/Libraries/XMCLib/inc\xmc_usic.h ****  *       and XMC_USIC_CH_ConnectInputDataShiftToDataInput()
  60:G:/DT/dt_g1_balancing_plate_wise20192020/XMC/Libraries/XMCLib/inc\xmc_usic.h ****  *
  61:G:/DT/dt_g1_balancing_plate_wise20192020/XMC/Libraries/XMCLib/inc\xmc_usic.h ****  * 2015-08-27:
  62:G:/DT/dt_g1_balancing_plate_wise20192020/XMC/Libraries/XMCLib/inc\xmc_usic.h ****  *     - Fixed bug in XMC_USIC_CH_BRG_CLOCK_SOURCE_DX1T value.
  63:G:/DT/dt_g1_balancing_plate_wise20192020/XMC/Libraries/XMCLib/inc\xmc_usic.h ****  *     - Added APIs for direct TBUF access: XMC_USIC_CH_WriteToTBUF() and XMC_USIC_CH_WriteToTBUFTC
  64:G:/DT/dt_g1_balancing_plate_wise20192020/XMC/Libraries/XMCLib/inc\xmc_usic.h ****  *     - Added APIs for external input for BRG configuration:XMC_USIC_CH_ConfigExternalInputSignalT
  65:G:/DT/dt_g1_balancing_plate_wise20192020/XMC/Libraries/XMCLib/inc\xmc_usic.h ****  *
  66:G:/DT/dt_g1_balancing_plate_wise20192020/XMC/Libraries/XMCLib/inc\xmc_usic.h ****  * 2015-08-28:
  67:G:/DT/dt_g1_balancing_plate_wise20192020/XMC/Libraries/XMCLib/inc\xmc_usic.h ****  *     - Added API for enabling the transfer trigger unit to set bit TCSR.TE if the trigger signal 
  68:G:/DT/dt_g1_balancing_plate_wise20192020/XMC/Libraries/XMCLib/inc\xmc_usic.h ****  *       Clear to Send (CTS) signal: XMC_USIC_CH_EnableTBUFDataValidTrigger() and XMC_USIC_CH_Disab
  69:G:/DT/dt_g1_balancing_plate_wise20192020/XMC/Libraries/XMCLib/inc\xmc_usic.h ****  *
  70:G:/DT/dt_g1_balancing_plate_wise20192020/XMC/Libraries/XMCLib/inc\xmc_usic.h ****  * 2016-03-09:
  71:G:/DT/dt_g1_balancing_plate_wise20192020/XMC/Libraries/XMCLib/inc\xmc_usic.h ****  *     - Optimization of write only registers
  72:G:/DT/dt_g1_balancing_plate_wise20192020/XMC/Libraries/XMCLib/inc\xmc_usic.h ****  *
  73:G:/DT/dt_g1_balancing_plate_wise20192020/XMC/Libraries/XMCLib/inc\xmc_usic.h ****  * 2016-04-10:
  74:G:/DT/dt_g1_balancing_plate_wise20192020/XMC/Libraries/XMCLib/inc\xmc_usic.h ****  *     - Added an API to put the data into FIFO when hardware port control is enabled: XMC_USIC_CH_
  75:G:/DT/dt_g1_balancing_plate_wise20192020/XMC/Libraries/XMCLib/inc\xmc_usic.h ****  *
  76:G:/DT/dt_g1_balancing_plate_wise20192020/XMC/Libraries/XMCLib/inc\xmc_usic.h ****  * 2017-02-10:
  77:G:/DT/dt_g1_balancing_plate_wise20192020/XMC/Libraries/XMCLib/inc\xmc_usic.h ****  *     - Added XMC_USIC_CH_SetShiftDirection() to allow selection of shift direction of the data wo
  78:G:/DT/dt_g1_balancing_plate_wise20192020/XMC/Libraries/XMCLib/inc\xmc_usic.h ****  *     - Added XMC_USIC_CH_GetCaptureTimerValue() and XMC_USIC_CH_SetFractionalDivider()
  79:G:/DT/dt_g1_balancing_plate_wise20192020/XMC/Libraries/XMCLib/inc\xmc_usic.h ****  *
  80:G:/DT/dt_g1_balancing_plate_wise20192020/XMC/Libraries/XMCLib/inc\xmc_usic.h ****  * 2017-09-08:
  81:G:/DT/dt_g1_balancing_plate_wise20192020/XMC/Libraries/XMCLib/inc\xmc_usic.h ****  *     - Fixed value of macro XMC_USIC_CH_SHIFT_DIRECTION_MSB_FIRST used in XMC_USIC_CH_SetShiftDir
  82:G:/DT/dt_g1_balancing_plate_wise20192020/XMC/Libraries/XMCLib/inc\xmc_usic.h ****  *
  83:G:/DT/dt_g1_balancing_plate_wise20192020/XMC/Libraries/XMCLib/inc\xmc_usic.h ****  * 2018-09-29:
  84:G:/DT/dt_g1_balancing_plate_wise20192020/XMC/Libraries/XMCLib/inc\xmc_usic.h ****  *     - Added XMC_USIC_CH_SetBaudrateEx which uses the integer divider instead of the fractional d
  85:G:/DT/dt_g1_balancing_plate_wise20192020/XMC/Libraries/XMCLib/inc\xmc_usic.h ****  * 
  86:G:/DT/dt_g1_balancing_plate_wise20192020/XMC/Libraries/XMCLib/inc\xmc_usic.h ****  * 2019-05-07:
  87:G:/DT/dt_g1_balancing_plate_wise20192020/XMC/Libraries/XMCLib/inc\xmc_usic.h ****  *     - Added XMC_USIC_CH_GetBaudrate(), XMC_USIC_CH_GetSCLKFrequency() and XMC_USIC_CH_GetMCLKFre
  88:G:/DT/dt_g1_balancing_plate_wise20192020/XMC/Libraries/XMCLib/inc\xmc_usic.h ****  *
  89:G:/DT/dt_g1_balancing_plate_wise20192020/XMC/Libraries/XMCLib/inc\xmc_usic.h ****  * @endcond
  90:G:/DT/dt_g1_balancing_plate_wise20192020/XMC/Libraries/XMCLib/inc\xmc_usic.h ****  *
  91:G:/DT/dt_g1_balancing_plate_wise20192020/XMC/Libraries/XMCLib/inc\xmc_usic.h ****  */
  92:G:/DT/dt_g1_balancing_plate_wise20192020/XMC/Libraries/XMCLib/inc\xmc_usic.h **** 
  93:G:/DT/dt_g1_balancing_plate_wise20192020/XMC/Libraries/XMCLib/inc\xmc_usic.h **** #ifndef XMC_USIC_H
  94:G:/DT/dt_g1_balancing_plate_wise20192020/XMC/Libraries/XMCLib/inc\xmc_usic.h **** #define XMC_USIC_H
  95:G:/DT/dt_g1_balancing_plate_wise20192020/XMC/Libraries/XMCLib/inc\xmc_usic.h **** /*******************************************************************************
  96:G:/DT/dt_g1_balancing_plate_wise20192020/XMC/Libraries/XMCLib/inc\xmc_usic.h ****  * HEADER FILES
  97:G:/DT/dt_g1_balancing_plate_wise20192020/XMC/Libraries/XMCLib/inc\xmc_usic.h ****  *******************************************************************************/
  98:G:/DT/dt_g1_balancing_plate_wise20192020/XMC/Libraries/XMCLib/inc\xmc_usic.h **** 
  99:G:/DT/dt_g1_balancing_plate_wise20192020/XMC/Libraries/XMCLib/inc\xmc_usic.h **** #include "xmc_common.h"
 100:G:/DT/dt_g1_balancing_plate_wise20192020/XMC/Libraries/XMCLib/inc\xmc_usic.h **** 
 101:G:/DT/dt_g1_balancing_plate_wise20192020/XMC/Libraries/XMCLib/inc\xmc_usic.h **** /**
 102:G:/DT/dt_g1_balancing_plate_wise20192020/XMC/Libraries/XMCLib/inc\xmc_usic.h ****  * @addtogroup XMClib XMC Peripheral Library
 103:G:/DT/dt_g1_balancing_plate_wise20192020/XMC/Libraries/XMCLib/inc\xmc_usic.h ****  * @{
 104:G:/DT/dt_g1_balancing_plate_wise20192020/XMC/Libraries/XMCLib/inc\xmc_usic.h ****  */
 105:G:/DT/dt_g1_balancing_plate_wise20192020/XMC/Libraries/XMCLib/inc\xmc_usic.h **** 
 106:G:/DT/dt_g1_balancing_plate_wise20192020/XMC/Libraries/XMCLib/inc\xmc_usic.h **** /**
 107:G:/DT/dt_g1_balancing_plate_wise20192020/XMC/Libraries/XMCLib/inc\xmc_usic.h ****  * @addtogroup USIC
 108:G:/DT/dt_g1_balancing_plate_wise20192020/XMC/Libraries/XMCLib/inc\xmc_usic.h ****  * @brief Universal Serial Interface Channel(USIC) driver for serial communication.
 109:G:/DT/dt_g1_balancing_plate_wise20192020/XMC/Libraries/XMCLib/inc\xmc_usic.h ****  *
 110:G:/DT/dt_g1_balancing_plate_wise20192020/XMC/Libraries/XMCLib/inc\xmc_usic.h ****  * The Universal Serial Interface Channel(USIC) module is a flexible interface module
 111:G:/DT/dt_g1_balancing_plate_wise20192020/XMC/Libraries/XMCLib/inc\xmc_usic.h ****  * covering several serial communication protocols. A USIC module contains two
 112:G:/DT/dt_g1_balancing_plate_wise20192020/XMC/Libraries/XMCLib/inc\xmc_usic.h ****  * independent communication channels named USICx_CH0 and USICx_CH1, with x
 113:G:/DT/dt_g1_balancing_plate_wise20192020/XMC/Libraries/XMCLib/inc\xmc_usic.h ****  * being the number of the USIC module. The user can program, during run-time, which protocol will 
 114:G:/DT/dt_g1_balancing_plate_wise20192020/XMC/Libraries/XMCLib/inc\xmc_usic.h ****  * by each communication channel and which pins are used.
 115:G:/DT/dt_g1_balancing_plate_wise20192020/XMC/Libraries/XMCLib/inc\xmc_usic.h ****  * The driver provides APIs, configuration structures and enumerations to configure common features
 116:G:/DT/dt_g1_balancing_plate_wise20192020/XMC/Libraries/XMCLib/inc\xmc_usic.h ****  * communication protocols.
 117:G:/DT/dt_g1_balancing_plate_wise20192020/XMC/Libraries/XMCLib/inc\xmc_usic.h ****  * 
 118:G:/DT/dt_g1_balancing_plate_wise20192020/XMC/Libraries/XMCLib/inc\xmc_usic.h ****  * USIC driver features:
 119:G:/DT/dt_g1_balancing_plate_wise20192020/XMC/Libraries/XMCLib/inc\xmc_usic.h ****  * -# Allows configuration of FIFO for transmit and receive functions.
 120:G:/DT/dt_g1_balancing_plate_wise20192020/XMC/Libraries/XMCLib/inc\xmc_usic.h ****  * -# Provides a structure type XMC_USIC_CH_t to represent the USIC channel registers in a programm
 121:G:/DT/dt_g1_balancing_plate_wise20192020/XMC/Libraries/XMCLib/inc\xmc_usic.h ****  friendly format.
 122:G:/DT/dt_g1_balancing_plate_wise20192020/XMC/Libraries/XMCLib/inc\xmc_usic.h ****  * -# Allows configuration of automatic update for frame length, word length, slave select or slave
 123:G:/DT/dt_g1_balancing_plate_wise20192020/XMC/Libraries/XMCLib/inc\xmc_usic.h ****  * -# Allows transmission of data to FIFO using XMC_USIC_CH_TXFIFO_PutData() and XMC_USIC_CH_TXFIFO
 124:G:/DT/dt_g1_balancing_plate_wise20192020/XMC/Libraries/XMCLib/inc\xmc_usic.h ****  * -# Allows reading of received data in FIFO using XMC_USIC_CH_RXFIFO_GetData()
 125:G:/DT/dt_g1_balancing_plate_wise20192020/XMC/Libraries/XMCLib/inc\xmc_usic.h ****  * -# Allows configuration of baudrate using XMC_USIC_CH_SetBaudrate()
 126:G:/DT/dt_g1_balancing_plate_wise20192020/XMC/Libraries/XMCLib/inc\xmc_usic.h ****  * -# Provides API to trigger interrupts using XMC_USIC_CH_TriggerServiceRequest()
 127:G:/DT/dt_g1_balancing_plate_wise20192020/XMC/Libraries/XMCLib/inc\xmc_usic.h ****  * @{
 128:G:/DT/dt_g1_balancing_plate_wise20192020/XMC/Libraries/XMCLib/inc\xmc_usic.h ****  */
 129:G:/DT/dt_g1_balancing_plate_wise20192020/XMC/Libraries/XMCLib/inc\xmc_usic.h **** 
 130:G:/DT/dt_g1_balancing_plate_wise20192020/XMC/Libraries/XMCLib/inc\xmc_usic.h **** /*******************************************************************************
 131:G:/DT/dt_g1_balancing_plate_wise20192020/XMC/Libraries/XMCLib/inc\xmc_usic.h ****  * MACROS
 132:G:/DT/dt_g1_balancing_plate_wise20192020/XMC/Libraries/XMCLib/inc\xmc_usic.h ****  *******************************************************************************/
 133:G:/DT/dt_g1_balancing_plate_wise20192020/XMC/Libraries/XMCLib/inc\xmc_usic.h **** 
 134:G:/DT/dt_g1_balancing_plate_wise20192020/XMC/Libraries/XMCLib/inc\xmc_usic.h **** #define XMC_USIC0 ((XMC_USIC_t *)USIC0_BASE)			/**< USIC0 module base address */
 135:G:/DT/dt_g1_balancing_plate_wise20192020/XMC/Libraries/XMCLib/inc\xmc_usic.h **** #define XMC_USIC0_CH0 ((XMC_USIC_CH_t *)USIC0_CH0_BASE)	/**< USIC0 channel 0 base address */
 136:G:/DT/dt_g1_balancing_plate_wise20192020/XMC/Libraries/XMCLib/inc\xmc_usic.h **** #define XMC_USIC0_CH1 ((XMC_USIC_CH_t *)USIC0_CH1_BASE)	/**< USIC0 channel 1 base address */
 137:G:/DT/dt_g1_balancing_plate_wise20192020/XMC/Libraries/XMCLib/inc\xmc_usic.h **** 
 138:G:/DT/dt_g1_balancing_plate_wise20192020/XMC/Libraries/XMCLib/inc\xmc_usic.h **** #if defined(USIC1)
 139:G:/DT/dt_g1_balancing_plate_wise20192020/XMC/Libraries/XMCLib/inc\xmc_usic.h **** #define XMC_USIC1 ((XMC_USIC_t *)USIC1_BASE)			/**< USIC1 module base address */
 140:G:/DT/dt_g1_balancing_plate_wise20192020/XMC/Libraries/XMCLib/inc\xmc_usic.h **** #define XMC_USIC1_CH0 ((XMC_USIC_CH_t *)USIC1_CH0_BASE)	/**< USIC1 channel 0 base address */
 141:G:/DT/dt_g1_balancing_plate_wise20192020/XMC/Libraries/XMCLib/inc\xmc_usic.h **** #define XMC_USIC1_CH1 ((XMC_USIC_CH_t *)USIC1_CH1_BASE)	/**< USIC1 channel 1 base address */
 142:G:/DT/dt_g1_balancing_plate_wise20192020/XMC/Libraries/XMCLib/inc\xmc_usic.h **** #endif
 143:G:/DT/dt_g1_balancing_plate_wise20192020/XMC/Libraries/XMCLib/inc\xmc_usic.h **** 
 144:G:/DT/dt_g1_balancing_plate_wise20192020/XMC/Libraries/XMCLib/inc\xmc_usic.h **** #if defined(USIC2)
 145:G:/DT/dt_g1_balancing_plate_wise20192020/XMC/Libraries/XMCLib/inc\xmc_usic.h **** #define XMC_USIC2 ((XMC_USIC_t *)USIC2_BASE)			/**< USIC2 module base address */
 146:G:/DT/dt_g1_balancing_plate_wise20192020/XMC/Libraries/XMCLib/inc\xmc_usic.h **** #define XMC_USIC2_CH0 ((XMC_USIC_CH_t *)USIC2_CH0_BASE)	/**< USIC2 channel 0 base address */
 147:G:/DT/dt_g1_balancing_plate_wise20192020/XMC/Libraries/XMCLib/inc\xmc_usic.h **** #define XMC_USIC2_CH1 ((XMC_USIC_CH_t *)USIC2_CH1_BASE)	/**< USIC2 channel 1 base address */
 148:G:/DT/dt_g1_balancing_plate_wise20192020/XMC/Libraries/XMCLib/inc\xmc_usic.h **** #endif
 149:G:/DT/dt_g1_balancing_plate_wise20192020/XMC/Libraries/XMCLib/inc\xmc_usic.h **** 
 150:G:/DT/dt_g1_balancing_plate_wise20192020/XMC/Libraries/XMCLib/inc\xmc_usic.h **** #define USIC_CH_DXCR_DSEL_Msk  USIC_CH_DX0CR_DSEL_Msk   /**< Common mask for DSEL bitfield mask in 
 151:G:/DT/dt_g1_balancing_plate_wise20192020/XMC/Libraries/XMCLib/inc\xmc_usic.h **** #define USIC_CH_DXCR_DSEL_Pos  USIC_CH_DX0CR_DSEL_Pos   /**< Common mask for DSEL bitfield position
 152:G:/DT/dt_g1_balancing_plate_wise20192020/XMC/Libraries/XMCLib/inc\xmc_usic.h **** #define USIC_CH_DXCR_SFSEL_Pos USIC_CH_DX0CR_SFSEL_Pos  /**< Common mask for SFSEL bitfield positio
 153:G:/DT/dt_g1_balancing_plate_wise20192020/XMC/Libraries/XMCLib/inc\xmc_usic.h **** #define USIC_CH_DXCR_SFSEL_Msk USIC_CH_DX0CR_SFSEL_Msk  /**< Common mask for SFSEL bitfield mask in
 154:G:/DT/dt_g1_balancing_plate_wise20192020/XMC/Libraries/XMCLib/inc\xmc_usic.h **** #define USIC_CH_DXCR_DPOL_Msk  USIC_CH_DX0CR_DPOL_Msk   /**< Common mask for DPOL bitfield mask in 
 155:G:/DT/dt_g1_balancing_plate_wise20192020/XMC/Libraries/XMCLib/inc\xmc_usic.h **** #define USIC_CH_DXCR_DFEN_Msk  USIC_CH_DX0CR_DFEN_Msk   /**< Common mask for DFEN bitfield mask in 
 156:G:/DT/dt_g1_balancing_plate_wise20192020/XMC/Libraries/XMCLib/inc\xmc_usic.h **** #define USIC_CH_DXCR_DSEN_Msk  USIC_CH_DX0CR_DSEN_Msk   /**< Common mask for DSEN bitfield mask in 
 157:G:/DT/dt_g1_balancing_plate_wise20192020/XMC/Libraries/XMCLib/inc\xmc_usic.h **** #define USIC_CH_DXCR_CM_Pos    USIC_CH_DX0CR_CM_Pos     /**< Common mask for CM bitfield position i
 158:G:/DT/dt_g1_balancing_plate_wise20192020/XMC/Libraries/XMCLib/inc\xmc_usic.h **** #define USIC_CH_DXCR_CM_Msk    USIC_CH_DX0CR_CM_Msk     /**< Common mask for CM bitfield mask in DX
 159:G:/DT/dt_g1_balancing_plate_wise20192020/XMC/Libraries/XMCLib/inc\xmc_usic.h **** #define USIC_CH_DXCR_INSW_Msk  USIC_CH_DX0CR_INSW_Msk   /**< Common mask for INSW bitfield mask in 
 160:G:/DT/dt_g1_balancing_plate_wise20192020/XMC/Libraries/XMCLib/inc\xmc_usic.h **** #define USIC_CH_DXCR_INSW_pos  USIC_CH_DX0CR_INSW_Pos   /**< Common mask for INSW bitfield position
 161:G:/DT/dt_g1_balancing_plate_wise20192020/XMC/Libraries/XMCLib/inc\xmc_usic.h **** 
 162:G:/DT/dt_g1_balancing_plate_wise20192020/XMC/Libraries/XMCLib/inc\xmc_usic.h **** #if UC_FAMILY == XMC1
 163:G:/DT/dt_g1_balancing_plate_wise20192020/XMC/Libraries/XMCLib/inc\xmc_usic.h ****  #include "xmc1_usic_map.h"
 164:G:/DT/dt_g1_balancing_plate_wise20192020/XMC/Libraries/XMCLib/inc\xmc_usic.h **** #endif
 165:G:/DT/dt_g1_balancing_plate_wise20192020/XMC/Libraries/XMCLib/inc\xmc_usic.h **** 
 166:G:/DT/dt_g1_balancing_plate_wise20192020/XMC/Libraries/XMCLib/inc\xmc_usic.h **** #if UC_FAMILY == XMC4
 167:G:/DT/dt_g1_balancing_plate_wise20192020/XMC/Libraries/XMCLib/inc\xmc_usic.h ****  #include "xmc4_usic_map.h"
 168:G:/DT/dt_g1_balancing_plate_wise20192020/XMC/Libraries/XMCLib/inc\xmc_usic.h **** #endif
 169:G:/DT/dt_g1_balancing_plate_wise20192020/XMC/Libraries/XMCLib/inc\xmc_usic.h **** 
 170:G:/DT/dt_g1_balancing_plate_wise20192020/XMC/Libraries/XMCLib/inc\xmc_usic.h **** /*******************************************************************************
 171:G:/DT/dt_g1_balancing_plate_wise20192020/XMC/Libraries/XMCLib/inc\xmc_usic.h ****  * ENUMS
 172:G:/DT/dt_g1_balancing_plate_wise20192020/XMC/Libraries/XMCLib/inc\xmc_usic.h ****  *******************************************************************************/
 173:G:/DT/dt_g1_balancing_plate_wise20192020/XMC/Libraries/XMCLib/inc\xmc_usic.h **** 
 174:G:/DT/dt_g1_balancing_plate_wise20192020/XMC/Libraries/XMCLib/inc\xmc_usic.h **** /**
 175:G:/DT/dt_g1_balancing_plate_wise20192020/XMC/Libraries/XMCLib/inc\xmc_usic.h ****  * USIC channel driver status
 176:G:/DT/dt_g1_balancing_plate_wise20192020/XMC/Libraries/XMCLib/inc\xmc_usic.h ****  */
 177:G:/DT/dt_g1_balancing_plate_wise20192020/XMC/Libraries/XMCLib/inc\xmc_usic.h **** typedef enum XMC_USIC_CH_STATUS
 178:G:/DT/dt_g1_balancing_plate_wise20192020/XMC/Libraries/XMCLib/inc\xmc_usic.h **** {
 179:G:/DT/dt_g1_balancing_plate_wise20192020/XMC/Libraries/XMCLib/inc\xmc_usic.h ****   XMC_USIC_CH_STATUS_OK,    /**< USIC driver status : OK */
 180:G:/DT/dt_g1_balancing_plate_wise20192020/XMC/Libraries/XMCLib/inc\xmc_usic.h ****   XMC_USIC_CH_STATUS_ERROR, /**< USIC driver status : ERROR */
 181:G:/DT/dt_g1_balancing_plate_wise20192020/XMC/Libraries/XMCLib/inc\xmc_usic.h ****   XMC_USIC_CH_STATUS_BUSY   /**< USIC driver status : BUSY */
 182:G:/DT/dt_g1_balancing_plate_wise20192020/XMC/Libraries/XMCLib/inc\xmc_usic.h **** } XMC_USIC_CH_STATUS_t;
 183:G:/DT/dt_g1_balancing_plate_wise20192020/XMC/Libraries/XMCLib/inc\xmc_usic.h **** 
 184:G:/DT/dt_g1_balancing_plate_wise20192020/XMC/Libraries/XMCLib/inc\xmc_usic.h **** /**
 185:G:/DT/dt_g1_balancing_plate_wise20192020/XMC/Libraries/XMCLib/inc\xmc_usic.h **** * USIC channel kernel mode
 186:G:/DT/dt_g1_balancing_plate_wise20192020/XMC/Libraries/XMCLib/inc\xmc_usic.h **** */
 187:G:/DT/dt_g1_balancing_plate_wise20192020/XMC/Libraries/XMCLib/inc\xmc_usic.h **** typedef enum XMC_USIC_CH_KERNEL_MODE
 188:G:/DT/dt_g1_balancing_plate_wise20192020/XMC/Libraries/XMCLib/inc\xmc_usic.h **** {
 189:G:/DT/dt_g1_balancing_plate_wise20192020/XMC/Libraries/XMCLib/inc\xmc_usic.h ****   XMC_USIC_CH_KERNEL_MODE_RUN_0  = 0x0UL,  /**< Run mode 0 (transmission and reception possible)*/
 190:G:/DT/dt_g1_balancing_plate_wise20192020/XMC/Libraries/XMCLib/inc\xmc_usic.h ****   XMC_USIC_CH_KERNEL_MODE_RUN_1  = 0x1UL << USIC_CH_KSCFG_NOMCFG_Pos,  /**< Run mode 1 (transmissio
 191:G:/DT/dt_g1_balancing_plate_wise20192020/XMC/Libraries/XMCLib/inc\xmc_usic.h ****   XMC_USIC_CH_KERNEL_MODE_STOP_0 = 0x2UL << USIC_CH_KSCFG_NOMCFG_Pos,  /**< Stop mode 0 (no transmi
 192:G:/DT/dt_g1_balancing_plate_wise20192020/XMC/Libraries/XMCLib/inc\xmc_usic.h ****   XMC_USIC_CH_KERNEL_MODE_STOP_1 = 0x3UL << USIC_CH_KSCFG_NOMCFG_Pos   /**< Stop mode 1 (both trans
 193:G:/DT/dt_g1_balancing_plate_wise20192020/XMC/Libraries/XMCLib/inc\xmc_usic.h **** } XMC_USIC_CH_KERNEL_MODE_t;
 194:G:/DT/dt_g1_balancing_plate_wise20192020/XMC/Libraries/XMCLib/inc\xmc_usic.h **** 
 195:G:/DT/dt_g1_balancing_plate_wise20192020/XMC/Libraries/XMCLib/inc\xmc_usic.h **** /**
 196:G:/DT/dt_g1_balancing_plate_wise20192020/XMC/Libraries/XMCLib/inc\xmc_usic.h ****  * USIC channel operating mode
 197:G:/DT/dt_g1_balancing_plate_wise20192020/XMC/Libraries/XMCLib/inc\xmc_usic.h ****  */
 198:G:/DT/dt_g1_balancing_plate_wise20192020/XMC/Libraries/XMCLib/inc\xmc_usic.h **** typedef enum XMC_USIC_CH_OPERATING_MODE
 199:G:/DT/dt_g1_balancing_plate_wise20192020/XMC/Libraries/XMCLib/inc\xmc_usic.h **** {
 200:G:/DT/dt_g1_balancing_plate_wise20192020/XMC/Libraries/XMCLib/inc\xmc_usic.h ****   XMC_USIC_CH_OPERATING_MODE_IDLE = 0x0UL, /**< USIC channel idle */
 201:G:/DT/dt_g1_balancing_plate_wise20192020/XMC/Libraries/XMCLib/inc\xmc_usic.h ****   XMC_USIC_CH_OPERATING_MODE_SPI  = 0x1UL << USIC_CH_CCR_MODE_Pos, /**< SPI mode */
 202:G:/DT/dt_g1_balancing_plate_wise20192020/XMC/Libraries/XMCLib/inc\xmc_usic.h ****   XMC_USIC_CH_OPERATING_MODE_UART = 0x2UL << USIC_CH_CCR_MODE_Pos, /**< UART mode */
 203:G:/DT/dt_g1_balancing_plate_wise20192020/XMC/Libraries/XMCLib/inc\xmc_usic.h ****   XMC_USIC_CH_OPERATING_MODE_I2S  = 0x3UL << USIC_CH_CCR_MODE_Pos, /**< I2S mode */
 204:G:/DT/dt_g1_balancing_plate_wise20192020/XMC/Libraries/XMCLib/inc\xmc_usic.h ****   XMC_USIC_CH_OPERATING_MODE_I2C  = 0x4UL << USIC_CH_CCR_MODE_Pos  /**< I2C mode */
 205:G:/DT/dt_g1_balancing_plate_wise20192020/XMC/Libraries/XMCLib/inc\xmc_usic.h **** } XMC_USIC_CH_OPERATING_MODE_t;
 206:G:/DT/dt_g1_balancing_plate_wise20192020/XMC/Libraries/XMCLib/inc\xmc_usic.h **** 
 207:G:/DT/dt_g1_balancing_plate_wise20192020/XMC/Libraries/XMCLib/inc\xmc_usic.h **** /**
 208:G:/DT/dt_g1_balancing_plate_wise20192020/XMC/Libraries/XMCLib/inc\xmc_usic.h ****  * USIC channel inputs
 209:G:/DT/dt_g1_balancing_plate_wise20192020/XMC/Libraries/XMCLib/inc\xmc_usic.h ****  */
 210:G:/DT/dt_g1_balancing_plate_wise20192020/XMC/Libraries/XMCLib/inc\xmc_usic.h **** typedef enum XMC_USIC_CH_INPUT
 211:G:/DT/dt_g1_balancing_plate_wise20192020/XMC/Libraries/XMCLib/inc\xmc_usic.h **** {
 212:G:/DT/dt_g1_balancing_plate_wise20192020/XMC/Libraries/XMCLib/inc\xmc_usic.h ****   XMC_USIC_CH_INPUT_DX0, /**< DX0 input */
 213:G:/DT/dt_g1_balancing_plate_wise20192020/XMC/Libraries/XMCLib/inc\xmc_usic.h ****   XMC_USIC_CH_INPUT_DX1, /**< DX1 input */
 214:G:/DT/dt_g1_balancing_plate_wise20192020/XMC/Libraries/XMCLib/inc\xmc_usic.h ****   XMC_USIC_CH_INPUT_DX2, /**< DX2 input */
 215:G:/DT/dt_g1_balancing_plate_wise20192020/XMC/Libraries/XMCLib/inc\xmc_usic.h ****   XMC_USIC_CH_INPUT_DX3, /**< DX3 input */
 216:G:/DT/dt_g1_balancing_plate_wise20192020/XMC/Libraries/XMCLib/inc\xmc_usic.h ****   XMC_USIC_CH_INPUT_DX4, /**< DX4 input */
 217:G:/DT/dt_g1_balancing_plate_wise20192020/XMC/Libraries/XMCLib/inc\xmc_usic.h ****   XMC_USIC_CH_INPUT_DX5  /**< DX5 input */
 218:G:/DT/dt_g1_balancing_plate_wise20192020/XMC/Libraries/XMCLib/inc\xmc_usic.h **** } XMC_USIC_CH_INPUT_t;
 219:G:/DT/dt_g1_balancing_plate_wise20192020/XMC/Libraries/XMCLib/inc\xmc_usic.h **** 
 220:G:/DT/dt_g1_balancing_plate_wise20192020/XMC/Libraries/XMCLib/inc\xmc_usic.h **** /**
 221:G:/DT/dt_g1_balancing_plate_wise20192020/XMC/Libraries/XMCLib/inc\xmc_usic.h ****  * USIC channel input source sampling frequency
 222:G:/DT/dt_g1_balancing_plate_wise20192020/XMC/Libraries/XMCLib/inc\xmc_usic.h ****  */
 223:G:/DT/dt_g1_balancing_plate_wise20192020/XMC/Libraries/XMCLib/inc\xmc_usic.h **** typedef enum XMC_USIC_CH_INPUT_SAMPLING_FREQ
 224:G:/DT/dt_g1_balancing_plate_wise20192020/XMC/Libraries/XMCLib/inc\xmc_usic.h **** {
 225:G:/DT/dt_g1_balancing_plate_wise20192020/XMC/Libraries/XMCLib/inc\xmc_usic.h ****   XMC_USIC_CH_INPUT_SAMPLING_FREQ_FPERIPH            = 0x0UL, /**< Use fperiph frequency for input 
 226:G:/DT/dt_g1_balancing_plate_wise20192020/XMC/Libraries/XMCLib/inc\xmc_usic.h ****   XMC_USIC_CH_INPUT_SAMPLING_FREQ_FRACTIONAL_DIVIDER = 0x1UL << USIC_CH_DXCR_SFSEL_Pos  /**< Use fF
 227:G:/DT/dt_g1_balancing_plate_wise20192020/XMC/Libraries/XMCLib/inc\xmc_usic.h **** } XMC_USIC_CH_INPUT_SAMPLING_FREQ_t;
 228:G:/DT/dt_g1_balancing_plate_wise20192020/XMC/Libraries/XMCLib/inc\xmc_usic.h **** 
 229:G:/DT/dt_g1_balancing_plate_wise20192020/XMC/Libraries/XMCLib/inc\xmc_usic.h **** /**
 230:G:/DT/dt_g1_balancing_plate_wise20192020/XMC/Libraries/XMCLib/inc\xmc_usic.h ****  * USIC channel input combination mode
 231:G:/DT/dt_g1_balancing_plate_wise20192020/XMC/Libraries/XMCLib/inc\xmc_usic.h ****  */
 232:G:/DT/dt_g1_balancing_plate_wise20192020/XMC/Libraries/XMCLib/inc\xmc_usic.h **** typedef enum XMC_USIC_CH_INPUT_COMBINATION_MODE
 233:G:/DT/dt_g1_balancing_plate_wise20192020/XMC/Libraries/XMCLib/inc\xmc_usic.h **** {
 234:G:/DT/dt_g1_balancing_plate_wise20192020/XMC/Libraries/XMCLib/inc\xmc_usic.h ****   XMC_USIC_CH_INPUT_COMBINATION_MODE_TRIGGER_DISABLED = 0x0UL, /**< The trigger activation is disab
 235:G:/DT/dt_g1_balancing_plate_wise20192020/XMC/Libraries/XMCLib/inc\xmc_usic.h ****   XMC_USIC_CH_INPUT_COMBINATION_MODE_RISING_EDGE      = 0x1UL, /**< A rising edge activates DXnT*/
 236:G:/DT/dt_g1_balancing_plate_wise20192020/XMC/Libraries/XMCLib/inc\xmc_usic.h ****   XMC_USIC_CH_INPUT_COMBINATION_MODE_FALLING_EDGE     = 0x2UL, /**< A falling edge activates DXnT*/
 237:G:/DT/dt_g1_balancing_plate_wise20192020/XMC/Libraries/XMCLib/inc\xmc_usic.h ****   XMC_USIC_CH_INPUT_COMBINATION_MODE_BOTH_EDGES       = 0x3UL, /**< Both edges activate DXnT*/
 238:G:/DT/dt_g1_balancing_plate_wise20192020/XMC/Libraries/XMCLib/inc\xmc_usic.h **** } XMC_USIC_CH_INPUT_COMBINATION_MODE_t;
 239:G:/DT/dt_g1_balancing_plate_wise20192020/XMC/Libraries/XMCLib/inc\xmc_usic.h **** 
 240:G:/DT/dt_g1_balancing_plate_wise20192020/XMC/Libraries/XMCLib/inc\xmc_usic.h **** /**
 241:G:/DT/dt_g1_balancing_plate_wise20192020/XMC/Libraries/XMCLib/inc\xmc_usic.h ****  * USIC channel data transmission start modes.
 242:G:/DT/dt_g1_balancing_plate_wise20192020/XMC/Libraries/XMCLib/inc\xmc_usic.h ****  * Data shifted out of the transmit pin depends on the value configured for the
 243:G:/DT/dt_g1_balancing_plate_wise20192020/XMC/Libraries/XMCLib/inc\xmc_usic.h ****  * TDEN bitfield of the TCSR register. Following enum values are used for configuring
 244:G:/DT/dt_g1_balancing_plate_wise20192020/XMC/Libraries/XMCLib/inc\xmc_usic.h ****  * the TCSR->TDEN bitfield.
 245:G:/DT/dt_g1_balancing_plate_wise20192020/XMC/Libraries/XMCLib/inc\xmc_usic.h ****  */
 246:G:/DT/dt_g1_balancing_plate_wise20192020/XMC/Libraries/XMCLib/inc\xmc_usic.h **** typedef enum XMC_USIC_CH_START_TRANSMISION_MODE
 247:G:/DT/dt_g1_balancing_plate_wise20192020/XMC/Libraries/XMCLib/inc\xmc_usic.h **** {
 248:G:/DT/dt_g1_balancing_plate_wise20192020/XMC/Libraries/XMCLib/inc\xmc_usic.h ****   XMC_USIC_CH_START_TRANSMISION_DISABLED      = 0x0U, /**< Passive data level is sent out on transm
 249:G:/DT/dt_g1_balancing_plate_wise20192020/XMC/Libraries/XMCLib/inc\xmc_usic.h ****   XMC_USIC_CH_START_TRANSMISION_ON_TDV        = 0x1UL << USIC_CH_TCSR_TDEN_Pos, /**< Transmission o
 250:G:/DT/dt_g1_balancing_plate_wise20192020/XMC/Libraries/XMCLib/inc\xmc_usic.h ****   XMC_USIC_CH_START_TRANSMISION_ON_TDV_DX2S_0 = 0x2UL << USIC_CH_TCSR_TDEN_Pos, /**< Transmission o
 251:G:/DT/dt_g1_balancing_plate_wise20192020/XMC/Libraries/XMCLib/inc\xmc_usic.h ****   XMC_USIC_CH_START_TRANSMISION_ON_TDV_DX2S_1 = 0x3UL << USIC_CH_TCSR_TDEN_Pos  /**< Transmission o
 252:G:/DT/dt_g1_balancing_plate_wise20192020/XMC/Libraries/XMCLib/inc\xmc_usic.h **** } XMC_USIC_CH_START_TRANSMISION_MODE_t;
 253:G:/DT/dt_g1_balancing_plate_wise20192020/XMC/Libraries/XMCLib/inc\xmc_usic.h **** 
 254:G:/DT/dt_g1_balancing_plate_wise20192020/XMC/Libraries/XMCLib/inc\xmc_usic.h **** /**
 255:G:/DT/dt_g1_balancing_plate_wise20192020/XMC/Libraries/XMCLib/inc\xmc_usic.h ****  * USIC channel interrupt node pointers
 256:G:/DT/dt_g1_balancing_plate_wise20192020/XMC/Libraries/XMCLib/inc\xmc_usic.h ****  */
 257:G:/DT/dt_g1_balancing_plate_wise20192020/XMC/Libraries/XMCLib/inc\xmc_usic.h **** typedef enum XMC_USIC_CH_INTERRUPT_NODE_POINTER
 258:G:/DT/dt_g1_balancing_plate_wise20192020/XMC/Libraries/XMCLib/inc\xmc_usic.h **** {
 259:G:/DT/dt_g1_balancing_plate_wise20192020/XMC/Libraries/XMCLib/inc\xmc_usic.h ****   XMC_USIC_CH_INTERRUPT_NODE_POINTER_TRANSMIT_SHIFT      = USIC_CH_INPR_TSINP_Pos, /**< Node pointe
 260:G:/DT/dt_g1_balancing_plate_wise20192020/XMC/Libraries/XMCLib/inc\xmc_usic.h ****   XMC_USIC_CH_INTERRUPT_NODE_POINTER_TRANSMIT_BUFFER     = USIC_CH_INPR_TBINP_Pos, /**< Node pointe
 261:G:/DT/dt_g1_balancing_plate_wise20192020/XMC/Libraries/XMCLib/inc\xmc_usic.h ****   XMC_USIC_CH_INTERRUPT_NODE_POINTER_RECEIVE             = USIC_CH_INPR_RINP_Pos,  /**< Node pointe
 262:G:/DT/dt_g1_balancing_plate_wise20192020/XMC/Libraries/XMCLib/inc\xmc_usic.h ****   XMC_USIC_CH_INTERRUPT_NODE_POINTER_ALTERNATE_RECEIVE   = USIC_CH_INPR_AINP_Pos,  /**< Node pointe
 263:G:/DT/dt_g1_balancing_plate_wise20192020/XMC/Libraries/XMCLib/inc\xmc_usic.h ****   XMC_USIC_CH_INTERRUPT_NODE_POINTER_PROTOCOL            = USIC_CH_INPR_PINP_Pos   /**< Node pointe
 264:G:/DT/dt_g1_balancing_plate_wise20192020/XMC/Libraries/XMCLib/inc\xmc_usic.h **** } XMC_USIC_CH_INTERRUPT_NODE_POINTER_t;
 265:G:/DT/dt_g1_balancing_plate_wise20192020/XMC/Libraries/XMCLib/inc\xmc_usic.h **** 
 266:G:/DT/dt_g1_balancing_plate_wise20192020/XMC/Libraries/XMCLib/inc\xmc_usic.h **** /**
 267:G:/DT/dt_g1_balancing_plate_wise20192020/XMC/Libraries/XMCLib/inc\xmc_usic.h ****  * USIC channel events
 268:G:/DT/dt_g1_balancing_plate_wise20192020/XMC/Libraries/XMCLib/inc\xmc_usic.h ****  */
 269:G:/DT/dt_g1_balancing_plate_wise20192020/XMC/Libraries/XMCLib/inc\xmc_usic.h **** typedef enum XMC_USIC_CH_EVENT
 270:G:/DT/dt_g1_balancing_plate_wise20192020/XMC/Libraries/XMCLib/inc\xmc_usic.h **** {
 271:G:/DT/dt_g1_balancing_plate_wise20192020/XMC/Libraries/XMCLib/inc\xmc_usic.h ****   XMC_USIC_CH_EVENT_RECEIVE_START       = USIC_CH_CCR_RSIEN_Msk, /**< Receive start event */
 272:G:/DT/dt_g1_balancing_plate_wise20192020/XMC/Libraries/XMCLib/inc\xmc_usic.h ****   XMC_USIC_CH_EVENT_DATA_LOST           = USIC_CH_CCR_DLIEN_Msk, /**< Data lost event */
 273:G:/DT/dt_g1_balancing_plate_wise20192020/XMC/Libraries/XMCLib/inc\xmc_usic.h ****   XMC_USIC_CH_EVENT_TRANSMIT_SHIFT      = USIC_CH_CCR_TSIEN_Msk, /**< Transmit shift event */
 274:G:/DT/dt_g1_balancing_plate_wise20192020/XMC/Libraries/XMCLib/inc\xmc_usic.h ****   XMC_USIC_CH_EVENT_TRANSMIT_BUFFER     = USIC_CH_CCR_TBIEN_Msk, /**< Transmit buffer event */
 275:G:/DT/dt_g1_balancing_plate_wise20192020/XMC/Libraries/XMCLib/inc\xmc_usic.h ****   XMC_USIC_CH_EVENT_STANDARD_RECEIVE    = USIC_CH_CCR_RIEN_Msk,  /**< Receive event */
 276:G:/DT/dt_g1_balancing_plate_wise20192020/XMC/Libraries/XMCLib/inc\xmc_usic.h ****   XMC_USIC_CH_EVENT_ALTERNATIVE_RECEIVE = USIC_CH_CCR_AIEN_Msk,  /**< Alternate receive event */
 277:G:/DT/dt_g1_balancing_plate_wise20192020/XMC/Libraries/XMCLib/inc\xmc_usic.h ****   XMC_USIC_CH_EVENT_BAUD_RATE_GENERATOR = USIC_CH_CCR_BRGIEN_Msk /**< Baudrate generator event */
 278:G:/DT/dt_g1_balancing_plate_wise20192020/XMC/Libraries/XMCLib/inc\xmc_usic.h **** } XMC_USIC_CH_EVENT_t;
 279:G:/DT/dt_g1_balancing_plate_wise20192020/XMC/Libraries/XMCLib/inc\xmc_usic.h **** 
 280:G:/DT/dt_g1_balancing_plate_wise20192020/XMC/Libraries/XMCLib/inc\xmc_usic.h **** /**
 281:G:/DT/dt_g1_balancing_plate_wise20192020/XMC/Libraries/XMCLib/inc\xmc_usic.h **** * USIC channel parity mode
 282:G:/DT/dt_g1_balancing_plate_wise20192020/XMC/Libraries/XMCLib/inc\xmc_usic.h **** */
 283:G:/DT/dt_g1_balancing_plate_wise20192020/XMC/Libraries/XMCLib/inc\xmc_usic.h **** typedef enum XMC_USIC_CH_PARITY_MODE
 284:G:/DT/dt_g1_balancing_plate_wise20192020/XMC/Libraries/XMCLib/inc\xmc_usic.h **** {
 285:G:/DT/dt_g1_balancing_plate_wise20192020/XMC/Libraries/XMCLib/inc\xmc_usic.h ****   XMC_USIC_CH_PARITY_MODE_NONE     = 0x0UL,  /**< Disable parity mode */
 286:G:/DT/dt_g1_balancing_plate_wise20192020/XMC/Libraries/XMCLib/inc\xmc_usic.h ****   XMC_USIC_CH_PARITY_MODE_EVEN     = 0x2UL << USIC_CH_CCR_PM_Pos,  /**< Enable even parity mode */
 287:G:/DT/dt_g1_balancing_plate_wise20192020/XMC/Libraries/XMCLib/inc\xmc_usic.h ****   XMC_USIC_CH_PARITY_MODE_ODD      = 0x3UL << USIC_CH_CCR_PM_Pos   /**< Enable odd parity mode */
 288:G:/DT/dt_g1_balancing_plate_wise20192020/XMC/Libraries/XMCLib/inc\xmc_usic.h **** } XMC_USIC_CH_PARITY_MODE_t;
 289:G:/DT/dt_g1_balancing_plate_wise20192020/XMC/Libraries/XMCLib/inc\xmc_usic.h **** 
 290:G:/DT/dt_g1_balancing_plate_wise20192020/XMC/Libraries/XMCLib/inc\xmc_usic.h **** /**
 291:G:/DT/dt_g1_balancing_plate_wise20192020/XMC/Libraries/XMCLib/inc\xmc_usic.h **** * USIC channel data output mode
 292:G:/DT/dt_g1_balancing_plate_wise20192020/XMC/Libraries/XMCLib/inc\xmc_usic.h **** */
 293:G:/DT/dt_g1_balancing_plate_wise20192020/XMC/Libraries/XMCLib/inc\xmc_usic.h **** typedef enum XMC_USIC_CH_DATA_OUTPUT_MODE
 294:G:/DT/dt_g1_balancing_plate_wise20192020/XMC/Libraries/XMCLib/inc\xmc_usic.h **** {
 295:G:/DT/dt_g1_balancing_plate_wise20192020/XMC/Libraries/XMCLib/inc\xmc_usic.h ****   XMC_USIC_CH_DATA_OUTPUT_MODE_NORMAL   = 0x0UL,  /**< Data output normal mode */
 296:G:/DT/dt_g1_balancing_plate_wise20192020/XMC/Libraries/XMCLib/inc\xmc_usic.h ****   XMC_USIC_CH_DATA_OUTPUT_MODE_INVERTED = 0x1UL << USIC_CH_SCTR_DOCFG_Pos   /**< Data output invert
 297:G:/DT/dt_g1_balancing_plate_wise20192020/XMC/Libraries/XMCLib/inc\xmc_usic.h **** } XMC_USIC_CH_DATA_OUTPUT_MODE_t;
 298:G:/DT/dt_g1_balancing_plate_wise20192020/XMC/Libraries/XMCLib/inc\xmc_usic.h **** 
 299:G:/DT/dt_g1_balancing_plate_wise20192020/XMC/Libraries/XMCLib/inc\xmc_usic.h **** /**
 300:G:/DT/dt_g1_balancing_plate_wise20192020/XMC/Libraries/XMCLib/inc\xmc_usic.h **** * USIC channel data transmit buffer status
 301:G:/DT/dt_g1_balancing_plate_wise20192020/XMC/Libraries/XMCLib/inc\xmc_usic.h **** */
 302:G:/DT/dt_g1_balancing_plate_wise20192020/XMC/Libraries/XMCLib/inc\xmc_usic.h **** typedef enum XMC_USIC_CH_TBUF_STATUS
 303:G:/DT/dt_g1_balancing_plate_wise20192020/XMC/Libraries/XMCLib/inc\xmc_usic.h **** {
 304:G:/DT/dt_g1_balancing_plate_wise20192020/XMC/Libraries/XMCLib/inc\xmc_usic.h ****   XMC_USIC_CH_TBUF_STATUS_IDLE = 0x0UL,                 /**< Transfer buffer is currently idle*/
 305:G:/DT/dt_g1_balancing_plate_wise20192020/XMC/Libraries/XMCLib/inc\xmc_usic.h ****   XMC_USIC_CH_TBUF_STATUS_BUSY = USIC_CH_TCSR_TDV_Msk   /**< Transfer buffer is currently busy*/
 306:G:/DT/dt_g1_balancing_plate_wise20192020/XMC/Libraries/XMCLib/inc\xmc_usic.h **** } XMC_USIC_CH_TBUF_STATUS_t;
 307:G:/DT/dt_g1_balancing_plate_wise20192020/XMC/Libraries/XMCLib/inc\xmc_usic.h **** 
 308:G:/DT/dt_g1_balancing_plate_wise20192020/XMC/Libraries/XMCLib/inc\xmc_usic.h **** 
 309:G:/DT/dt_g1_balancing_plate_wise20192020/XMC/Libraries/XMCLib/inc\xmc_usic.h **** 
 310:G:/DT/dt_g1_balancing_plate_wise20192020/XMC/Libraries/XMCLib/inc\xmc_usic.h **** /**
 311:G:/DT/dt_g1_balancing_plate_wise20192020/XMC/Libraries/XMCLib/inc\xmc_usic.h **** * USIC channel data transmit buffer status modification
 312:G:/DT/dt_g1_balancing_plate_wise20192020/XMC/Libraries/XMCLib/inc\xmc_usic.h **** */
 313:G:/DT/dt_g1_balancing_plate_wise20192020/XMC/Libraries/XMCLib/inc\xmc_usic.h **** typedef enum XMC_USIC_CH_TBUF_STATUS_SET
 314:G:/DT/dt_g1_balancing_plate_wise20192020/XMC/Libraries/XMCLib/inc\xmc_usic.h **** {
 315:G:/DT/dt_g1_balancing_plate_wise20192020/XMC/Libraries/XMCLib/inc\xmc_usic.h ****   XMC_USIC_CH_TBUF_STATUS_SET_BUSY   = 0x1UL, /**< Set Transfer buffer status to busy*/
 316:G:/DT/dt_g1_balancing_plate_wise20192020/XMC/Libraries/XMCLib/inc\xmc_usic.h ****   XMC_USIC_CH_TBUF_STATUS_SET_IDLE   = 0x2UL  /**< Set Transfer buffer status to idle*/
 317:G:/DT/dt_g1_balancing_plate_wise20192020/XMC/Libraries/XMCLib/inc\xmc_usic.h **** } XMC_USIC_CH_TBUF_STATUS_SET_t;
 318:G:/DT/dt_g1_balancing_plate_wise20192020/XMC/Libraries/XMCLib/inc\xmc_usic.h **** 
 319:G:/DT/dt_g1_balancing_plate_wise20192020/XMC/Libraries/XMCLib/inc\xmc_usic.h **** /**
 320:G:/DT/dt_g1_balancing_plate_wise20192020/XMC/Libraries/XMCLib/inc\xmc_usic.h **** * USIC channel receive buffer status
 321:G:/DT/dt_g1_balancing_plate_wise20192020/XMC/Libraries/XMCLib/inc\xmc_usic.h **** */
 322:G:/DT/dt_g1_balancing_plate_wise20192020/XMC/Libraries/XMCLib/inc\xmc_usic.h **** typedef enum XMC_USIC_CH_RBUF_STATUS
 323:G:/DT/dt_g1_balancing_plate_wise20192020/XMC/Libraries/XMCLib/inc\xmc_usic.h **** {
 324:G:/DT/dt_g1_balancing_plate_wise20192020/XMC/Libraries/XMCLib/inc\xmc_usic.h ****   XMC_USIC_CH_RBUF_STATUS_DATA_VALID0 = USIC_CH_RBUFSR_RDV0_Msk, /**< RBUF0 data has not yet been r
 325:G:/DT/dt_g1_balancing_plate_wise20192020/XMC/Libraries/XMCLib/inc\xmc_usic.h ****   XMC_USIC_CH_RBUF_STATUS_DATA_VALID1 = USIC_CH_RBUFSR_RDV1_Msk  /**< RBUF1 data has not yet been r
 326:G:/DT/dt_g1_balancing_plate_wise20192020/XMC/Libraries/XMCLib/inc\xmc_usic.h **** } XMC_USIC_CH_RBUF_STATUS_t;
 327:G:/DT/dt_g1_balancing_plate_wise20192020/XMC/Libraries/XMCLib/inc\xmc_usic.h **** 
 328:G:/DT/dt_g1_balancing_plate_wise20192020/XMC/Libraries/XMCLib/inc\xmc_usic.h **** /**
 329:G:/DT/dt_g1_balancing_plate_wise20192020/XMC/Libraries/XMCLib/inc\xmc_usic.h ****  * USIC channel output signal passive data level
 330:G:/DT/dt_g1_balancing_plate_wise20192020/XMC/Libraries/XMCLib/inc\xmc_usic.h **** */
 331:G:/DT/dt_g1_balancing_plate_wise20192020/XMC/Libraries/XMCLib/inc\xmc_usic.h **** typedef enum XMC_USCI_CH_PASSIVE_DATA_LEVEL
 332:G:/DT/dt_g1_balancing_plate_wise20192020/XMC/Libraries/XMCLib/inc\xmc_usic.h **** {
 333:G:/DT/dt_g1_balancing_plate_wise20192020/XMC/Libraries/XMCLib/inc\xmc_usic.h ****   XMC_USIC_CH_PASSIVE_DATA_LEVEL0 = 0x0UL, /**< Passive level(idle mode signal level) 0 */
 334:G:/DT/dt_g1_balancing_plate_wise20192020/XMC/Libraries/XMCLib/inc\xmc_usic.h ****   XMC_USIC_CH_PASSIVE_DATA_LEVEL1 = 0x1UL << USIC_CH_SCTR_PDL_Pos  /**< Passive level(idle mode sig
 335:G:/DT/dt_g1_balancing_plate_wise20192020/XMC/Libraries/XMCLib/inc\xmc_usic.h **** } XMC_USIC_CH_PASSIVE_DATA_LEVEL_t;
 336:G:/DT/dt_g1_balancing_plate_wise20192020/XMC/Libraries/XMCLib/inc\xmc_usic.h **** 
 337:G:/DT/dt_g1_balancing_plate_wise20192020/XMC/Libraries/XMCLib/inc\xmc_usic.h **** /**
 338:G:/DT/dt_g1_balancing_plate_wise20192020/XMC/Libraries/XMCLib/inc\xmc_usic.h **** * USIC channel receive FIFO size
 339:G:/DT/dt_g1_balancing_plate_wise20192020/XMC/Libraries/XMCLib/inc\xmc_usic.h **** */
 340:G:/DT/dt_g1_balancing_plate_wise20192020/XMC/Libraries/XMCLib/inc\xmc_usic.h **** typedef enum XMC_USIC_CH_FIFO_SIZE
 341:G:/DT/dt_g1_balancing_plate_wise20192020/XMC/Libraries/XMCLib/inc\xmc_usic.h **** {
 342:G:/DT/dt_g1_balancing_plate_wise20192020/XMC/Libraries/XMCLib/inc\xmc_usic.h ****   XMC_USIC_CH_FIFO_DISABLED     = 0x0U,  /**< FIFO Disabled */
 343:G:/DT/dt_g1_balancing_plate_wise20192020/XMC/Libraries/XMCLib/inc\xmc_usic.h ****   XMC_USIC_CH_FIFO_SIZE_2WORDS  = 0x1U,  /**< FIFO size: 2 words */
 344:G:/DT/dt_g1_balancing_plate_wise20192020/XMC/Libraries/XMCLib/inc\xmc_usic.h ****   XMC_USIC_CH_FIFO_SIZE_4WORDS  = 0x2U,  /**< FIFO size: 4 words */
 345:G:/DT/dt_g1_balancing_plate_wise20192020/XMC/Libraries/XMCLib/inc\xmc_usic.h ****   XMC_USIC_CH_FIFO_SIZE_8WORDS  = 0x3U,  /**< FIFO size: 8 words */
 346:G:/DT/dt_g1_balancing_plate_wise20192020/XMC/Libraries/XMCLib/inc\xmc_usic.h ****   XMC_USIC_CH_FIFO_SIZE_16WORDS = 0x4U,  /**< FIFO size: 16 words */
 347:G:/DT/dt_g1_balancing_plate_wise20192020/XMC/Libraries/XMCLib/inc\xmc_usic.h ****   XMC_USIC_CH_FIFO_SIZE_32WORDS = 0x5U,  /**< FIFO size: 32 words */
 348:G:/DT/dt_g1_balancing_plate_wise20192020/XMC/Libraries/XMCLib/inc\xmc_usic.h ****   XMC_USIC_CH_FIFO_SIZE_64WORDS = 0x6U   /**< FIFO size: 64 words */
 349:G:/DT/dt_g1_balancing_plate_wise20192020/XMC/Libraries/XMCLib/inc\xmc_usic.h **** } XMC_USIC_CH_FIFO_SIZE_t;
 350:G:/DT/dt_g1_balancing_plate_wise20192020/XMC/Libraries/XMCLib/inc\xmc_usic.h **** 
 351:G:/DT/dt_g1_balancing_plate_wise20192020/XMC/Libraries/XMCLib/inc\xmc_usic.h **** /**
 352:G:/DT/dt_g1_balancing_plate_wise20192020/XMC/Libraries/XMCLib/inc\xmc_usic.h **** * USIC channel transmit FIFO interrupt node pointers
 353:G:/DT/dt_g1_balancing_plate_wise20192020/XMC/Libraries/XMCLib/inc\xmc_usic.h **** */
 354:G:/DT/dt_g1_balancing_plate_wise20192020/XMC/Libraries/XMCLib/inc\xmc_usic.h **** typedef enum XMC_USIC_CH_TXFIFO_INTERRUPT_NODE_POINTER
 355:G:/DT/dt_g1_balancing_plate_wise20192020/XMC/Libraries/XMCLib/inc\xmc_usic.h **** {
 356:G:/DT/dt_g1_balancing_plate_wise20192020/XMC/Libraries/XMCLib/inc\xmc_usic.h ****   XMC_USIC_CH_TXFIFO_INTERRUPT_NODE_POINTER_STANDARD  = USIC_CH_TBCTR_STBINP_Pos,  /**< Node pointe
 357:G:/DT/dt_g1_balancing_plate_wise20192020/XMC/Libraries/XMCLib/inc\xmc_usic.h ****   XMC_USIC_CH_TXFIFO_INTERRUPT_NODE_POINTER_ALTERNATE = USIC_CH_TBCTR_ATBINP_Pos   /**< Node pointe
 358:G:/DT/dt_g1_balancing_plate_wise20192020/XMC/Libraries/XMCLib/inc\xmc_usic.h **** } XMC_USIC_CH_TXFIFO_INTERRUPT_NODE_POINTER_t;
 359:G:/DT/dt_g1_balancing_plate_wise20192020/XMC/Libraries/XMCLib/inc\xmc_usic.h **** 
 360:G:/DT/dt_g1_balancing_plate_wise20192020/XMC/Libraries/XMCLib/inc\xmc_usic.h **** /**
 361:G:/DT/dt_g1_balancing_plate_wise20192020/XMC/Libraries/XMCLib/inc\xmc_usic.h **** * USIC channel transmit FIFO event configuration
 362:G:/DT/dt_g1_balancing_plate_wise20192020/XMC/Libraries/XMCLib/inc\xmc_usic.h **** */
 363:G:/DT/dt_g1_balancing_plate_wise20192020/XMC/Libraries/XMCLib/inc\xmc_usic.h **** typedef enum XMC_USIC_CH_TXFIFO_EVENT_CONF
 364:G:/DT/dt_g1_balancing_plate_wise20192020/XMC/Libraries/XMCLib/inc\xmc_usic.h **** {
 365:G:/DT/dt_g1_balancing_plate_wise20192020/XMC/Libraries/XMCLib/inc\xmc_usic.h ****   XMC_USIC_CH_TXFIFO_EVENT_CONF_STANDARD  = USIC_CH_TBCTR_STBIEN_Msk,   /**< Enable FIFO standard t
 366:G:/DT/dt_g1_balancing_plate_wise20192020/XMC/Libraries/XMCLib/inc\xmc_usic.h ****   XMC_USIC_CH_TXFIFO_EVENT_CONF_ERROR     = (int32_t)USIC_CH_TBCTR_TBERIEN_Msk  /**< Enable transmi
 367:G:/DT/dt_g1_balancing_plate_wise20192020/XMC/Libraries/XMCLib/inc\xmc_usic.h **** } XMC_USIC_CH_TXFIFO_EVENT_CONF_t;
 368:G:/DT/dt_g1_balancing_plate_wise20192020/XMC/Libraries/XMCLib/inc\xmc_usic.h **** 
 369:G:/DT/dt_g1_balancing_plate_wise20192020/XMC/Libraries/XMCLib/inc\xmc_usic.h **** /**
 370:G:/DT/dt_g1_balancing_plate_wise20192020/XMC/Libraries/XMCLib/inc\xmc_usic.h **** * USIC channel transmit FIFO status
 371:G:/DT/dt_g1_balancing_plate_wise20192020/XMC/Libraries/XMCLib/inc\xmc_usic.h **** */
 372:G:/DT/dt_g1_balancing_plate_wise20192020/XMC/Libraries/XMCLib/inc\xmc_usic.h **** typedef enum XMC_USIC_CH_TXFIFO_EVENT
 373:G:/DT/dt_g1_balancing_plate_wise20192020/XMC/Libraries/XMCLib/inc\xmc_usic.h **** {
 374:G:/DT/dt_g1_balancing_plate_wise20192020/XMC/Libraries/XMCLib/inc\xmc_usic.h ****   XMC_USIC_CH_TXFIFO_EVENT_STANDARD = USIC_CH_TRBSR_STBI_Msk,    /**< Transmit FIFO status: Standar
 375:G:/DT/dt_g1_balancing_plate_wise20192020/XMC/Libraries/XMCLib/inc\xmc_usic.h ****   XMC_USIC_CH_TXFIFO_EVENT_ERROR    = USIC_CH_TRBSR_TBERI_Msk    /**< Transmit FIFO status: Error e
 376:G:/DT/dt_g1_balancing_plate_wise20192020/XMC/Libraries/XMCLib/inc\xmc_usic.h **** } XMC_USIC_CH_TXFIFO_EVENT_t;
 377:G:/DT/dt_g1_balancing_plate_wise20192020/XMC/Libraries/XMCLib/inc\xmc_usic.h **** 
 378:G:/DT/dt_g1_balancing_plate_wise20192020/XMC/Libraries/XMCLib/inc\xmc_usic.h **** /**
 379:G:/DT/dt_g1_balancing_plate_wise20192020/XMC/Libraries/XMCLib/inc\xmc_usic.h **** * USIC channel receive FIFO interrupt node pointers
 380:G:/DT/dt_g1_balancing_plate_wise20192020/XMC/Libraries/XMCLib/inc\xmc_usic.h **** */
 381:G:/DT/dt_g1_balancing_plate_wise20192020/XMC/Libraries/XMCLib/inc\xmc_usic.h **** typedef enum XMC_USIC_CH_RXFIFO_INTERRUPT_NODE_POINTER
 382:G:/DT/dt_g1_balancing_plate_wise20192020/XMC/Libraries/XMCLib/inc\xmc_usic.h **** {
 383:G:/DT/dt_g1_balancing_plate_wise20192020/XMC/Libraries/XMCLib/inc\xmc_usic.h ****   XMC_USIC_CH_RXFIFO_INTERRUPT_NODE_POINTER_STANDARD  = USIC_CH_RBCTR_SRBINP_Pos, /**< Node pointer
 384:G:/DT/dt_g1_balancing_plate_wise20192020/XMC/Libraries/XMCLib/inc\xmc_usic.h ****   XMC_USIC_CH_RXFIFO_INTERRUPT_NODE_POINTER_ALTERNATE = USIC_CH_RBCTR_ARBINP_Pos  /**< Node pointer
 385:G:/DT/dt_g1_balancing_plate_wise20192020/XMC/Libraries/XMCLib/inc\xmc_usic.h **** } XMC_USIC_CH_RXFIFO_INTERRUPT_NODE_POINTER_t;
 386:G:/DT/dt_g1_balancing_plate_wise20192020/XMC/Libraries/XMCLib/inc\xmc_usic.h **** 
 387:G:/DT/dt_g1_balancing_plate_wise20192020/XMC/Libraries/XMCLib/inc\xmc_usic.h **** /**
 388:G:/DT/dt_g1_balancing_plate_wise20192020/XMC/Libraries/XMCLib/inc\xmc_usic.h **** * USIC channel receive FIFO event configuration
 389:G:/DT/dt_g1_balancing_plate_wise20192020/XMC/Libraries/XMCLib/inc\xmc_usic.h **** */
 390:G:/DT/dt_g1_balancing_plate_wise20192020/XMC/Libraries/XMCLib/inc\xmc_usic.h **** typedef enum XMC_USIC_CH_RXFIFO_EVENT_CONF
 391:G:/DT/dt_g1_balancing_plate_wise20192020/XMC/Libraries/XMCLib/inc\xmc_usic.h **** {
 392:G:/DT/dt_g1_balancing_plate_wise20192020/XMC/Libraries/XMCLib/inc\xmc_usic.h ****   XMC_USIC_CH_RXFIFO_EVENT_CONF_STANDARD  = USIC_CH_RBCTR_SRBIEN_Msk,   /**< Enable FIFO standard r
 393:G:/DT/dt_g1_balancing_plate_wise20192020/XMC/Libraries/XMCLib/inc\xmc_usic.h ****   XMC_USIC_CH_RXFIFO_EVENT_CONF_ERROR     = (int32_t)USIC_CH_RBCTR_RBERIEN_Msk,  /**< Enable receiv
 394:G:/DT/dt_g1_balancing_plate_wise20192020/XMC/Libraries/XMCLib/inc\xmc_usic.h ****   XMC_USIC_CH_RXFIFO_EVENT_CONF_ALTERNATE = USIC_CH_RBCTR_ARBIEN_Msk   /**< Enable FIFO alternative
 395:G:/DT/dt_g1_balancing_plate_wise20192020/XMC/Libraries/XMCLib/inc\xmc_usic.h **** } XMC_USIC_CH_RXFIFO_EVENT_CONF_t;
 396:G:/DT/dt_g1_balancing_plate_wise20192020/XMC/Libraries/XMCLib/inc\xmc_usic.h **** 
 397:G:/DT/dt_g1_balancing_plate_wise20192020/XMC/Libraries/XMCLib/inc\xmc_usic.h **** /**
 398:G:/DT/dt_g1_balancing_plate_wise20192020/XMC/Libraries/XMCLib/inc\xmc_usic.h **** * USIC channel receive FIFO status
 399:G:/DT/dt_g1_balancing_plate_wise20192020/XMC/Libraries/XMCLib/inc\xmc_usic.h **** */
 400:G:/DT/dt_g1_balancing_plate_wise20192020/XMC/Libraries/XMCLib/inc\xmc_usic.h **** typedef enum XMC_USIC_CH_RXFIFO_EVENT
 401:G:/DT/dt_g1_balancing_plate_wise20192020/XMC/Libraries/XMCLib/inc\xmc_usic.h **** {
 402:G:/DT/dt_g1_balancing_plate_wise20192020/XMC/Libraries/XMCLib/inc\xmc_usic.h ****   XMC_USIC_CH_RXFIFO_EVENT_STANDARD  = USIC_CH_TRBSR_SRBI_Msk,   /**< Receive FIFO status: Standard
 403:G:/DT/dt_g1_balancing_plate_wise20192020/XMC/Libraries/XMCLib/inc\xmc_usic.h ****   XMC_USIC_CH_RXFIFO_EVENT_ERROR     = USIC_CH_TRBSR_RBERI_Msk,  /**< Receive FIFO status: Error ev
 404:G:/DT/dt_g1_balancing_plate_wise20192020/XMC/Libraries/XMCLib/inc\xmc_usic.h ****   XMC_USIC_CH_RXFIFO_EVENT_ALTERNATE = USIC_CH_TRBSR_ARBI_Msk    /**< Receive FIFO status: Alternat
 405:G:/DT/dt_g1_balancing_plate_wise20192020/XMC/Libraries/XMCLib/inc\xmc_usic.h **** } XMC_USIC_CH_RXFIFO_EVENT_t;
 406:G:/DT/dt_g1_balancing_plate_wise20192020/XMC/Libraries/XMCLib/inc\xmc_usic.h **** 
 407:G:/DT/dt_g1_balancing_plate_wise20192020/XMC/Libraries/XMCLib/inc\xmc_usic.h **** /**
 408:G:/DT/dt_g1_balancing_plate_wise20192020/XMC/Libraries/XMCLib/inc\xmc_usic.h **** * USIC channel baudrate generator clock source
 409:G:/DT/dt_g1_balancing_plate_wise20192020/XMC/Libraries/XMCLib/inc\xmc_usic.h **** */
 410:G:/DT/dt_g1_balancing_plate_wise20192020/XMC/Libraries/XMCLib/inc\xmc_usic.h **** typedef enum XMC_USIC_CH_BRG_CLOCK_SOURCE
 411:G:/DT/dt_g1_balancing_plate_wise20192020/XMC/Libraries/XMCLib/inc\xmc_usic.h **** {
 412:G:/DT/dt_g1_balancing_plate_wise20192020/XMC/Libraries/XMCLib/inc\xmc_usic.h ****   XMC_USIC_CH_BRG_CLOCK_SOURCE_DIVIDER = 0x0UL, /**< Baudrate generator clock source : Source divid
 413:G:/DT/dt_g1_balancing_plate_wise20192020/XMC/Libraries/XMCLib/inc\xmc_usic.h ****   XMC_USIC_CH_BRG_CLOCK_SOURCE_DX1T    = 0x2UL << USIC_CH_BRG_CLKSEL_Pos  /**< Baudrate generator c
 414:G:/DT/dt_g1_balancing_plate_wise20192020/XMC/Libraries/XMCLib/inc\xmc_usic.h **** } XMC_USIC_CH_BRG_CLOCK_SOURCE_t;
 415:G:/DT/dt_g1_balancing_plate_wise20192020/XMC/Libraries/XMCLib/inc\xmc_usic.h **** 
 416:G:/DT/dt_g1_balancing_plate_wise20192020/XMC/Libraries/XMCLib/inc\xmc_usic.h **** /**
 417:G:/DT/dt_g1_balancing_plate_wise20192020/XMC/Libraries/XMCLib/inc\xmc_usic.h **** * USIC channel baudrate generator divider mode
 418:G:/DT/dt_g1_balancing_plate_wise20192020/XMC/Libraries/XMCLib/inc\xmc_usic.h **** */
 419:G:/DT/dt_g1_balancing_plate_wise20192020/XMC/Libraries/XMCLib/inc\xmc_usic.h **** typedef enum XMC_USIC_CH_BRG_CLOCK_DIVIDER_MODE
 420:G:/DT/dt_g1_balancing_plate_wise20192020/XMC/Libraries/XMCLib/inc\xmc_usic.h **** {
 421:G:/DT/dt_g1_balancing_plate_wise20192020/XMC/Libraries/XMCLib/inc\xmc_usic.h ****   XMC_USIC_CH_BRG_CLOCK_DIVIDER_MODE_DISABLED   = 0x0UL, /**< Baudrate generator clock divider: Dis
 422:G:/DT/dt_g1_balancing_plate_wise20192020/XMC/Libraries/XMCLib/inc\xmc_usic.h ****   XMC_USIC_CH_BRG_CLOCK_DIVIDER_MODE_NORMAL     = 0x1UL << USIC_CH_FDR_DM_Pos, /**< Baudrate genera
 423:G:/DT/dt_g1_balancing_plate_wise20192020/XMC/Libraries/XMCLib/inc\xmc_usic.h ****   XMC_USIC_CH_BRG_CLOCK_DIVIDER_MODE_FRACTIONAL = 0x2UL << USIC_CH_FDR_DM_Pos  /**< Baudrate genera
 424:G:/DT/dt_g1_balancing_plate_wise20192020/XMC/Libraries/XMCLib/inc\xmc_usic.h **** } XMC_USIC_CH_BRG_CLOCK_DIVIDER_MODE_t;
 425:G:/DT/dt_g1_balancing_plate_wise20192020/XMC/Libraries/XMCLib/inc\xmc_usic.h **** 
 426:G:/DT/dt_g1_balancing_plate_wise20192020/XMC/Libraries/XMCLib/inc\xmc_usic.h **** /**
 427:G:/DT/dt_g1_balancing_plate_wise20192020/XMC/Libraries/XMCLib/inc\xmc_usic.h **** * USIC channel baudrate generator master clock passive level
 428:G:/DT/dt_g1_balancing_plate_wise20192020/XMC/Libraries/XMCLib/inc\xmc_usic.h **** */
 429:G:/DT/dt_g1_balancing_plate_wise20192020/XMC/Libraries/XMCLib/inc\xmc_usic.h **** typedef enum XMC_USIC_CH_BRG_MASTER_CLOCK_PASSIVE_LEVEL
 430:G:/DT/dt_g1_balancing_plate_wise20192020/XMC/Libraries/XMCLib/inc\xmc_usic.h **** {
 431:G:/DT/dt_g1_balancing_plate_wise20192020/XMC/Libraries/XMCLib/inc\xmc_usic.h ****   XMC_USIC_CH_BRG_MASTER_CLOCK_PASSIVE_LEVEL_0 = 0x0UL, /**< Baudrate generator master clock passiv
 432:G:/DT/dt_g1_balancing_plate_wise20192020/XMC/Libraries/XMCLib/inc\xmc_usic.h ****   XMC_USIC_CH_BRG_MASTER_CLOCK_PASSIVE_LEVEL_1 = 0x1UL << USIC_CH_BRG_MCLKCFG_Pos  /**< Baudrate ge
 433:G:/DT/dt_g1_balancing_plate_wise20192020/XMC/Libraries/XMCLib/inc\xmc_usic.h **** } XMC_USIC_CH_BRG_MASTER_CLOCK_PASSIVE_LEVEL_t;
 434:G:/DT/dt_g1_balancing_plate_wise20192020/XMC/Libraries/XMCLib/inc\xmc_usic.h **** 
 435:G:/DT/dt_g1_balancing_plate_wise20192020/XMC/Libraries/XMCLib/inc\xmc_usic.h **** /**
 436:G:/DT/dt_g1_balancing_plate_wise20192020/XMC/Libraries/XMCLib/inc\xmc_usic.h **** * USIC channel baudrate generator shift clock passive level
 437:G:/DT/dt_g1_balancing_plate_wise20192020/XMC/Libraries/XMCLib/inc\xmc_usic.h **** */
 438:G:/DT/dt_g1_balancing_plate_wise20192020/XMC/Libraries/XMCLib/inc\xmc_usic.h **** typedef enum XMC_USIC_CH_BRG_SHIFT_CLOCK_PASSIVE_LEVEL
 439:G:/DT/dt_g1_balancing_plate_wise20192020/XMC/Libraries/XMCLib/inc\xmc_usic.h **** {
 440:G:/DT/dt_g1_balancing_plate_wise20192020/XMC/Libraries/XMCLib/inc\xmc_usic.h ****   XMC_USIC_CH_BRG_SHIFT_CLOCK_PASSIVE_LEVEL_0_DELAY_DISABLED = 0x0UL, /**< Shift clock passive leve
 441:G:/DT/dt_g1_balancing_plate_wise20192020/XMC/Libraries/XMCLib/inc\xmc_usic.h ****   XMC_USIC_CH_BRG_SHIFT_CLOCK_PASSIVE_LEVEL_1_DELAY_DISABLED = 0x1UL << USIC_CH_BRG_SCLKCFG_Pos, /*
 442:G:/DT/dt_g1_balancing_plate_wise20192020/XMC/Libraries/XMCLib/inc\xmc_usic.h ****   XMC_USIC_CH_BRG_SHIFT_CLOCK_PASSIVE_LEVEL_0_DELAY_ENABLED  = (int32_t)(0x2UL << USIC_CH_BRG_SCLKC
 443:G:/DT/dt_g1_balancing_plate_wise20192020/XMC/Libraries/XMCLib/inc\xmc_usic.h ****   XMC_USIC_CH_BRG_SHIFT_CLOCK_PASSIVE_LEVEL_1_DELAY_ENABLED  = (int32_t)(0x3UL << USIC_CH_BRG_SCLKC
 444:G:/DT/dt_g1_balancing_plate_wise20192020/XMC/Libraries/XMCLib/inc\xmc_usic.h **** } XMC_USIC_CH_BRG_SHIFT_CLOCK_PASSIVE_LEVEL_t;
 445:G:/DT/dt_g1_balancing_plate_wise20192020/XMC/Libraries/XMCLib/inc\xmc_usic.h **** 
 446:G:/DT/dt_g1_balancing_plate_wise20192020/XMC/Libraries/XMCLib/inc\xmc_usic.h **** /**
 447:G:/DT/dt_g1_balancing_plate_wise20192020/XMC/Libraries/XMCLib/inc\xmc_usic.h **** * USIC channel baudrate generator shift clock output
 448:G:/DT/dt_g1_balancing_plate_wise20192020/XMC/Libraries/XMCLib/inc\xmc_usic.h **** */
 449:G:/DT/dt_g1_balancing_plate_wise20192020/XMC/Libraries/XMCLib/inc\xmc_usic.h **** typedef enum XMC_USIC_CH_BRG_SHIFT_CLOCK_OUTPUT
 450:G:/DT/dt_g1_balancing_plate_wise20192020/XMC/Libraries/XMCLib/inc\xmc_usic.h **** {
 451:G:/DT/dt_g1_balancing_plate_wise20192020/XMC/Libraries/XMCLib/inc\xmc_usic.h ****   XMC_USIC_CH_BRG_SHIFT_CLOCK_OUTPUT_SCLK = 0x0UL, /**< Baudrate generator shift clock output: SCL.
 452:G:/DT/dt_g1_balancing_plate_wise20192020/XMC/Libraries/XMCLib/inc\xmc_usic.h ****   XMC_USIC_CH_BRG_SHIFT_CLOCK_OUTPUT_DX1 = 0x1UL << USIC_CH_BRG_SCLKOSEL_Pos   /**< Baudrate genera
 453:G:/DT/dt_g1_balancing_plate_wise20192020/XMC/Libraries/XMCLib/inc\xmc_usic.h **** } XMC_USIC_CH_BRG_SHIFT_CLOCK_OUTPUT_t;
 454:G:/DT/dt_g1_balancing_plate_wise20192020/XMC/Libraries/XMCLib/inc\xmc_usic.h **** 
 455:G:/DT/dt_g1_balancing_plate_wise20192020/XMC/Libraries/XMCLib/inc\xmc_usic.h **** /**
 456:G:/DT/dt_g1_balancing_plate_wise20192020/XMC/Libraries/XMCLib/inc\xmc_usic.h **** * USIC channel shift direction.
 457:G:/DT/dt_g1_balancing_plate_wise20192020/XMC/Libraries/XMCLib/inc\xmc_usic.h **** * Defines the shift direction of the data words for transmission and reception
 458:G:/DT/dt_g1_balancing_plate_wise20192020/XMC/Libraries/XMCLib/inc\xmc_usic.h **** */
 459:G:/DT/dt_g1_balancing_plate_wise20192020/XMC/Libraries/XMCLib/inc\xmc_usic.h **** typedef enum XMC_USIC_CH_SHIFT_DIRECTION
 460:G:/DT/dt_g1_balancing_plate_wise20192020/XMC/Libraries/XMCLib/inc\xmc_usic.h **** {
 461:G:/DT/dt_g1_balancing_plate_wise20192020/XMC/Libraries/XMCLib/inc\xmc_usic.h ****   XMC_USIC_CH_SHIFT_DIRECTION_LSB_FIRST = 0x0UL, /**< Shift LSB first. The first data bit of a data
 462:G:/DT/dt_g1_balancing_plate_wise20192020/XMC/Libraries/XMCLib/inc\xmc_usic.h ****   XMC_USIC_CH_SHIFT_DIRECTION_MSB_FIRST = 0x1UL << USIC_CH_SCTR_SDIR_Pos /**< Shift MSB first. The 
 463:G:/DT/dt_g1_balancing_plate_wise20192020/XMC/Libraries/XMCLib/inc\xmc_usic.h **** } XMC_USIC_CH_SHIFT_DIRECTION_t;
 464:G:/DT/dt_g1_balancing_plate_wise20192020/XMC/Libraries/XMCLib/inc\xmc_usic.h **** 
 465:G:/DT/dt_g1_balancing_plate_wise20192020/XMC/Libraries/XMCLib/inc\xmc_usic.h **** 
 466:G:/DT/dt_g1_balancing_plate_wise20192020/XMC/Libraries/XMCLib/inc\xmc_usic.h **** /*******************************************************************************
 467:G:/DT/dt_g1_balancing_plate_wise20192020/XMC/Libraries/XMCLib/inc\xmc_usic.h ****  * DATA STRUCTURES
 468:G:/DT/dt_g1_balancing_plate_wise20192020/XMC/Libraries/XMCLib/inc\xmc_usic.h ****  *******************************************************************************/
 469:G:/DT/dt_g1_balancing_plate_wise20192020/XMC/Libraries/XMCLib/inc\xmc_usic.h **** 
 470:G:/DT/dt_g1_balancing_plate_wise20192020/XMC/Libraries/XMCLib/inc\xmc_usic.h **** /*Anonymous structure/union guard start*/
 471:G:/DT/dt_g1_balancing_plate_wise20192020/XMC/Libraries/XMCLib/inc\xmc_usic.h **** #if defined(__CC_ARM)
 472:G:/DT/dt_g1_balancing_plate_wise20192020/XMC/Libraries/XMCLib/inc\xmc_usic.h ****   #pragma push
 473:G:/DT/dt_g1_balancing_plate_wise20192020/XMC/Libraries/XMCLib/inc\xmc_usic.h ****   #pragma anon_unions
 474:G:/DT/dt_g1_balancing_plate_wise20192020/XMC/Libraries/XMCLib/inc\xmc_usic.h **** #elif defined(__TASKING__)
 475:G:/DT/dt_g1_balancing_plate_wise20192020/XMC/Libraries/XMCLib/inc\xmc_usic.h ****   #pragma warning 586
 476:G:/DT/dt_g1_balancing_plate_wise20192020/XMC/Libraries/XMCLib/inc\xmc_usic.h **** #endif
 477:G:/DT/dt_g1_balancing_plate_wise20192020/XMC/Libraries/XMCLib/inc\xmc_usic.h **** 
 478:G:/DT/dt_g1_balancing_plate_wise20192020/XMC/Libraries/XMCLib/inc\xmc_usic.h **** /**
 479:G:/DT/dt_g1_balancing_plate_wise20192020/XMC/Libraries/XMCLib/inc\xmc_usic.h ****  * USIC module structure
 480:G:/DT/dt_g1_balancing_plate_wise20192020/XMC/Libraries/XMCLib/inc\xmc_usic.h ****  */
 481:G:/DT/dt_g1_balancing_plate_wise20192020/XMC/Libraries/XMCLib/inc\xmc_usic.h **** typedef USIC_GLOBAL_TypeDef XMC_USIC_t;
 482:G:/DT/dt_g1_balancing_plate_wise20192020/XMC/Libraries/XMCLib/inc\xmc_usic.h **** 
 483:G:/DT/dt_g1_balancing_plate_wise20192020/XMC/Libraries/XMCLib/inc\xmc_usic.h **** /**
 484:G:/DT/dt_g1_balancing_plate_wise20192020/XMC/Libraries/XMCLib/inc\xmc_usic.h ****  * USIC channel structure.<br> The members of the structure are same as in the device header file, 
 485:G:/DT/dt_g1_balancing_plate_wise20192020/XMC/Libraries/XMCLib/inc\xmc_usic.h ****  * except for some registers.
 486:G:/DT/dt_g1_balancing_plate_wise20192020/XMC/Libraries/XMCLib/inc\xmc_usic.h ****  * DX0CR, DX1CR, DX2CR, DX3CR, DX4CR and DX5CR are replaced with the array DXCR[6].
 487:G:/DT/dt_g1_balancing_plate_wise20192020/XMC/Libraries/XMCLib/inc\xmc_usic.h ****  * TBUF0 to TBUF31 are replaced with TBUF[32].
 488:G:/DT/dt_g1_balancing_plate_wise20192020/XMC/Libraries/XMCLib/inc\xmc_usic.h ****  * IN0 to IN31 are replaced with IN[32].
 489:G:/DT/dt_g1_balancing_plate_wise20192020/XMC/Libraries/XMCLib/inc\xmc_usic.h ****  */
 490:G:/DT/dt_g1_balancing_plate_wise20192020/XMC/Libraries/XMCLib/inc\xmc_usic.h **** typedef struct XMC_USIC_CH
 491:G:/DT/dt_g1_balancing_plate_wise20192020/XMC/Libraries/XMCLib/inc\xmc_usic.h **** {
 492:G:/DT/dt_g1_balancing_plate_wise20192020/XMC/Libraries/XMCLib/inc\xmc_usic.h ****   __I  uint32_t  RESERVED0;
 493:G:/DT/dt_g1_balancing_plate_wise20192020/XMC/Libraries/XMCLib/inc\xmc_usic.h ****   __I  uint32_t  CCFG;			/**< Channel configuration register*/
 494:G:/DT/dt_g1_balancing_plate_wise20192020/XMC/Libraries/XMCLib/inc\xmc_usic.h ****   __I  uint32_t  RESERVED1;
 495:G:/DT/dt_g1_balancing_plate_wise20192020/XMC/Libraries/XMCLib/inc\xmc_usic.h ****   __IO uint32_t  KSCFG;			/**< Kernel state configuration register*/
 496:G:/DT/dt_g1_balancing_plate_wise20192020/XMC/Libraries/XMCLib/inc\xmc_usic.h ****   __IO uint32_t  FDR;			/**< Fractional divider configuration register*/
 497:G:/DT/dt_g1_balancing_plate_wise20192020/XMC/Libraries/XMCLib/inc\xmc_usic.h ****   __IO uint32_t  BRG;			/**< Baud rate generator register*/
 498:G:/DT/dt_g1_balancing_plate_wise20192020/XMC/Libraries/XMCLib/inc\xmc_usic.h ****   __IO uint32_t  INPR;			/**< Interrupt node pointer register*/
 499:G:/DT/dt_g1_balancing_plate_wise20192020/XMC/Libraries/XMCLib/inc\xmc_usic.h ****   __IO uint32_t  DXCR[6];		/**< Input control registers DX0 to DX5.*/
 500:G:/DT/dt_g1_balancing_plate_wise20192020/XMC/Libraries/XMCLib/inc\xmc_usic.h ****   __IO uint32_t  SCTR;			/**< Shift control register*/
 501:G:/DT/dt_g1_balancing_plate_wise20192020/XMC/Libraries/XMCLib/inc\xmc_usic.h ****   __IO uint32_t  TCSR;
 502:G:/DT/dt_g1_balancing_plate_wise20192020/XMC/Libraries/XMCLib/inc\xmc_usic.h **** 
 503:G:/DT/dt_g1_balancing_plate_wise20192020/XMC/Libraries/XMCLib/inc\xmc_usic.h ****   union {
 504:G:/DT/dt_g1_balancing_plate_wise20192020/XMC/Libraries/XMCLib/inc\xmc_usic.h ****     __IO uint32_t  PCR_IICMode;	/**< I2C protocol configuration register*/
 505:G:/DT/dt_g1_balancing_plate_wise20192020/XMC/Libraries/XMCLib/inc\xmc_usic.h ****     __IO uint32_t  PCR_IISMode; /**< I2S protocol configuration register*/
 506:G:/DT/dt_g1_balancing_plate_wise20192020/XMC/Libraries/XMCLib/inc\xmc_usic.h ****     __IO uint32_t  PCR_SSCMode;	/**< SPI protocol configuration register*/
 507:G:/DT/dt_g1_balancing_plate_wise20192020/XMC/Libraries/XMCLib/inc\xmc_usic.h ****     __IO uint32_t  PCR;			/**< Protocol configuration register*/
 508:G:/DT/dt_g1_balancing_plate_wise20192020/XMC/Libraries/XMCLib/inc\xmc_usic.h ****     __IO uint32_t  PCR_ASCMode;	/**< UART protocol configuration register*/
 509:G:/DT/dt_g1_balancing_plate_wise20192020/XMC/Libraries/XMCLib/inc\xmc_usic.h ****   };
 510:G:/DT/dt_g1_balancing_plate_wise20192020/XMC/Libraries/XMCLib/inc\xmc_usic.h ****   __IO uint32_t  CCR;			/**< Channel control register*/
 511:G:/DT/dt_g1_balancing_plate_wise20192020/XMC/Libraries/XMCLib/inc\xmc_usic.h ****   __IO uint32_t  CMTR;			/**< Capture mode timer register*/
 512:G:/DT/dt_g1_balancing_plate_wise20192020/XMC/Libraries/XMCLib/inc\xmc_usic.h **** 
 513:G:/DT/dt_g1_balancing_plate_wise20192020/XMC/Libraries/XMCLib/inc\xmc_usic.h ****   union {
 514:G:/DT/dt_g1_balancing_plate_wise20192020/XMC/Libraries/XMCLib/inc\xmc_usic.h ****     __IO uint32_t  PSR_IICMode;	/**< I2C protocol status register*/
 515:G:/DT/dt_g1_balancing_plate_wise20192020/XMC/Libraries/XMCLib/inc\xmc_usic.h ****     __IO uint32_t  PSR_IISMode;	/**< I2S protocol status register*/
 516:G:/DT/dt_g1_balancing_plate_wise20192020/XMC/Libraries/XMCLib/inc\xmc_usic.h ****     __IO uint32_t  PSR_SSCMode;	/**< SPI protocol status register*/
 517:G:/DT/dt_g1_balancing_plate_wise20192020/XMC/Libraries/XMCLib/inc\xmc_usic.h ****     __IO uint32_t  PSR;			/**< Protocol status register*/
 518:G:/DT/dt_g1_balancing_plate_wise20192020/XMC/Libraries/XMCLib/inc\xmc_usic.h ****     __IO uint32_t  PSR_ASCMode;	/**< UART protocol status register*/
 519:G:/DT/dt_g1_balancing_plate_wise20192020/XMC/Libraries/XMCLib/inc\xmc_usic.h ****   };
 520:G:/DT/dt_g1_balancing_plate_wise20192020/XMC/Libraries/XMCLib/inc\xmc_usic.h ****   __O  uint32_t  PSCR;			/**< Protocol status clear register*/
 521:G:/DT/dt_g1_balancing_plate_wise20192020/XMC/Libraries/XMCLib/inc\xmc_usic.h ****   __I  uint32_t  RBUFSR;		/**< Receive buffer status register*/
 522:G:/DT/dt_g1_balancing_plate_wise20192020/XMC/Libraries/XMCLib/inc\xmc_usic.h ****   __I  uint32_t  RBUF;			/**< Receive buffer register*/
 523:G:/DT/dt_g1_balancing_plate_wise20192020/XMC/Libraries/XMCLib/inc\xmc_usic.h ****   __I  uint32_t  RBUFD;			/**< Debug mode receive buffer register*/
 524:G:/DT/dt_g1_balancing_plate_wise20192020/XMC/Libraries/XMCLib/inc\xmc_usic.h ****   __I  uint32_t  RBUF0;			/**< Receive buffer 0*/
 525:G:/DT/dt_g1_balancing_plate_wise20192020/XMC/Libraries/XMCLib/inc\xmc_usic.h ****   __I  uint32_t  RBUF1;			/**< Receive buffer 1*/
 526:G:/DT/dt_g1_balancing_plate_wise20192020/XMC/Libraries/XMCLib/inc\xmc_usic.h ****   __I  uint32_t  RBUF01SR;		/**< Receive buffer status register*/
 527:G:/DT/dt_g1_balancing_plate_wise20192020/XMC/Libraries/XMCLib/inc\xmc_usic.h ****   __O  uint32_t  FMR;			/**< Flag modification register*/
 528:G:/DT/dt_g1_balancing_plate_wise20192020/XMC/Libraries/XMCLib/inc\xmc_usic.h ****   __I  uint32_t  RESERVED2[5];
 529:G:/DT/dt_g1_balancing_plate_wise20192020/XMC/Libraries/XMCLib/inc\xmc_usic.h ****   __IO uint32_t  TBUF[32];		/**< Tranmsit buffer registers*/
 530:G:/DT/dt_g1_balancing_plate_wise20192020/XMC/Libraries/XMCLib/inc\xmc_usic.h ****   __IO uint32_t  BYP;			/**< FIFO bypass register*/
 531:G:/DT/dt_g1_balancing_plate_wise20192020/XMC/Libraries/XMCLib/inc\xmc_usic.h ****   __IO uint32_t  BYPCR;			/**< FIFO bypass control register*/
 532:G:/DT/dt_g1_balancing_plate_wise20192020/XMC/Libraries/XMCLib/inc\xmc_usic.h ****   __IO uint32_t  TBCTR;			/**< Transmit FIFO control register*/
 533:G:/DT/dt_g1_balancing_plate_wise20192020/XMC/Libraries/XMCLib/inc\xmc_usic.h ****   __IO uint32_t  RBCTR;			/**< Receive FIFO control register*/
 534:G:/DT/dt_g1_balancing_plate_wise20192020/XMC/Libraries/XMCLib/inc\xmc_usic.h ****   __I  uint32_t  TRBPTR;		/**< Transmit/recive buffer pointer register*/
 535:G:/DT/dt_g1_balancing_plate_wise20192020/XMC/Libraries/XMCLib/inc\xmc_usic.h ****   __IO uint32_t  TRBSR;			/**< Transmit/receive buffer status register*/
 536:G:/DT/dt_g1_balancing_plate_wise20192020/XMC/Libraries/XMCLib/inc\xmc_usic.h ****   __O  uint32_t  TRBSCR;		/**< Transmit/receive buffer status clear register*/
 537:G:/DT/dt_g1_balancing_plate_wise20192020/XMC/Libraries/XMCLib/inc\xmc_usic.h ****   __I  uint32_t  OUTR;			/**< Receive FIFO output register*/
 538:G:/DT/dt_g1_balancing_plate_wise20192020/XMC/Libraries/XMCLib/inc\xmc_usic.h ****   __I  uint32_t  OUTDR;			/**< Receive FIFO debug output register*/
 539:G:/DT/dt_g1_balancing_plate_wise20192020/XMC/Libraries/XMCLib/inc\xmc_usic.h ****   __I  uint32_t  RESERVED3[23];
 540:G:/DT/dt_g1_balancing_plate_wise20192020/XMC/Libraries/XMCLib/inc\xmc_usic.h ****   __O  uint32_t  IN[32];		/**< Transmit FIFO input register*/
 541:G:/DT/dt_g1_balancing_plate_wise20192020/XMC/Libraries/XMCLib/inc\xmc_usic.h **** } XMC_USIC_CH_t;
 542:G:/DT/dt_g1_balancing_plate_wise20192020/XMC/Libraries/XMCLib/inc\xmc_usic.h **** 
 543:G:/DT/dt_g1_balancing_plate_wise20192020/XMC/Libraries/XMCLib/inc\xmc_usic.h **** 
 544:G:/DT/dt_g1_balancing_plate_wise20192020/XMC/Libraries/XMCLib/inc\xmc_usic.h **** /*Anonymous structure/union guard end*/
 545:G:/DT/dt_g1_balancing_plate_wise20192020/XMC/Libraries/XMCLib/inc\xmc_usic.h **** #if defined(__CC_ARM)
 546:G:/DT/dt_g1_balancing_plate_wise20192020/XMC/Libraries/XMCLib/inc\xmc_usic.h ****   #pragma pop
 547:G:/DT/dt_g1_balancing_plate_wise20192020/XMC/Libraries/XMCLib/inc\xmc_usic.h **** #elif defined(__TASKING__)
 548:G:/DT/dt_g1_balancing_plate_wise20192020/XMC/Libraries/XMCLib/inc\xmc_usic.h ****   #pragma warning restore
 549:G:/DT/dt_g1_balancing_plate_wise20192020/XMC/Libraries/XMCLib/inc\xmc_usic.h **** #endif
 550:G:/DT/dt_g1_balancing_plate_wise20192020/XMC/Libraries/XMCLib/inc\xmc_usic.h **** 
 551:G:/DT/dt_g1_balancing_plate_wise20192020/XMC/Libraries/XMCLib/inc\xmc_usic.h **** /*******************************************************************************
 552:G:/DT/dt_g1_balancing_plate_wise20192020/XMC/Libraries/XMCLib/inc\xmc_usic.h ****  * API PROTOTYPES
 553:G:/DT/dt_g1_balancing_plate_wise20192020/XMC/Libraries/XMCLib/inc\xmc_usic.h ****  ******************************************************************************/
 554:G:/DT/dt_g1_balancing_plate_wise20192020/XMC/Libraries/XMCLib/inc\xmc_usic.h **** 
 555:G:/DT/dt_g1_balancing_plate_wise20192020/XMC/Libraries/XMCLib/inc\xmc_usic.h **** #ifdef __cplusplus
 556:G:/DT/dt_g1_balancing_plate_wise20192020/XMC/Libraries/XMCLib/inc\xmc_usic.h **** extern "C" {
 557:G:/DT/dt_g1_balancing_plate_wise20192020/XMC/Libraries/XMCLib/inc\xmc_usic.h **** #endif
 558:G:/DT/dt_g1_balancing_plate_wise20192020/XMC/Libraries/XMCLib/inc\xmc_usic.h **** 
 559:G:/DT/dt_g1_balancing_plate_wise20192020/XMC/Libraries/XMCLib/inc\xmc_usic.h **** __STATIC_INLINE bool XMC_USIC_IsModuleValid(const XMC_USIC_t *const module)
 560:G:/DT/dt_g1_balancing_plate_wise20192020/XMC/Libraries/XMCLib/inc\xmc_usic.h **** {
 561:G:/DT/dt_g1_balancing_plate_wise20192020/XMC/Libraries/XMCLib/inc\xmc_usic.h ****   bool tmp;
 562:G:/DT/dt_g1_balancing_plate_wise20192020/XMC/Libraries/XMCLib/inc\xmc_usic.h **** 
 563:G:/DT/dt_g1_balancing_plate_wise20192020/XMC/Libraries/XMCLib/inc\xmc_usic.h ****   tmp = (module == XMC_USIC0);
 564:G:/DT/dt_g1_balancing_plate_wise20192020/XMC/Libraries/XMCLib/inc\xmc_usic.h **** #if defined(XMC_USIC1)  
 565:G:/DT/dt_g1_balancing_plate_wise20192020/XMC/Libraries/XMCLib/inc\xmc_usic.h ****   tmp = tmp || (module == XMC_USIC1);
 566:G:/DT/dt_g1_balancing_plate_wise20192020/XMC/Libraries/XMCLib/inc\xmc_usic.h **** #endif
 567:G:/DT/dt_g1_balancing_plate_wise20192020/XMC/Libraries/XMCLib/inc\xmc_usic.h **** #if defined(XMC_USIC2)  
 568:G:/DT/dt_g1_balancing_plate_wise20192020/XMC/Libraries/XMCLib/inc\xmc_usic.h ****   tmp = tmp || (module == XMC_USIC2);
 569:G:/DT/dt_g1_balancing_plate_wise20192020/XMC/Libraries/XMCLib/inc\xmc_usic.h **** #endif
 570:G:/DT/dt_g1_balancing_plate_wise20192020/XMC/Libraries/XMCLib/inc\xmc_usic.h **** 
 571:G:/DT/dt_g1_balancing_plate_wise20192020/XMC/Libraries/XMCLib/inc\xmc_usic.h ****   return tmp;
 572:G:/DT/dt_g1_balancing_plate_wise20192020/XMC/Libraries/XMCLib/inc\xmc_usic.h **** }
 573:G:/DT/dt_g1_balancing_plate_wise20192020/XMC/Libraries/XMCLib/inc\xmc_usic.h **** 
 574:G:/DT/dt_g1_balancing_plate_wise20192020/XMC/Libraries/XMCLib/inc\xmc_usic.h **** __STATIC_INLINE bool XMC_USIC_IsChannelValid(const XMC_USIC_CH_t *const channel)
 575:G:/DT/dt_g1_balancing_plate_wise20192020/XMC/Libraries/XMCLib/inc\xmc_usic.h **** {
 576:G:/DT/dt_g1_balancing_plate_wise20192020/XMC/Libraries/XMCLib/inc\xmc_usic.h ****   bool tmp;
 577:G:/DT/dt_g1_balancing_plate_wise20192020/XMC/Libraries/XMCLib/inc\xmc_usic.h **** 
 578:G:/DT/dt_g1_balancing_plate_wise20192020/XMC/Libraries/XMCLib/inc\xmc_usic.h ****   tmp = ((channel == XMC_USIC0_CH0) || (channel == XMC_USIC0_CH1));
 579:G:/DT/dt_g1_balancing_plate_wise20192020/XMC/Libraries/XMCLib/inc\xmc_usic.h **** #if defined(XMC_USIC1)  
 580:G:/DT/dt_g1_balancing_plate_wise20192020/XMC/Libraries/XMCLib/inc\xmc_usic.h ****   tmp = tmp || ((channel == XMC_USIC1_CH0) || (channel == XMC_USIC1_CH1));
 581:G:/DT/dt_g1_balancing_plate_wise20192020/XMC/Libraries/XMCLib/inc\xmc_usic.h **** #endif
 582:G:/DT/dt_g1_balancing_plate_wise20192020/XMC/Libraries/XMCLib/inc\xmc_usic.h **** #if defined(XMC_USIC2)  
 583:G:/DT/dt_g1_balancing_plate_wise20192020/XMC/Libraries/XMCLib/inc\xmc_usic.h ****   tmp = tmp || ((channel == XMC_USIC2_CH0) || (channel == XMC_USIC2_CH1));
 584:G:/DT/dt_g1_balancing_plate_wise20192020/XMC/Libraries/XMCLib/inc\xmc_usic.h **** #endif
 585:G:/DT/dt_g1_balancing_plate_wise20192020/XMC/Libraries/XMCLib/inc\xmc_usic.h **** 
 586:G:/DT/dt_g1_balancing_plate_wise20192020/XMC/Libraries/XMCLib/inc\xmc_usic.h ****   return tmp;
 587:G:/DT/dt_g1_balancing_plate_wise20192020/XMC/Libraries/XMCLib/inc\xmc_usic.h **** }
 588:G:/DT/dt_g1_balancing_plate_wise20192020/XMC/Libraries/XMCLib/inc\xmc_usic.h **** 
 589:G:/DT/dt_g1_balancing_plate_wise20192020/XMC/Libraries/XMCLib/inc\xmc_usic.h **** /* Common APIs */
 590:G:/DT/dt_g1_balancing_plate_wise20192020/XMC/Libraries/XMCLib/inc\xmc_usic.h **** 
 591:G:/DT/dt_g1_balancing_plate_wise20192020/XMC/Libraries/XMCLib/inc\xmc_usic.h **** /**
 592:G:/DT/dt_g1_balancing_plate_wise20192020/XMC/Libraries/XMCLib/inc\xmc_usic.h ****  * @param  usic Pointer to USIC module handler of type @ref XMC_USIC_t.\n
 593:G:/DT/dt_g1_balancing_plate_wise20192020/XMC/Libraries/XMCLib/inc\xmc_usic.h ****  * 				\b Range: @ref XMC_USIC0 to @ref XMC_USIC2 based on device support.
 594:G:/DT/dt_g1_balancing_plate_wise20192020/XMC/Libraries/XMCLib/inc\xmc_usic.h ****  * @return None
 595:G:/DT/dt_g1_balancing_plate_wise20192020/XMC/Libraries/XMCLib/inc\xmc_usic.h ****  * 
 596:G:/DT/dt_g1_balancing_plate_wise20192020/XMC/Libraries/XMCLib/inc\xmc_usic.h ****  * \par<b>Description</b><br>
 597:G:/DT/dt_g1_balancing_plate_wise20192020/XMC/Libraries/XMCLib/inc\xmc_usic.h ****  * Enables the USIC module.\n\n
 598:G:/DT/dt_g1_balancing_plate_wise20192020/XMC/Libraries/XMCLib/inc\xmc_usic.h ****  * Enables the clock for the USIC module by following the
 599:G:/DT/dt_g1_balancing_plate_wise20192020/XMC/Libraries/XMCLib/inc\xmc_usic.h ****  * clock enabling sequence for the selected device.
 600:G:/DT/dt_g1_balancing_plate_wise20192020/XMC/Libraries/XMCLib/inc\xmc_usic.h ****  *
 601:G:/DT/dt_g1_balancing_plate_wise20192020/XMC/Libraries/XMCLib/inc\xmc_usic.h ****  * \par<b>Related APIs:</b><BR>
 602:G:/DT/dt_g1_balancing_plate_wise20192020/XMC/Libraries/XMCLib/inc\xmc_usic.h ****  * XMC_USIC_CH_Enable(), XMC_USIC_Disable() \n\n\n
 603:G:/DT/dt_g1_balancing_plate_wise20192020/XMC/Libraries/XMCLib/inc\xmc_usic.h ****  */
 604:G:/DT/dt_g1_balancing_plate_wise20192020/XMC/Libraries/XMCLib/inc\xmc_usic.h **** void XMC_USIC_Enable(XMC_USIC_t *const usic);
 605:G:/DT/dt_g1_balancing_plate_wise20192020/XMC/Libraries/XMCLib/inc\xmc_usic.h **** /**
 606:G:/DT/dt_g1_balancing_plate_wise20192020/XMC/Libraries/XMCLib/inc\xmc_usic.h ****  * @param  usic Pointer to USIC module handler of type @ref XMC_USIC_t.\n
 607:G:/DT/dt_g1_balancing_plate_wise20192020/XMC/Libraries/XMCLib/inc\xmc_usic.h ****  * 				\b Range: @ref XMC_USIC0 to @ref XMC_USIC2 based on device support.
 608:G:/DT/dt_g1_balancing_plate_wise20192020/XMC/Libraries/XMCLib/inc\xmc_usic.h ****  * @return None
 609:G:/DT/dt_g1_balancing_plate_wise20192020/XMC/Libraries/XMCLib/inc\xmc_usic.h ****  *
 610:G:/DT/dt_g1_balancing_plate_wise20192020/XMC/Libraries/XMCLib/inc\xmc_usic.h ****  * \par<b>Description</b><br>
 611:G:/DT/dt_g1_balancing_plate_wise20192020/XMC/Libraries/XMCLib/inc\xmc_usic.h ****  * Disables the USIC module.\n\n
 612:G:/DT/dt_g1_balancing_plate_wise20192020/XMC/Libraries/XMCLib/inc\xmc_usic.h ****  * Disables the clock for the USIC module by following the clock
 613:G:/DT/dt_g1_balancing_plate_wise20192020/XMC/Libraries/XMCLib/inc\xmc_usic.h ****  * disabling sequence for the selected device.
 614:G:/DT/dt_g1_balancing_plate_wise20192020/XMC/Libraries/XMCLib/inc\xmc_usic.h ****  *
 615:G:/DT/dt_g1_balancing_plate_wise20192020/XMC/Libraries/XMCLib/inc\xmc_usic.h ****  * \par<b>Related APIs:</b><BR>
 616:G:/DT/dt_g1_balancing_plate_wise20192020/XMC/Libraries/XMCLib/inc\xmc_usic.h ****  * XMC_USIC_CH_Disable(), XMC_USIC_Enable() \n\n\n
 617:G:/DT/dt_g1_balancing_plate_wise20192020/XMC/Libraries/XMCLib/inc\xmc_usic.h ****  */
 618:G:/DT/dt_g1_balancing_plate_wise20192020/XMC/Libraries/XMCLib/inc\xmc_usic.h **** void XMC_USIC_Disable(XMC_USIC_t *const usic);
 619:G:/DT/dt_g1_balancing_plate_wise20192020/XMC/Libraries/XMCLib/inc\xmc_usic.h **** /**
 620:G:/DT/dt_g1_balancing_plate_wise20192020/XMC/Libraries/XMCLib/inc\xmc_usic.h ****  * @param  channel Pointer to USIC channel handler of type @ref XMC_USIC_CH_t \n
 621:G:/DT/dt_g1_balancing_plate_wise20192020/XMC/Libraries/XMCLib/inc\xmc_usic.h ****  * 				   \b Range: @ref XMC_USIC0_CH0, @ref XMC_USIC0_CH1 to @ref XMC_USIC2_CH1 based on device su
 622:G:/DT/dt_g1_balancing_plate_wise20192020/XMC/Libraries/XMCLib/inc\xmc_usic.h ****  * @return None
 623:G:/DT/dt_g1_balancing_plate_wise20192020/XMC/Libraries/XMCLib/inc\xmc_usic.h ****  *
 624:G:/DT/dt_g1_balancing_plate_wise20192020/XMC/Libraries/XMCLib/inc\xmc_usic.h ****  * \par<b>Description</b><br>
 625:G:/DT/dt_g1_balancing_plate_wise20192020/XMC/Libraries/XMCLib/inc\xmc_usic.h ****  * Enables the USIC channel. \n\n
 626:G:/DT/dt_g1_balancing_plate_wise20192020/XMC/Libraries/XMCLib/inc\xmc_usic.h ****  * USIC channel is enabled by setting the module enable bit in KSCFG register bitfield MODEN.
 627:G:/DT/dt_g1_balancing_plate_wise20192020/XMC/Libraries/XMCLib/inc\xmc_usic.h ****  * On enabling, the channel is set to idle mode.
 628:G:/DT/dt_g1_balancing_plate_wise20192020/XMC/Libraries/XMCLib/inc\xmc_usic.h ****  *
 629:G:/DT/dt_g1_balancing_plate_wise20192020/XMC/Libraries/XMCLib/inc\xmc_usic.h ****  * \par<b>Related APIs:</b><BR>
 630:G:/DT/dt_g1_balancing_plate_wise20192020/XMC/Libraries/XMCLib/inc\xmc_usic.h ****  * XMC_USIC_CH_Disable(), XMC_USIC_Enable() \n\n\n
 631:G:/DT/dt_g1_balancing_plate_wise20192020/XMC/Libraries/XMCLib/inc\xmc_usic.h ****  */
 632:G:/DT/dt_g1_balancing_plate_wise20192020/XMC/Libraries/XMCLib/inc\xmc_usic.h **** void XMC_USIC_CH_Enable(XMC_USIC_CH_t *const channel);
 633:G:/DT/dt_g1_balancing_plate_wise20192020/XMC/Libraries/XMCLib/inc\xmc_usic.h **** /**
 634:G:/DT/dt_g1_balancing_plate_wise20192020/XMC/Libraries/XMCLib/inc\xmc_usic.h ****  * @param  channel Pointer to USIC channel handler of type @ref XMC_USIC_CH_t \n
 635:G:/DT/dt_g1_balancing_plate_wise20192020/XMC/Libraries/XMCLib/inc\xmc_usic.h ****  * 				   \b Range: @ref XMC_USIC0_CH0, @ref XMC_USIC0_CH1 to @ref XMC_USIC2_CH1 based on device su
 636:G:/DT/dt_g1_balancing_plate_wise20192020/XMC/Libraries/XMCLib/inc\xmc_usic.h ****  * @return None
 637:G:/DT/dt_g1_balancing_plate_wise20192020/XMC/Libraries/XMCLib/inc\xmc_usic.h ****  *
 638:G:/DT/dt_g1_balancing_plate_wise20192020/XMC/Libraries/XMCLib/inc\xmc_usic.h ****  * \par<b>Description</b><br>
 639:G:/DT/dt_g1_balancing_plate_wise20192020/XMC/Libraries/XMCLib/inc\xmc_usic.h ****  * Disables the USIC channel.\n\n
 640:G:/DT/dt_g1_balancing_plate_wise20192020/XMC/Libraries/XMCLib/inc\xmc_usic.h ****  * USIC channel is disabled by setting the module enable bit(MDEN) to 0 in the register KSCFG.
 641:G:/DT/dt_g1_balancing_plate_wise20192020/XMC/Libraries/XMCLib/inc\xmc_usic.h ****  *
 642:G:/DT/dt_g1_balancing_plate_wise20192020/XMC/Libraries/XMCLib/inc\xmc_usic.h ****  * \par<b>Related APIs:</b><BR>
 643:G:/DT/dt_g1_balancing_plate_wise20192020/XMC/Libraries/XMCLib/inc\xmc_usic.h ****  * XMC_USIC_CH_Enable(), XMC_USIC_Disable() \n\n\n
 644:G:/DT/dt_g1_balancing_plate_wise20192020/XMC/Libraries/XMCLib/inc\xmc_usic.h ****  */
 645:G:/DT/dt_g1_balancing_plate_wise20192020/XMC/Libraries/XMCLib/inc\xmc_usic.h **** void XMC_USIC_CH_Disable(XMC_USIC_CH_t *const channel);
 646:G:/DT/dt_g1_balancing_plate_wise20192020/XMC/Libraries/XMCLib/inc\xmc_usic.h **** 
 647:G:/DT/dt_g1_balancing_plate_wise20192020/XMC/Libraries/XMCLib/inc\xmc_usic.h **** /**
 648:G:/DT/dt_g1_balancing_plate_wise20192020/XMC/Libraries/XMCLib/inc\xmc_usic.h ****  * @param  channel Pointer to USIC channel handler of type @ref XMC_USIC_CH_t \n
 649:G:/DT/dt_g1_balancing_plate_wise20192020/XMC/Libraries/XMCLib/inc\xmc_usic.h ****  * 				   \b Range: @ref XMC_USIC0_CH0, @ref XMC_USIC0_CH1 to @ref XMC_USIC2_CH1 based on device su
 650:G:/DT/dt_g1_balancing_plate_wise20192020/XMC/Libraries/XMCLib/inc\xmc_usic.h ****  * @param  rate Desired baudrate. \b Range: minimum value = 100, maximum value depends on the perip
 651:G:/DT/dt_g1_balancing_plate_wise20192020/XMC/Libraries/XMCLib/inc\xmc_usic.h ****  * 				and \a oversampling. Maximum baudrate can be derived using the formula: (fperiph * 1023)/(10
 652:G:/DT/dt_g1_balancing_plate_wise20192020/XMC/Libraries/XMCLib/inc\xmc_usic.h ****  * @param  oversampling Required oversampling. The value indicates the number of time quanta for on
 653:G:/DT/dt_g1_balancing_plate_wise20192020/XMC/Libraries/XMCLib/inc\xmc_usic.h ****  * 						This can be related to the number of samples for each logic state of the data signal. \n
 654:G:/DT/dt_g1_balancing_plate_wise20192020/XMC/Libraries/XMCLib/inc\xmc_usic.h ****  * 						\b Range: 1 to 32. Value should be chosen based on the protocol used.
 655:G:/DT/dt_g1_balancing_plate_wise20192020/XMC/Libraries/XMCLib/inc\xmc_usic.h ****  * @return Status indicating the baudrate configuration.\n
 656:G:/DT/dt_g1_balancing_plate_wise20192020/XMC/Libraries/XMCLib/inc\xmc_usic.h ****  * 			\b Range: @ref XMC_USIC_CH_STATUS_OK if baudrate is successfully configured,
 657:G:/DT/dt_g1_balancing_plate_wise20192020/XMC/Libraries/XMCLib/inc\xmc_usic.h ****  * 					  @ref XMC_USIC_CH_STATUS_ERROR if desired baudrate or oversampling is invalid.
 658:G:/DT/dt_g1_balancing_plate_wise20192020/XMC/Libraries/XMCLib/inc\xmc_usic.h ****  *
 659:G:/DT/dt_g1_balancing_plate_wise20192020/XMC/Libraries/XMCLib/inc\xmc_usic.h ****  * \par<b>Description</b><br>
 660:G:/DT/dt_g1_balancing_plate_wise20192020/XMC/Libraries/XMCLib/inc\xmc_usic.h ****  * Configures the baudrate of the USIC channel. \n\n
 661:G:/DT/dt_g1_balancing_plate_wise20192020/XMC/Libraries/XMCLib/inc\xmc_usic.h ****  * Baudrate is configured by considering the peripheral frequency and the desired baudrate.
 662:G:/DT/dt_g1_balancing_plate_wise20192020/XMC/Libraries/XMCLib/inc\xmc_usic.h ****  * Optimum values of FDR->STEP and BRG->PDIV are calulated and used for generating the desired
 663:G:/DT/dt_g1_balancing_plate_wise20192020/XMC/Libraries/XMCLib/inc\xmc_usic.h ****  * baudrate.
 664:G:/DT/dt_g1_balancing_plate_wise20192020/XMC/Libraries/XMCLib/inc\xmc_usic.h ****  *
 665:G:/DT/dt_g1_balancing_plate_wise20192020/XMC/Libraries/XMCLib/inc\xmc_usic.h ****  * \par<b>Related APIs:</b><BR>
 666:G:/DT/dt_g1_balancing_plate_wise20192020/XMC/Libraries/XMCLib/inc\xmc_usic.h ****  * XMC_USIC_CH_SetStartTransmisionMode(), XMC_USIC_CH_SetInputSource() \n\n\n
 667:G:/DT/dt_g1_balancing_plate_wise20192020/XMC/Libraries/XMCLib/inc\xmc_usic.h ****  */
 668:G:/DT/dt_g1_balancing_plate_wise20192020/XMC/Libraries/XMCLib/inc\xmc_usic.h **** XMC_USIC_CH_STATUS_t XMC_USIC_CH_SetBaudrate(XMC_USIC_CH_t *const channel, uint32_t rate, uint32_t 
 669:G:/DT/dt_g1_balancing_plate_wise20192020/XMC/Libraries/XMCLib/inc\xmc_usic.h **** 
 670:G:/DT/dt_g1_balancing_plate_wise20192020/XMC/Libraries/XMCLib/inc\xmc_usic.h **** /**
 671:G:/DT/dt_g1_balancing_plate_wise20192020/XMC/Libraries/XMCLib/inc\xmc_usic.h ****  * @param  channel Pointer to USIC channel handler of type @ref XMC_USIC_CH_t \n
 672:G:/DT/dt_g1_balancing_plate_wise20192020/XMC/Libraries/XMCLib/inc\xmc_usic.h ****  *           \b Range: @ref XMC_USIC0_CH0, @ref XMC_USIC0_CH1 to @ref XMC_USIC2_CH1 based on device
 673:G:/DT/dt_g1_balancing_plate_wise20192020/XMC/Libraries/XMCLib/inc\xmc_usic.h ****  * @param  rate Desired baudrate. Only integer dividers of peripheral clock are achievable
 674:G:/DT/dt_g1_balancing_plate_wise20192020/XMC/Libraries/XMCLib/inc\xmc_usic.h ****  * @param  oversampling Required oversampling. The value indicates the number of time quanta for on
 675:G:/DT/dt_g1_balancing_plate_wise20192020/XMC/Libraries/XMCLib/inc\xmc_usic.h ****  *            This can be related to the number of samples for each logic state of the data signal.
 676:G:/DT/dt_g1_balancing_plate_wise20192020/XMC/Libraries/XMCLib/inc\xmc_usic.h ****  *            \b Range: 1 to 32. Value should be chosen based on the protocol used.
 677:G:/DT/dt_g1_balancing_plate_wise20192020/XMC/Libraries/XMCLib/inc\xmc_usic.h ****  * @return Status indicating the baudrate configuration.\n
 678:G:/DT/dt_g1_balancing_plate_wise20192020/XMC/Libraries/XMCLib/inc\xmc_usic.h ****  *      \b Range: @ref XMC_USIC_CH_STATUS_OK if baudrate is successfully configured,
 679:G:/DT/dt_g1_balancing_plate_wise20192020/XMC/Libraries/XMCLib/inc\xmc_usic.h ****  *            @ref XMC_USIC_CH_STATUS_ERROR if desired baudrate or oversampling is invalid.
 680:G:/DT/dt_g1_balancing_plate_wise20192020/XMC/Libraries/XMCLib/inc\xmc_usic.h ****  *
 681:G:/DT/dt_g1_balancing_plate_wise20192020/XMC/Libraries/XMCLib/inc\xmc_usic.h ****  * \par<b>Description</b><br>
 682:G:/DT/dt_g1_balancing_plate_wise20192020/XMC/Libraries/XMCLib/inc\xmc_usic.h ****  * Configures the baudrate of the USIC channel using the integer divider which restrics the achieva
 683:G:/DT/dt_g1_balancing_plate_wise20192020/XMC/Libraries/XMCLib/inc\xmc_usic.h ****  * Baudrate is configured by considering the peripheral frequency and the desired baudrate.
 684:G:/DT/dt_g1_balancing_plate_wise20192020/XMC/Libraries/XMCLib/inc\xmc_usic.h ****  * Optimum values of FDR->STEP and BRG->PDIV are calulated and used for generating the desired
 685:G:/DT/dt_g1_balancing_plate_wise20192020/XMC/Libraries/XMCLib/inc\xmc_usic.h ****  * baudrate.
 686:G:/DT/dt_g1_balancing_plate_wise20192020/XMC/Libraries/XMCLib/inc\xmc_usic.h ****  *
 687:G:/DT/dt_g1_balancing_plate_wise20192020/XMC/Libraries/XMCLib/inc\xmc_usic.h ****  * \par<b>Related APIs:</b><BR>
 688:G:/DT/dt_g1_balancing_plate_wise20192020/XMC/Libraries/XMCLib/inc\xmc_usic.h ****  * XMC_USIC_CH_SetStartTransmisionMode(), XMC_USIC_CH_SetInputSource() \n\n\n
 689:G:/DT/dt_g1_balancing_plate_wise20192020/XMC/Libraries/XMCLib/inc\xmc_usic.h ****  */
 690:G:/DT/dt_g1_balancing_plate_wise20192020/XMC/Libraries/XMCLib/inc\xmc_usic.h **** XMC_USIC_CH_STATUS_t XMC_USIC_CH_SetBaudrateEx(XMC_USIC_CH_t *const channel, uint32_t rate, uint32_
 691:G:/DT/dt_g1_balancing_plate_wise20192020/XMC/Libraries/XMCLib/inc\xmc_usic.h **** 
 692:G:/DT/dt_g1_balancing_plate_wise20192020/XMC/Libraries/XMCLib/inc\xmc_usic.h **** 
 693:G:/DT/dt_g1_balancing_plate_wise20192020/XMC/Libraries/XMCLib/inc\xmc_usic.h **** /**
 694:G:/DT/dt_g1_balancing_plate_wise20192020/XMC/Libraries/XMCLib/inc\xmc_usic.h ****  * @param  channel Pointer to USIC channel handler of type @ref XMC_USIC_CH_t \n
 695:G:/DT/dt_g1_balancing_plate_wise20192020/XMC/Libraries/XMCLib/inc\xmc_usic.h ****  *           \b Range: @ref XMC_USIC0_CH0, @ref XMC_USIC0_CH1 to @ref XMC_USIC2_CH1 based on device
 696:G:/DT/dt_g1_balancing_plate_wise20192020/XMC/Libraries/XMCLib/inc\xmc_usic.h ****  * @return baudrate currently used by USIC channel for .\n
 697:G:/DT/dt_g1_balancing_plate_wise20192020/XMC/Libraries/XMCLib/inc\xmc_usic.h ****  *
 698:G:/DT/dt_g1_balancing_plate_wise20192020/XMC/Libraries/XMCLib/inc\xmc_usic.h ****  * \par<b>Description</b><br>
 699:G:/DT/dt_g1_balancing_plate_wise20192020/XMC/Libraries/XMCLib/inc\xmc_usic.h ****  * Calculates the current used baudrate (fCTQIN) of a USIC channel. \n\n
 700:G:/DT/dt_g1_balancing_plate_wise20192020/XMC/Libraries/XMCLib/inc\xmc_usic.h ****  * @image html ../images/usic_brg.png	 
 701:G:/DT/dt_g1_balancing_plate_wise20192020/XMC/Libraries/XMCLib/inc\xmc_usic.h ****  * @image latex ../images/usic_brg.png	 
 702:G:/DT/dt_g1_balancing_plate_wise20192020/XMC/Libraries/XMCLib/inc\xmc_usic.h ****  *
 703:G:/DT/dt_g1_balancing_plate_wise20192020/XMC/Libraries/XMCLib/inc\xmc_usic.h ****  * \par<b>Related APIs:</b><BR>
 704:G:/DT/dt_g1_balancing_plate_wise20192020/XMC/Libraries/XMCLib/inc\xmc_usic.h ****  * XMC_USIC_CH_SetBaudrateMode(), XMC_USIC_CH_SetBaudrate(), XMC_USIC_CH_SetBaudrateEx() \n\n\n
 705:G:/DT/dt_g1_balancing_plate_wise20192020/XMC/Libraries/XMCLib/inc\xmc_usic.h ****  */
 706:G:/DT/dt_g1_balancing_plate_wise20192020/XMC/Libraries/XMCLib/inc\xmc_usic.h **** uint32_t XMC_USIC_CH_GetBaudrate(XMC_USIC_CH_t *const channel);
 707:G:/DT/dt_g1_balancing_plate_wise20192020/XMC/Libraries/XMCLib/inc\xmc_usic.h **** 
 708:G:/DT/dt_g1_balancing_plate_wise20192020/XMC/Libraries/XMCLib/inc\xmc_usic.h **** /**
 709:G:/DT/dt_g1_balancing_plate_wise20192020/XMC/Libraries/XMCLib/inc\xmc_usic.h ****  * @param  channel Pointer to USIC channel handler of type @ref XMC_USIC_CH_t \n
 710:G:/DT/dt_g1_balancing_plate_wise20192020/XMC/Libraries/XMCLib/inc\xmc_usic.h ****  *           \b Range: @ref XMC_USIC0_CH0, @ref XMC_USIC0_CH1 to @ref XMC_USIC2_CH1 based on device
 711:G:/DT/dt_g1_balancing_plate_wise20192020/XMC/Libraries/XMCLib/inc\xmc_usic.h ****  * @return baudrate currently used by USIC channel.\n
 712:G:/DT/dt_g1_balancing_plate_wise20192020/XMC/Libraries/XMCLib/inc\xmc_usic.h ****  *
 713:G:/DT/dt_g1_balancing_plate_wise20192020/XMC/Libraries/XMCLib/inc\xmc_usic.h ****  * \par<b>Description</b><br>
 714:G:/DT/dt_g1_balancing_plate_wise20192020/XMC/Libraries/XMCLib/inc\xmc_usic.h ****  * Calculates the current used SCLK frequency of a USIC channel. \n\n
 715:G:/DT/dt_g1_balancing_plate_wise20192020/XMC/Libraries/XMCLib/inc\xmc_usic.h ****  * @image html ../images/usic_brg.png	 
 716:G:/DT/dt_g1_balancing_plate_wise20192020/XMC/Libraries/XMCLib/inc\xmc_usic.h ****  * @image latex ../images/usic_brg.png	 
 717:G:/DT/dt_g1_balancing_plate_wise20192020/XMC/Libraries/XMCLib/inc\xmc_usic.h ****  *
 718:G:/DT/dt_g1_balancing_plate_wise20192020/XMC/Libraries/XMCLib/inc\xmc_usic.h ****  * \par<b>Related APIs:</b><BR>
 719:G:/DT/dt_g1_balancing_plate_wise20192020/XMC/Libraries/XMCLib/inc\xmc_usic.h ****  * XMC_USIC_CH_SetBaudrateMode(), XMC_USIC_CH_SetBaudrate(), XMC_USIC_CH_SetBaudrateEx() \n\n\n
 720:G:/DT/dt_g1_balancing_plate_wise20192020/XMC/Libraries/XMCLib/inc\xmc_usic.h ****  */
 721:G:/DT/dt_g1_balancing_plate_wise20192020/XMC/Libraries/XMCLib/inc\xmc_usic.h **** uint32_t XMC_USIC_CH_GetSCLKFrequency(XMC_USIC_CH_t *const channel);
 722:G:/DT/dt_g1_balancing_plate_wise20192020/XMC/Libraries/XMCLib/inc\xmc_usic.h **** 
 723:G:/DT/dt_g1_balancing_plate_wise20192020/XMC/Libraries/XMCLib/inc\xmc_usic.h **** /**
 724:G:/DT/dt_g1_balancing_plate_wise20192020/XMC/Libraries/XMCLib/inc\xmc_usic.h ****  * @param  channel Pointer to USIC channel handler of type @ref XMC_USIC_CH_t \n
 725:G:/DT/dt_g1_balancing_plate_wise20192020/XMC/Libraries/XMCLib/inc\xmc_usic.h ****  *           \b Range: @ref XMC_USIC0_CH0, @ref XMC_USIC0_CH1 to @ref XMC_USIC2_CH1 based on device
 726:G:/DT/dt_g1_balancing_plate_wise20192020/XMC/Libraries/XMCLib/inc\xmc_usic.h ****  * @return baudrate currently used by USIC channel.\n
 727:G:/DT/dt_g1_balancing_plate_wise20192020/XMC/Libraries/XMCLib/inc\xmc_usic.h ****  *
 728:G:/DT/dt_g1_balancing_plate_wise20192020/XMC/Libraries/XMCLib/inc\xmc_usic.h ****  * \par<b>Description</b><br>
 729:G:/DT/dt_g1_balancing_plate_wise20192020/XMC/Libraries/XMCLib/inc\xmc_usic.h ****  * Calculates the current used MCLK frequency of a USIC channel. \n\n
 730:G:/DT/dt_g1_balancing_plate_wise20192020/XMC/Libraries/XMCLib/inc\xmc_usic.h ****  * @image html ../images/usic_brg.png	 
 731:G:/DT/dt_g1_balancing_plate_wise20192020/XMC/Libraries/XMCLib/inc\xmc_usic.h ****  * @image latex ../images/usic_brg.png	 
 732:G:/DT/dt_g1_balancing_plate_wise20192020/XMC/Libraries/XMCLib/inc\xmc_usic.h ****  *
 733:G:/DT/dt_g1_balancing_plate_wise20192020/XMC/Libraries/XMCLib/inc\xmc_usic.h ****  * \par<b>Related APIs:</b><BR>
 734:G:/DT/dt_g1_balancing_plate_wise20192020/XMC/Libraries/XMCLib/inc\xmc_usic.h ****  * XMC_USIC_CH_SetBaudrateMode(), XMC_USIC_CH_SetBaudrate(), XMC_USIC_CH_SetBaudrateEx() \n\n\n
 735:G:/DT/dt_g1_balancing_plate_wise20192020/XMC/Libraries/XMCLib/inc\xmc_usic.h ****  */
 736:G:/DT/dt_g1_balancing_plate_wise20192020/XMC/Libraries/XMCLib/inc\xmc_usic.h **** uint32_t XMC_USIC_CH_GetMCLKFrequency(XMC_USIC_CH_t *const channel);
 737:G:/DT/dt_g1_balancing_plate_wise20192020/XMC/Libraries/XMCLib/inc\xmc_usic.h **** 
 738:G:/DT/dt_g1_balancing_plate_wise20192020/XMC/Libraries/XMCLib/inc\xmc_usic.h **** /**
 739:G:/DT/dt_g1_balancing_plate_wise20192020/XMC/Libraries/XMCLib/inc\xmc_usic.h ****  * @param  channel Pointer to USIC channel handler of type @ref XMC_USIC_CH_t \n
 740:G:/DT/dt_g1_balancing_plate_wise20192020/XMC/Libraries/XMCLib/inc\xmc_usic.h ****  * 				   \b Range: @ref XMC_USIC0_CH0, @ref XMC_USIC0_CH1 to @ref XMC_USIC2_CH1 based on device su
 741:G:/DT/dt_g1_balancing_plate_wise20192020/XMC/Libraries/XMCLib/inc\xmc_usic.h ****  * @param  pdiv Desired divider for the external frequency input. \b Range: minimum value = 1, maxi
 742:G:/DT/dt_g1_balancing_plate_wise20192020/XMC/Libraries/XMCLib/inc\xmc_usic.h ****  * @param  oversampling Required oversampling. The value indicates the number of time quanta for on
 743:G:/DT/dt_g1_balancing_plate_wise20192020/XMC/Libraries/XMCLib/inc\xmc_usic.h ****  * 						This can be related to the number of samples for each logic state of the data signal. \n
 744:G:/DT/dt_g1_balancing_plate_wise20192020/XMC/Libraries/XMCLib/inc\xmc_usic.h ****  * 						\b Range: 1 to 32. Value should be chosen based on the protocol used.
 745:G:/DT/dt_g1_balancing_plate_wise20192020/XMC/Libraries/XMCLib/inc\xmc_usic.h ****  * @param  combination_mode Selects which edge of the synchronized(and optionally filtered) signal 
 746:G:/DT/dt_g1_balancing_plate_wise20192020/XMC/Libraries/XMCLib/inc\xmc_usic.h ****  *                          output DXnT of the input stage.
 747:G:/DT/dt_g1_balancing_plate_wise20192020/XMC/Libraries/XMCLib/inc\xmc_usic.h ****  *
 748:G:/DT/dt_g1_balancing_plate_wise20192020/XMC/Libraries/XMCLib/inc\xmc_usic.h ****  * @return None
 749:G:/DT/dt_g1_balancing_plate_wise20192020/XMC/Libraries/XMCLib/inc\xmc_usic.h ****  *
 750:G:/DT/dt_g1_balancing_plate_wise20192020/XMC/Libraries/XMCLib/inc\xmc_usic.h ****  * \par<b>Description</b><br>
 751:G:/DT/dt_g1_balancing_plate_wise20192020/XMC/Libraries/XMCLib/inc\xmc_usic.h ****  * Enables the external frequency input for the Baudrate Generator and configures the divider, over
 752:G:/DT/dt_g1_balancing_plate_wise20192020/XMC/Libraries/XMCLib/inc\xmc_usic.h ****  * the combination mode of the USIC channel. \n\n
 753:G:/DT/dt_g1_balancing_plate_wise20192020/XMC/Libraries/XMCLib/inc\xmc_usic.h ****  *
 754:G:/DT/dt_g1_balancing_plate_wise20192020/XMC/Libraries/XMCLib/inc\xmc_usic.h ****  * \par<b>Related APIs:</b><BR>
 755:G:/DT/dt_g1_balancing_plate_wise20192020/XMC/Libraries/XMCLib/inc\xmc_usic.h ****  * XMC_USIC_CH_SetBRGInputClockSource(), XMC_USIC_CH_SetInputTriggerCombinationMode() \n\n\n
 756:G:/DT/dt_g1_balancing_plate_wise20192020/XMC/Libraries/XMCLib/inc\xmc_usic.h ****  */
 757:G:/DT/dt_g1_balancing_plate_wise20192020/XMC/Libraries/XMCLib/inc\xmc_usic.h **** void XMC_USIC_CH_ConfigExternalInputSignalToBRG(XMC_USIC_CH_t *const channel,
 758:G:/DT/dt_g1_balancing_plate_wise20192020/XMC/Libraries/XMCLib/inc\xmc_usic.h **** 		                                         const uint16_t pdiv,
 759:G:/DT/dt_g1_balancing_plate_wise20192020/XMC/Libraries/XMCLib/inc\xmc_usic.h **** 												 const uint32_t oversampling,
 760:G:/DT/dt_g1_balancing_plate_wise20192020/XMC/Libraries/XMCLib/inc\xmc_usic.h **** 												 const XMC_USIC_CH_INPUT_COMBINATION_MODE_t combination_mode);
 761:G:/DT/dt_g1_balancing_plate_wise20192020/XMC/Libraries/XMCLib/inc\xmc_usic.h **** 
 762:G:/DT/dt_g1_balancing_plate_wise20192020/XMC/Libraries/XMCLib/inc\xmc_usic.h **** /**
 763:G:/DT/dt_g1_balancing_plate_wise20192020/XMC/Libraries/XMCLib/inc\xmc_usic.h ****  * @param  channel Pointer to USIC channel handler of type @ref XMC_USIC_CH_t \n
 764:G:/DT/dt_g1_balancing_plate_wise20192020/XMC/Libraries/XMCLib/inc\xmc_usic.h ****  * 				   \b Range: @ref XMC_USIC0_CH0, @ref XMC_USIC0_CH1 to @ref XMC_USIC2_CH1 based on device su
 765:G:/DT/dt_g1_balancing_plate_wise20192020/XMC/Libraries/XMCLib/inc\xmc_usic.h ****  * @param  input USIC channel input stage of type @ref XMC_USIC_CH_INPUT_t. \n
 766:G:/DT/dt_g1_balancing_plate_wise20192020/XMC/Libraries/XMCLib/inc\xmc_usic.h ****  * 				 \b Range: @ref XMC_USIC_CH_INPUT_DX0 to @ref XMC_USIC_CH_INPUT_DX5
 767:G:/DT/dt_g1_balancing_plate_wise20192020/XMC/Libraries/XMCLib/inc\xmc_usic.h ****  * @param  source Input source select for the input stage. The table below maps the enum value with
 768:G:/DT/dt_g1_balancing_plate_wise20192020/XMC/Libraries/XMCLib/inc\xmc_usic.h ****  * <table><tr><td>0</td><td>DXnA</td></tr><tr><td>1</td><td>DXnB</td></tr><tr><td>2</td><td>DXnC</t
 769:G:/DT/dt_g1_balancing_plate_wise20192020/XMC/Libraries/XMCLib/inc\xmc_usic.h ****  * <tr><td>4</td><td>DXnE</td></tr><tr><td>5</td><td>DXnF</td></tr><tr><td>6</td><td>DXnG</td></tr>
 770:G:/DT/dt_g1_balancing_plate_wise20192020/XMC/Libraries/XMCLib/inc\xmc_usic.h ****  * </tr></table>
 771:G:/DT/dt_g1_balancing_plate_wise20192020/XMC/Libraries/XMCLib/inc\xmc_usic.h ****  * @return None
 772:G:/DT/dt_g1_balancing_plate_wise20192020/XMC/Libraries/XMCLib/inc\xmc_usic.h ****  *
 773:G:/DT/dt_g1_balancing_plate_wise20192020/XMC/Libraries/XMCLib/inc\xmc_usic.h ****  * \par<b>Description</b><br>
 774:G:/DT/dt_g1_balancing_plate_wise20192020/XMC/Libraries/XMCLib/inc\xmc_usic.h ****  * Selects the data source for USIC input stage.\n\n
 775:G:/DT/dt_g1_balancing_plate_wise20192020/XMC/Libraries/XMCLib/inc\xmc_usic.h ****  * Selects the input data signal source among DXnA, DXnB.. DXnG for the input stage. The API can be
 776:G:/DT/dt_g1_balancing_plate_wise20192020/XMC/Libraries/XMCLib/inc\xmc_usic.h ****  * like DX0CR, DX1CR etc. 
 777:G:/DT/dt_g1_balancing_plate_wise20192020/XMC/Libraries/XMCLib/inc\xmc_usic.h ****  *  
 778:G:/DT/dt_g1_balancing_plate_wise20192020/XMC/Libraries/XMCLib/inc\xmc_usic.h ****  * \par<b>Related APIs:</b><BR>
 779:G:/DT/dt_g1_balancing_plate_wise20192020/XMC/Libraries/XMCLib/inc\xmc_usic.h ****  * XMC_USIC_CH_EnableInputInversion(), XMC_USIC_CH_EnableInputDigitalFilter(), XMC_USIC_CH_EnableIn
 780:G:/DT/dt_g1_balancing_plate_wise20192020/XMC/Libraries/XMCLib/inc\xmc_usic.h ****  * XMC_USIC_CH_SetInputSamplingFreq()\n\n\n
 781:G:/DT/dt_g1_balancing_plate_wise20192020/XMC/Libraries/XMCLib/inc\xmc_usic.h ****  */
 782:G:/DT/dt_g1_balancing_plate_wise20192020/XMC/Libraries/XMCLib/inc\xmc_usic.h **** __STATIC_INLINE void XMC_USIC_CH_SetInputSource(XMC_USIC_CH_t *const channel, const XMC_USIC_CH_INP
 783:G:/DT/dt_g1_balancing_plate_wise20192020/XMC/Libraries/XMCLib/inc\xmc_usic.h **** {
 784:G:/DT/dt_g1_balancing_plate_wise20192020/XMC/Libraries/XMCLib/inc\xmc_usic.h ****   channel->DXCR[input] = (uint32_t)((channel->DXCR[input] & (uint32_t)(~USIC_CH_DXCR_DSEL_Msk)) |
  58              	 .loc 2 784 0
  59 0018 E369     	 ldr r3,[r4,#28]
  60              	.LBE13:
  61              	.LBE12:
 157:../Dave/Generated/UART/uart_conf.c ****   /*Set input source path*/
 158:../Dave/Generated/UART/uart_conf.c ****   XMC_USIC_CH_SetInputSource(XMC_UART0_CH0, XMC_USIC_CH_INPUT_DX0, 1U);
 159:../Dave/Generated/UART/uart_conf.c ****   /* Start UART */
 160:../Dave/Generated/UART/uart_conf.c ****   XMC_UART_CH_Start(XMC_UART0_CH0);
 161:../Dave/Generated/UART/uart_conf.c **** 
 162:../Dave/Generated/UART/uart_conf.c ****   /* Initialize UART TX pin */
 163:../Dave/Generated/UART/uart_conf.c ****   XMC_GPIO_Init((XMC_GPIO_PORT_t *)PORT1_BASE, 5U, &UART_0_tx_pin_config);
  62              	 .loc 1 163 0
  63 001a 144A     	 ldr r2,.L2+16
  64              	.LBB15:
  65              	.LBB14:
  66              	 .loc 2 784 0
  67 001c 23F00703 	 bic r3,r3,#7
  68 0020 43F00103 	 orr r3,r3,#1
  69 0024 E361     	 str r3,[r4,#28]
  70              	.LVL3:
  71              	.LBE14:
  72              	.LBE15:
  73              	.LBB16:
  74              	.LBB17:
  75              	 .file 3 "G:/DT/dt_g1_balancing_plate_wise20192020/XMC/Libraries/XMCLib/inc/xmc_uart.h"
   1:G:/DT/dt_g1_balancing_plate_wise20192020/XMC/Libraries/XMCLib/inc\xmc_uart.h ****  /**
   2:G:/DT/dt_g1_balancing_plate_wise20192020/XMC/Libraries/XMCLib/inc\xmc_uart.h ****  * @file xmc_uart.h
   3:G:/DT/dt_g1_balancing_plate_wise20192020/XMC/Libraries/XMCLib/inc\xmc_uart.h ****  * @date 2019-05-07
   4:G:/DT/dt_g1_balancing_plate_wise20192020/XMC/Libraries/XMCLib/inc\xmc_uart.h ****  *
   5:G:/DT/dt_g1_balancing_plate_wise20192020/XMC/Libraries/XMCLib/inc\xmc_uart.h ****  * @cond
   6:G:/DT/dt_g1_balancing_plate_wise20192020/XMC/Libraries/XMCLib/inc\xmc_uart.h ****  **************************************************************************************************
   7:G:/DT/dt_g1_balancing_plate_wise20192020/XMC/Libraries/XMCLib/inc\xmc_uart.h ****  * XMClib v2.1.22 - XMC Peripheral Driver Library 
   8:G:/DT/dt_g1_balancing_plate_wise20192020/XMC/Libraries/XMCLib/inc\xmc_uart.h ****  *
   9:G:/DT/dt_g1_balancing_plate_wise20192020/XMC/Libraries/XMCLib/inc\xmc_uart.h ****  * Copyright (c) 2015-2019, Infineon Technologies AG
  10:G:/DT/dt_g1_balancing_plate_wise20192020/XMC/Libraries/XMCLib/inc\xmc_uart.h ****  * All rights reserved.                        
  11:G:/DT/dt_g1_balancing_plate_wise20192020/XMC/Libraries/XMCLib/inc\xmc_uart.h ****  *                                             
  12:G:/DT/dt_g1_balancing_plate_wise20192020/XMC/Libraries/XMCLib/inc\xmc_uart.h ****  * Redistribution and use in source and binary forms, with or without modification,are permitted pr
  13:G:/DT/dt_g1_balancing_plate_wise20192020/XMC/Libraries/XMCLib/inc\xmc_uart.h ****  * following conditions are met:   
  14:G:/DT/dt_g1_balancing_plate_wise20192020/XMC/Libraries/XMCLib/inc\xmc_uart.h ****  *                                                                              
  15:G:/DT/dt_g1_balancing_plate_wise20192020/XMC/Libraries/XMCLib/inc\xmc_uart.h ****  * Redistributions of source code must retain the above copyright notice, this list of conditions a
  16:G:/DT/dt_g1_balancing_plate_wise20192020/XMC/Libraries/XMCLib/inc\xmc_uart.h ****  * disclaimer.                        
  17:G:/DT/dt_g1_balancing_plate_wise20192020/XMC/Libraries/XMCLib/inc\xmc_uart.h ****  * 
  18:G:/DT/dt_g1_balancing_plate_wise20192020/XMC/Libraries/XMCLib/inc\xmc_uart.h ****  * Redistributions in binary form must reproduce the above copyright notice, this list of condition
  19:G:/DT/dt_g1_balancing_plate_wise20192020/XMC/Libraries/XMCLib/inc\xmc_uart.h ****  * disclaimer in the documentation and/or other materials provided with the distribution.          
  20:G:/DT/dt_g1_balancing_plate_wise20192020/XMC/Libraries/XMCLib/inc\xmc_uart.h ****  * 
  21:G:/DT/dt_g1_balancing_plate_wise20192020/XMC/Libraries/XMCLib/inc\xmc_uart.h ****  * Neither the name of the copyright holders nor the names of its contributors may be used to endor
  22:G:/DT/dt_g1_balancing_plate_wise20192020/XMC/Libraries/XMCLib/inc\xmc_uart.h ****  * products derived from this software without specific prior written permission.                  
  23:G:/DT/dt_g1_balancing_plate_wise20192020/XMC/Libraries/XMCLib/inc\xmc_uart.h ****  *                                                                              
  24:G:/DT/dt_g1_balancing_plate_wise20192020/XMC/Libraries/XMCLib/inc\xmc_uart.h ****  * THIS SOFTWARE IS PROVIDED BY THE COPYRIGHT HOLDERS AND CONTRIBUTORS "AS IS" AND ANY EXPRESS OR I
  25:G:/DT/dt_g1_balancing_plate_wise20192020/XMC/Libraries/XMCLib/inc\xmc_uart.h ****  * INCLUDING, BUT NOT LIMITED TO, THE IMPLIED WARRANTIES OF MERCHANTABILITY AND FITNESS FOR A PARTI
  26:G:/DT/dt_g1_balancing_plate_wise20192020/XMC/Libraries/XMCLib/inc\xmc_uart.h ****  * DISCLAIMED. IN NO EVENT SHALL THE COPYRIGHT HOLDER OR CONTRIBUTORS BE LIABLE  FOR ANY DIRECT, IN
  27:G:/DT/dt_g1_balancing_plate_wise20192020/XMC/Libraries/XMCLib/inc\xmc_uart.h ****  * SPECIAL, EXEMPLARY, OR CONSEQUENTIAL DAMAGES (INCLUDING, BUT NOT LIMITED TO, PROCUREMENT OF SUBS
  28:G:/DT/dt_g1_balancing_plate_wise20192020/XMC/Libraries/XMCLib/inc\xmc_uart.h ****  * SERVICES; LOSS OF USE, DATA, OR PROFITS; OR BUSINESS INTERRUPTION) HOWEVER CAUSED AND ON ANY THE
  29:G:/DT/dt_g1_balancing_plate_wise20192020/XMC/Libraries/XMCLib/inc\xmc_uart.h ****  * WHETHER IN CONTRACT, STRICT LIABILITY,OR TORT (INCLUDING NEGLIGENCE OR OTHERWISE) ARISING IN ANY
  30:G:/DT/dt_g1_balancing_plate_wise20192020/XMC/Libraries/XMCLib/inc\xmc_uart.h ****  * OF THIS SOFTWARE, EVEN IF ADVISED OF THE POSSIBILITY OF SUCH DAMAGE.                            
  31:G:/DT/dt_g1_balancing_plate_wise20192020/XMC/Libraries/XMCLib/inc\xmc_uart.h ****  *                                                                              
  32:G:/DT/dt_g1_balancing_plate_wise20192020/XMC/Libraries/XMCLib/inc\xmc_uart.h ****  * To improve the quality of the software, users are encouraged to share modifications, enhancement
  33:G:/DT/dt_g1_balancing_plate_wise20192020/XMC/Libraries/XMCLib/inc\xmc_uart.h ****  * Infineon Technologies AG dave@infineon.com).                                                    
  34:G:/DT/dt_g1_balancing_plate_wise20192020/XMC/Libraries/XMCLib/inc\xmc_uart.h ****  **************************************************************************************************
  35:G:/DT/dt_g1_balancing_plate_wise20192020/XMC/Libraries/XMCLib/inc\xmc_uart.h ****  *
  36:G:/DT/dt_g1_balancing_plate_wise20192020/XMC/Libraries/XMCLib/inc\xmc_uart.h ****  * Change History
  37:G:/DT/dt_g1_balancing_plate_wise20192020/XMC/Libraries/XMCLib/inc\xmc_uart.h ****  * --------------
  38:G:/DT/dt_g1_balancing_plate_wise20192020/XMC/Libraries/XMCLib/inc\xmc_uart.h ****  *
  39:G:/DT/dt_g1_balancing_plate_wise20192020/XMC/Libraries/XMCLib/inc\xmc_uart.h ****  * 2015-02-20:
  40:G:/DT/dt_g1_balancing_plate_wise20192020/XMC/Libraries/XMCLib/inc\xmc_uart.h ****  *     - Initial
  41:G:/DT/dt_g1_balancing_plate_wise20192020/XMC/Libraries/XMCLib/inc\xmc_uart.h ****  *      
  42:G:/DT/dt_g1_balancing_plate_wise20192020/XMC/Libraries/XMCLib/inc\xmc_uart.h ****  * 2015-05-20:
  43:G:/DT/dt_g1_balancing_plate_wise20192020/XMC/Libraries/XMCLib/inc\xmc_uart.h ****  *     - Description updated <br>
  44:G:/DT/dt_g1_balancing_plate_wise20192020/XMC/Libraries/XMCLib/inc\xmc_uart.h ****  *     - Added XMC_UART_CH_TriggerServiceRequest() and XMC_UART_CH_SelectInterruptNodePointer <br>
  45:G:/DT/dt_g1_balancing_plate_wise20192020/XMC/Libraries/XMCLib/inc\xmc_uart.h ****  *
  46:G:/DT/dt_g1_balancing_plate_wise20192020/XMC/Libraries/XMCLib/inc\xmc_uart.h ****  * 2015-06-20:
  47:G:/DT/dt_g1_balancing_plate_wise20192020/XMC/Libraries/XMCLib/inc\xmc_uart.h ****  *     - Removed version macros and declaration of GetDriverVersion API <br>
  48:G:/DT/dt_g1_balancing_plate_wise20192020/XMC/Libraries/XMCLib/inc\xmc_uart.h ****  *
  49:G:/DT/dt_g1_balancing_plate_wise20192020/XMC/Libraries/XMCLib/inc\xmc_uart.h ****  * 2015-09-01:
  50:G:/DT/dt_g1_balancing_plate_wise20192020/XMC/Libraries/XMCLib/inc\xmc_uart.h ****  *     - Modified XMC_UART_CH_SetInputSource() for avoiding complete DXCR register overwriting. <br
  51:G:/DT/dt_g1_balancing_plate_wise20192020/XMC/Libraries/XMCLib/inc\xmc_uart.h ****  *     - Modified XMC_UART_CH_EVENT_t enum for supporting XMC_UART_CH_EnableEvent() and XMC_UART_CH
  52:G:/DT/dt_g1_balancing_plate_wise20192020/XMC/Libraries/XMCLib/inc\xmc_uart.h ****  *       for supporting multiple events configuration <br>
  53:G:/DT/dt_g1_balancing_plate_wise20192020/XMC/Libraries/XMCLib/inc\xmc_uart.h ****  * 
  54:G:/DT/dt_g1_balancing_plate_wise20192020/XMC/Libraries/XMCLib/inc\xmc_uart.h ****  * 2016-05-20:
  55:G:/DT/dt_g1_balancing_plate_wise20192020/XMC/Libraries/XMCLib/inc\xmc_uart.h ****  *     - Added XMC_UART_CH_EnableDataTransmission() and XMC_UART_CH_DisableDataTransmission()
  56:G:/DT/dt_g1_balancing_plate_wise20192020/XMC/Libraries/XMCLib/inc\xmc_uart.h ****  *
  57:G:/DT/dt_g1_balancing_plate_wise20192020/XMC/Libraries/XMCLib/inc\xmc_uart.h ****  * 2017-10-25:
  58:G:/DT/dt_g1_balancing_plate_wise20192020/XMC/Libraries/XMCLib/inc\xmc_uart.h ****  *     - Added XMC_UART_CH_EnableMasterClock() and XMC_UART_CH_DisableMasterClock()
  59:G:/DT/dt_g1_balancing_plate_wise20192020/XMC/Libraries/XMCLib/inc\xmc_uart.h ****  *
  60:G:/DT/dt_g1_balancing_plate_wise20192020/XMC/Libraries/XMCLib/inc\xmc_uart.h ****  * 2019-05-07:
  61:G:/DT/dt_g1_balancing_plate_wise20192020/XMC/Libraries/XMCLib/inc\xmc_uart.h ****  *     - Added normal_divider_mode to XMC_UART_CH_CONFIG_t configuration structure.
  62:G:/DT/dt_g1_balancing_plate_wise20192020/XMC/Libraries/XMCLib/inc\xmc_uart.h ****  *       It selects normal divider mode for baudrate generator instead of default fractional divide
  63:G:/DT/dt_g1_balancing_plate_wise20192020/XMC/Libraries/XMCLib/inc\xmc_uart.h ****  *     - Added XMC_UART_CH_SetBaudrateEx()
  64:G:/DT/dt_g1_balancing_plate_wise20192020/XMC/Libraries/XMCLib/inc\xmc_uart.h ****  *
  65:G:/DT/dt_g1_balancing_plate_wise20192020/XMC/Libraries/XMCLib/inc\xmc_uart.h ****  * @endcond 
  66:G:/DT/dt_g1_balancing_plate_wise20192020/XMC/Libraries/XMCLib/inc\xmc_uart.h ****  *
  67:G:/DT/dt_g1_balancing_plate_wise20192020/XMC/Libraries/XMCLib/inc\xmc_uart.h ****  */
  68:G:/DT/dt_g1_balancing_plate_wise20192020/XMC/Libraries/XMCLib/inc\xmc_uart.h **** 
  69:G:/DT/dt_g1_balancing_plate_wise20192020/XMC/Libraries/XMCLib/inc\xmc_uart.h **** #ifndef XMC_UART_H
  70:G:/DT/dt_g1_balancing_plate_wise20192020/XMC/Libraries/XMCLib/inc\xmc_uart.h **** #define XMC_UART_H
  71:G:/DT/dt_g1_balancing_plate_wise20192020/XMC/Libraries/XMCLib/inc\xmc_uart.h **** 
  72:G:/DT/dt_g1_balancing_plate_wise20192020/XMC/Libraries/XMCLib/inc\xmc_uart.h **** /**************************************************************************************************
  73:G:/DT/dt_g1_balancing_plate_wise20192020/XMC/Libraries/XMCLib/inc\xmc_uart.h ****  * HEADER FILES
  74:G:/DT/dt_g1_balancing_plate_wise20192020/XMC/Libraries/XMCLib/inc\xmc_uart.h ****  **************************************************************************************************
  75:G:/DT/dt_g1_balancing_plate_wise20192020/XMC/Libraries/XMCLib/inc\xmc_uart.h **** 
  76:G:/DT/dt_g1_balancing_plate_wise20192020/XMC/Libraries/XMCLib/inc\xmc_uart.h **** #include "xmc_usic.h"
  77:G:/DT/dt_g1_balancing_plate_wise20192020/XMC/Libraries/XMCLib/inc\xmc_uart.h **** 
  78:G:/DT/dt_g1_balancing_plate_wise20192020/XMC/Libraries/XMCLib/inc\xmc_uart.h **** /**
  79:G:/DT/dt_g1_balancing_plate_wise20192020/XMC/Libraries/XMCLib/inc\xmc_uart.h ****  * @addtogroup XMClib XMC Peripheral Library
  80:G:/DT/dt_g1_balancing_plate_wise20192020/XMC/Libraries/XMCLib/inc\xmc_uart.h ****  * @{
  81:G:/DT/dt_g1_balancing_plate_wise20192020/XMC/Libraries/XMCLib/inc\xmc_uart.h ****  */
  82:G:/DT/dt_g1_balancing_plate_wise20192020/XMC/Libraries/XMCLib/inc\xmc_uart.h **** 
  83:G:/DT/dt_g1_balancing_plate_wise20192020/XMC/Libraries/XMCLib/inc\xmc_uart.h **** /**
  84:G:/DT/dt_g1_balancing_plate_wise20192020/XMC/Libraries/XMCLib/inc\xmc_uart.h ****  * @addtogroup UART
  85:G:/DT/dt_g1_balancing_plate_wise20192020/XMC/Libraries/XMCLib/inc\xmc_uart.h ****  * @brief Universal Asynchronous Receiver/Transmitter (UART) driver for XMC microcontroller family.
  86:G:/DT/dt_g1_balancing_plate_wise20192020/XMC/Libraries/XMCLib/inc\xmc_uart.h ****  *
  87:G:/DT/dt_g1_balancing_plate_wise20192020/XMC/Libraries/XMCLib/inc\xmc_uart.h ****  * The UART driver uses Universal Serial Interface Channel(USIC) module to implement UART protocol.
  88:G:/DT/dt_g1_balancing_plate_wise20192020/XMC/Libraries/XMCLib/inc\xmc_uart.h ****  * It provides APIs to configure USIC channel for UART communication. The driver enables the user
  89:G:/DT/dt_g1_balancing_plate_wise20192020/XMC/Libraries/XMCLib/inc\xmc_uart.h ****  * in getting the status of UART protocol events, configuring interrupt service requests, protocol
  90:G:/DT/dt_g1_balancing_plate_wise20192020/XMC/Libraries/XMCLib/inc\xmc_uart.h ****  * related parameter configuration etc.
  91:G:/DT/dt_g1_balancing_plate_wise20192020/XMC/Libraries/XMCLib/inc\xmc_uart.h ****  * 
  92:G:/DT/dt_g1_balancing_plate_wise20192020/XMC/Libraries/XMCLib/inc\xmc_uart.h ****  * UART driver features:
  93:G:/DT/dt_g1_balancing_plate_wise20192020/XMC/Libraries/XMCLib/inc\xmc_uart.h ****  * -# Configuration structure XMC_UART_CH_CONFIG_t and initialization function XMC_UART_CH_Init()
  94:G:/DT/dt_g1_balancing_plate_wise20192020/XMC/Libraries/XMCLib/inc\xmc_uart.h ****  * -# Enumeration of events with their bit masks @ref XMC_UART_CH_EVENT_t, @ref XMC_UART_CH_STATUS_
  95:G:/DT/dt_g1_balancing_plate_wise20192020/XMC/Libraries/XMCLib/inc\xmc_uart.h ****  * -# Allows the selection of input source for the DX0 input stage using the API XMC_UART_CH_SetInp
  96:G:/DT/dt_g1_balancing_plate_wise20192020/XMC/Libraries/XMCLib/inc\xmc_uart.h ****  * -# Allows configuration of baudrate using XMC_UART_CH_SetBaudrate() and configuration of data le
  97:G:/DT/dt_g1_balancing_plate_wise20192020/XMC/Libraries/XMCLib/inc\xmc_uart.h ****  XMC_UART_CH_SetWordLength() and XMC_UART_CH_SetFrameLength()
  98:G:/DT/dt_g1_balancing_plate_wise20192020/XMC/Libraries/XMCLib/inc\xmc_uart.h ****  * -# Provides the status of UART protocol events, XMC_UART_CH_GetStatusFlag()
  99:G:/DT/dt_g1_balancing_plate_wise20192020/XMC/Libraries/XMCLib/inc\xmc_uart.h ****  * -# Allows transmission of data using XMC_UART_CH_Transmit() and gets received data using XMC_UAR
 100:G:/DT/dt_g1_balancing_plate_wise20192020/XMC/Libraries/XMCLib/inc\xmc_uart.h ****  * 
 101:G:/DT/dt_g1_balancing_plate_wise20192020/XMC/Libraries/XMCLib/inc\xmc_uart.h ****  * @{
 102:G:/DT/dt_g1_balancing_plate_wise20192020/XMC/Libraries/XMCLib/inc\xmc_uart.h ****  */
 103:G:/DT/dt_g1_balancing_plate_wise20192020/XMC/Libraries/XMCLib/inc\xmc_uart.h **** 
 104:G:/DT/dt_g1_balancing_plate_wise20192020/XMC/Libraries/XMCLib/inc\xmc_uart.h **** /**************************************************************************************************
 105:G:/DT/dt_g1_balancing_plate_wise20192020/XMC/Libraries/XMCLib/inc\xmc_uart.h ****  * MACROS
 106:G:/DT/dt_g1_balancing_plate_wise20192020/XMC/Libraries/XMCLib/inc\xmc_uart.h ****  **************************************************************************************************
 107:G:/DT/dt_g1_balancing_plate_wise20192020/XMC/Libraries/XMCLib/inc\xmc_uart.h **** 
 108:G:/DT/dt_g1_balancing_plate_wise20192020/XMC/Libraries/XMCLib/inc\xmc_uart.h **** #if defined(USIC0)
 109:G:/DT/dt_g1_balancing_plate_wise20192020/XMC/Libraries/XMCLib/inc\xmc_uart.h **** #define XMC_UART0_CH0 XMC_USIC0_CH0 /**< USIC0 channel 0 base address */
 110:G:/DT/dt_g1_balancing_plate_wise20192020/XMC/Libraries/XMCLib/inc\xmc_uart.h **** #define XMC_UART0_CH1 XMC_USIC0_CH1 /**< USIC0 channel 1 base address */
 111:G:/DT/dt_g1_balancing_plate_wise20192020/XMC/Libraries/XMCLib/inc\xmc_uart.h **** #endif
 112:G:/DT/dt_g1_balancing_plate_wise20192020/XMC/Libraries/XMCLib/inc\xmc_uart.h **** 
 113:G:/DT/dt_g1_balancing_plate_wise20192020/XMC/Libraries/XMCLib/inc\xmc_uart.h **** #if defined(USIC1)
 114:G:/DT/dt_g1_balancing_plate_wise20192020/XMC/Libraries/XMCLib/inc\xmc_uart.h **** #define XMC_UART1_CH0 XMC_USIC1_CH0 /**< USIC1 channel 0 base address */
 115:G:/DT/dt_g1_balancing_plate_wise20192020/XMC/Libraries/XMCLib/inc\xmc_uart.h **** #define XMC_UART1_CH1 XMC_USIC1_CH1 /**< USIC1 channel 1 base address */
 116:G:/DT/dt_g1_balancing_plate_wise20192020/XMC/Libraries/XMCLib/inc\xmc_uart.h **** #endif
 117:G:/DT/dt_g1_balancing_plate_wise20192020/XMC/Libraries/XMCLib/inc\xmc_uart.h **** 
 118:G:/DT/dt_g1_balancing_plate_wise20192020/XMC/Libraries/XMCLib/inc\xmc_uart.h **** #if defined(USIC2)
 119:G:/DT/dt_g1_balancing_plate_wise20192020/XMC/Libraries/XMCLib/inc\xmc_uart.h **** #define XMC_UART2_CH0 XMC_USIC2_CH0 /**< USIC2 channel 0 base address */
 120:G:/DT/dt_g1_balancing_plate_wise20192020/XMC/Libraries/XMCLib/inc\xmc_uart.h **** #define XMC_UART2_CH1 XMC_USIC2_CH1 /**< USIC2 channel 1 base address */
 121:G:/DT/dt_g1_balancing_plate_wise20192020/XMC/Libraries/XMCLib/inc\xmc_uart.h **** #endif
 122:G:/DT/dt_g1_balancing_plate_wise20192020/XMC/Libraries/XMCLib/inc\xmc_uart.h **** 
 123:G:/DT/dt_g1_balancing_plate_wise20192020/XMC/Libraries/XMCLib/inc\xmc_uart.h **** /**************************************************************************************************
 124:G:/DT/dt_g1_balancing_plate_wise20192020/XMC/Libraries/XMCLib/inc\xmc_uart.h ****  * ENUMS
 125:G:/DT/dt_g1_balancing_plate_wise20192020/XMC/Libraries/XMCLib/inc\xmc_uart.h ****  **************************************************************************************************
 126:G:/DT/dt_g1_balancing_plate_wise20192020/XMC/Libraries/XMCLib/inc\xmc_uart.h **** 
 127:G:/DT/dt_g1_balancing_plate_wise20192020/XMC/Libraries/XMCLib/inc\xmc_uart.h **** /**
 128:G:/DT/dt_g1_balancing_plate_wise20192020/XMC/Libraries/XMCLib/inc\xmc_uart.h ****  * UART driver status
 129:G:/DT/dt_g1_balancing_plate_wise20192020/XMC/Libraries/XMCLib/inc\xmc_uart.h ****  */
 130:G:/DT/dt_g1_balancing_plate_wise20192020/XMC/Libraries/XMCLib/inc\xmc_uart.h **** typedef enum XMC_UART_CH_STATUS
 131:G:/DT/dt_g1_balancing_plate_wise20192020/XMC/Libraries/XMCLib/inc\xmc_uart.h **** {
 132:G:/DT/dt_g1_balancing_plate_wise20192020/XMC/Libraries/XMCLib/inc\xmc_uart.h ****   XMC_UART_CH_STATUS_OK,     /**< UART driver status : OK*/
 133:G:/DT/dt_g1_balancing_plate_wise20192020/XMC/Libraries/XMCLib/inc\xmc_uart.h ****   XMC_UART_CH_STATUS_ERROR,  /**< UART driver status : ERROR */
 134:G:/DT/dt_g1_balancing_plate_wise20192020/XMC/Libraries/XMCLib/inc\xmc_uart.h ****   XMC_UART_CH_STATUS_BUSY    /**< UART driver status : BUSY */
 135:G:/DT/dt_g1_balancing_plate_wise20192020/XMC/Libraries/XMCLib/inc\xmc_uart.h **** } XMC_UART_CH_STATUS_t;
 136:G:/DT/dt_g1_balancing_plate_wise20192020/XMC/Libraries/XMCLib/inc\xmc_uart.h **** 
 137:G:/DT/dt_g1_balancing_plate_wise20192020/XMC/Libraries/XMCLib/inc\xmc_uart.h **** /**
 138:G:/DT/dt_g1_balancing_plate_wise20192020/XMC/Libraries/XMCLib/inc\xmc_uart.h **** * UART portocol status. The enum values can be used for getting the status of UART channel.
 139:G:/DT/dt_g1_balancing_plate_wise20192020/XMC/Libraries/XMCLib/inc\xmc_uart.h **** *
 140:G:/DT/dt_g1_balancing_plate_wise20192020/XMC/Libraries/XMCLib/inc\xmc_uart.h **** */
 141:G:/DT/dt_g1_balancing_plate_wise20192020/XMC/Libraries/XMCLib/inc\xmc_uart.h **** typedef enum XMC_UART_CH_STATUS_FLAG
 142:G:/DT/dt_g1_balancing_plate_wise20192020/XMC/Libraries/XMCLib/inc\xmc_uart.h **** {
 143:G:/DT/dt_g1_balancing_plate_wise20192020/XMC/Libraries/XMCLib/inc\xmc_uart.h ****   XMC_UART_CH_STATUS_FLAG_TRANSMISSION_IDLE = USIC_CH_PSR_ASCMode_TXIDLE_Msk,                 /**< 
 144:G:/DT/dt_g1_balancing_plate_wise20192020/XMC/Libraries/XMCLib/inc\xmc_uart.h ****   XMC_UART_CH_STATUS_FLAG_RECEPTION_IDLE = USIC_CH_PSR_ASCMode_RXIDLE_Msk,                    /**< 
 145:G:/DT/dt_g1_balancing_plate_wise20192020/XMC/Libraries/XMCLib/inc\xmc_uart.h ****   XMC_UART_CH_STATUS_FLAG_SYNCHRONIZATION_BREAK_DETECTED = USIC_CH_PSR_ASCMode_SBD_Msk,       /**< 
 146:G:/DT/dt_g1_balancing_plate_wise20192020/XMC/Libraries/XMCLib/inc\xmc_uart.h ****   XMC_UART_CH_STATUS_FLAG_COLLISION_DETECTED = USIC_CH_PSR_ASCMode_COL_Msk,                   /**< 
 147:G:/DT/dt_g1_balancing_plate_wise20192020/XMC/Libraries/XMCLib/inc\xmc_uart.h ****   XMC_UART_CH_STATUS_FLAG_RECEIVER_NOISE_DETECTED = USIC_CH_PSR_ASCMode_RNS_Msk,              /**< 
 148:G:/DT/dt_g1_balancing_plate_wise20192020/XMC/Libraries/XMCLib/inc\xmc_uart.h ****   XMC_UART_CH_STATUS_FLAG_FORMAT_ERROR_IN_STOP_BIT_0 = USIC_CH_PSR_ASCMode_FER0_Msk,          /**< 
 149:G:/DT/dt_g1_balancing_plate_wise20192020/XMC/Libraries/XMCLib/inc\xmc_uart.h ****   XMC_UART_CH_STATUS_FLAG_FORMAT_ERROR_IN_STOP_BIT_1 = USIC_CH_PSR_ASCMode_FER1_Msk,          /**< 
 150:G:/DT/dt_g1_balancing_plate_wise20192020/XMC/Libraries/XMCLib/inc\xmc_uart.h ****   XMC_UART_CH_STATUS_FLAG_RECEIVE_FRAME_FINISHED = USIC_CH_PSR_ASCMode_RFF_Msk,               /**< 
 151:G:/DT/dt_g1_balancing_plate_wise20192020/XMC/Libraries/XMCLib/inc\xmc_uart.h ****   XMC_UART_CH_STATUS_FLAG_TRANSMITTER_FRAME_FINISHED = USIC_CH_PSR_ASCMode_TFF_Msk,           /**< 
 152:G:/DT/dt_g1_balancing_plate_wise20192020/XMC/Libraries/XMCLib/inc\xmc_uart.h ****   XMC_UART_CH_STATUS_FLAG_TRANSFER_STATUS_BUSY = USIC_CH_PSR_ASCMode_BUSY_Msk,                /**< 
 153:G:/DT/dt_g1_balancing_plate_wise20192020/XMC/Libraries/XMCLib/inc\xmc_uart.h ****   XMC_UART_CH_STATUS_FLAG_RECEIVER_START_INDICATION = USIC_CH_PSR_ASCMode_RSIF_Msk,           /**< 
 154:G:/DT/dt_g1_balancing_plate_wise20192020/XMC/Libraries/XMCLib/inc\xmc_uart.h ****   XMC_UART_CH_STATUS_FLAG_DATA_LOST_INDICATION = USIC_CH_PSR_ASCMode_DLIF_Msk,                /**< 
 155:G:/DT/dt_g1_balancing_plate_wise20192020/XMC/Libraries/XMCLib/inc\xmc_uart.h ****   XMC_UART_CH_STATUS_FLAG_TRANSMIT_SHIFT_INDICATION = USIC_CH_PSR_ASCMode_TSIF_Msk,           /**< 
 156:G:/DT/dt_g1_balancing_plate_wise20192020/XMC/Libraries/XMCLib/inc\xmc_uart.h ****   XMC_UART_CH_STATUS_FLAG_TRANSMIT_BUFFER_INDICATION = USIC_CH_PSR_ASCMode_TBIF_Msk,          /**< 
 157:G:/DT/dt_g1_balancing_plate_wise20192020/XMC/Libraries/XMCLib/inc\xmc_uart.h ****   XMC_UART_CH_STATUS_FLAG_RECEIVE_INDICATION = USIC_CH_PSR_ASCMode_RIF_Msk,                   /**< 
 158:G:/DT/dt_g1_balancing_plate_wise20192020/XMC/Libraries/XMCLib/inc\xmc_uart.h ****   XMC_UART_CH_STATUS_FLAG_ALTERNATIVE_RECEIVE_INDICATION = USIC_CH_PSR_ASCMode_AIF_Msk,       /**< 
 159:G:/DT/dt_g1_balancing_plate_wise20192020/XMC/Libraries/XMCLib/inc\xmc_uart.h ****   XMC_UART_CH_STATUS_FLAG_BAUD_RATE_GENERATOR_INDICATION = USIC_CH_PSR_ASCMode_BRGIF_Msk      /**< 
 160:G:/DT/dt_g1_balancing_plate_wise20192020/XMC/Libraries/XMCLib/inc\xmc_uart.h **** } XMC_UART_CH_STATUS_FLAG_t;
 161:G:/DT/dt_g1_balancing_plate_wise20192020/XMC/Libraries/XMCLib/inc\xmc_uart.h **** 
 162:G:/DT/dt_g1_balancing_plate_wise20192020/XMC/Libraries/XMCLib/inc\xmc_uart.h **** /**
 163:G:/DT/dt_g1_balancing_plate_wise20192020/XMC/Libraries/XMCLib/inc\xmc_uart.h **** * UART configuration events. The enums can be used for configuring events using the CCR register.
 164:G:/DT/dt_g1_balancing_plate_wise20192020/XMC/Libraries/XMCLib/inc\xmc_uart.h **** */
 165:G:/DT/dt_g1_balancing_plate_wise20192020/XMC/Libraries/XMCLib/inc\xmc_uart.h **** typedef enum XMC_CH_UART_EVENT
 166:G:/DT/dt_g1_balancing_plate_wise20192020/XMC/Libraries/XMCLib/inc\xmc_uart.h **** {
 167:G:/DT/dt_g1_balancing_plate_wise20192020/XMC/Libraries/XMCLib/inc\xmc_uart.h ****   XMC_UART_CH_EVENT_RECEIVE_START       = USIC_CH_CCR_RSIEN_Msk,  /**< Receive start event */
 168:G:/DT/dt_g1_balancing_plate_wise20192020/XMC/Libraries/XMCLib/inc\xmc_uart.h ****   XMC_UART_CH_EVENT_DATA_LOST           = USIC_CH_CCR_DLIEN_Msk,  /**< Data lost event */
 169:G:/DT/dt_g1_balancing_plate_wise20192020/XMC/Libraries/XMCLib/inc\xmc_uart.h ****   XMC_UART_CH_EVENT_TRANSMIT_SHIFT      = USIC_CH_CCR_TSIEN_Msk,  /**< Transmit shift event */
 170:G:/DT/dt_g1_balancing_plate_wise20192020/XMC/Libraries/XMCLib/inc\xmc_uart.h ****   XMC_UART_CH_EVENT_TRANSMIT_BUFFER     = USIC_CH_CCR_TBIEN_Msk,  /**< Transmit buffer event */
 171:G:/DT/dt_g1_balancing_plate_wise20192020/XMC/Libraries/XMCLib/inc\xmc_uart.h ****   XMC_UART_CH_EVENT_STANDARD_RECEIVE    = USIC_CH_CCR_RIEN_Msk,   /**< Receive event */
 172:G:/DT/dt_g1_balancing_plate_wise20192020/XMC/Libraries/XMCLib/inc\xmc_uart.h ****   XMC_UART_CH_EVENT_ALTERNATIVE_RECEIVE = USIC_CH_CCR_AIEN_Msk,   /**< Alternate receive event */
 173:G:/DT/dt_g1_balancing_plate_wise20192020/XMC/Libraries/XMCLib/inc\xmc_uart.h ****   XMC_UART_CH_EVENT_BAUD_RATE_GENERATOR = USIC_CH_CCR_BRGIEN_Msk, /**< Baudrate generator event */
 174:G:/DT/dt_g1_balancing_plate_wise20192020/XMC/Libraries/XMCLib/inc\xmc_uart.h ****   
 175:G:/DT/dt_g1_balancing_plate_wise20192020/XMC/Libraries/XMCLib/inc\xmc_uart.h ****   XMC_UART_CH_EVENT_SYNCHRONIZATION_BREAK = USIC_CH_PCR_ASCMode_SBIEN_Msk, /**< Event synchronizati
 176:G:/DT/dt_g1_balancing_plate_wise20192020/XMC/Libraries/XMCLib/inc\xmc_uart.h ****   XMC_UART_CH_EVENT_COLLISION = USIC_CH_PCR_ASCMode_CDEN_Msk,              /**< Event collision */
 177:G:/DT/dt_g1_balancing_plate_wise20192020/XMC/Libraries/XMCLib/inc\xmc_uart.h ****   XMC_UART_CH_EVENT_RECEIVER_NOISE = USIC_CH_PCR_ASCMode_RNIEN_Msk,        /**< Event receiver nois
 178:G:/DT/dt_g1_balancing_plate_wise20192020/XMC/Libraries/XMCLib/inc\xmc_uart.h ****   XMC_UART_CH_EVENT_FORMAT_ERROR = USIC_CH_PCR_ASCMode_FEIEN_Msk,          /**< Event format error 
 179:G:/DT/dt_g1_balancing_plate_wise20192020/XMC/Libraries/XMCLib/inc\xmc_uart.h ****   XMC_UART_CH_EVENT_FRAME_FINISHED = USIC_CH_PCR_ASCMode_FFIEN_Msk         /**< Event frame finishe
 180:G:/DT/dt_g1_balancing_plate_wise20192020/XMC/Libraries/XMCLib/inc\xmc_uart.h **** } XMC_UART_CH_EVENT_t;
 181:G:/DT/dt_g1_balancing_plate_wise20192020/XMC/Libraries/XMCLib/inc\xmc_uart.h **** 
 182:G:/DT/dt_g1_balancing_plate_wise20192020/XMC/Libraries/XMCLib/inc\xmc_uart.h **** /**
 183:G:/DT/dt_g1_balancing_plate_wise20192020/XMC/Libraries/XMCLib/inc\xmc_uart.h ****  * UART Input sampling frequency options
 184:G:/DT/dt_g1_balancing_plate_wise20192020/XMC/Libraries/XMCLib/inc\xmc_uart.h ****  */
 185:G:/DT/dt_g1_balancing_plate_wise20192020/XMC/Libraries/XMCLib/inc\xmc_uart.h **** typedef enum XMC_UART_CH_INPUT_SAMPLING_FREQ
 186:G:/DT/dt_g1_balancing_plate_wise20192020/XMC/Libraries/XMCLib/inc\xmc_uart.h **** {
 187:G:/DT/dt_g1_balancing_plate_wise20192020/XMC/Libraries/XMCLib/inc\xmc_uart.h ****   XMC_UART_CH_INPUT_SAMPLING_FREQ_FPERIPH            = XMC_USIC_CH_INPUT_SAMPLING_FREQ_FPERIPH,    
 188:G:/DT/dt_g1_balancing_plate_wise20192020/XMC/Libraries/XMCLib/inc\xmc_uart.h ****   XMC_UART_CH_INPUT_SAMPLING_FREQ_FRACTIONAL_DIVIDER = XMC_USIC_CH_INPUT_SAMPLING_FREQ_FRACTIONAL_D
 189:G:/DT/dt_g1_balancing_plate_wise20192020/XMC/Libraries/XMCLib/inc\xmc_uart.h **** } XMC_UART_CH_INPUT_SAMPLING_FREQ_t;
 190:G:/DT/dt_g1_balancing_plate_wise20192020/XMC/Libraries/XMCLib/inc\xmc_uart.h **** 
 191:G:/DT/dt_g1_balancing_plate_wise20192020/XMC/Libraries/XMCLib/inc\xmc_uart.h **** /**
 192:G:/DT/dt_g1_balancing_plate_wise20192020/XMC/Libraries/XMCLib/inc\xmc_uart.h ****  * UART input stages
 193:G:/DT/dt_g1_balancing_plate_wise20192020/XMC/Libraries/XMCLib/inc\xmc_uart.h ****  */
 194:G:/DT/dt_g1_balancing_plate_wise20192020/XMC/Libraries/XMCLib/inc\xmc_uart.h **** typedef enum XMC_UART_CH_INPUT
 195:G:/DT/dt_g1_balancing_plate_wise20192020/XMC/Libraries/XMCLib/inc\xmc_uart.h **** {
 196:G:/DT/dt_g1_balancing_plate_wise20192020/XMC/Libraries/XMCLib/inc\xmc_uart.h ****   XMC_UART_CH_INPUT_RXD = 0UL   /**< UART input stage DX0*/
 197:G:/DT/dt_g1_balancing_plate_wise20192020/XMC/Libraries/XMCLib/inc\xmc_uart.h **** #if UC_FAMILY == XMC1
 198:G:/DT/dt_g1_balancing_plate_wise20192020/XMC/Libraries/XMCLib/inc\xmc_uart.h ****   ,
 199:G:/DT/dt_g1_balancing_plate_wise20192020/XMC/Libraries/XMCLib/inc\xmc_uart.h ****   XMC_UART_CH_INPUT_RXD1 = 3UL, /**< UART input stage DX3*/
 200:G:/DT/dt_g1_balancing_plate_wise20192020/XMC/Libraries/XMCLib/inc\xmc_uart.h ****   XMC_UART_CH_INPUT_RXD2 = 5UL  /**< UART input stage DX5*/
 201:G:/DT/dt_g1_balancing_plate_wise20192020/XMC/Libraries/XMCLib/inc\xmc_uart.h **** #endif
 202:G:/DT/dt_g1_balancing_plate_wise20192020/XMC/Libraries/XMCLib/inc\xmc_uart.h **** } XMC_UART_CH_INPUT_t;
 203:G:/DT/dt_g1_balancing_plate_wise20192020/XMC/Libraries/XMCLib/inc\xmc_uart.h **** 
 204:G:/DT/dt_g1_balancing_plate_wise20192020/XMC/Libraries/XMCLib/inc\xmc_uart.h **** 
 205:G:/DT/dt_g1_balancing_plate_wise20192020/XMC/Libraries/XMCLib/inc\xmc_uart.h **** /**
 206:G:/DT/dt_g1_balancing_plate_wise20192020/XMC/Libraries/XMCLib/inc\xmc_uart.h ****  * UART channel interrupt node pointers
 207:G:/DT/dt_g1_balancing_plate_wise20192020/XMC/Libraries/XMCLib/inc\xmc_uart.h ****  */
 208:G:/DT/dt_g1_balancing_plate_wise20192020/XMC/Libraries/XMCLib/inc\xmc_uart.h **** typedef enum XMC_UART_CH_INTERRUPT_NODE_POINTER
 209:G:/DT/dt_g1_balancing_plate_wise20192020/XMC/Libraries/XMCLib/inc\xmc_uart.h **** {
 210:G:/DT/dt_g1_balancing_plate_wise20192020/XMC/Libraries/XMCLib/inc\xmc_uart.h ****   XMC_UART_CH_INTERRUPT_NODE_POINTER_TRANSMIT_SHIFT      = XMC_USIC_CH_INTERRUPT_NODE_POINTER_TRANS
 211:G:/DT/dt_g1_balancing_plate_wise20192020/XMC/Libraries/XMCLib/inc\xmc_uart.h ****   XMC_UART_CH_INTERRUPT_NODE_POINTER_TRANSMIT_BUFFER     = XMC_USIC_CH_INTERRUPT_NODE_POINTER_TRANS
 212:G:/DT/dt_g1_balancing_plate_wise20192020/XMC/Libraries/XMCLib/inc\xmc_uart.h ****   XMC_UART_CH_INTERRUPT_NODE_POINTER_RECEIVE             = XMC_USIC_CH_INTERRUPT_NODE_POINTER_RECEI
 213:G:/DT/dt_g1_balancing_plate_wise20192020/XMC/Libraries/XMCLib/inc\xmc_uart.h ****   XMC_UART_CH_INTERRUPT_NODE_POINTER_ALTERNATE_RECEIVE   = XMC_USIC_CH_INTERRUPT_NODE_POINTER_ALTER
 214:G:/DT/dt_g1_balancing_plate_wise20192020/XMC/Libraries/XMCLib/inc\xmc_uart.h ****   XMC_UART_CH_INTERRUPT_NODE_POINTER_PROTOCOL            = XMC_USIC_CH_INTERRUPT_NODE_POINTER_PROTO
 215:G:/DT/dt_g1_balancing_plate_wise20192020/XMC/Libraries/XMCLib/inc\xmc_uart.h **** } XMC_UART_CH_INTERRUPT_NODE_POINTER_t;
 216:G:/DT/dt_g1_balancing_plate_wise20192020/XMC/Libraries/XMCLib/inc\xmc_uart.h **** 
 217:G:/DT/dt_g1_balancing_plate_wise20192020/XMC/Libraries/XMCLib/inc\xmc_uart.h **** /**************************************************************************************************
 218:G:/DT/dt_g1_balancing_plate_wise20192020/XMC/Libraries/XMCLib/inc\xmc_uart.h ****  * DATA STRUCTURES
 219:G:/DT/dt_g1_balancing_plate_wise20192020/XMC/Libraries/XMCLib/inc\xmc_uart.h ****  **************************************************************************************************
 220:G:/DT/dt_g1_balancing_plate_wise20192020/XMC/Libraries/XMCLib/inc\xmc_uart.h **** 
 221:G:/DT/dt_g1_balancing_plate_wise20192020/XMC/Libraries/XMCLib/inc\xmc_uart.h **** /**
 222:G:/DT/dt_g1_balancing_plate_wise20192020/XMC/Libraries/XMCLib/inc\xmc_uart.h ****  * UART initialization structure
 223:G:/DT/dt_g1_balancing_plate_wise20192020/XMC/Libraries/XMCLib/inc\xmc_uart.h **** */
 224:G:/DT/dt_g1_balancing_plate_wise20192020/XMC/Libraries/XMCLib/inc\xmc_uart.h **** typedef struct XMC_UART_CH_CONFIG
 225:G:/DT/dt_g1_balancing_plate_wise20192020/XMC/Libraries/XMCLib/inc\xmc_uart.h **** {
 226:G:/DT/dt_g1_balancing_plate_wise20192020/XMC/Libraries/XMCLib/inc\xmc_uart.h ****   uint32_t baudrate;                         /**< Desired baudrate. \b Range: minimum= 100, maximum
 227:G:/DT/dt_g1_balancing_plate_wise20192020/XMC/Libraries/XMCLib/inc\xmc_uart.h ****   bool normal_divider_mode;                  /**< Selects normal divider mode for baudrate generato
 228:G:/DT/dt_g1_balancing_plate_wise20192020/XMC/Libraries/XMCLib/inc\xmc_uart.h ****   uint8_t data_bits;                         /**< Number of bits for the data field. Value configur
 229:G:/DT/dt_g1_balancing_plate_wise20192020/XMC/Libraries/XMCLib/inc\xmc_uart.h ****                                                   \b Range: minimum= 1, maximum= 16*/
 230:G:/DT/dt_g1_balancing_plate_wise20192020/XMC/Libraries/XMCLib/inc\xmc_uart.h ****   uint8_t frame_length;                      /**< Indicates nmber of bits in a frame. Configured as
 231:G:/DT/dt_g1_balancing_plate_wise20192020/XMC/Libraries/XMCLib/inc\xmc_uart.h ****                                                   \b Range: minimum= 1, maximum= 63*/
 232:G:/DT/dt_g1_balancing_plate_wise20192020/XMC/Libraries/XMCLib/inc\xmc_uart.h ****   uint8_t stop_bits;                         /**< Number of stop bits. \b Range: minimum= 1, maximu
 233:G:/DT/dt_g1_balancing_plate_wise20192020/XMC/Libraries/XMCLib/inc\xmc_uart.h ****   uint8_t oversampling;						           /**< Number of samples for a symbol(DCTQ).\b Range: minimum
 234:G:/DT/dt_g1_balancing_plate_wise20192020/XMC/Libraries/XMCLib/inc\xmc_uart.h ****   XMC_USIC_CH_PARITY_MODE_t parity_mode;     /**< Parity mode. \b Range: @ref XMC_USIC_CH_PARITY_MO
 235:G:/DT/dt_g1_balancing_plate_wise20192020/XMC/Libraries/XMCLib/inc\xmc_uart.h ****                                                   @ref XMC_USIC_CH_PARITY_MODE_ODD*/
 236:G:/DT/dt_g1_balancing_plate_wise20192020/XMC/Libraries/XMCLib/inc\xmc_uart.h **** } XMC_UART_CH_CONFIG_t;
 237:G:/DT/dt_g1_balancing_plate_wise20192020/XMC/Libraries/XMCLib/inc\xmc_uart.h **** 
 238:G:/DT/dt_g1_balancing_plate_wise20192020/XMC/Libraries/XMCLib/inc\xmc_uart.h **** /**************************************************************************************************
 239:G:/DT/dt_g1_balancing_plate_wise20192020/XMC/Libraries/XMCLib/inc\xmc_uart.h ****  * API PROTOTYPES
 240:G:/DT/dt_g1_balancing_plate_wise20192020/XMC/Libraries/XMCLib/inc\xmc_uart.h ****  **************************************************************************************************
 241:G:/DT/dt_g1_balancing_plate_wise20192020/XMC/Libraries/XMCLib/inc\xmc_uart.h **** 
 242:G:/DT/dt_g1_balancing_plate_wise20192020/XMC/Libraries/XMCLib/inc\xmc_uart.h **** #ifdef __cplusplus
 243:G:/DT/dt_g1_balancing_plate_wise20192020/XMC/Libraries/XMCLib/inc\xmc_uart.h **** extern "C" {
 244:G:/DT/dt_g1_balancing_plate_wise20192020/XMC/Libraries/XMCLib/inc\xmc_uart.h **** #endif
 245:G:/DT/dt_g1_balancing_plate_wise20192020/XMC/Libraries/XMCLib/inc\xmc_uart.h **** 
 246:G:/DT/dt_g1_balancing_plate_wise20192020/XMC/Libraries/XMCLib/inc\xmc_uart.h **** /**
 247:G:/DT/dt_g1_balancing_plate_wise20192020/XMC/Libraries/XMCLib/inc\xmc_uart.h ****  * @param channel Constant pointer to USIC channel handle of type @ref XMC_USIC_CH_t \n
 248:G:/DT/dt_g1_balancing_plate_wise20192020/XMC/Libraries/XMCLib/inc\xmc_uart.h ****  * 				  \b Range: @ref XMC_UART0_CH0, XMC_UART0_CH1,XMC_UART1_CH0, XMC_UART1_CH1,XMC_UART2_CH0, XM
 249:G:/DT/dt_g1_balancing_plate_wise20192020/XMC/Libraries/XMCLib/inc\xmc_uart.h ****  * @param config Constant pointer to UART configuration structure of type @ref XMC_UART_CH_CONFIG_t
 250:G:/DT/dt_g1_balancing_plate_wise20192020/XMC/Libraries/XMCLib/inc\xmc_uart.h ****  * @return XMC_UART_CH_STATUS_t Status of initializing the USIC channel for UART protocol.\n
 251:G:/DT/dt_g1_balancing_plate_wise20192020/XMC/Libraries/XMCLib/inc\xmc_uart.h ****  *          \b Range: @ref XMC_UART_CH_STATUS_OK if initialization is successful.\n
 252:G:/DT/dt_g1_balancing_plate_wise20192020/XMC/Libraries/XMCLib/inc\xmc_uart.h ****  *                    @ref XMC_UART_CH_STATUS_ERROR if configuration of baudrate failed.
 253:G:/DT/dt_g1_balancing_plate_wise20192020/XMC/Libraries/XMCLib/inc\xmc_uart.h ****  *
 254:G:/DT/dt_g1_balancing_plate_wise20192020/XMC/Libraries/XMCLib/inc\xmc_uart.h ****  * \par<b>Description</b><br>
 255:G:/DT/dt_g1_balancing_plate_wise20192020/XMC/Libraries/XMCLib/inc\xmc_uart.h ****  * Initializes the USIC channel for UART protocol.\n\n
 256:G:/DT/dt_g1_balancing_plate_wise20192020/XMC/Libraries/XMCLib/inc\xmc_uart.h ****  * During the initialization, USIC channel is enabled, baudrate is configured with the defined over
 257:G:/DT/dt_g1_balancing_plate_wise20192020/XMC/Libraries/XMCLib/inc\xmc_uart.h ****  * in the intialization structure. If the oversampling value is set to 0 in the structure, the defa
 258:G:/DT/dt_g1_balancing_plate_wise20192020/XMC/Libraries/XMCLib/inc\xmc_uart.h ****  * is considered. Sampling point for each symbol is configured at the half of sampling period. Symb
 259:G:/DT/dt_g1_balancing_plate_wise20192020/XMC/Libraries/XMCLib/inc\xmc_uart.h ****  * majority decision among 3 samples. 
 260:G:/DT/dt_g1_balancing_plate_wise20192020/XMC/Libraries/XMCLib/inc\xmc_uart.h ****  * Word length is configured with the number of data bits. If the value of \a frame_length is 0, th
 261:G:/DT/dt_g1_balancing_plate_wise20192020/XMC/Libraries/XMCLib/inc\xmc_uart.h ****  * is set to the same value as word length. If \a frame_length is greater than 0, it is set as the 
 262:G:/DT/dt_g1_balancing_plate_wise20192020/XMC/Libraries/XMCLib/inc\xmc_uart.h ****  * Parity mode is set to the value configured for \a parity_mode.
 263:G:/DT/dt_g1_balancing_plate_wise20192020/XMC/Libraries/XMCLib/inc\xmc_uart.h ****  * The USIC channel should be set to UART mode by calling the XMC_UART_CH_Start() API after the ini
 264:G:/DT/dt_g1_balancing_plate_wise20192020/XMC/Libraries/XMCLib/inc\xmc_uart.h ****  *
 265:G:/DT/dt_g1_balancing_plate_wise20192020/XMC/Libraries/XMCLib/inc\xmc_uart.h ****  * \par<b>Related APIs:</b><BR>
 266:G:/DT/dt_g1_balancing_plate_wise20192020/XMC/Libraries/XMCLib/inc\xmc_uart.h ****  * XMC_UART_CH_Start(), XMC_UART_CH_Stop(), XMC_UART_CH_Transmit()\n\n\n
 267:G:/DT/dt_g1_balancing_plate_wise20192020/XMC/Libraries/XMCLib/inc\xmc_uart.h ****  */
 268:G:/DT/dt_g1_balancing_plate_wise20192020/XMC/Libraries/XMCLib/inc\xmc_uart.h **** void XMC_UART_CH_Init(XMC_USIC_CH_t *const channel, const XMC_UART_CH_CONFIG_t *const config);
 269:G:/DT/dt_g1_balancing_plate_wise20192020/XMC/Libraries/XMCLib/inc\xmc_uart.h **** 
 270:G:/DT/dt_g1_balancing_plate_wise20192020/XMC/Libraries/XMCLib/inc\xmc_uart.h **** /**
 271:G:/DT/dt_g1_balancing_plate_wise20192020/XMC/Libraries/XMCLib/inc\xmc_uart.h ****  * @param channel Constant pointer to USIC channel handle of type @ref XMC_USIC_CH_t \n
 272:G:/DT/dt_g1_balancing_plate_wise20192020/XMC/Libraries/XMCLib/inc\xmc_uart.h ****  * 				  \b Range: @ref XMC_UART0_CH0, @ref XMC_UART0_CH1,@ref XMC_UART1_CH0,@ref XMC_UART1_CH1,@re
 273:G:/DT/dt_g1_balancing_plate_wise20192020/XMC/Libraries/XMCLib/inc\xmc_uart.h ****  * @return None
 274:G:/DT/dt_g1_balancing_plate_wise20192020/XMC/Libraries/XMCLib/inc\xmc_uart.h ****  *
 275:G:/DT/dt_g1_balancing_plate_wise20192020/XMC/Libraries/XMCLib/inc\xmc_uart.h ****  * \par<b>Description</b><br>
 276:G:/DT/dt_g1_balancing_plate_wise20192020/XMC/Libraries/XMCLib/inc\xmc_uart.h ****  * Sets the USIC channel operation mode to UART mode.\n\n
 277:G:/DT/dt_g1_balancing_plate_wise20192020/XMC/Libraries/XMCLib/inc\xmc_uart.h ****  * CCR register bitfield \a Mode is set to 2(UART mode). This API should be called after configurin
 278:G:/DT/dt_g1_balancing_plate_wise20192020/XMC/Libraries/XMCLib/inc\xmc_uart.h ****  * the USIC channel. Transmission and reception can happen only when the UART mode is set. 
 279:G:/DT/dt_g1_balancing_plate_wise20192020/XMC/Libraries/XMCLib/inc\xmc_uart.h ****  * This is an inline function.
 280:G:/DT/dt_g1_balancing_plate_wise20192020/XMC/Libraries/XMCLib/inc\xmc_uart.h ****  *
 281:G:/DT/dt_g1_balancing_plate_wise20192020/XMC/Libraries/XMCLib/inc\xmc_uart.h ****  * \par<b>Related APIs:</b><BR>
 282:G:/DT/dt_g1_balancing_plate_wise20192020/XMC/Libraries/XMCLib/inc\xmc_uart.h ****  * XMC_UART_CH_Stop(), XMC_UART_CH_Transmit()\n\n\n
 283:G:/DT/dt_g1_balancing_plate_wise20192020/XMC/Libraries/XMCLib/inc\xmc_uart.h ****  */
 284:G:/DT/dt_g1_balancing_plate_wise20192020/XMC/Libraries/XMCLib/inc\xmc_uart.h **** __STATIC_INLINE void XMC_UART_CH_Start(XMC_USIC_CH_t *const channel)
 285:G:/DT/dt_g1_balancing_plate_wise20192020/XMC/Libraries/XMCLib/inc\xmc_uart.h **** {
 286:G:/DT/dt_g1_balancing_plate_wise20192020/XMC/Libraries/XMCLib/inc\xmc_uart.h ****   channel->CCR = (uint32_t)(((channel->CCR) & (~USIC_CH_CCR_MODE_Msk)) | (uint32_t)XMC_USIC_CH_OPER
  76              	 .loc 3 286 0
  77 0026 236C     	 ldr r3,[r4,#64]
  78 0028 23F00F03 	 bic r3,r3,#15
  79 002c 43F00203 	 orr r3,r3,#2
  80 0030 2364     	 str r3,[r4,#64]
  81              	.LBE17:
  82              	.LBE16:
  83              	 .loc 1 163 0
  84 0032 2846     	 mov r0,r5
  85 0034 0521     	 movs r1,#5
  86 0036 FFF7FEFF 	 bl XMC_GPIO_Init
  87              	.LVL4:
 164:../Dave/Generated/UART/uart_conf.c **** 
 165:../Dave/Generated/UART/uart_conf.c ****   /*Set service request for receive interrupt*/
 166:../Dave/Generated/UART/uart_conf.c ****   XMC_USIC_CH_SetInterruptNodePointer(XMC_UART0_CH0, XMC_USIC_CH_INTERRUPT_NODE_POINTER_RECEIVE,
  88              	 .loc 1 166 0
  89 003a 2046     	 mov r0,r4
  90 003c 0821     	 movs r1,#8
  91 003e 0522     	 movs r2,#5
  92 0040 FFF7FEFF 	 bl XMC_USIC_CH_SetInterruptNodePointer
  93              	.LVL5:
  94              	.LBB18:
  95              	.LBB19:
 785:G:/DT/dt_g1_balancing_plate_wise20192020/XMC/Libraries/XMCLib/inc\xmc_usic.h ****                          ((uint32_t)source << USIC_CH_DXCR_DSEL_Pos));
 786:G:/DT/dt_g1_balancing_plate_wise20192020/XMC/Libraries/XMCLib/inc\xmc_usic.h **** }
 787:G:/DT/dt_g1_balancing_plate_wise20192020/XMC/Libraries/XMCLib/inc\xmc_usic.h **** /**
 788:G:/DT/dt_g1_balancing_plate_wise20192020/XMC/Libraries/XMCLib/inc\xmc_usic.h ****  * @param  channel Pointer to USIC channel handler of type @ref XMC_USIC_CH_t \n
 789:G:/DT/dt_g1_balancing_plate_wise20192020/XMC/Libraries/XMCLib/inc\xmc_usic.h ****  * 				   \b Range: @ref XMC_USIC0_CH0, @ref XMC_USIC0_CH1 to @ref XMC_USIC2_CH1 based on device su
 790:G:/DT/dt_g1_balancing_plate_wise20192020/XMC/Libraries/XMCLib/inc\xmc_usic.h ****  * @param  input USIC channel input stage of type @ref XMC_USIC_CH_INPUT_t. \n
 791:G:/DT/dt_g1_balancing_plate_wise20192020/XMC/Libraries/XMCLib/inc\xmc_usic.h ****  * 				 \b Range: @ref XMC_USIC_CH_INPUT_DX0 to @ref XMC_USIC_CH_INPUT_DX5
 792:G:/DT/dt_g1_balancing_plate_wise20192020/XMC/Libraries/XMCLib/inc\xmc_usic.h ****  * @return None
 793:G:/DT/dt_g1_balancing_plate_wise20192020/XMC/Libraries/XMCLib/inc\xmc_usic.h ****  *
 794:G:/DT/dt_g1_balancing_plate_wise20192020/XMC/Libraries/XMCLib/inc\xmc_usic.h ****  * \par<b>Description</b><br>
 795:G:/DT/dt_g1_balancing_plate_wise20192020/XMC/Libraries/XMCLib/inc\xmc_usic.h ****  * The input of the data shift unit is controlled by the
 796:G:/DT/dt_g1_balancing_plate_wise20192020/XMC/Libraries/XMCLib/inc\xmc_usic.h ****  * protocol pre-processor. \n\n
 797:G:/DT/dt_g1_balancing_plate_wise20192020/XMC/Libraries/XMCLib/inc\xmc_usic.h ****  *
 798:G:/DT/dt_g1_balancing_plate_wise20192020/XMC/Libraries/XMCLib/inc\xmc_usic.h ****  * \par<b>Related APIs:</b><BR>
 799:G:/DT/dt_g1_balancing_plate_wise20192020/XMC/Libraries/XMCLib/inc\xmc_usic.h ****  * XMC_USIC_CH_ConnectInputDataShiftToDataInput()\n\n\n
 800:G:/DT/dt_g1_balancing_plate_wise20192020/XMC/Libraries/XMCLib/inc\xmc_usic.h ****  */
 801:G:/DT/dt_g1_balancing_plate_wise20192020/XMC/Libraries/XMCLib/inc\xmc_usic.h **** __STATIC_INLINE void XMC_USIC_CH_ConnectInputDataShiftToPPP(XMC_USIC_CH_t *const channel, const XMC
 802:G:/DT/dt_g1_balancing_plate_wise20192020/XMC/Libraries/XMCLib/inc\xmc_usic.h **** {
 803:G:/DT/dt_g1_balancing_plate_wise20192020/XMC/Libraries/XMCLib/inc\xmc_usic.h ****   channel->DXCR[input] &=(uint32_t)~USIC_CH_DXCR_INSW_Msk;
 804:G:/DT/dt_g1_balancing_plate_wise20192020/XMC/Libraries/XMCLib/inc\xmc_usic.h **** }
 805:G:/DT/dt_g1_balancing_plate_wise20192020/XMC/Libraries/XMCLib/inc\xmc_usic.h **** 
 806:G:/DT/dt_g1_balancing_plate_wise20192020/XMC/Libraries/XMCLib/inc\xmc_usic.h **** /**
 807:G:/DT/dt_g1_balancing_plate_wise20192020/XMC/Libraries/XMCLib/inc\xmc_usic.h ****  * @param  channel Pointer to USIC channel handler of type @ref XMC_USIC_CH_t \n
 808:G:/DT/dt_g1_balancing_plate_wise20192020/XMC/Libraries/XMCLib/inc\xmc_usic.h ****  * 				   \b Range: @ref XMC_USIC0_CH0, @ref XMC_USIC0_CH1 to @ref XMC_USIC2_CH1 based on device su
 809:G:/DT/dt_g1_balancing_plate_wise20192020/XMC/Libraries/XMCLib/inc\xmc_usic.h ****  * @param  input USIC channel input stage of type @ref XMC_USIC_CH_INPUT_t. \n
 810:G:/DT/dt_g1_balancing_plate_wise20192020/XMC/Libraries/XMCLib/inc\xmc_usic.h ****  * 				 \b Range: @ref XMC_USIC_CH_INPUT_DX0 to @ref XMC_USIC_CH_INPUT_DX5
 811:G:/DT/dt_g1_balancing_plate_wise20192020/XMC/Libraries/XMCLib/inc\xmc_usic.h ****  * @return None
 812:G:/DT/dt_g1_balancing_plate_wise20192020/XMC/Libraries/XMCLib/inc\xmc_usic.h ****  *
 813:G:/DT/dt_g1_balancing_plate_wise20192020/XMC/Libraries/XMCLib/inc\xmc_usic.h ****  * \par<b>Description</b><br>
 814:G:/DT/dt_g1_balancing_plate_wise20192020/XMC/Libraries/XMCLib/inc\xmc_usic.h ****  * The input of the data shift unit is connected to
 815:G:/DT/dt_g1_balancing_plate_wise20192020/XMC/Libraries/XMCLib/inc\xmc_usic.h ****  * the selected data input line. \n\n
 816:G:/DT/dt_g1_balancing_plate_wise20192020/XMC/Libraries/XMCLib/inc\xmc_usic.h ****  *
 817:G:/DT/dt_g1_balancing_plate_wise20192020/XMC/Libraries/XMCLib/inc\xmc_usic.h ****  * This setting is used
 818:G:/DT/dt_g1_balancing_plate_wise20192020/XMC/Libraries/XMCLib/inc\xmc_usic.h ****  * if the signals are directly derived from an input
 819:G:/DT/dt_g1_balancing_plate_wise20192020/XMC/Libraries/XMCLib/inc\xmc_usic.h ****  * pin without treatment by the protocol preprocessor.
 820:G:/DT/dt_g1_balancing_plate_wise20192020/XMC/Libraries/XMCLib/inc\xmc_usic.h ****  * \par<b>Related APIs:</b><BR>
 821:G:/DT/dt_g1_balancing_plate_wise20192020/XMC/Libraries/XMCLib/inc\xmc_usic.h ****  * XMC_USIC_CH_ConnectInputDataShiftToPPP()\n\n\n
 822:G:/DT/dt_g1_balancing_plate_wise20192020/XMC/Libraries/XMCLib/inc\xmc_usic.h ****  */
 823:G:/DT/dt_g1_balancing_plate_wise20192020/XMC/Libraries/XMCLib/inc\xmc_usic.h **** __STATIC_INLINE void XMC_USIC_CH_ConnectInputDataShiftToDataInput(XMC_USIC_CH_t *const channel, con
 824:G:/DT/dt_g1_balancing_plate_wise20192020/XMC/Libraries/XMCLib/inc\xmc_usic.h **** {
 825:G:/DT/dt_g1_balancing_plate_wise20192020/XMC/Libraries/XMCLib/inc\xmc_usic.h ****   channel->DXCR[input] |= USIC_CH_DXCR_INSW_Msk;
 826:G:/DT/dt_g1_balancing_plate_wise20192020/XMC/Libraries/XMCLib/inc\xmc_usic.h **** }
 827:G:/DT/dt_g1_balancing_plate_wise20192020/XMC/Libraries/XMCLib/inc\xmc_usic.h **** 
 828:G:/DT/dt_g1_balancing_plate_wise20192020/XMC/Libraries/XMCLib/inc\xmc_usic.h **** /**
 829:G:/DT/dt_g1_balancing_plate_wise20192020/XMC/Libraries/XMCLib/inc\xmc_usic.h ****  * @param  channel Pointer to USIC channel handler of type @ref XMC_USIC_CH_t \n
 830:G:/DT/dt_g1_balancing_plate_wise20192020/XMC/Libraries/XMCLib/inc\xmc_usic.h ****  * 				   \b Range: @ref XMC_USIC0_CH0, @ref XMC_USIC0_CH1 to @ref XMC_USIC2_CH1 based on device su
 831:G:/DT/dt_g1_balancing_plate_wise20192020/XMC/Libraries/XMCLib/inc\xmc_usic.h ****  * @param  input USIC channel input stage of type @ref XMC_USIC_CH_INPUT_t. \n
 832:G:/DT/dt_g1_balancing_plate_wise20192020/XMC/Libraries/XMCLib/inc\xmc_usic.h ****  * 				 \b Range: @ref XMC_USIC_CH_INPUT_DX0 to @ref XMC_USIC_CH_INPUT_DX5
 833:G:/DT/dt_g1_balancing_plate_wise20192020/XMC/Libraries/XMCLib/inc\xmc_usic.h ****  * @return None
 834:G:/DT/dt_g1_balancing_plate_wise20192020/XMC/Libraries/XMCLib/inc\xmc_usic.h ****  *
 835:G:/DT/dt_g1_balancing_plate_wise20192020/XMC/Libraries/XMCLib/inc\xmc_usic.h ****  * \par<b>Description</b><br>
 836:G:/DT/dt_g1_balancing_plate_wise20192020/XMC/Libraries/XMCLib/inc\xmc_usic.h ****  * Enables input inversion for USIC channel input data signal. \n\n
 837:G:/DT/dt_g1_balancing_plate_wise20192020/XMC/Libraries/XMCLib/inc\xmc_usic.h ****  *
 838:G:/DT/dt_g1_balancing_plate_wise20192020/XMC/Libraries/XMCLib/inc\xmc_usic.h ****  * Polarity of the input source can be changed to provide inverted data input.
 839:G:/DT/dt_g1_balancing_plate_wise20192020/XMC/Libraries/XMCLib/inc\xmc_usic.h ****  * \par<b>Related APIs:</b><BR>
 840:G:/DT/dt_g1_balancing_plate_wise20192020/XMC/Libraries/XMCLib/inc\xmc_usic.h ****  * XMC_USIC_CH_DisableInputInversion()\n\n\n
 841:G:/DT/dt_g1_balancing_plate_wise20192020/XMC/Libraries/XMCLib/inc\xmc_usic.h ****  */
 842:G:/DT/dt_g1_balancing_plate_wise20192020/XMC/Libraries/XMCLib/inc\xmc_usic.h **** __STATIC_INLINE void XMC_USIC_CH_EnableInputInversion(XMC_USIC_CH_t *const channel, const XMC_USIC_
 843:G:/DT/dt_g1_balancing_plate_wise20192020/XMC/Libraries/XMCLib/inc\xmc_usic.h **** {
 844:G:/DT/dt_g1_balancing_plate_wise20192020/XMC/Libraries/XMCLib/inc\xmc_usic.h ****   channel->DXCR[input] |= USIC_CH_DXCR_DPOL_Msk;
 845:G:/DT/dt_g1_balancing_plate_wise20192020/XMC/Libraries/XMCLib/inc\xmc_usic.h **** }
 846:G:/DT/dt_g1_balancing_plate_wise20192020/XMC/Libraries/XMCLib/inc\xmc_usic.h **** 
 847:G:/DT/dt_g1_balancing_plate_wise20192020/XMC/Libraries/XMCLib/inc\xmc_usic.h **** /**
 848:G:/DT/dt_g1_balancing_plate_wise20192020/XMC/Libraries/XMCLib/inc\xmc_usic.h ****  * @param  channel Pointer to USIC channel handler of type @ref XMC_USIC_CH_t \n
 849:G:/DT/dt_g1_balancing_plate_wise20192020/XMC/Libraries/XMCLib/inc\xmc_usic.h ****  * 				   \b Range: @ref XMC_USIC0_CH0, @ref XMC_USIC0_CH1 to @ref XMC_USIC2_CH1 based on device su
 850:G:/DT/dt_g1_balancing_plate_wise20192020/XMC/Libraries/XMCLib/inc\xmc_usic.h ****  * @param  input USIC channel input stage of type @ref XMC_USIC_CH_INPUT_t. \n
 851:G:/DT/dt_g1_balancing_plate_wise20192020/XMC/Libraries/XMCLib/inc\xmc_usic.h ****  * 				 \b Range: @ref XMC_USIC_CH_INPUT_DX0 to @ref XMC_USIC_CH_INPUT_DX5
 852:G:/DT/dt_g1_balancing_plate_wise20192020/XMC/Libraries/XMCLib/inc\xmc_usic.h ****  * @return None
 853:G:/DT/dt_g1_balancing_plate_wise20192020/XMC/Libraries/XMCLib/inc\xmc_usic.h ****  *
 854:G:/DT/dt_g1_balancing_plate_wise20192020/XMC/Libraries/XMCLib/inc\xmc_usic.h ****  * \par<b>Description</b><br>
 855:G:/DT/dt_g1_balancing_plate_wise20192020/XMC/Libraries/XMCLib/inc\xmc_usic.h ****  * Disables input inversion for USIC channel. \n\n
 856:G:/DT/dt_g1_balancing_plate_wise20192020/XMC/Libraries/XMCLib/inc\xmc_usic.h ****  *
 857:G:/DT/dt_g1_balancing_plate_wise20192020/XMC/Libraries/XMCLib/inc\xmc_usic.h ****  * Resets the input data polarity for the USIC channel input data signal.
 858:G:/DT/dt_g1_balancing_plate_wise20192020/XMC/Libraries/XMCLib/inc\xmc_usic.h ****  * \par<b>Related APIs:</b><BR>
 859:G:/DT/dt_g1_balancing_plate_wise20192020/XMC/Libraries/XMCLib/inc\xmc_usic.h ****  * XMC_USIC_CH_EnableInputInversion()\n\n\n
 860:G:/DT/dt_g1_balancing_plate_wise20192020/XMC/Libraries/XMCLib/inc\xmc_usic.h ****  */
 861:G:/DT/dt_g1_balancing_plate_wise20192020/XMC/Libraries/XMCLib/inc\xmc_usic.h **** __STATIC_INLINE void XMC_USIC_CH_DisableInputInversion(XMC_USIC_CH_t *const channel, const XMC_USIC
 862:G:/DT/dt_g1_balancing_plate_wise20192020/XMC/Libraries/XMCLib/inc\xmc_usic.h **** {
 863:G:/DT/dt_g1_balancing_plate_wise20192020/XMC/Libraries/XMCLib/inc\xmc_usic.h ****   channel->DXCR[input] &=(uint32_t)~USIC_CH_DXCR_DPOL_Msk;
 864:G:/DT/dt_g1_balancing_plate_wise20192020/XMC/Libraries/XMCLib/inc\xmc_usic.h **** }
 865:G:/DT/dt_g1_balancing_plate_wise20192020/XMC/Libraries/XMCLib/inc\xmc_usic.h **** 
 866:G:/DT/dt_g1_balancing_plate_wise20192020/XMC/Libraries/XMCLib/inc\xmc_usic.h **** /**
 867:G:/DT/dt_g1_balancing_plate_wise20192020/XMC/Libraries/XMCLib/inc\xmc_usic.h ****  * @param  channel Pointer to USIC channel handler of type @ref XMC_USIC_CH_t \n
 868:G:/DT/dt_g1_balancing_plate_wise20192020/XMC/Libraries/XMCLib/inc\xmc_usic.h ****  * 				   \b Range: @ref XMC_USIC0_CH0, @ref XMC_USIC0_CH1 to @ref XMC_USIC2_CH1 based on device su
 869:G:/DT/dt_g1_balancing_plate_wise20192020/XMC/Libraries/XMCLib/inc\xmc_usic.h ****  * @return None
 870:G:/DT/dt_g1_balancing_plate_wise20192020/XMC/Libraries/XMCLib/inc\xmc_usic.h ****  *
 871:G:/DT/dt_g1_balancing_plate_wise20192020/XMC/Libraries/XMCLib/inc\xmc_usic.h ****  * \par<b>Description</b><br>
 872:G:/DT/dt_g1_balancing_plate_wise20192020/XMC/Libraries/XMCLib/inc\xmc_usic.h ****  * Enables delay compensation. \n\n
 873:G:/DT/dt_g1_balancing_plate_wise20192020/XMC/Libraries/XMCLib/inc\xmc_usic.h ****  *
 874:G:/DT/dt_g1_balancing_plate_wise20192020/XMC/Libraries/XMCLib/inc\xmc_usic.h ****  * Delay compensation can be applied to the receive path.
 875:G:/DT/dt_g1_balancing_plate_wise20192020/XMC/Libraries/XMCLib/inc\xmc_usic.h ****  * \par<b>Related APIs:</b><BR>
 876:G:/DT/dt_g1_balancing_plate_wise20192020/XMC/Libraries/XMCLib/inc\xmc_usic.h ****  * XMC_USIC_CH_DisableDelayCompensation()\n\n\n
 877:G:/DT/dt_g1_balancing_plate_wise20192020/XMC/Libraries/XMCLib/inc\xmc_usic.h ****  */
 878:G:/DT/dt_g1_balancing_plate_wise20192020/XMC/Libraries/XMCLib/inc\xmc_usic.h **** __STATIC_INLINE void XMC_USIC_CH_EnableDelayCompensation(XMC_USIC_CH_t *const channel)
 879:G:/DT/dt_g1_balancing_plate_wise20192020/XMC/Libraries/XMCLib/inc\xmc_usic.h **** {
 880:G:/DT/dt_g1_balancing_plate_wise20192020/XMC/Libraries/XMCLib/inc\xmc_usic.h ****   channel->DXCR[1U] |= USIC_CH_DX1CR_DCEN_Msk;
 881:G:/DT/dt_g1_balancing_plate_wise20192020/XMC/Libraries/XMCLib/inc\xmc_usic.h **** }
 882:G:/DT/dt_g1_balancing_plate_wise20192020/XMC/Libraries/XMCLib/inc\xmc_usic.h **** 
 883:G:/DT/dt_g1_balancing_plate_wise20192020/XMC/Libraries/XMCLib/inc\xmc_usic.h **** /**
 884:G:/DT/dt_g1_balancing_plate_wise20192020/XMC/Libraries/XMCLib/inc\xmc_usic.h ****  * @param  channel Pointer to USIC channel handler of type @ref XMC_USIC_CH_t \n
 885:G:/DT/dt_g1_balancing_plate_wise20192020/XMC/Libraries/XMCLib/inc\xmc_usic.h ****  * 				   \b Range: @ref XMC_USIC0_CH0, @ref XMC_USIC0_CH1 to @ref XMC_USIC2_CH1 based on device su
 886:G:/DT/dt_g1_balancing_plate_wise20192020/XMC/Libraries/XMCLib/inc\xmc_usic.h ****  * @return None
 887:G:/DT/dt_g1_balancing_plate_wise20192020/XMC/Libraries/XMCLib/inc\xmc_usic.h ****  *
 888:G:/DT/dt_g1_balancing_plate_wise20192020/XMC/Libraries/XMCLib/inc\xmc_usic.h ****  * \par<b>Description</b><br>
 889:G:/DT/dt_g1_balancing_plate_wise20192020/XMC/Libraries/XMCLib/inc\xmc_usic.h ****  * Disables delay compensation.. \n\n
 890:G:/DT/dt_g1_balancing_plate_wise20192020/XMC/Libraries/XMCLib/inc\xmc_usic.h ****  *
 891:G:/DT/dt_g1_balancing_plate_wise20192020/XMC/Libraries/XMCLib/inc\xmc_usic.h ****  * \par<b>Related APIs:</b><BR>
 892:G:/DT/dt_g1_balancing_plate_wise20192020/XMC/Libraries/XMCLib/inc\xmc_usic.h ****  * XMC_USIC_CH_EnableDelayCompensation()\n\n\n
 893:G:/DT/dt_g1_balancing_plate_wise20192020/XMC/Libraries/XMCLib/inc\xmc_usic.h ****  */
 894:G:/DT/dt_g1_balancing_plate_wise20192020/XMC/Libraries/XMCLib/inc\xmc_usic.h **** __STATIC_INLINE void XMC_USIC_CH_DisableDelayCompensation(XMC_USIC_CH_t *const channel)
 895:G:/DT/dt_g1_balancing_plate_wise20192020/XMC/Libraries/XMCLib/inc\xmc_usic.h **** {
 896:G:/DT/dt_g1_balancing_plate_wise20192020/XMC/Libraries/XMCLib/inc\xmc_usic.h ****   channel->DXCR[1U] &=(uint32_t)~USIC_CH_DX1CR_DCEN_Msk;
 897:G:/DT/dt_g1_balancing_plate_wise20192020/XMC/Libraries/XMCLib/inc\xmc_usic.h **** }
 898:G:/DT/dt_g1_balancing_plate_wise20192020/XMC/Libraries/XMCLib/inc\xmc_usic.h **** 
 899:G:/DT/dt_g1_balancing_plate_wise20192020/XMC/Libraries/XMCLib/inc\xmc_usic.h **** /**
 900:G:/DT/dt_g1_balancing_plate_wise20192020/XMC/Libraries/XMCLib/inc\xmc_usic.h ****  * @param  channel Pointer to USIC channel handler of type @ref XMC_USIC_CH_t \n
 901:G:/DT/dt_g1_balancing_plate_wise20192020/XMC/Libraries/XMCLib/inc\xmc_usic.h ****  * 				   \b Range: @ref XMC_USIC0_CH0, @ref XMC_USIC0_CH1 to @ref XMC_USIC2_CH1 based on device su
 902:G:/DT/dt_g1_balancing_plate_wise20192020/XMC/Libraries/XMCLib/inc\xmc_usic.h ****  * @param  input USIC channel input stage of type @ref XMC_USIC_CH_INPUT_t. \n
 903:G:/DT/dt_g1_balancing_plate_wise20192020/XMC/Libraries/XMCLib/inc\xmc_usic.h ****  * 				 \b Range: @ref XMC_USIC_CH_INPUT_DX0 to @ref XMC_USIC_CH_INPUT_DX5
 904:G:/DT/dt_g1_balancing_plate_wise20192020/XMC/Libraries/XMCLib/inc\xmc_usic.h ****  * @return None
 905:G:/DT/dt_g1_balancing_plate_wise20192020/XMC/Libraries/XMCLib/inc\xmc_usic.h ****  *
 906:G:/DT/dt_g1_balancing_plate_wise20192020/XMC/Libraries/XMCLib/inc\xmc_usic.h ****  * \par<b>Description</b><br>
 907:G:/DT/dt_g1_balancing_plate_wise20192020/XMC/Libraries/XMCLib/inc\xmc_usic.h ****  * Enables the input digital filter for USIC channel input data signal. \n\n
 908:G:/DT/dt_g1_balancing_plate_wise20192020/XMC/Libraries/XMCLib/inc\xmc_usic.h ****  * Input data signal from the selected multiplexer will be digitally filtered.
 909:G:/DT/dt_g1_balancing_plate_wise20192020/XMC/Libraries/XMCLib/inc\xmc_usic.h ****  *
 910:G:/DT/dt_g1_balancing_plate_wise20192020/XMC/Libraries/XMCLib/inc\xmc_usic.h ****  * \par<b>Related APIs:</b><BR>
 911:G:/DT/dt_g1_balancing_plate_wise20192020/XMC/Libraries/XMCLib/inc\xmc_usic.h ****  * XMC_USIC_CH_DisableInputDigitalFilter()\n\n\n
 912:G:/DT/dt_g1_balancing_plate_wise20192020/XMC/Libraries/XMCLib/inc\xmc_usic.h ****  */
 913:G:/DT/dt_g1_balancing_plate_wise20192020/XMC/Libraries/XMCLib/inc\xmc_usic.h **** __STATIC_INLINE void XMC_USIC_CH_EnableInputDigitalFilter(XMC_USIC_CH_t *const channel, const XMC_U
 914:G:/DT/dt_g1_balancing_plate_wise20192020/XMC/Libraries/XMCLib/inc\xmc_usic.h **** {
 915:G:/DT/dt_g1_balancing_plate_wise20192020/XMC/Libraries/XMCLib/inc\xmc_usic.h ****   channel->DXCR[input] |= (uint32_t)USIC_CH_DXCR_DFEN_Msk;
 916:G:/DT/dt_g1_balancing_plate_wise20192020/XMC/Libraries/XMCLib/inc\xmc_usic.h **** }
 917:G:/DT/dt_g1_balancing_plate_wise20192020/XMC/Libraries/XMCLib/inc\xmc_usic.h **** /**
 918:G:/DT/dt_g1_balancing_plate_wise20192020/XMC/Libraries/XMCLib/inc\xmc_usic.h ****  * @param  channel Pointer to USIC channel handler of type @ref XMC_USIC_CH_t \n
 919:G:/DT/dt_g1_balancing_plate_wise20192020/XMC/Libraries/XMCLib/inc\xmc_usic.h ****  * 				   \b Range: @ref XMC_USIC0_CH0, @ref XMC_USIC0_CH1 to @ref XMC_USIC2_CH1 based on device su
 920:G:/DT/dt_g1_balancing_plate_wise20192020/XMC/Libraries/XMCLib/inc\xmc_usic.h ****  * @param  input USIC channel input stage of type @ref XMC_USIC_CH_INPUT_t. \n
 921:G:/DT/dt_g1_balancing_plate_wise20192020/XMC/Libraries/XMCLib/inc\xmc_usic.h ****  * 				 \b Range: @ref XMC_USIC_CH_INPUT_DX0 to @ref XMC_USIC_CH_INPUT_DX5
 922:G:/DT/dt_g1_balancing_plate_wise20192020/XMC/Libraries/XMCLib/inc\xmc_usic.h ****  * @return None
 923:G:/DT/dt_g1_balancing_plate_wise20192020/XMC/Libraries/XMCLib/inc\xmc_usic.h ****  *
 924:G:/DT/dt_g1_balancing_plate_wise20192020/XMC/Libraries/XMCLib/inc\xmc_usic.h ****  * \par<b>Description</b><br>
 925:G:/DT/dt_g1_balancing_plate_wise20192020/XMC/Libraries/XMCLib/inc\xmc_usic.h ****  * Disables the input digital filter for USIC channel input data signal. \n\n
 926:G:/DT/dt_g1_balancing_plate_wise20192020/XMC/Libraries/XMCLib/inc\xmc_usic.h ****  * Input data signal from the selected multiplexer will not be digitally filtered.
 927:G:/DT/dt_g1_balancing_plate_wise20192020/XMC/Libraries/XMCLib/inc\xmc_usic.h ****  *
 928:G:/DT/dt_g1_balancing_plate_wise20192020/XMC/Libraries/XMCLib/inc\xmc_usic.h ****  * \par<b>Related APIs:</b><BR>
 929:G:/DT/dt_g1_balancing_plate_wise20192020/XMC/Libraries/XMCLib/inc\xmc_usic.h ****  * XMC_USIC_CH_EnableInputDigitalFilter()\n\n\n
 930:G:/DT/dt_g1_balancing_plate_wise20192020/XMC/Libraries/XMCLib/inc\xmc_usic.h ****  */
 931:G:/DT/dt_g1_balancing_plate_wise20192020/XMC/Libraries/XMCLib/inc\xmc_usic.h **** __STATIC_INLINE void XMC_USIC_CH_DisableInputDigitalFilter(XMC_USIC_CH_t *const channel, const XMC_
 932:G:/DT/dt_g1_balancing_plate_wise20192020/XMC/Libraries/XMCLib/inc\xmc_usic.h **** {
 933:G:/DT/dt_g1_balancing_plate_wise20192020/XMC/Libraries/XMCLib/inc\xmc_usic.h ****   channel->DXCR[input] &=(uint32_t)~USIC_CH_DXCR_DFEN_Msk;
 934:G:/DT/dt_g1_balancing_plate_wise20192020/XMC/Libraries/XMCLib/inc\xmc_usic.h **** }
 935:G:/DT/dt_g1_balancing_plate_wise20192020/XMC/Libraries/XMCLib/inc\xmc_usic.h **** /**
 936:G:/DT/dt_g1_balancing_plate_wise20192020/XMC/Libraries/XMCLib/inc\xmc_usic.h ****  * @param  channel Pointer to USIC channel handler of type @ref XMC_USIC_CH_t \n
 937:G:/DT/dt_g1_balancing_plate_wise20192020/XMC/Libraries/XMCLib/inc\xmc_usic.h ****  * 				   \b Range: @ref XMC_USIC0_CH0, @ref XMC_USIC0_CH1 to @ref XMC_USIC2_CH1 based on device su
 938:G:/DT/dt_g1_balancing_plate_wise20192020/XMC/Libraries/XMCLib/inc\xmc_usic.h ****  * @param  input USIC channel input stage of type @ref XMC_USIC_CH_INPUT_t. \n
 939:G:/DT/dt_g1_balancing_plate_wise20192020/XMC/Libraries/XMCLib/inc\xmc_usic.h ****  * 				 \b Range: @ref XMC_USIC_CH_INPUT_DX0 to @ref XMC_USIC_CH_INPUT_DX5
 940:G:/DT/dt_g1_balancing_plate_wise20192020/XMC/Libraries/XMCLib/inc\xmc_usic.h ****  * @return None
 941:G:/DT/dt_g1_balancing_plate_wise20192020/XMC/Libraries/XMCLib/inc\xmc_usic.h ****  *
 942:G:/DT/dt_g1_balancing_plate_wise20192020/XMC/Libraries/XMCLib/inc\xmc_usic.h ****  * \par<b>Description</b><br>
 943:G:/DT/dt_g1_balancing_plate_wise20192020/XMC/Libraries/XMCLib/inc\xmc_usic.h ****  * Enables input synchronization for the USIC channel input data signal. \n\n
 944:G:/DT/dt_g1_balancing_plate_wise20192020/XMC/Libraries/XMCLib/inc\xmc_usic.h ****  * Input data signal from the selected multiplexer will be synchronized with fPERIPH.
 945:G:/DT/dt_g1_balancing_plate_wise20192020/XMC/Libraries/XMCLib/inc\xmc_usic.h ****  * A noisy signal can be synchronized and filtered by enabling the digital filter.
 946:G:/DT/dt_g1_balancing_plate_wise20192020/XMC/Libraries/XMCLib/inc\xmc_usic.h ****  *
 947:G:/DT/dt_g1_balancing_plate_wise20192020/XMC/Libraries/XMCLib/inc\xmc_usic.h ****  * \par<b>Related APIs:</b><BR>
 948:G:/DT/dt_g1_balancing_plate_wise20192020/XMC/Libraries/XMCLib/inc\xmc_usic.h ****  * XMC_USIC_CH_DisableInputSync(), XMC_USIC_CH_EnableInputDigitalFilter()\n\n\n
 949:G:/DT/dt_g1_balancing_plate_wise20192020/XMC/Libraries/XMCLib/inc\xmc_usic.h ****  */
 950:G:/DT/dt_g1_balancing_plate_wise20192020/XMC/Libraries/XMCLib/inc\xmc_usic.h **** __STATIC_INLINE void XMC_USIC_CH_EnableInputSync(XMC_USIC_CH_t *const channel, const XMC_USIC_CH_IN
 951:G:/DT/dt_g1_balancing_plate_wise20192020/XMC/Libraries/XMCLib/inc\xmc_usic.h **** {
 952:G:/DT/dt_g1_balancing_plate_wise20192020/XMC/Libraries/XMCLib/inc\xmc_usic.h ****   channel->DXCR[input] |=(uint32_t)USIC_CH_DXCR_DSEN_Msk;
 953:G:/DT/dt_g1_balancing_plate_wise20192020/XMC/Libraries/XMCLib/inc\xmc_usic.h **** }
 954:G:/DT/dt_g1_balancing_plate_wise20192020/XMC/Libraries/XMCLib/inc\xmc_usic.h **** /**
 955:G:/DT/dt_g1_balancing_plate_wise20192020/XMC/Libraries/XMCLib/inc\xmc_usic.h ****  * @param  channel Pointer to USIC channel handler of type @ref XMC_USIC_CH_t \n
 956:G:/DT/dt_g1_balancing_plate_wise20192020/XMC/Libraries/XMCLib/inc\xmc_usic.h ****  * 				   \b Range: @ref XMC_USIC0_CH0, @ref XMC_USIC0_CH1 to @ref XMC_USIC2_CH1 based on device su
 957:G:/DT/dt_g1_balancing_plate_wise20192020/XMC/Libraries/XMCLib/inc\xmc_usic.h ****  * @param  input USIC channel input stage of type @ref XMC_USIC_CH_INPUT_t. \n
 958:G:/DT/dt_g1_balancing_plate_wise20192020/XMC/Libraries/XMCLib/inc\xmc_usic.h ****  * 				 \b Range: @ref XMC_USIC_CH_INPUT_DX0 to @ref XMC_USIC_CH_INPUT_DX5
 959:G:/DT/dt_g1_balancing_plate_wise20192020/XMC/Libraries/XMCLib/inc\xmc_usic.h ****  * @return None
 960:G:/DT/dt_g1_balancing_plate_wise20192020/XMC/Libraries/XMCLib/inc\xmc_usic.h ****  *
 961:G:/DT/dt_g1_balancing_plate_wise20192020/XMC/Libraries/XMCLib/inc\xmc_usic.h ****  * \par<b>Description</b><br>
 962:G:/DT/dt_g1_balancing_plate_wise20192020/XMC/Libraries/XMCLib/inc\xmc_usic.h ****  * Disables input synchronization for the USIC channel input data signal. \n\n
 963:G:/DT/dt_g1_balancing_plate_wise20192020/XMC/Libraries/XMCLib/inc\xmc_usic.h ****  * Input data signal from the selected multiplexer will not be synchronized.
 964:G:/DT/dt_g1_balancing_plate_wise20192020/XMC/Libraries/XMCLib/inc\xmc_usic.h ****  *
 965:G:/DT/dt_g1_balancing_plate_wise20192020/XMC/Libraries/XMCLib/inc\xmc_usic.h ****  * \par<b>Related APIs:</b><BR>
 966:G:/DT/dt_g1_balancing_plate_wise20192020/XMC/Libraries/XMCLib/inc\xmc_usic.h ****  * XMC_USIC_CH_EnableInputSync(), XMC_USIC_CH_DisableInputDigitalFilter() \n\n\n
 967:G:/DT/dt_g1_balancing_plate_wise20192020/XMC/Libraries/XMCLib/inc\xmc_usic.h ****  */
 968:G:/DT/dt_g1_balancing_plate_wise20192020/XMC/Libraries/XMCLib/inc\xmc_usic.h **** __STATIC_INLINE void XMC_USIC_CH_DisableInputSync(XMC_USIC_CH_t *const channel, const XMC_USIC_CH_I
 969:G:/DT/dt_g1_balancing_plate_wise20192020/XMC/Libraries/XMCLib/inc\xmc_usic.h **** {
 970:G:/DT/dt_g1_balancing_plate_wise20192020/XMC/Libraries/XMCLib/inc\xmc_usic.h ****   channel->DXCR[input] &=(uint32_t)~USIC_CH_DXCR_DSEN_Msk;
 971:G:/DT/dt_g1_balancing_plate_wise20192020/XMC/Libraries/XMCLib/inc\xmc_usic.h **** }
 972:G:/DT/dt_g1_balancing_plate_wise20192020/XMC/Libraries/XMCLib/inc\xmc_usic.h **** /**
 973:G:/DT/dt_g1_balancing_plate_wise20192020/XMC/Libraries/XMCLib/inc\xmc_usic.h ****  * @param  channel Pointer to USIC channel handler of type @ref XMC_USIC_CH_t \n
 974:G:/DT/dt_g1_balancing_plate_wise20192020/XMC/Libraries/XMCLib/inc\xmc_usic.h ****  * 				   \b Range: @ref XMC_USIC0_CH0, @ref XMC_USIC0_CH1 to @ref XMC_USIC2_CH1 based on device su
 975:G:/DT/dt_g1_balancing_plate_wise20192020/XMC/Libraries/XMCLib/inc\xmc_usic.h ****  * @param  input USIC channel input stage of type @ref XMC_USIC_CH_INPUT_t. \n
 976:G:/DT/dt_g1_balancing_plate_wise20192020/XMC/Libraries/XMCLib/inc\xmc_usic.h ****  * 				 \b Range: @ref XMC_USIC_CH_INPUT_DX0 to @ref XMC_USIC_CH_INPUT_DX5
 977:G:/DT/dt_g1_balancing_plate_wise20192020/XMC/Libraries/XMCLib/inc\xmc_usic.h ****  * @param  sampling_freq Sampling frequency value of type \a XMC_USIC_CH_INPUT_SAMPLING_FREQ_t.
 978:G:/DT/dt_g1_balancing_plate_wise20192020/XMC/Libraries/XMCLib/inc\xmc_usic.h ****  * @return None
 979:G:/DT/dt_g1_balancing_plate_wise20192020/XMC/Libraries/XMCLib/inc\xmc_usic.h ****  *
 980:G:/DT/dt_g1_balancing_plate_wise20192020/XMC/Libraries/XMCLib/inc\xmc_usic.h ****  * \par<b>Description</b><br>
 981:G:/DT/dt_g1_balancing_plate_wise20192020/XMC/Libraries/XMCLib/inc\xmc_usic.h ****  * Sets sampling frequency for USIC channel input data signal. \n\n
 982:G:/DT/dt_g1_balancing_plate_wise20192020/XMC/Libraries/XMCLib/inc\xmc_usic.h ****  *
 983:G:/DT/dt_g1_balancing_plate_wise20192020/XMC/Libraries/XMCLib/inc\xmc_usic.h ****  * \par<b>Related APIs:</b><BR>
 984:G:/DT/dt_g1_balancing_plate_wise20192020/XMC/Libraries/XMCLib/inc\xmc_usic.h ****  * XMC_USIC_CH_SetInputSource(), XMC_USIC_CH_EnableInputSync(), XMC_USIC_CH_EnableInputDigitalFilte
 985:G:/DT/dt_g1_balancing_plate_wise20192020/XMC/Libraries/XMCLib/inc\xmc_usic.h ****  */
 986:G:/DT/dt_g1_balancing_plate_wise20192020/XMC/Libraries/XMCLib/inc\xmc_usic.h **** __STATIC_INLINE void XMC_USIC_CH_SetInputSamplingFreq(XMC_USIC_CH_t *const channel,
 987:G:/DT/dt_g1_balancing_plate_wise20192020/XMC/Libraries/XMCLib/inc\xmc_usic.h **** 		                                              const XMC_USIC_CH_INPUT_t input,
 988:G:/DT/dt_g1_balancing_plate_wise20192020/XMC/Libraries/XMCLib/inc\xmc_usic.h **** 		                                              const XMC_USIC_CH_INPUT_SAMPLING_FREQ_t sampling_fr
 989:G:/DT/dt_g1_balancing_plate_wise20192020/XMC/Libraries/XMCLib/inc\xmc_usic.h **** {
 990:G:/DT/dt_g1_balancing_plate_wise20192020/XMC/Libraries/XMCLib/inc\xmc_usic.h ****   channel->DXCR[input] = (uint32_t)(channel->DXCR[input] & (~USIC_CH_DXCR_SFSEL_Msk)) |
 991:G:/DT/dt_g1_balancing_plate_wise20192020/XMC/Libraries/XMCLib/inc\xmc_usic.h ****                          ((uint32_t)sampling_freq);
 992:G:/DT/dt_g1_balancing_plate_wise20192020/XMC/Libraries/XMCLib/inc\xmc_usic.h **** }
 993:G:/DT/dt_g1_balancing_plate_wise20192020/XMC/Libraries/XMCLib/inc\xmc_usic.h **** 
 994:G:/DT/dt_g1_balancing_plate_wise20192020/XMC/Libraries/XMCLib/inc\xmc_usic.h **** /**
 995:G:/DT/dt_g1_balancing_plate_wise20192020/XMC/Libraries/XMCLib/inc\xmc_usic.h ****  * @param  channel Pointer to USIC channel handler of type @ref XMC_USIC_CH_t \n
 996:G:/DT/dt_g1_balancing_plate_wise20192020/XMC/Libraries/XMCLib/inc\xmc_usic.h ****  * 				   \b Range: @ref XMC_USIC0_CH0, @ref XMC_USIC0_CH1 to @ref XMC_USIC2_CH1 based on device su
 997:G:/DT/dt_g1_balancing_plate_wise20192020/XMC/Libraries/XMCLib/inc\xmc_usic.h ****  * @param  input USIC channel input stage of type @ref XMC_USIC_CH_INPUT_t. \n
 998:G:/DT/dt_g1_balancing_plate_wise20192020/XMC/Libraries/XMCLib/inc\xmc_usic.h ****  * 				 \b Range: @ref XMC_USIC_CH_INPUT_DX0 to @ref XMC_USIC_CH_INPUT_DX5
 999:G:/DT/dt_g1_balancing_plate_wise20192020/XMC/Libraries/XMCLib/inc\xmc_usic.h ****  * @param  combination_mode Combination mode value of type \a XMC_USIC_CH_INPUT_COMBINATION_MODE_t.
1000:G:/DT/dt_g1_balancing_plate_wise20192020/XMC/Libraries/XMCLib/inc\xmc_usic.h ****  * @return None
1001:G:/DT/dt_g1_balancing_plate_wise20192020/XMC/Libraries/XMCLib/inc\xmc_usic.h ****  *
1002:G:/DT/dt_g1_balancing_plate_wise20192020/XMC/Libraries/XMCLib/inc\xmc_usic.h ****  * \par<b>Description</b><br>
1003:G:/DT/dt_g1_balancing_plate_wise20192020/XMC/Libraries/XMCLib/inc\xmc_usic.h ****  * Selects which edge of the synchronized signal DXnS activates the trigger output DXnT of the inpu
1004:G:/DT/dt_g1_balancing_plate_wise20192020/XMC/Libraries/XMCLib/inc\xmc_usic.h ****  *
1005:G:/DT/dt_g1_balancing_plate_wise20192020/XMC/Libraries/XMCLib/inc\xmc_usic.h ****  * \par<b>Related APIs:</b><BR>
1006:G:/DT/dt_g1_balancing_plate_wise20192020/XMC/Libraries/XMCLib/inc\xmc_usic.h ****  * XMC_USIC_CH_SetInputSource(), XMC_USIC_CH_EnableInputSync(), XMC_USIC_CH_EnableInputDigitalFilte
1007:G:/DT/dt_g1_balancing_plate_wise20192020/XMC/Libraries/XMCLib/inc\xmc_usic.h ****  */
1008:G:/DT/dt_g1_balancing_plate_wise20192020/XMC/Libraries/XMCLib/inc\xmc_usic.h **** __STATIC_INLINE void XMC_USIC_CH_SetInputTriggerCombinationMode(XMC_USIC_CH_t *const channel,
1009:G:/DT/dt_g1_balancing_plate_wise20192020/XMC/Libraries/XMCLib/inc\xmc_usic.h **** 		                                                        const XMC_USIC_CH_INPUT_t input,
1010:G:/DT/dt_g1_balancing_plate_wise20192020/XMC/Libraries/XMCLib/inc\xmc_usic.h **** 		                                                        const XMC_USIC_CH_INPUT_COMBINATION_MODE_
1011:G:/DT/dt_g1_balancing_plate_wise20192020/XMC/Libraries/XMCLib/inc\xmc_usic.h **** {
1012:G:/DT/dt_g1_balancing_plate_wise20192020/XMC/Libraries/XMCLib/inc\xmc_usic.h ****   channel->DXCR[input] = (uint32_t)(channel->DXCR[input] & (~USIC_CH_DXCR_CM_Msk)) |
1013:G:/DT/dt_g1_balancing_plate_wise20192020/XMC/Libraries/XMCLib/inc\xmc_usic.h ****                          ((uint32_t)combination_mode << USIC_CH_DXCR_CM_Pos);
1014:G:/DT/dt_g1_balancing_plate_wise20192020/XMC/Libraries/XMCLib/inc\xmc_usic.h **** }
1015:G:/DT/dt_g1_balancing_plate_wise20192020/XMC/Libraries/XMCLib/inc\xmc_usic.h **** 
1016:G:/DT/dt_g1_balancing_plate_wise20192020/XMC/Libraries/XMCLib/inc\xmc_usic.h **** /**
1017:G:/DT/dt_g1_balancing_plate_wise20192020/XMC/Libraries/XMCLib/inc\xmc_usic.h ****  * @param  channel Pointer to USIC channel handler of type @ref XMC_USIC_CH_t \n
1018:G:/DT/dt_g1_balancing_plate_wise20192020/XMC/Libraries/XMCLib/inc\xmc_usic.h ****  * 				   \b Range: @ref XMC_USIC0_CH0, @ref XMC_USIC0_CH1 to @ref XMC_USIC2_CH1 based on device su
1019:G:/DT/dt_g1_balancing_plate_wise20192020/XMC/Libraries/XMCLib/inc\xmc_usic.h ****  * @param  clock_source clock source for the BRG.
1020:G:/DT/dt_g1_balancing_plate_wise20192020/XMC/Libraries/XMCLib/inc\xmc_usic.h ****  * @return None
1021:G:/DT/dt_g1_balancing_plate_wise20192020/XMC/Libraries/XMCLib/inc\xmc_usic.h ****  *
1022:G:/DT/dt_g1_balancing_plate_wise20192020/XMC/Libraries/XMCLib/inc\xmc_usic.h ****  * \par<b>Description</b><br>
1023:G:/DT/dt_g1_balancing_plate_wise20192020/XMC/Libraries/XMCLib/inc\xmc_usic.h ****  * Sets the clock source for the BRG. \n\n
1024:G:/DT/dt_g1_balancing_plate_wise20192020/XMC/Libraries/XMCLib/inc\xmc_usic.h ****  *
1025:G:/DT/dt_g1_balancing_plate_wise20192020/XMC/Libraries/XMCLib/inc\xmc_usic.h ****  * \par<b>Related APIs:</b><BR>
1026:G:/DT/dt_g1_balancing_plate_wise20192020/XMC/Libraries/XMCLib/inc\xmc_usic.h ****  * XMC_USIC_CH_SetInputTriggerCombinationMode(), XMC_USIC_CH_SetExternalClockBRGDivider()\n\n\n
1027:G:/DT/dt_g1_balancing_plate_wise20192020/XMC/Libraries/XMCLib/inc\xmc_usic.h ****  */
1028:G:/DT/dt_g1_balancing_plate_wise20192020/XMC/Libraries/XMCLib/inc\xmc_usic.h **** __STATIC_INLINE void XMC_USIC_CH_SetBRGInputClockSource(XMC_USIC_CH_t *const channel, const XMC_USI
1029:G:/DT/dt_g1_balancing_plate_wise20192020/XMC/Libraries/XMCLib/inc\xmc_usic.h **** {
1030:G:/DT/dt_g1_balancing_plate_wise20192020/XMC/Libraries/XMCLib/inc\xmc_usic.h ****   channel->BRG = (uint32_t)(channel->BRG & (~USIC_CH_BRG_CLKSEL_Msk)) | (uint32_t)(clock_source);
1031:G:/DT/dt_g1_balancing_plate_wise20192020/XMC/Libraries/XMCLib/inc\xmc_usic.h **** }
1032:G:/DT/dt_g1_balancing_plate_wise20192020/XMC/Libraries/XMCLib/inc\xmc_usic.h **** 
1033:G:/DT/dt_g1_balancing_plate_wise20192020/XMC/Libraries/XMCLib/inc\xmc_usic.h **** /**
1034:G:/DT/dt_g1_balancing_plate_wise20192020/XMC/Libraries/XMCLib/inc\xmc_usic.h ****  * @param channel Pointer to USIC channel handler of type @ref XMC_USIC_CH_t \n
1035:G:/DT/dt_g1_balancing_plate_wise20192020/XMC/Libraries/XMCLib/inc\xmc_usic.h ****  * 				   \b Range: @ref XMC_USIC0_CH0, @ref XMC_USIC0_CH1 to @ref XMC_USIC2_CH1 based on device su
1036:G:/DT/dt_g1_balancing_plate_wise20192020/XMC/Libraries/XMCLib/inc\xmc_usic.h ****  * @param data Data to be transmitted. \n
1037:G:/DT/dt_g1_balancing_plate_wise20192020/XMC/Libraries/XMCLib/inc\xmc_usic.h ****  *           \b Range: 16bit unsigned data. minimum= 0, maximum= 65535
1038:G:/DT/dt_g1_balancing_plate_wise20192020/XMC/Libraries/XMCLib/inc\xmc_usic.h ****  * @return None
1039:G:/DT/dt_g1_balancing_plate_wise20192020/XMC/Libraries/XMCLib/inc\xmc_usic.h ****  *
1040:G:/DT/dt_g1_balancing_plate_wise20192020/XMC/Libraries/XMCLib/inc\xmc_usic.h ****  * \par<b>Description</b><br>
1041:G:/DT/dt_g1_balancing_plate_wise20192020/XMC/Libraries/XMCLib/inc\xmc_usic.h ****  * Writes data into the transmit buffer. \n\n
1042:G:/DT/dt_g1_balancing_plate_wise20192020/XMC/Libraries/XMCLib/inc\xmc_usic.h ****  * The data provided is placed in TBUF[0U].
1043:G:/DT/dt_g1_balancing_plate_wise20192020/XMC/Libraries/XMCLib/inc\xmc_usic.h ****  *
1044:G:/DT/dt_g1_balancing_plate_wise20192020/XMC/Libraries/XMCLib/inc\xmc_usic.h ****  *
1045:G:/DT/dt_g1_balancing_plate_wise20192020/XMC/Libraries/XMCLib/inc\xmc_usic.h ****  * \par<b>Related APIs:</b><BR>
1046:G:/DT/dt_g1_balancing_plate_wise20192020/XMC/Libraries/XMCLib/inc\xmc_usic.h ****  * XMC_USIC_CH_WriteToTBUFTCI() \n\n\n
1047:G:/DT/dt_g1_balancing_plate_wise20192020/XMC/Libraries/XMCLib/inc\xmc_usic.h ****  */
1048:G:/DT/dt_g1_balancing_plate_wise20192020/XMC/Libraries/XMCLib/inc\xmc_usic.h **** __STATIC_INLINE void XMC_USIC_CH_WriteToTBUF(XMC_USIC_CH_t *const channel, const uint16_t data)
1049:G:/DT/dt_g1_balancing_plate_wise20192020/XMC/Libraries/XMCLib/inc\xmc_usic.h **** {
1050:G:/DT/dt_g1_balancing_plate_wise20192020/XMC/Libraries/XMCLib/inc\xmc_usic.h ****   channel->TBUF[0U] = data;
1051:G:/DT/dt_g1_balancing_plate_wise20192020/XMC/Libraries/XMCLib/inc\xmc_usic.h **** }
1052:G:/DT/dt_g1_balancing_plate_wise20192020/XMC/Libraries/XMCLib/inc\xmc_usic.h **** 
1053:G:/DT/dt_g1_balancing_plate_wise20192020/XMC/Libraries/XMCLib/inc\xmc_usic.h **** /**
1054:G:/DT/dt_g1_balancing_plate_wise20192020/XMC/Libraries/XMCLib/inc\xmc_usic.h ****  * @param channel Pointer to USIC channel handler of type @ref XMC_USIC_CH_t \n
1055:G:/DT/dt_g1_balancing_plate_wise20192020/XMC/Libraries/XMCLib/inc\xmc_usic.h ****  * 				   \b Range: @ref XMC_USIC0_CH0, @ref XMC_USIC0_CH1 to @ref XMC_USIC2_CH1 based on device su
1056:G:/DT/dt_g1_balancing_plate_wise20192020/XMC/Libraries/XMCLib/inc\xmc_usic.h ****  * @param data Data to be transmitted.
1057:G:/DT/dt_g1_balancing_plate_wise20192020/XMC/Libraries/XMCLib/inc\xmc_usic.h ****  * @param transmit_control_information transmit control information to be configured while transmit
1058:G:/DT/dt_g1_balancing_plate_wise20192020/XMC/Libraries/XMCLib/inc\xmc_usic.h ****  * 			\b Range: minimum= 0, maximum= 31.
1059:G:/DT/dt_g1_balancing_plate_wise20192020/XMC/Libraries/XMCLib/inc\xmc_usic.h ****  * @return None
1060:G:/DT/dt_g1_balancing_plate_wise20192020/XMC/Libraries/XMCLib/inc\xmc_usic.h ****  *
1061:G:/DT/dt_g1_balancing_plate_wise20192020/XMC/Libraries/XMCLib/inc\xmc_usic.h ****  * \par<b>Description</b><br>
1062:G:/DT/dt_g1_balancing_plate_wise20192020/XMC/Libraries/XMCLib/inc\xmc_usic.h ****  * Writes data to the transmit buffer in a control mode. \n\n
1063:G:/DT/dt_g1_balancing_plate_wise20192020/XMC/Libraries/XMCLib/inc\xmc_usic.h ****  * When the respective control mode is enabled , this API can be used.
1064:G:/DT/dt_g1_balancing_plate_wise20192020/XMC/Libraries/XMCLib/inc\xmc_usic.h ****  *
1065:G:/DT/dt_g1_balancing_plate_wise20192020/XMC/Libraries/XMCLib/inc\xmc_usic.h ****  *
1066:G:/DT/dt_g1_balancing_plate_wise20192020/XMC/Libraries/XMCLib/inc\xmc_usic.h ****  * \par<b>Related APIs:</b><BR>
1067:G:/DT/dt_g1_balancing_plate_wise20192020/XMC/Libraries/XMCLib/inc\xmc_usic.h ****  * XMC_USIC_CH_WriteToTBUF() \n\n\n
1068:G:/DT/dt_g1_balancing_plate_wise20192020/XMC/Libraries/XMCLib/inc\xmc_usic.h ****  */
1069:G:/DT/dt_g1_balancing_plate_wise20192020/XMC/Libraries/XMCLib/inc\xmc_usic.h **** __STATIC_INLINE void XMC_USIC_CH_WriteToTBUFTCI(XMC_USIC_CH_t *const channel,
1070:G:/DT/dt_g1_balancing_plate_wise20192020/XMC/Libraries/XMCLib/inc\xmc_usic.h ****                                              const uint16_t data,
1071:G:/DT/dt_g1_balancing_plate_wise20192020/XMC/Libraries/XMCLib/inc\xmc_usic.h ****                                              const uint32_t transmit_control_information)
1072:G:/DT/dt_g1_balancing_plate_wise20192020/XMC/Libraries/XMCLib/inc\xmc_usic.h **** {
1073:G:/DT/dt_g1_balancing_plate_wise20192020/XMC/Libraries/XMCLib/inc\xmc_usic.h ****   channel->TBUF[transmit_control_information] = data;
1074:G:/DT/dt_g1_balancing_plate_wise20192020/XMC/Libraries/XMCLib/inc\xmc_usic.h **** }
1075:G:/DT/dt_g1_balancing_plate_wise20192020/XMC/Libraries/XMCLib/inc\xmc_usic.h **** 
1076:G:/DT/dt_g1_balancing_plate_wise20192020/XMC/Libraries/XMCLib/inc\xmc_usic.h **** /**
1077:G:/DT/dt_g1_balancing_plate_wise20192020/XMC/Libraries/XMCLib/inc\xmc_usic.h ****  * @param  channel Pointer to USIC channel handler of type @ref XMC_USIC_CH_t \n
1078:G:/DT/dt_g1_balancing_plate_wise20192020/XMC/Libraries/XMCLib/inc\xmc_usic.h ****  * 				   \b Range: @ref XMC_USIC0_CH0, @ref XMC_USIC0_CH1 to @ref XMC_USIC2_CH1 based on device su
1079:G:/DT/dt_g1_balancing_plate_wise20192020/XMC/Libraries/XMCLib/inc\xmc_usic.h ****  * @param  word_length Number of bits to be configured for a data word. \n
1080:G:/DT/dt_g1_balancing_plate_wise20192020/XMC/Libraries/XMCLib/inc\xmc_usic.h ****  * 					   \b Range: minimum= 1, maximum= 16. \n
1081:G:/DT/dt_g1_balancing_plate_wise20192020/XMC/Libraries/XMCLib/inc\xmc_usic.h ****  * 					   e.g: For word length of 8, \a word_length should be provided as 8.
1082:G:/DT/dt_g1_balancing_plate_wise20192020/XMC/Libraries/XMCLib/inc\xmc_usic.h ****  * @return None
1083:G:/DT/dt_g1_balancing_plate_wise20192020/XMC/Libraries/XMCLib/inc\xmc_usic.h ****  *
1084:G:/DT/dt_g1_balancing_plate_wise20192020/XMC/Libraries/XMCLib/inc\xmc_usic.h ****  * \par<b>Description</b><br>
1085:G:/DT/dt_g1_balancing_plate_wise20192020/XMC/Libraries/XMCLib/inc\xmc_usic.h ****  * Sets the data word length in number of bits. \n\n
1086:G:/DT/dt_g1_balancing_plate_wise20192020/XMC/Libraries/XMCLib/inc\xmc_usic.h ****  * Sets the number of bits to represent a data word. Frame length should be a multiple of word leng
1087:G:/DT/dt_g1_balancing_plate_wise20192020/XMC/Libraries/XMCLib/inc\xmc_usic.h ****  *
1088:G:/DT/dt_g1_balancing_plate_wise20192020/XMC/Libraries/XMCLib/inc\xmc_usic.h ****  * \par<b>Related APIs:</b><BR>
1089:G:/DT/dt_g1_balancing_plate_wise20192020/XMC/Libraries/XMCLib/inc\xmc_usic.h ****  * XMC_USIC_CH_SetFrameLength()\n\n\n
1090:G:/DT/dt_g1_balancing_plate_wise20192020/XMC/Libraries/XMCLib/inc\xmc_usic.h ****  */
1091:G:/DT/dt_g1_balancing_plate_wise20192020/XMC/Libraries/XMCLib/inc\xmc_usic.h **** __STATIC_INLINE void XMC_USIC_CH_SetWordLength(XMC_USIC_CH_t *const channel, const uint8_t word_len
1092:G:/DT/dt_g1_balancing_plate_wise20192020/XMC/Libraries/XMCLib/inc\xmc_usic.h **** {
1093:G:/DT/dt_g1_balancing_plate_wise20192020/XMC/Libraries/XMCLib/inc\xmc_usic.h ****   channel->SCTR = (uint32_t)(channel->SCTR & (~USIC_CH_SCTR_WLE_Msk)) |
1094:G:/DT/dt_g1_balancing_plate_wise20192020/XMC/Libraries/XMCLib/inc\xmc_usic.h ****                   (uint32_t)(((uint32_t)word_length - 1UL)  << USIC_CH_SCTR_WLE_Pos);
1095:G:/DT/dt_g1_balancing_plate_wise20192020/XMC/Libraries/XMCLib/inc\xmc_usic.h **** }
1096:G:/DT/dt_g1_balancing_plate_wise20192020/XMC/Libraries/XMCLib/inc\xmc_usic.h **** 
1097:G:/DT/dt_g1_balancing_plate_wise20192020/XMC/Libraries/XMCLib/inc\xmc_usic.h **** /**
1098:G:/DT/dt_g1_balancing_plate_wise20192020/XMC/Libraries/XMCLib/inc\xmc_usic.h ****  * @param  channel Pointer to USIC channel handler of type @ref XMC_USIC_CH_t \n
1099:G:/DT/dt_g1_balancing_plate_wise20192020/XMC/Libraries/XMCLib/inc\xmc_usic.h ****  *           \b Range: @ref XMC_USIC0_CH0, @ref XMC_USIC0_CH1 to @ref XMC_USIC2_CH1 based on device
1100:G:/DT/dt_g1_balancing_plate_wise20192020/XMC/Libraries/XMCLib/inc\xmc_usic.h ****  * @param  word_length Number of bits to be configured for a data word. \n
1101:G:/DT/dt_g1_balancing_plate_wise20192020/XMC/Libraries/XMCLib/inc\xmc_usic.h ****  *             \b Range: minimum= 1, maximum= 16. \n
1102:G:/DT/dt_g1_balancing_plate_wise20192020/XMC/Libraries/XMCLib/inc\xmc_usic.h ****  *             e.g: For word length of 8, \a word_length should be provided as 8.
1103:G:/DT/dt_g1_balancing_plate_wise20192020/XMC/Libraries/XMCLib/inc\xmc_usic.h ****  * @return None
1104:G:/DT/dt_g1_balancing_plate_wise20192020/XMC/Libraries/XMCLib/inc\xmc_usic.h ****  *
1105:G:/DT/dt_g1_balancing_plate_wise20192020/XMC/Libraries/XMCLib/inc\xmc_usic.h ****  * \par<b>Description</b><br>
1106:G:/DT/dt_g1_balancing_plate_wise20192020/XMC/Libraries/XMCLib/inc\xmc_usic.h ****  * Sets the data word length in number of bits. \n\n
1107:G:/DT/dt_g1_balancing_plate_wise20192020/XMC/Libraries/XMCLib/inc\xmc_usic.h ****  * Sets the number of bits to represent a data word. Frame length should be a multiple of word leng
1108:G:/DT/dt_g1_balancing_plate_wise20192020/XMC/Libraries/XMCLib/inc\xmc_usic.h ****  *
1109:G:/DT/dt_g1_balancing_plate_wise20192020/XMC/Libraries/XMCLib/inc\xmc_usic.h ****  * \par<b>Related APIs:</b><BR>
1110:G:/DT/dt_g1_balancing_plate_wise20192020/XMC/Libraries/XMCLib/inc\xmc_usic.h ****  * XMC_USIC_CH_SetFrameLength()\n\n\n
1111:G:/DT/dt_g1_balancing_plate_wise20192020/XMC/Libraries/XMCLib/inc\xmc_usic.h ****  */
1112:G:/DT/dt_g1_balancing_plate_wise20192020/XMC/Libraries/XMCLib/inc\xmc_usic.h **** __STATIC_INLINE void XMC_USIC_CH_SetShiftDirection(XMC_USIC_CH_t *const channel, const XMC_USIC_CH_
1113:G:/DT/dt_g1_balancing_plate_wise20192020/XMC/Libraries/XMCLib/inc\xmc_usic.h **** {
1114:G:/DT/dt_g1_balancing_plate_wise20192020/XMC/Libraries/XMCLib/inc\xmc_usic.h ****   channel->SCTR = (uint32_t)(channel->SCTR & (~USIC_CH_SCTR_SDIR_Msk)) | (uint32_t)shift_direction;
1115:G:/DT/dt_g1_balancing_plate_wise20192020/XMC/Libraries/XMCLib/inc\xmc_usic.h **** }
1116:G:/DT/dt_g1_balancing_plate_wise20192020/XMC/Libraries/XMCLib/inc\xmc_usic.h **** 
1117:G:/DT/dt_g1_balancing_plate_wise20192020/XMC/Libraries/XMCLib/inc\xmc_usic.h **** 
1118:G:/DT/dt_g1_balancing_plate_wise20192020/XMC/Libraries/XMCLib/inc\xmc_usic.h **** /**
1119:G:/DT/dt_g1_balancing_plate_wise20192020/XMC/Libraries/XMCLib/inc\xmc_usic.h ****  * @param  channel Pointer to USIC channel handler of type @ref XMC_USIC_CH_t \n
1120:G:/DT/dt_g1_balancing_plate_wise20192020/XMC/Libraries/XMCLib/inc\xmc_usic.h ****  *           \b Range: @ref XMC_USIC0_CH0, @ref XMC_USIC0_CH1 to @ref XMC_USIC2_CH1 based on device
1121:G:/DT/dt_g1_balancing_plate_wise20192020/XMC/Libraries/XMCLib/inc\xmc_usic.h ****  * @return Captured counter value 
1122:G:/DT/dt_g1_balancing_plate_wise20192020/XMC/Libraries/XMCLib/inc\xmc_usic.h ****  *
1123:G:/DT/dt_g1_balancing_plate_wise20192020/XMC/Libraries/XMCLib/inc\xmc_usic.h ****  *
1124:G:/DT/dt_g1_balancing_plate_wise20192020/XMC/Libraries/XMCLib/inc\xmc_usic.h ****  * \par<b>Description</b><br>
1125:G:/DT/dt_g1_balancing_plate_wise20192020/XMC/Libraries/XMCLib/inc\xmc_usic.h ****  * The value of the counter is captured if one of the trigger signals DX0T or DX1T are activated by
1126:G:/DT/dt_g1_balancing_plate_wise20192020/XMC/Libraries/XMCLib/inc\xmc_usic.h ****  */
1127:G:/DT/dt_g1_balancing_plate_wise20192020/XMC/Libraries/XMCLib/inc\xmc_usic.h **** __STATIC_INLINE uint32_t XMC_USIC_CH_GetCaptureTimerValue(const XMC_USIC_CH_t *const channel)
1128:G:/DT/dt_g1_balancing_plate_wise20192020/XMC/Libraries/XMCLib/inc\xmc_usic.h **** {
1129:G:/DT/dt_g1_balancing_plate_wise20192020/XMC/Libraries/XMCLib/inc\xmc_usic.h ****   return channel->CMTR;
1130:G:/DT/dt_g1_balancing_plate_wise20192020/XMC/Libraries/XMCLib/inc\xmc_usic.h **** }
1131:G:/DT/dt_g1_balancing_plate_wise20192020/XMC/Libraries/XMCLib/inc\xmc_usic.h **** 
1132:G:/DT/dt_g1_balancing_plate_wise20192020/XMC/Libraries/XMCLib/inc\xmc_usic.h **** /**
1133:G:/DT/dt_g1_balancing_plate_wise20192020/XMC/Libraries/XMCLib/inc\xmc_usic.h ****  * @param  channel Pointer to USIC channel handler of type @ref XMC_USIC_CH_t \n
1134:G:/DT/dt_g1_balancing_plate_wise20192020/XMC/Libraries/XMCLib/inc\xmc_usic.h ****  *           \b Range: @ref XMC_USIC0_CH0, @ref XMC_USIC0_CH1 to @ref XMC_USIC2_CH1 based on device
1135:G:/DT/dt_g1_balancing_plate_wise20192020/XMC/Libraries/XMCLib/inc\xmc_usic.h ****  * @param  mode divider mode ::XMC_USIC_CH_BRG_CLOCK_DIVIDER_MODE_t \n
1136:G:/DT/dt_g1_balancing_plate_wise20192020/XMC/Libraries/XMCLib/inc\xmc_usic.h ****  * @param  step divider \n
1137:G:/DT/dt_g1_balancing_plate_wise20192020/XMC/Libraries/XMCLib/inc\xmc_usic.h ****  *             \b XMC_USIC_CH_BRG_CLOCK_DIVIDER_MODE_NORMAL resulting divider = 1023 - step \n
1138:G:/DT/dt_g1_balancing_plate_wise20192020/XMC/Libraries/XMCLib/inc\xmc_usic.h ****  *             \b XMC_USIC_CH_BRG_CLOCK_DIVIDER_MODE_FRACTIONAL resulting divider = 1023 / step \n
1139:G:/DT/dt_g1_balancing_plate_wise20192020/XMC/Libraries/XMCLib/inc\xmc_usic.h ****  * 
1140:G:/DT/dt_g1_balancing_plate_wise20192020/XMC/Libraries/XMCLib/inc\xmc_usic.h ****  * @return None
1141:G:/DT/dt_g1_balancing_plate_wise20192020/XMC/Libraries/XMCLib/inc\xmc_usic.h ****  * 
1142:G:/DT/dt_g1_balancing_plate_wise20192020/XMC/Libraries/XMCLib/inc\xmc_usic.h ****  * \par<b>Description</b><br>
1143:G:/DT/dt_g1_balancing_plate_wise20192020/XMC/Libraries/XMCLib/inc\xmc_usic.h ****  * The fractional divider generates its output frequency fFD by either dividing the input frequency
1144:G:/DT/dt_g1_balancing_plate_wise20192020/XMC/Libraries/XMCLib/inc\xmc_usic.h ****  *
1145:G:/DT/dt_g1_balancing_plate_wise20192020/XMC/Libraries/XMCLib/inc\xmc_usic.h ****  */
1146:G:/DT/dt_g1_balancing_plate_wise20192020/XMC/Libraries/XMCLib/inc\xmc_usic.h **** __STATIC_INLINE void XMC_USIC_CH_SetFractionalDivider(XMC_USIC_CH_t *const channel, const XMC_USIC_
1147:G:/DT/dt_g1_balancing_plate_wise20192020/XMC/Libraries/XMCLib/inc\xmc_usic.h **** {
1148:G:/DT/dt_g1_balancing_plate_wise20192020/XMC/Libraries/XMCLib/inc\xmc_usic.h ****   channel->FDR = mode | step;
1149:G:/DT/dt_g1_balancing_plate_wise20192020/XMC/Libraries/XMCLib/inc\xmc_usic.h **** }
1150:G:/DT/dt_g1_balancing_plate_wise20192020/XMC/Libraries/XMCLib/inc\xmc_usic.h **** 
1151:G:/DT/dt_g1_balancing_plate_wise20192020/XMC/Libraries/XMCLib/inc\xmc_usic.h **** /**
1152:G:/DT/dt_g1_balancing_plate_wise20192020/XMC/Libraries/XMCLib/inc\xmc_usic.h ****  * @param  channel Pointer to USIC channel handler of type @ref XMC_USIC_CH_t \n
1153:G:/DT/dt_g1_balancing_plate_wise20192020/XMC/Libraries/XMCLib/inc\xmc_usic.h ****  * 				   \b Range: @ref XMC_USIC0_CH0, @ref XMC_USIC0_CH1 to @ref XMC_USIC2_CH1 based on device su
1154:G:/DT/dt_g1_balancing_plate_wise20192020/XMC/Libraries/XMCLib/inc\xmc_usic.h ****  * @param  frame_length Number of bits in a frame. \n
1155:G:/DT/dt_g1_balancing_plate_wise20192020/XMC/Libraries/XMCLib/inc\xmc_usic.h ****  * 						\b Range: minimum= 1, maximum= 0x3f. The maximum value for fixed frame size is 0x3f. \n
1156:G:/DT/dt_g1_balancing_plate_wise20192020/XMC/Libraries/XMCLib/inc\xmc_usic.h ****  * 						e.g: For a frame length of 16, \a frame_length should be provided as 16.
1157:G:/DT/dt_g1_balancing_plate_wise20192020/XMC/Libraries/XMCLib/inc\xmc_usic.h ****  * @return None
1158:G:/DT/dt_g1_balancing_plate_wise20192020/XMC/Libraries/XMCLib/inc\xmc_usic.h ****  *
1159:G:/DT/dt_g1_balancing_plate_wise20192020/XMC/Libraries/XMCLib/inc\xmc_usic.h ****  * \par<b>Description</b><br>
1160:G:/DT/dt_g1_balancing_plate_wise20192020/XMC/Libraries/XMCLib/inc\xmc_usic.h ****  * Define the data frame length.\n\n
1161:G:/DT/dt_g1_balancing_plate_wise20192020/XMC/Libraries/XMCLib/inc\xmc_usic.h ****  * Set the number of bits to be serially transmitted in a frame.
1162:G:/DT/dt_g1_balancing_plate_wise20192020/XMC/Libraries/XMCLib/inc\xmc_usic.h ****  * The frame length should be multiples of word length. If the value is set to 0x40, the frame leng
1163:G:/DT/dt_g1_balancing_plate_wise20192020/XMC/Libraries/XMCLib/inc\xmc_usic.h ****  * has to be controlled explicitly. 
1164:G:/DT/dt_g1_balancing_plate_wise20192020/XMC/Libraries/XMCLib/inc\xmc_usic.h ****  *
1165:G:/DT/dt_g1_balancing_plate_wise20192020/XMC/Libraries/XMCLib/inc\xmc_usic.h ****  * \par<b>Related APIs:</b><BR>
1166:G:/DT/dt_g1_balancing_plate_wise20192020/XMC/Libraries/XMCLib/inc\xmc_usic.h ****  * XMC_USIC_CH_SetWordLength(), XMC_USIC_CH_EnableFrameLengthControl() \n\n\n
1167:G:/DT/dt_g1_balancing_plate_wise20192020/XMC/Libraries/XMCLib/inc\xmc_usic.h ****  */
1168:G:/DT/dt_g1_balancing_plate_wise20192020/XMC/Libraries/XMCLib/inc\xmc_usic.h **** __STATIC_INLINE void XMC_USIC_CH_SetFrameLength(XMC_USIC_CH_t *const channel, const uint8_t frame_l
1169:G:/DT/dt_g1_balancing_plate_wise20192020/XMC/Libraries/XMCLib/inc\xmc_usic.h **** {
1170:G:/DT/dt_g1_balancing_plate_wise20192020/XMC/Libraries/XMCLib/inc\xmc_usic.h ****   channel->SCTR = (uint32_t)(channel->SCTR & (~USIC_CH_SCTR_FLE_Msk)) |
1171:G:/DT/dt_g1_balancing_plate_wise20192020/XMC/Libraries/XMCLib/inc\xmc_usic.h ****                   (((uint32_t)frame_length - 0x1U)  << USIC_CH_SCTR_FLE_Pos);
1172:G:/DT/dt_g1_balancing_plate_wise20192020/XMC/Libraries/XMCLib/inc\xmc_usic.h **** }
1173:G:/DT/dt_g1_balancing_plate_wise20192020/XMC/Libraries/XMCLib/inc\xmc_usic.h **** 
1174:G:/DT/dt_g1_balancing_plate_wise20192020/XMC/Libraries/XMCLib/inc\xmc_usic.h **** /**
1175:G:/DT/dt_g1_balancing_plate_wise20192020/XMC/Libraries/XMCLib/inc\xmc_usic.h ****  * @param channel Pointer to USIC channel handler of type @ref XMC_USIC_CH_t \n
1176:G:/DT/dt_g1_balancing_plate_wise20192020/XMC/Libraries/XMCLib/inc\xmc_usic.h ****  * 				   \b Range: @ref XMC_USIC0_CH0, @ref XMC_USIC0_CH1 to @ref XMC_USIC2_CH1 based on device su
1177:G:/DT/dt_g1_balancing_plate_wise20192020/XMC/Libraries/XMCLib/inc\xmc_usic.h ****  * @param event Bit mask of the channel events to be enabled. Use @ref XMC_USIC_CH_EVENT_t for the 
1178:G:/DT/dt_g1_balancing_plate_wise20192020/XMC/Libraries/XMCLib/inc\xmc_usic.h ****  * 				\b Range: @ref XMC_USIC_CH_EVENT_RECEIVE_START, @ref XMC_USIC_CH_EVENT_DATA_LOST etc. Multip
1179:G:/DT/dt_g1_balancing_plate_wise20192020/XMC/Libraries/XMCLib/inc\xmc_usic.h ****  * 				can be combined using \a OR operation.
1180:G:/DT/dt_g1_balancing_plate_wise20192020/XMC/Libraries/XMCLib/inc\xmc_usic.h ****  * @return None
1181:G:/DT/dt_g1_balancing_plate_wise20192020/XMC/Libraries/XMCLib/inc\xmc_usic.h ****  *
1182:G:/DT/dt_g1_balancing_plate_wise20192020/XMC/Libraries/XMCLib/inc\xmc_usic.h ****  * \par<b>Description</b><br>
1183:G:/DT/dt_g1_balancing_plate_wise20192020/XMC/Libraries/XMCLib/inc\xmc_usic.h ****  * Enable the channel interrupt events.\n\n
1184:G:/DT/dt_g1_balancing_plate_wise20192020/XMC/Libraries/XMCLib/inc\xmc_usic.h ****  * Common channel events related to serial communication can be configured using this API.
1185:G:/DT/dt_g1_balancing_plate_wise20192020/XMC/Libraries/XMCLib/inc\xmc_usic.h ****  * Multiple events can be combined using the bitwise OR operation and configured in one function ca
1186:G:/DT/dt_g1_balancing_plate_wise20192020/XMC/Libraries/XMCLib/inc\xmc_usic.h ****  * XMC_USIC_CH_EVENT_t enumerates multiple protocol event bitmasks. These enumerations can be used 
1187:G:/DT/dt_g1_balancing_plate_wise20192020/XMC/Libraries/XMCLib/inc\xmc_usic.h ****  *
1188:G:/DT/dt_g1_balancing_plate_wise20192020/XMC/Libraries/XMCLib/inc\xmc_usic.h ****  * \par<b>Related APIs:</b><BR>
1189:G:/DT/dt_g1_balancing_plate_wise20192020/XMC/Libraries/XMCLib/inc\xmc_usic.h ****  * XMC_USIC_CH_DisableEvent(), XMC_USIC_CH_SetInterruptNodePointer() \n\n\n
1190:G:/DT/dt_g1_balancing_plate_wise20192020/XMC/Libraries/XMCLib/inc\xmc_usic.h ****  */
1191:G:/DT/dt_g1_balancing_plate_wise20192020/XMC/Libraries/XMCLib/inc\xmc_usic.h **** __STATIC_INLINE void XMC_USIC_CH_EnableEvent(XMC_USIC_CH_t *const channel, const uint32_t event)
1192:G:/DT/dt_g1_balancing_plate_wise20192020/XMC/Libraries/XMCLib/inc\xmc_usic.h **** {
1193:G:/DT/dt_g1_balancing_plate_wise20192020/XMC/Libraries/XMCLib/inc\xmc_usic.h ****   channel->CCR |= event;
  96              	 .loc 2 1193 0
  97 0044 236C     	 ldr r3,[r4,#64]
  98 0046 43F48043 	 orr r3,r3,#16384
  99              	.LBE19:
 100              	.LBE18:
 167:../Dave/Generated/UART/uart_conf.c ****      5U);
 168:../Dave/Generated/UART/uart_conf.c ****   /*Enable UART standard receive event*/
 169:../Dave/Generated/UART/uart_conf.c ****   XMC_USIC_CH_EnableEvent(XMC_UART0_CH0, XMC_USIC_CH_EVENT_STANDARD_RECEIVE);
 170:../Dave/Generated/UART/uart_conf.c ****   /*Set service request for UART protocol events*/
 171:../Dave/Generated/UART/uart_conf.c ****   XMC_USIC_CH_SetInterruptNodePointer(XMC_UART0_CH0, XMC_USIC_CH_INTERRUPT_NODE_POINTER_PROTOCOL,
 101              	 .loc 1 171 0
 102 004a 2046     	 mov r0,r4
 103              	.LBB21:
 104              	.LBB20:
 105              	 .loc 2 1193 0
 106 004c 2364     	 str r3,[r4,#64]
 107              	.LBE20:
 108              	.LBE21:
 109              	 .loc 1 171 0
 110 004e 1021     	 movs r1,#16
 111 0050 0022     	 movs r2,#0
 112 0052 FFF7FEFF 	 bl XMC_USIC_CH_SetInterruptNodePointer
 113              	.LVL6:
 172:../Dave/Generated/UART/uart_conf.c ****      0U);
 173:../Dave/Generated/UART/uart_conf.c ****   return status;
 174:../Dave/Generated/UART/uart_conf.c **** }
 114              	 .loc 1 174 0
 115 0056 0020     	 movs r0,#0
 116 0058 38BD     	 pop {r3,r4,r5,pc}
 117              	.L3:
 118 005a 00BF     	 .align 2
 119              	.L2:
 120 005c 00810248 	 .word 1208123648
 121 0060 00000340 	 .word 1073938432
 122 0064 00000000 	 .word .LANCHOR0
 123 0068 00000000 	 .word .LANCHOR1
 124 006c 00000000 	 .word .LANCHOR2
 125              	 .cfi_endproc
 126              	.LFE283:
 128              	 .global UART_0_rx_pin_config
 129              	 .global UART_0
 130              	 .global UART_0_runtime
 131              	 .global UART_0_config
 132              	 .global UART_0_tx_pin
 133              	 .global UART_0_tx_pin_config
 134              	 .global UART_0_channel_config
 135              	 .section .data.UART_0,"aw",%progbits
 136              	 .align 2
 139              	UART_0:
 140 0000 00000340 	 .word 1073938432
 141 0004 00000000 	 .word UART_0_config
 142 0008 00000000 	 .word UART_0_runtime
 143              	 .section .rodata.UART_0_config,"a",%progbits
 144              	 .align 2
 147              	UART_0_config:
 148 0000 00000000 	 .word UART_0_channel_config
 149 0004 00000000 	 .word UART_0_init
 150 0008 00000000 	 .word 0
 151 000c 00000000 	 .word 0
 152 0010 00000000 	 .word 0
 153 0014 00000000 	 .word 0
 154 0018 00000000 	 .word 0
 155 001c 00000000 	 .word UART_0_tx_pin
 156 0020 00       	 .byte 0
 157 0021 02       	 .byte 2
 158 0022 02       	 .byte 2
 159 0023 00       	 .byte 0
 160 0024 00       	 .byte 0
 161 0025 000000   	 .space 3
 162              	 .section .rodata.UART_0_rx_pin_config,"a",%progbits
 163              	 .align 2
 164              	 .set .LANCHOR0,.+0
 167              	UART_0_rx_pin_config:
 168 0000 00       	 .byte 0
 169 0001 000000   	 .space 3
 170 0004 01000000 	 .word 1
 171 0008 02       	 .byte 2
 172 0009 000000   	 .space 3
 173              	 .section .bss.UART_0_runtime,"aw",%nobits
 174              	 .align 2
 177              	UART_0_runtime:
 178 0000 00000000 	 .space 28
 178      00000000 
 178      00000000 
 178      00000000 
 178      00000000 
 179              	 .section .rodata.UART_0_tx_pin,"a",%progbits
 180              	 .align 2
 183              	UART_0_tx_pin:
 184 0000 00810248 	 .word 1208123648
 185 0004 05       	 .byte 5
 186 0005 000000   	 .space 3
 187 0008 00000000 	 .word UART_0_tx_pin_config
 188              	 .section .rodata.UART_0_tx_pin_config,"a",%progbits
 189              	 .align 2
 190              	 .set .LANCHOR2,.+0
 193              	UART_0_tx_pin_config:
 194 0000 90       	 .byte -112
 195 0001 000000   	 .space 3
 196 0004 01000000 	 .word 1
 197 0008 02       	 .byte 2
 198 0009 000000   	 .space 3
 199              	 .section .rodata.UART_0_channel_config,"a",%progbits
 200              	 .align 2
 201              	 .set .LANCHOR1,.+0
 204              	UART_0_channel_config:
 205 0000 004B0000 	 .word 19200
 206 0004 00       	 .space 1
 207 0005 08       	 .byte 8
 208 0006 08       	 .byte 8
 209 0007 01       	 .byte 1
 210 0008 10       	 .byte 16
 211 0009 00       	 .space 1
 212 000a 0000     	 .short 0
 213              	 .text
 214              	.Letext0:
 215              	 .file 4 "c:\\program files\\dave_4\\dave-ide-4.4.2-64bit\\eclipse\\arm-gcc-49\\arm-none-eabi\\include\\machine\\_default_types.h"
 216              	 .file 5 "c:\\program files\\dave_4\\dave-ide-4.4.2-64bit\\eclipse\\arm-gcc-49\\arm-none-eabi\\include\\stdint.h"
 217              	 .file 6 "G:/DT/dt_g1_balancing_plate_wise20192020/XMC/Libraries/XMCLib/inc/xmc_gpio.h"
 218              	 .file 7 "G:/DT/dt_g1_balancing_plate_wise20192020/XMC/Libraries/XMCLib/inc/xmc4_gpio.h"
 219              	 .file 8 "../Dave/Generated/UART/uart.h"
 220              	 .file 9 "G:/DT/dt_g1_balancing_plate_wise20192020/XMC/Libraries/CMSIS/Include/core_cm4.h"
 221              	 .file 10 "G:/DT/dt_g1_balancing_plate_wise20192020/XMC/Libraries/CMSIS/Infineon/XMC4500_series/Include/system_XMC4500.h"