   1              	 .syntax unified
   2              	 .cpu cortex-m4
   3              	 .eabi_attribute 27,3
   4              	 .fpu fpv4-sp-d16
   5              	 .eabi_attribute 20,1
   6              	 .eabi_attribute 21,1
   7              	 .eabi_attribute 23,3
   8              	 .eabi_attribute 24,1
   9              	 .eabi_attribute 25,1
  10              	 .eabi_attribute 26,1
  11              	 .eabi_attribute 30,4
  12              	 .eabi_attribute 34,1
  13              	 .eabi_attribute 18,4
  14              	 .thumb
  15              	 .file "uart.c"
  16              	 .text
  17              	.Ltext0:
  18              	 .cfi_sections .debug_frame
  19              	 .section .text.UART_lReconfigureRxFIFO,"ax",%progbits
  20              	 .align 1
  21              	 .thumb
  22              	 .thumb_func
  24              	UART_lReconfigureRxFIFO:
  25              	.LFB292:
  26              	 .file 1 "../Dave/Generated/UART/uart.c"
   1:../Dave/Generated/UART/uart.c **** /**
   2:../Dave/Generated/UART/uart.c ****  * @file uart.c
   3:../Dave/Generated/UART/uart.c ****  * @date 2015-12-17
   4:../Dave/Generated/UART/uart.c ****  *
   5:../Dave/Generated/UART/uart.c ****  * NOTE:
   6:../Dave/Generated/UART/uart.c ****  * This file is generated by DAVE. Any manual modification done to this file will be lost when the 
   7:../Dave/Generated/UART/uart.c ****  *
   8:../Dave/Generated/UART/uart.c ****  * @cond
   9:../Dave/Generated/UART/uart.c ****  **************************************************************************************************
  10:../Dave/Generated/UART/uart.c ****  * UART v4.1.12 - Configures a USIC channel to perform transmit & receive operations using UART pro
  11:../Dave/Generated/UART/uart.c ****  *
  12:../Dave/Generated/UART/uart.c ****  * Copyright (c) 2015-2018, Infineon Technologies AG
  13:../Dave/Generated/UART/uart.c ****  * All rights reserved.
  14:../Dave/Generated/UART/uart.c ****  *
  15:../Dave/Generated/UART/uart.c ****  * Redistribution and use in source and binary forms, with or without modification,are permitted pr
  16:../Dave/Generated/UART/uart.c ****  * following conditions are met:
  17:../Dave/Generated/UART/uart.c ****  *
  18:../Dave/Generated/UART/uart.c ****  *   Redistributions of source code must retain the above copyright notice, this list of conditions
  19:../Dave/Generated/UART/uart.c ****  *   disclaimer.
  20:../Dave/Generated/UART/uart.c ****  *
  21:../Dave/Generated/UART/uart.c ****  *   Redistributions in binary form must reproduce the above copyright notice, this list of conditi
  22:../Dave/Generated/UART/uart.c ****  *   following disclaimer in the documentation and/or other materials provided with the distributio
  23:../Dave/Generated/UART/uart.c ****  *
  24:../Dave/Generated/UART/uart.c ****  *   Neither the name of the copyright holders nor the names of its contributors may be used to end
  25:../Dave/Generated/UART/uart.c ****  *   products derived from this software without specific prior written permission.
  26:../Dave/Generated/UART/uart.c ****  *
  27:../Dave/Generated/UART/uart.c ****  * THIS SOFTWARE IS PROVIDED BY THE COPYRIGHT HOLDERS AND CONTRIBUTORS "AS IS" AND ANY EXPRESS OR I
  28:../Dave/Generated/UART/uart.c ****  * INCLUDING, BUT NOT LIMITED TO, THE IMPLIED WARRANTIES OF MERCHANTABILITY AND FITNESS FOR A PARTI
  29:../Dave/Generated/UART/uart.c ****  * DISCLAIMED. IN NO EVENT SHALL THE COPYRIGHT HOLDER OR CONTRIBUTORS BE LIABLE  FOR ANY DIRECT, IN
  30:../Dave/Generated/UART/uart.c ****  * SPECIAL, EXEMPLARY, OR CONSEQUENTIAL DAMAGES (INCLUDING, BUT NOT LIMITED TO, PROCUREMENT OF SUBS
  31:../Dave/Generated/UART/uart.c ****  * SERVICES; LOSS OF USE, DATA, OR PROFITS; OR BUSINESS INTERRUPTION) HOWEVER CAUSED AND ON ANY THE
  32:../Dave/Generated/UART/uart.c ****  * WHETHER IN CONTRACT, STRICT LIABILITY,OR TORT (INCLUDING NEGLIGENCE OR OTHERWISE) ARISING IN ANY
  33:../Dave/Generated/UART/uart.c ****  * USE OF THIS SOFTWARE, EVEN IF ADVISED OF THE POSSIBILITY OF SUCH DAMAGE.
  34:../Dave/Generated/UART/uart.c ****  *
  35:../Dave/Generated/UART/uart.c ****  * To improve the quality of the software, users are encouraged to share modifications, enhancement
  36:../Dave/Generated/UART/uart.c ****  * with Infineon Technologies AG (dave@infineon.com).
  37:../Dave/Generated/UART/uart.c ****  **************************************************************************************************
  38:../Dave/Generated/UART/uart.c ****  *
  39:../Dave/Generated/UART/uart.c ****  * Change History
  40:../Dave/Generated/UART/uart.c ****  * --------------
  41:../Dave/Generated/UART/uart.c ****  *
  42:../Dave/Generated/UART/uart.c ****  * 2015-02-16:
  43:../Dave/Generated/UART/uart.c ****  *     - Initial version for DAVEv4
  44:../Dave/Generated/UART/uart.c ****  *
  45:../Dave/Generated/UART/uart.c ****  * 2015-06-20:
  46:../Dave/Generated/UART/uart.c ****  *     - Changed the abort API name from UART_Abort_Receive to UART_AbortReceive and added return t
  47:../Dave/Generated/UART/uart.c ****  *
  48:../Dave/Generated/UART/uart.c ****  * 2015-06-25:
  49:../Dave/Generated/UART/uart.c ****  *     - Changed protocol event handling to check event configuration
  50:../Dave/Generated/UART/uart.c ****  *
  51:../Dave/Generated/UART/uart.c ****  * 2015-07-06:
  52:../Dave/Generated/UART/uart.c ****  *     - Changed structure name from UART_DYNAMIC_t to UART_RUNTIME_t
  53:../Dave/Generated/UART/uart.c ****  *
  54:../Dave/Generated/UART/uart.c ****  * 2015-07-30:
  55:../Dave/Generated/UART/uart.c ****  *     - Added code for DMA and Direct mode handling
  56:../Dave/Generated/UART/uart.c ****  *
  57:../Dave/Generated/UART/uart.c ****  * @endcond
  58:../Dave/Generated/UART/uart.c ****  *
  59:../Dave/Generated/UART/uart.c ****  */
  60:../Dave/Generated/UART/uart.c **** 
  61:../Dave/Generated/UART/uart.c **** /**************************************************************************************************
  62:../Dave/Generated/UART/uart.c ****  * HEADER FILES
  63:../Dave/Generated/UART/uart.c ****  **************************************************************************************************
  64:../Dave/Generated/UART/uart.c **** #include "uart.h"
  65:../Dave/Generated/UART/uart.c **** 
  66:../Dave/Generated/UART/uart.c **** /**************************************************************************************************
  67:../Dave/Generated/UART/uart.c ****  * MACROS
  68:../Dave/Generated/UART/uart.c ****  **************************************************************************************************
  69:../Dave/Generated/UART/uart.c **** 
  70:../Dave/Generated/UART/uart.c **** /**************************************************************************************************
  71:../Dave/Generated/UART/uart.c ****  * LOCAL DATA
  72:../Dave/Generated/UART/uart.c ****  **************************************************************************************************
  73:../Dave/Generated/UART/uart.c **** const XMC_UART_CH_STATUS_FLAG_t uart_event_status_flags[UART_EVENT_MAX] = {
  74:../Dave/Generated/UART/uart.c ****   XMC_UART_CH_STATUS_FLAG_SYNCHRONIZATION_BREAK_DETECTED,
  75:../Dave/Generated/UART/uart.c ****   XMC_UART_CH_STATUS_FLAG_RECEIVER_NOISE_DETECTED,
  76:../Dave/Generated/UART/uart.c ****   XMC_UART_CH_STATUS_FLAG_FORMAT_ERROR_IN_STOP_BIT_0,
  77:../Dave/Generated/UART/uart.c ****   XMC_UART_CH_STATUS_FLAG_FORMAT_ERROR_IN_STOP_BIT_1,
  78:../Dave/Generated/UART/uart.c ****   XMC_UART_CH_STATUS_FLAG_COLLISION_DETECTED
  79:../Dave/Generated/UART/uart.c **** };
  80:../Dave/Generated/UART/uart.c **** const XMC_UART_CH_EVENT_t uart_event_conf_flags[UART_EVENT_MAX] = {
  81:../Dave/Generated/UART/uart.c ****   XMC_UART_CH_EVENT_SYNCHRONIZATION_BREAK,
  82:../Dave/Generated/UART/uart.c ****   XMC_UART_CH_EVENT_RECEIVER_NOISE,
  83:../Dave/Generated/UART/uart.c ****   XMC_UART_CH_EVENT_FORMAT_ERROR,
  84:../Dave/Generated/UART/uart.c ****   XMC_UART_CH_EVENT_FORMAT_ERROR,
  85:../Dave/Generated/UART/uart.c ****   XMC_UART_CH_EVENT_COLLISION
  86:../Dave/Generated/UART/uart.c **** };
  87:../Dave/Generated/UART/uart.c **** /**************************************************************************************************
  88:../Dave/Generated/UART/uart.c ****  * LOCAL ROUTINES
  89:../Dave/Generated/UART/uart.c ****  **************************************************************************************************
  90:../Dave/Generated/UART/uart.c **** #ifdef UART_TX_INTERRUPT_USED
  91:../Dave/Generated/UART/uart.c **** /*Function used for handling transmit interrupt.*/
  92:../Dave/Generated/UART/uart.c **** void UART_lTransmitHandler(const UART_t * const handle);
  93:../Dave/Generated/UART/uart.c **** #endif
  94:../Dave/Generated/UART/uart.c **** #ifdef UART_RX_INTERRUPT_USED
  95:../Dave/Generated/UART/uart.c **** /*Function used for handling data reception interrupts.*/
  96:../Dave/Generated/UART/uart.c **** void UART_lReceiveHandler(const UART_t * const handle);
  97:../Dave/Generated/UART/uart.c **** /*Function used for reconfiguring rx FIFO while receiving data.*/
  98:../Dave/Generated/UART/uart.c **** static void UART_lReconfigureRxFIFO(const UART_t * const handle, uint32_t data_size);
  99:../Dave/Generated/UART/uart.c **** #endif
 100:../Dave/Generated/UART/uart.c **** #ifdef UART_TX_DIRECT_USED
 101:../Dave/Generated/UART/uart.c **** /*Function for transmitting data using polling.*/
 102:../Dave/Generated/UART/uart.c **** static UART_STATUS_t UART_lStartTransmitPolling (const UART_t *const handle, uint8_t* data_ptr, uin
 103:../Dave/Generated/UART/uart.c **** #endif
 104:../Dave/Generated/UART/uart.c **** #ifdef UART_RX_DIRECT_USED
 105:../Dave/Generated/UART/uart.c **** /*Function for receiving data using polling.*/
 106:../Dave/Generated/UART/uart.c **** static UART_STATUS_t UART_lStartReceivePolling (const UART_t *const handle, uint8_t* data_ptr, uint
 107:../Dave/Generated/UART/uart.c **** #endif
 108:../Dave/Generated/UART/uart.c **** /*Function used for handling protocol related interrupt.*/
 109:../Dave/Generated/UART/uart.c **** void UART_lProtocolHandler(const UART_t * const handle);
 110:../Dave/Generated/UART/uart.c **** 
 111:../Dave/Generated/UART/uart.c **** 
 112:../Dave/Generated/UART/uart.c **** /**************************************************************************************************
 113:../Dave/Generated/UART/uart.c ****  * API IMPLEMENTATION
 114:../Dave/Generated/UART/uart.c ****  **************************************************************************************************
 115:../Dave/Generated/UART/uart.c **** 
 116:../Dave/Generated/UART/uart.c **** /*
 117:../Dave/Generated/UART/uart.c ****  * @brief API to retrieve the version of the UART APP.
 118:../Dave/Generated/UART/uart.c ****  *
 119:../Dave/Generated/UART/uart.c ****  * @return DAVE_APP_VERSION_t Structure containing major version, minor version
 120:../Dave/Generated/UART/uart.c ****  *         and patch version.
 121:../Dave/Generated/UART/uart.c ****  */
 122:../Dave/Generated/UART/uart.c **** DAVE_APP_VERSION_t UART_GetAppVersion()
 123:../Dave/Generated/UART/uart.c **** {
 124:../Dave/Generated/UART/uart.c ****   DAVE_APP_VERSION_t version;
 125:../Dave/Generated/UART/uart.c **** 
 126:../Dave/Generated/UART/uart.c ****   version.major = UART_MAJOR_VERSION;
 127:../Dave/Generated/UART/uart.c ****   version.minor = UART_MINOR_VERSION;
 128:../Dave/Generated/UART/uart.c ****   version.patch = UART_PATCH_VERSION;
 129:../Dave/Generated/UART/uart.c **** 
 130:../Dave/Generated/UART/uart.c ****   return version;
 131:../Dave/Generated/UART/uart.c **** }
 132:../Dave/Generated/UART/uart.c **** 
 133:../Dave/Generated/UART/uart.c **** /*
 134:../Dave/Generated/UART/uart.c ****  * @brief Function to initialize the USIC Channel with GUI configured values.
 135:../Dave/Generated/UART/uart.c ****  *
 136:../Dave/Generated/UART/uart.c ****  * @param[in]  handle UART APP handle pointer of type UART_t*
 137:../Dave/Generated/UART/uart.c ****  *
 138:../Dave/Generated/UART/uart.c ****  * @return  UART_STATUS_t
 139:../Dave/Generated/UART/uart.c ****  *          UART_SUCCESS: for successful UART initialization.<BR>
 140:../Dave/Generated/UART/uart.c ****  *          UART_STATUS_FAILURE  : If UART initialization fails.<BR>
 141:../Dave/Generated/UART/uart.c ****  *
 142:../Dave/Generated/UART/uart.c ****  */
 143:../Dave/Generated/UART/uart.c **** UART_STATUS_t UART_Init(const UART_t *const handle)
 144:../Dave/Generated/UART/uart.c **** {
 145:../Dave/Generated/UART/uart.c ****   UART_STATUS_t status = UART_STATUS_SUCCESS;
 146:../Dave/Generated/UART/uart.c ****   XMC_ASSERT("UART_Init : UART APP handle invalid", (((handle != NULL)&&
 147:../Dave/Generated/UART/uart.c ****       (handle->config != NULL)) &&((handle->config->fptr_uart_config != NULL)&&
 148:../Dave/Generated/UART/uart.c ****       (handle->runtime != NULL))))
 149:../Dave/Generated/UART/uart.c **** 
 150:../Dave/Generated/UART/uart.c ****   /*Initialize the multiplexers required for UART configuration*/
 151:../Dave/Generated/UART/uart.c ****   status = handle->config->fptr_uart_config();
 152:../Dave/Generated/UART/uart.c **** 
 153:../Dave/Generated/UART/uart.c ****   return status;
 154:../Dave/Generated/UART/uart.c **** }
 155:../Dave/Generated/UART/uart.c **** 
 156:../Dave/Generated/UART/uart.c **** /*
 157:../Dave/Generated/UART/uart.c ****  * @brief Common function to transmit data.
 158:../Dave/Generated/UART/uart.c ****  *
 159:../Dave/Generated/UART/uart.c ****  * @param[in]  handle UART APP handle pointer of type UART_t*
 160:../Dave/Generated/UART/uart.c ****  * @param[in]  data_ptr Pointer to data of type uint8_t
 161:../Dave/Generated/UART/uart.c ****  * @param[in]  count Number of uint8_t type bytes to be transmitted
 162:../Dave/Generated/UART/uart.c ****  *
 163:../Dave/Generated/UART/uart.c ****  * @return  UART_STATUS_t
 164:../Dave/Generated/UART/uart.c ****  *          UART_SUCCESS: If the data is put to transmit.<BR>
 165:../Dave/Generated/UART/uart.c ****  *          UART_STATUS_BUSY  : If the channel is busy.<BR>
 166:../Dave/Generated/UART/uart.c ****  *          UART_STATUS_BUFFER_INVALID: Either if buffer is NULL or count is 0.<BR>
 167:../Dave/Generated/UART/uart.c ****  *          UART_STATUS_MODE_MISMATCH: If the configured mode is invalid.<BR>
 168:../Dave/Generated/UART/uart.c ****  *
 169:../Dave/Generated/UART/uart.c ****  */
 170:../Dave/Generated/UART/uart.c **** UART_STATUS_t UART_Transmit(const UART_t *const handle, uint8_t* data_ptr, uint32_t count)
 171:../Dave/Generated/UART/uart.c **** {
 172:../Dave/Generated/UART/uart.c ****   UART_STATUS_t ret_stat = UART_STATUS_MODE_MISMATCH;
 173:../Dave/Generated/UART/uart.c **** 
 174:../Dave/Generated/UART/uart.c ****   switch(handle->config->transmit_mode)
 175:../Dave/Generated/UART/uart.c ****   {
 176:../Dave/Generated/UART/uart.c **** #ifdef UART_TX_INTERRUPT_USED
 177:../Dave/Generated/UART/uart.c ****   case UART_TRANSFER_MODE_INTERRUPT:
 178:../Dave/Generated/UART/uart.c ****     ret_stat = UART_StartTransmitIRQ(handle, data_ptr, count);
 179:../Dave/Generated/UART/uart.c ****     break;
 180:../Dave/Generated/UART/uart.c **** #endif
 181:../Dave/Generated/UART/uart.c **** #ifdef UART_TX_DMA_USED
 182:../Dave/Generated/UART/uart.c ****   case UART_TRANSFER_MODE_DMA:
 183:../Dave/Generated/UART/uart.c ****     ret_stat = UART_StartTransmitDMA(handle, data_ptr, count);
 184:../Dave/Generated/UART/uart.c ****     break;
 185:../Dave/Generated/UART/uart.c **** #endif
 186:../Dave/Generated/UART/uart.c **** #ifdef UART_TX_DIRECT_USED
 187:../Dave/Generated/UART/uart.c ****   case UART_TRANSFER_MODE_DIRECT:
 188:../Dave/Generated/UART/uart.c ****     ret_stat = UART_lStartTransmitPolling(handle, data_ptr, count);
 189:../Dave/Generated/UART/uart.c ****     break;
 190:../Dave/Generated/UART/uart.c **** #endif
 191:../Dave/Generated/UART/uart.c ****   default:
 192:../Dave/Generated/UART/uart.c ****     break;
 193:../Dave/Generated/UART/uart.c ****   }
 194:../Dave/Generated/UART/uart.c ****   return ret_stat;
 195:../Dave/Generated/UART/uart.c **** }
 196:../Dave/Generated/UART/uart.c **** 
 197:../Dave/Generated/UART/uart.c **** /*
 198:../Dave/Generated/UART/uart.c ****  * @brief Common function to receive data.
 199:../Dave/Generated/UART/uart.c ****  *
 200:../Dave/Generated/UART/uart.c ****  * @param[in]  handle UART APP handle pointer of type UART_t*
 201:../Dave/Generated/UART/uart.c ****  * @param[in]  data_ptr Pointer to data of type uint8_t
 202:../Dave/Generated/UART/uart.c ****  * @param[in]  count Number of uint8_t type bytes to be received
 203:../Dave/Generated/UART/uart.c ****  *
 204:../Dave/Generated/UART/uart.c ****  * @return  UART_STATUS_t
 205:../Dave/Generated/UART/uart.c ****  *          UART_SUCCESS: If the data is put to transmit.<BR>
 206:../Dave/Generated/UART/uart.c ****  *          UART_STATUS_BUSY  : If the channel is busy.<BR>
 207:../Dave/Generated/UART/uart.c ****  *          UART_STATUS_BUFFER_INVALID: Either if buffer is NULL or count is 0.<BR>
 208:../Dave/Generated/UART/uart.c ****  *          UART_STATUS_MODE_MISMATCH: If the configured mode is invalid.<BR>
 209:../Dave/Generated/UART/uart.c ****  *
 210:../Dave/Generated/UART/uart.c ****  */
 211:../Dave/Generated/UART/uart.c **** UART_STATUS_t UART_Receive(const UART_t *const handle, uint8_t* data_ptr, uint32_t count)
 212:../Dave/Generated/UART/uart.c **** {
 213:../Dave/Generated/UART/uart.c ****   UART_STATUS_t ret_stat = UART_STATUS_MODE_MISMATCH;
 214:../Dave/Generated/UART/uart.c **** 
 215:../Dave/Generated/UART/uart.c ****   switch(handle->config->receive_mode)
 216:../Dave/Generated/UART/uart.c ****   {
 217:../Dave/Generated/UART/uart.c **** #ifdef UART_RX_INTERRUPT_USED
 218:../Dave/Generated/UART/uart.c ****   case UART_TRANSFER_MODE_INTERRUPT:
 219:../Dave/Generated/UART/uart.c ****     ret_stat = UART_StartReceiveIRQ(handle, data_ptr, count);
 220:../Dave/Generated/UART/uart.c ****     break;
 221:../Dave/Generated/UART/uart.c **** #endif
 222:../Dave/Generated/UART/uart.c **** #ifdef UART_RX_DMA_USED
 223:../Dave/Generated/UART/uart.c ****   case UART_TRANSFER_MODE_DMA:
 224:../Dave/Generated/UART/uart.c ****     ret_stat = UART_StartReceiveDMA(handle, data_ptr, count);
 225:../Dave/Generated/UART/uart.c ****     break;
 226:../Dave/Generated/UART/uart.c **** #endif
 227:../Dave/Generated/UART/uart.c **** #ifdef UART_RX_DIRECT_USED
 228:../Dave/Generated/UART/uart.c ****   case UART_TRANSFER_MODE_DIRECT:
 229:../Dave/Generated/UART/uart.c ****     ret_stat = UART_lStartReceivePolling(handle, data_ptr, count);
 230:../Dave/Generated/UART/uart.c ****     break;
 231:../Dave/Generated/UART/uart.c **** #endif
 232:../Dave/Generated/UART/uart.c ****   default:
 233:../Dave/Generated/UART/uart.c ****     break;
 234:../Dave/Generated/UART/uart.c ****   }
 235:../Dave/Generated/UART/uart.c ****   return ret_stat;
 236:../Dave/Generated/UART/uart.c **** }
 237:../Dave/Generated/UART/uart.c **** 
 238:../Dave/Generated/UART/uart.c **** #if (defined UART_TX_INTERRUPT_USED || defined UART_TX_DMA_USED)
 239:../Dave/Generated/UART/uart.c **** /*
 240:../Dave/Generated/UART/uart.c ****  * @brief Common function to abort ongoing transmission.
 241:../Dave/Generated/UART/uart.c ****  *
 242:../Dave/Generated/UART/uart.c ****  * @param[in]  handle UART APP handle pointer of type UART_t*
 243:../Dave/Generated/UART/uart.c ****  *
 244:../Dave/Generated/UART/uart.c ****  * @return  UART_STATUS_t
 245:../Dave/Generated/UART/uart.c ****  *          UART_SUCCESS: If the transmission is aborted.<BR>
 246:../Dave/Generated/UART/uart.c ****  *          UART_STATUS_FAILURE: If the channel is not transmitting.<BR>
 247:../Dave/Generated/UART/uart.c ****  *          UART_STATUS_MODE_MISMATCH: If the configured mode is Direct.<BR>
 248:../Dave/Generated/UART/uart.c ****  *
 249:../Dave/Generated/UART/uart.c ****  */
 250:../Dave/Generated/UART/uart.c **** UART_STATUS_t UART_AbortTransmit(const UART_t *const handle)
 251:../Dave/Generated/UART/uart.c **** {
 252:../Dave/Generated/UART/uart.c ****   UART_STATUS_t ret_stat = UART_STATUS_SUCCESS;
 253:../Dave/Generated/UART/uart.c **** #ifdef UART_TX_DMA_USED
 254:../Dave/Generated/UART/uart.c ****   const UART_DMA_CONFIG_t * ptr_dma_config = handle->config->transmit_dma_config;
 255:../Dave/Generated/UART/uart.c ****   XMC_DMA_t * ptr_gpdma = handle->config->global_dma->dma;
 256:../Dave/Generated/UART/uart.c **** #endif
 257:../Dave/Generated/UART/uart.c **** 
 258:../Dave/Generated/UART/uart.c ****   XMC_ASSERT("UART_AbortTransmit: UART APP handle invalid", ((handle != NULL)&&
 259:../Dave/Generated/UART/uart.c ****             (handle->runtime != NULL)))
 260:../Dave/Generated/UART/uart.c **** 
 261:../Dave/Generated/UART/uart.c ****   /*Reset the user buffer pointer to null*/
 262:../Dave/Generated/UART/uart.c ****   handle->runtime->tx_busy = false;
 263:../Dave/Generated/UART/uart.c ****   handle->runtime->tx_data = NULL;
 264:../Dave/Generated/UART/uart.c **** 
 265:../Dave/Generated/UART/uart.c ****   switch(handle->config->transmit_mode)
 266:../Dave/Generated/UART/uart.c ****   {
 267:../Dave/Generated/UART/uart.c **** #ifdef UART_TX_INTERRUPT_USED
 268:../Dave/Generated/UART/uart.c ****   case UART_TRANSFER_MODE_INTERRUPT:
 269:../Dave/Generated/UART/uart.c ****     /*Disable the transmit interrupts*/
 270:../Dave/Generated/UART/uart.c ****     if (handle->config->tx_fifo_size != XMC_USIC_CH_FIFO_DISABLED)
 271:../Dave/Generated/UART/uart.c ****     {
 272:../Dave/Generated/UART/uart.c ****       /*Disable the transmit FIFO event*/
 273:../Dave/Generated/UART/uart.c ****       XMC_USIC_CH_TXFIFO_DisableEvent(handle->channel,(uint32_t)XMC_USIC_CH_TXFIFO_EVENT_CONF_STAND
 274:../Dave/Generated/UART/uart.c ****       XMC_USIC_CH_TXFIFO_Flush(handle->channel);
 275:../Dave/Generated/UART/uart.c ****     }
 276:../Dave/Generated/UART/uart.c ****     else
 277:../Dave/Generated/UART/uart.c ****     {
 278:../Dave/Generated/UART/uart.c ****       /*Disable the standard transmit event*/
 279:../Dave/Generated/UART/uart.c ****       XMC_USIC_CH_DisableEvent(handle->channel, (uint32_t)XMC_USIC_CH_EVENT_TRANSMIT_BUFFER);
 280:../Dave/Generated/UART/uart.c ****     }
 281:../Dave/Generated/UART/uart.c ****     XMC_USIC_CH_SetTransmitBufferStatus(handle->channel, XMC_USIC_CH_TBUF_STATUS_SET_IDLE);
 282:../Dave/Generated/UART/uart.c ****     break;
 283:../Dave/Generated/UART/uart.c **** #endif
 284:../Dave/Generated/UART/uart.c **** #ifdef UART_TX_DMA_USED
 285:../Dave/Generated/UART/uart.c ****   case UART_TRANSFER_MODE_DMA:
 286:../Dave/Generated/UART/uart.c ****     /*Disable the standard transmit event*/
 287:../Dave/Generated/UART/uart.c ****     if (XMC_DMA_CH_IsEnabled(ptr_gpdma, ptr_dma_config->dma_channel))
 288:../Dave/Generated/UART/uart.c ****     {
 289:../Dave/Generated/UART/uart.c ****       XMC_DMA_CH_Disable(ptr_gpdma, ptr_dma_config->dma_channel);
 290:../Dave/Generated/UART/uart.c ****       while(XMC_DMA_CH_IsEnabled(ptr_gpdma, ptr_dma_config->dma_channel)==true)
 291:../Dave/Generated/UART/uart.c ****       {
 292:../Dave/Generated/UART/uart.c ****       }
 293:../Dave/Generated/UART/uart.c ****       XMC_USIC_CH_DisableEvent(handle->channel, (uint32_t)XMC_USIC_CH_EVENT_TRANSMIT_BUFFER);
 294:../Dave/Generated/UART/uart.c ****     }
 295:../Dave/Generated/UART/uart.c ****     XMC_USIC_CH_SetTransmitBufferStatus(handle->channel, XMC_USIC_CH_TBUF_STATUS_SET_IDLE);
 296:../Dave/Generated/UART/uart.c ****     break;
 297:../Dave/Generated/UART/uart.c **** #endif
 298:../Dave/Generated/UART/uart.c ****   default:
 299:../Dave/Generated/UART/uart.c ****     ret_stat = UART_STATUS_MODE_MISMATCH;
 300:../Dave/Generated/UART/uart.c ****     break;
 301:../Dave/Generated/UART/uart.c ****   }
 302:../Dave/Generated/UART/uart.c ****   return ret_stat;
 303:../Dave/Generated/UART/uart.c **** }
 304:../Dave/Generated/UART/uart.c **** #endif
 305:../Dave/Generated/UART/uart.c **** 
 306:../Dave/Generated/UART/uart.c **** #if (defined UART_RX_INTERRUPT_USED || defined UART_RX_DMA_USED)
 307:../Dave/Generated/UART/uart.c **** /*
 308:../Dave/Generated/UART/uart.c ****  * @brief Common function to abort ongoing reception.
 309:../Dave/Generated/UART/uart.c ****  *
 310:../Dave/Generated/UART/uart.c ****  * @param[in]  handle UART APP handle pointer of type UART_t*
 311:../Dave/Generated/UART/uart.c ****  *
 312:../Dave/Generated/UART/uart.c ****  * @return  UART_STATUS_t
 313:../Dave/Generated/UART/uart.c ****  *          UART_SUCCESS: If the reception is aborted.<BR>
 314:../Dave/Generated/UART/uart.c ****  *          UART_STATUS_FAILURE  : If the channel is not busy.<BR>
 315:../Dave/Generated/UART/uart.c ****  *          UART_STATUS_MODE_MISMATCH: If the configured mode is Direct.<BR>
 316:../Dave/Generated/UART/uart.c ****  *
 317:../Dave/Generated/UART/uart.c ****  */
 318:../Dave/Generated/UART/uart.c **** UART_STATUS_t UART_AbortReceive(const UART_t *const handle)
 319:../Dave/Generated/UART/uart.c **** {
 320:../Dave/Generated/UART/uart.c ****   UART_STATUS_t ret_stat = UART_STATUS_SUCCESS;
 321:../Dave/Generated/UART/uart.c **** #ifdef UART_RX_DMA_USED
 322:../Dave/Generated/UART/uart.c ****   const UART_DMA_CONFIG_t * ptr_dma_config = handle->config->receive_dma_config;
 323:../Dave/Generated/UART/uart.c ****   XMC_DMA_t * ptr_gpdma = handle->config->global_dma->dma;
 324:../Dave/Generated/UART/uart.c **** #endif
 325:../Dave/Generated/UART/uart.c ****   XMC_ASSERT("UART_AbortReceive: UART APP handle invalid", ((handle != NULL)&&
 326:../Dave/Generated/UART/uart.c ****             (handle->runtime != NULL)))
 327:../Dave/Generated/UART/uart.c **** 
 328:../Dave/Generated/UART/uart.c ****   /*Reset the user buffer pointer to null*/
 329:../Dave/Generated/UART/uart.c ****   handle->runtime->rx_busy = false;
 330:../Dave/Generated/UART/uart.c ****   handle->runtime->rx_data = NULL;
 331:../Dave/Generated/UART/uart.c ****   switch(handle->config->receive_mode)
 332:../Dave/Generated/UART/uart.c ****   {
 333:../Dave/Generated/UART/uart.c **** #ifdef UART_RX_INTERRUPT_USED
 334:../Dave/Generated/UART/uart.c ****   case UART_TRANSFER_MODE_INTERRUPT:
 335:../Dave/Generated/UART/uart.c ****     /*Disable the receive interrupts*/
 336:../Dave/Generated/UART/uart.c ****     if (handle->config->rx_fifo_size != XMC_USIC_CH_FIFO_DISABLED)
 337:../Dave/Generated/UART/uart.c ****     {
 338:../Dave/Generated/UART/uart.c ****       XMC_USIC_CH_RXFIFO_DisableEvent(handle->channel,
 339:../Dave/Generated/UART/uart.c ****             ((uint32_t)XMC_USIC_CH_RXFIFO_EVENT_CONF_STANDARD |
 340:../Dave/Generated/UART/uart.c ****             (uint32_t)XMC_USIC_CH_RXFIFO_EVENT_CONF_ALTERNATE));
 341:../Dave/Generated/UART/uart.c ****     }
 342:../Dave/Generated/UART/uart.c ****     else
 343:../Dave/Generated/UART/uart.c ****     {
 344:../Dave/Generated/UART/uart.c ****       XMC_UART_CH_DisableEvent(handle->channel,
 345:../Dave/Generated/UART/uart.c ****             ((uint32_t)XMC_USIC_CH_EVENT_STANDARD_RECEIVE |
 346:../Dave/Generated/UART/uart.c ****             (uint32_t)XMC_USIC_CH_EVENT_ALTERNATIVE_RECEIVE));
 347:../Dave/Generated/UART/uart.c ****     }
 348:../Dave/Generated/UART/uart.c ****     break;
 349:../Dave/Generated/UART/uart.c **** #endif
 350:../Dave/Generated/UART/uart.c **** #ifdef UART_RX_DMA_USED
 351:../Dave/Generated/UART/uart.c ****   case UART_TRANSFER_MODE_DMA:
 352:../Dave/Generated/UART/uart.c ****     /*Disable the receive interrupts*/
 353:../Dave/Generated/UART/uart.c ****     if (XMC_DMA_CH_IsEnabled(ptr_gpdma, ptr_dma_config->dma_channel))
 354:../Dave/Generated/UART/uart.c ****     {
 355:../Dave/Generated/UART/uart.c ****       XMC_DMA_CH_Disable(ptr_gpdma, ptr_dma_config->dma_channel);
 356:../Dave/Generated/UART/uart.c ****       while(XMC_DMA_CH_IsEnabled(ptr_gpdma, ptr_dma_config->dma_channel)==true)
 357:../Dave/Generated/UART/uart.c ****       {
 358:../Dave/Generated/UART/uart.c ****       }
 359:../Dave/Generated/UART/uart.c ****       XMC_UART_CH_DisableEvent(handle->channel,
 360:../Dave/Generated/UART/uart.c ****             ((uint32_t)XMC_USIC_CH_EVENT_STANDARD_RECEIVE |
 361:../Dave/Generated/UART/uart.c ****             (uint32_t)XMC_USIC_CH_EVENT_ALTERNATIVE_RECEIVE));
 362:../Dave/Generated/UART/uart.c ****     }
 363:../Dave/Generated/UART/uart.c ****     break;
 364:../Dave/Generated/UART/uart.c **** #endif
 365:../Dave/Generated/UART/uart.c ****   default:
 366:../Dave/Generated/UART/uart.c ****     ret_stat = UART_STATUS_MODE_MISMATCH;
 367:../Dave/Generated/UART/uart.c ****     break;
 368:../Dave/Generated/UART/uart.c ****   }
 369:../Dave/Generated/UART/uart.c ****   return ret_stat;
 370:../Dave/Generated/UART/uart.c **** }
 371:../Dave/Generated/UART/uart.c **** #endif
 372:../Dave/Generated/UART/uart.c **** 
 373:../Dave/Generated/UART/uart.c **** /*
 374:../Dave/Generated/UART/uart.c ****  * @brief Changes the baudrate of UART channel.
 375:../Dave/Generated/UART/uart.c ****  *
 376:../Dave/Generated/UART/uart.c ****  * @param UART_t * Pointer to the UART APP handle.
 377:../Dave/Generated/UART/uart.c ****  * @param baud Value of new baudrate.
 378:../Dave/Generated/UART/uart.c ****  * @param oversampling Number of samples to be considered for each symbol. 16 is the standard value
 379:../Dave/Generated/UART/uart.c ****  *
 380:../Dave/Generated/UART/uart.c ****  * @return UART_STATUS_t UART_STATUS_SUCCESS if baudrate changed successfully.
 381:../Dave/Generated/UART/uart.c ****  *                       UART_STATUS_BUSY if the UART channel is busy.
 382:../Dave/Generated/UART/uart.c ****  *
 383:../Dave/Generated/UART/uart.c ****  * \par<b>Description:</b><br>
 384:../Dave/Generated/UART/uart.c ****  * The function stops the channel, calculates the clock divider values to achieve the desired baudr
 385:../Dave/Generated/UART/uart.c ****  * Sets the divider values and reconfigures the channel as per the configuration in the UI. The cha
 386:../Dave/Generated/UART/uart.c ****  * enabled at the end of configuration.
 387:../Dave/Generated/UART/uart.c ****  */
 388:../Dave/Generated/UART/uart.c **** UART_STATUS_t UART_SetBaudrate(const UART_t * handle, uint32_t baud, uint32_t oversampling)
 389:../Dave/Generated/UART/uart.c **** {
 390:../Dave/Generated/UART/uart.c ****   UART_STATUS_t ret_stat = UART_STATUS_BUSY;
 391:../Dave/Generated/UART/uart.c ****   const UART_TX_CONFIG_t * ptr_tx_conf = handle->config->tx_pin_config;
 392:../Dave/Generated/UART/uart.c **** 
 393:../Dave/Generated/UART/uart.c ****   XMC_ASSERT("UART_SetBaudrate: UART APP handle invalid", ((handle != NULL)&&
 394:../Dave/Generated/UART/uart.c ****             ((handle->config != NULL) && (handle->runtime != NULL))))
 395:../Dave/Generated/UART/uart.c **** 
 396:../Dave/Generated/UART/uart.c ****   if ((handle->runtime->tx_busy == false) && (handle->runtime->rx_busy == false))
 397:../Dave/Generated/UART/uart.c ****   {
 398:../Dave/Generated/UART/uart.c ****     /* Set UART TX pin as input pin to avoid spikes on the pin.*/
 399:../Dave/Generated/UART/uart.c ****     if (handle->config->mode != UART_MODE_LOOPBACK)
 400:../Dave/Generated/UART/uart.c ****     {
 401:../Dave/Generated/UART/uart.c ****       XMC_GPIO_SetMode(ptr_tx_conf->port, ptr_tx_conf->pin, XMC_GPIO_MODE_INPUT_TRISTATE);
 402:../Dave/Generated/UART/uart.c ****     }
 403:../Dave/Generated/UART/uart.c ****     /* Stop the UART channel before changing the baudrate.*/
 404:../Dave/Generated/UART/uart.c ****     if (XMC_UART_CH_Stop(handle->channel) == XMC_UART_CH_STATUS_OK)
 405:../Dave/Generated/UART/uart.c ****     {
 406:../Dave/Generated/UART/uart.c ****       /*Change the baudrate*/
 407:../Dave/Generated/UART/uart.c ****       ret_stat = (UART_STATUS_t)XMC_UART_CH_SetBaudrate(handle->channel, baud, oversampling);
 408:../Dave/Generated/UART/uart.c ****       /*Set the sample point if the baudrate is modified*/
 409:../Dave/Generated/UART/uart.c ****       if (ret_stat == UART_STATUS_SUCCESS)
 410:../Dave/Generated/UART/uart.c ****       {
 411:../Dave/Generated/UART/uart.c ****         XMC_UART_CH_SetSamplePoint(handle->channel, (uint32_t)(oversampling >> 1U)+1U);
 412:../Dave/Generated/UART/uart.c ****       }
 413:../Dave/Generated/UART/uart.c ****       /*Enable UART*/
 414:../Dave/Generated/UART/uart.c ****       XMC_UART_CH_Start(handle->channel);
 415:../Dave/Generated/UART/uart.c ****       /* Initialize UART TX pin */
 416:../Dave/Generated/UART/uart.c ****       if (handle->config->mode != UART_MODE_LOOPBACK)
 417:../Dave/Generated/UART/uart.c ****       {
 418:../Dave/Generated/UART/uart.c ****         XMC_GPIO_Init(ptr_tx_conf->port, ptr_tx_conf->pin, ptr_tx_conf->config);
 419:../Dave/Generated/UART/uart.c ****       }
 420:../Dave/Generated/UART/uart.c ****     }
 421:../Dave/Generated/UART/uart.c ****     else
 422:../Dave/Generated/UART/uart.c ****     {
 423:../Dave/Generated/UART/uart.c ****       ret_stat = UART_STATUS_BUSY;
 424:../Dave/Generated/UART/uart.c ****     }
 425:../Dave/Generated/UART/uart.c ****   }
 426:../Dave/Generated/UART/uart.c ****   return ret_stat;
 427:../Dave/Generated/UART/uart.c **** }
 428:../Dave/Generated/UART/uart.c **** 
 429:../Dave/Generated/UART/uart.c **** #ifdef UART_TX_INTERRUPT_USED
 430:../Dave/Generated/UART/uart.c **** /*
 431:../Dave/Generated/UART/uart.c ****  * @brief Registers a request for transmitting data over UART channel.
 432:../Dave/Generated/UART/uart.c ****  *
 433:../Dave/Generated/UART/uart.c ****  * @param[in]  UART_t*  UART APP handle pointer of type UART_t
 434:../Dave/Generated/UART/uart.c ****  * @param[in]  uint8_t* Pointer to data
 435:../Dave/Generated/UART/uart.c ****  * @param[in]  uint32_t Total no of words to be transmitted.
 436:../Dave/Generated/UART/uart.c ****  *
 437:../Dave/Generated/UART/uart.c ****  * @return  UART_STATUS_t UART_STATUS_SUCCESS if the request is accepted.
 438:../Dave/Generated/UART/uart.c ****  *                        UART_STATUS_BUSY if a transmission is in progress.
 439:../Dave/Generated/UART/uart.c ****  * Details of function:
 440:../Dave/Generated/UART/uart.c ****  * The data transmission is accomplished using transmit interrupt. User can configure
 441:../Dave/Generated/UART/uart.c ****  * a callback function in the APP UI. When the data is fully transmitted, the callback
 442:../Dave/Generated/UART/uart.c ****  * function will be executed. If transmit FIFO is enabled, the trigger limit is set to 0.
 443:../Dave/Generated/UART/uart.c ****  * So the transmit interrupt will be generated when all the data in FIFO is moved from FIFO.
 444:../Dave/Generated/UART/uart.c ****  *
 445:../Dave/Generated/UART/uart.c ****  * <i>Imp Note:</i> Return value should be validated by user to ensure that the
 446:../Dave/Generated/UART/uart.c ****  * request is registered.
 447:../Dave/Generated/UART/uart.c ****  *
 448:../Dave/Generated/UART/uart.c ****  *
 449:../Dave/Generated/UART/uart.c ****  */
 450:../Dave/Generated/UART/uart.c **** UART_STATUS_t UART_StartTransmitIRQ(const UART_t *const handle, uint8_t* data_ptr, uint32_t count)
 451:../Dave/Generated/UART/uart.c **** {
 452:../Dave/Generated/UART/uart.c ****   UART_STATUS_t ret_stat = UART_STATUS_MODE_MISMATCH;
 453:../Dave/Generated/UART/uart.c ****   UART_RUNTIME_t * ptr_runtime = handle->runtime;
 454:../Dave/Generated/UART/uart.c **** 
 455:../Dave/Generated/UART/uart.c ****   XMC_ASSERT("UART_StartTransmitIRQ: UART APP handle invalid", ((handle != NULL)&&
 456:../Dave/Generated/UART/uart.c ****             (handle->runtime != NULL)))
 457:../Dave/Generated/UART/uart.c **** 
 458:../Dave/Generated/UART/uart.c ****   if (handle->config->transmit_mode == UART_TRANSFER_MODE_INTERRUPT)
 459:../Dave/Generated/UART/uart.c ****   {
 460:../Dave/Generated/UART/uart.c ****     ret_stat = UART_STATUS_BUSY;
 461:../Dave/Generated/UART/uart.c ****     if (ptr_runtime->tx_busy == false)
 462:../Dave/Generated/UART/uart.c ****     {
 463:../Dave/Generated/UART/uart.c ****       /*If there is no transmission in progress*/
 464:../Dave/Generated/UART/uart.c ****       if ((data_ptr != NULL) && (count > 0U))
 465:../Dave/Generated/UART/uart.c ****       {
 466:../Dave/Generated/UART/uart.c ****         /*Obtain the address of data, size of data*/
 467:../Dave/Generated/UART/uart.c ****         ptr_runtime->tx_data = data_ptr;
 468:../Dave/Generated/UART/uart.c ****         ptr_runtime->tx_data_count = count;
 469:../Dave/Generated/UART/uart.c ****         /*Initialize to first index and set the busy flag*/
 470:../Dave/Generated/UART/uart.c ****         ptr_runtime->tx_data_index = 0U;
 471:../Dave/Generated/UART/uart.c ****         ptr_runtime->tx_busy = true;
 472:../Dave/Generated/UART/uart.c **** 
 473:../Dave/Generated/UART/uart.c ****         /*Enable the transmit buffer event*/
 474:../Dave/Generated/UART/uart.c ****         if (handle->config->tx_fifo_size != XMC_USIC_CH_FIFO_DISABLED)
 475:../Dave/Generated/UART/uart.c ****         {
 476:../Dave/Generated/UART/uart.c ****           /*Clear the transmit FIFO*/
 477:../Dave/Generated/UART/uart.c ****           XMC_USIC_CH_TXFIFO_Flush(handle->channel);
 478:../Dave/Generated/UART/uart.c ****           /*Enable transmit buffer interrupt*/
 479:../Dave/Generated/UART/uart.c ****           XMC_USIC_CH_TXFIFO_EnableEvent(handle->channel,(uint32_t)XMC_USIC_CH_TXFIFO_EVENT_CONF_ST
 480:../Dave/Generated/UART/uart.c ****         }
 481:../Dave/Generated/UART/uart.c ****         else
 482:../Dave/Generated/UART/uart.c ****         {
 483:../Dave/Generated/UART/uart.c ****           XMC_USIC_CH_EnableEvent(handle->channel, (uint32_t)XMC_USIC_CH_EVENT_TRANSMIT_BUFFER);
 484:../Dave/Generated/UART/uart.c ****         }
 485:../Dave/Generated/UART/uart.c ****         ret_stat = UART_STATUS_SUCCESS;
 486:../Dave/Generated/UART/uart.c ****         /*Trigger the transmit buffer interrupt*/
 487:../Dave/Generated/UART/uart.c ****         XMC_USIC_CH_TriggerServiceRequest(handle->channel, (uint32_t)handle->config->tx_sr);
 488:../Dave/Generated/UART/uart.c ****       }
 489:../Dave/Generated/UART/uart.c ****       else
 490:../Dave/Generated/UART/uart.c ****       {
 491:../Dave/Generated/UART/uart.c ****         ret_stat = UART_STATUS_BUFFER_INVALID;
 492:../Dave/Generated/UART/uart.c ****       }
 493:../Dave/Generated/UART/uart.c ****     }
 494:../Dave/Generated/UART/uart.c ****   }
 495:../Dave/Generated/UART/uart.c ****   return ret_stat;
 496:../Dave/Generated/UART/uart.c **** }
 497:../Dave/Generated/UART/uart.c **** #endif
 498:../Dave/Generated/UART/uart.c **** 
 499:../Dave/Generated/UART/uart.c **** #ifdef UART_RX_INTERRUPT_USED
 500:../Dave/Generated/UART/uart.c **** /*
 501:../Dave/Generated/UART/uart.c ****  * @brief Registers a request to receive data over UART channel.
 502:../Dave/Generated/UART/uart.c ****  *
 503:../Dave/Generated/UART/uart.c ****  * @param[in]  UART_t* UART APP handle pointer of type UART_t
 504:../Dave/Generated/UART/uart.c ****  * @param[in]  uint8_t*  Pointer to data array
 505:../Dave/Generated/UART/uart.c ****  * @param[in]  uint32_t  Total no of bytes to be read.
 506:../Dave/Generated/UART/uart.c ****  *
 507:../Dave/Generated/UART/uart.c ****  * @return  UART_STATUS_t UART_STATUS_SUCCESS if the request is accepted.
 508:../Dave/Generated/UART/uart.c ****  *                        UART_STATUS_BUSY if a reception is in progress.
 509:../Dave/Generated/UART/uart.c ****  * Details of function:
 510:../Dave/Generated/UART/uart.c ****  * This function registers the receive request by configuring the UART
 511:../Dave/Generated/UART/uart.c ****  * receive FIFO/Standard buffer (depending on the user configuration). The data
 512:../Dave/Generated/UART/uart.c ****  * is received asynchronously. When the requested number of data bytes are received,
 513:../Dave/Generated/UART/uart.c ****  * optionally, the user configured callback function will be executed. If a callback
 514:../Dave/Generated/UART/uart.c ****  * function is not configured on the APP UI, the user has to poll for the status of
 515:../Dave/Generated/UART/uart.c ****  * rx_busy variable of the APP handle structure.
 516:../Dave/Generated/UART/uart.c ****  *
 517:../Dave/Generated/UART/uart.c ****  * <i>Imp Note:</i> Return value should be validated by user to ensure that the
 518:../Dave/Generated/UART/uart.c ****  * request is registered.
 519:../Dave/Generated/UART/uart.c ****  *
 520:../Dave/Generated/UART/uart.c ****  *
 521:../Dave/Generated/UART/uart.c ****  */
 522:../Dave/Generated/UART/uart.c **** UART_STATUS_t UART_StartReceiveIRQ(const UART_t *const handle, uint8_t* data_ptr, uint32_t count)
 523:../Dave/Generated/UART/uart.c **** {
 524:../Dave/Generated/UART/uart.c ****   UART_STATUS_t ret_stat = UART_STATUS_MODE_MISMATCH;
 525:../Dave/Generated/UART/uart.c ****   UART_RUNTIME_t * ptr_runtime = handle->runtime;
 526:../Dave/Generated/UART/uart.c **** 
 527:../Dave/Generated/UART/uart.c ****   XMC_ASSERT("UART_StartReceiveIRQ: UART APP handle invalid", ((handle != NULL)&&
 528:../Dave/Generated/UART/uart.c ****             (handle->runtime != NULL)))
 529:../Dave/Generated/UART/uart.c **** 
 530:../Dave/Generated/UART/uart.c ****   if (handle->config->receive_mode == UART_TRANSFER_MODE_INTERRUPT)
 531:../Dave/Generated/UART/uart.c ****   {
 532:../Dave/Generated/UART/uart.c ****     ret_stat = UART_STATUS_BUSY;
 533:../Dave/Generated/UART/uart.c ****     if (ptr_runtime->rx_busy == false)
 534:../Dave/Generated/UART/uart.c ****     {
 535:../Dave/Generated/UART/uart.c ****       /*If no active reception in progress*/
 536:../Dave/Generated/UART/uart.c ****       if ((data_ptr != NULL) && (count > 0U))
 537:../Dave/Generated/UART/uart.c ****       {
 538:../Dave/Generated/UART/uart.c ****         /*Obtain the address of data buffer and
 539:../Dave/Generated/UART/uart.c ****          * number of data bytes to be received*/
 540:../Dave/Generated/UART/uart.c ****         ptr_runtime->rx_data = data_ptr;
 541:../Dave/Generated/UART/uart.c ****         ptr_runtime->rx_data_count = count;
 542:../Dave/Generated/UART/uart.c ****         ptr_runtime->rx_busy = true;
 543:../Dave/Generated/UART/uart.c ****         ptr_runtime->rx_data_index = 0U;
 544:../Dave/Generated/UART/uart.c **** 
 545:../Dave/Generated/UART/uart.c ****         if (handle->config->rx_fifo_size != XMC_USIC_CH_FIFO_DISABLED)
 546:../Dave/Generated/UART/uart.c ****         {
 547:../Dave/Generated/UART/uart.c ****           /*Clear the receive FIFO, configure the trigger lime
 548:../Dave/Generated/UART/uart.c ****            * and enable the receive events*/
 549:../Dave/Generated/UART/uart.c ****           XMC_USIC_CH_RXFIFO_Flush(handle->channel);
 550:../Dave/Generated/UART/uart.c **** 
 551:../Dave/Generated/UART/uart.c ****           /*Configure the FIFO trigger limit based on the required data size*/
 552:../Dave/Generated/UART/uart.c ****           UART_lReconfigureRxFIFO(handle, count);
 553:../Dave/Generated/UART/uart.c **** 
 554:../Dave/Generated/UART/uart.c ****           XMC_USIC_CH_RXFIFO_EnableEvent(handle->channel,
 555:../Dave/Generated/UART/uart.c ****             (uint32_t)((uint32_t)XMC_USIC_CH_RXFIFO_EVENT_CONF_STANDARD |
 556:../Dave/Generated/UART/uart.c ****             (uint32_t)XMC_USIC_CH_RXFIFO_EVENT_CONF_ALTERNATE));
 557:../Dave/Generated/UART/uart.c ****         }
 558:../Dave/Generated/UART/uart.c ****         else
 559:../Dave/Generated/UART/uart.c ****         {
 560:../Dave/Generated/UART/uart.c ****           XMC_USIC_CH_EnableEvent(handle->channel,
 561:../Dave/Generated/UART/uart.c ****           (uint32_t)((uint32_t)XMC_USIC_CH_EVENT_STANDARD_RECEIVE | (uint32_t)XMC_USIC_CH_EVENT_ALT
 562:../Dave/Generated/UART/uart.c ****         }
 563:../Dave/Generated/UART/uart.c ****         ret_stat = UART_STATUS_SUCCESS;
 564:../Dave/Generated/UART/uart.c ****       }
 565:../Dave/Generated/UART/uart.c ****       else
 566:../Dave/Generated/UART/uart.c ****       {
 567:../Dave/Generated/UART/uart.c ****         ret_stat = UART_STATUS_BUFFER_INVALID;
 568:../Dave/Generated/UART/uart.c ****       }
 569:../Dave/Generated/UART/uart.c ****     }
 570:../Dave/Generated/UART/uart.c ****   }
 571:../Dave/Generated/UART/uart.c ****   return ret_stat;
 572:../Dave/Generated/UART/uart.c **** }
 573:../Dave/Generated/UART/uart.c **** #endif
 574:../Dave/Generated/UART/uart.c **** 
 575:../Dave/Generated/UART/uart.c **** #ifdef UART_TX_DMA_USED
 576:../Dave/Generated/UART/uart.c **** /*
 577:../Dave/Generated/UART/uart.c ****  * @brief Registers a request for transmitting data over UART channel using DMA.
 578:../Dave/Generated/UART/uart.c ****  *
 579:../Dave/Generated/UART/uart.c ****  * @param[in]  UART_t*  UART APP handle pointer of type UART_t
 580:../Dave/Generated/UART/uart.c ****  * @param[in]  uint8_t* Pointer to data
 581:../Dave/Generated/UART/uart.c ****  * @param[in]  uint32_t Total no of words to be transmitted.
 582:../Dave/Generated/UART/uart.c ****  *
 583:../Dave/Generated/UART/uart.c ****  * @return  UART_STATUS_t UART_STATUS_SUCCESS if the request is accepted.
 584:../Dave/Generated/UART/uart.c ****  *                        UART_STATUS_BUSY if a transmission is in progress.
 585:../Dave/Generated/UART/uart.c ****  * Details of function:
 586:../Dave/Generated/UART/uart.c ****  * The data transmission is accomplished using a DMA channel. User can configure
 587:../Dave/Generated/UART/uart.c ****  * a callback function in the APP UI. When the data is fully transmitted, the callback
 588:../Dave/Generated/UART/uart.c ****  * function will be executed.
 589:../Dave/Generated/UART/uart.c ****  * <i>Imp Note:</i> Return value should be validated by user to ensure that the
 590:../Dave/Generated/UART/uart.c ****  * request is registered.
 591:../Dave/Generated/UART/uart.c ****  *
 592:../Dave/Generated/UART/uart.c ****  *
 593:../Dave/Generated/UART/uart.c ****  */
 594:../Dave/Generated/UART/uart.c **** UART_STATUS_t UART_StartTransmitDMA(const UART_t *const handle, uint8_t* data_ptr, uint32_t count)
 595:../Dave/Generated/UART/uart.c **** {
 596:../Dave/Generated/UART/uart.c ****   UART_STATUS_t ret_stat = UART_STATUS_MODE_MISMATCH;
 597:../Dave/Generated/UART/uart.c ****   UART_RUNTIME_t * ptr_runtime = handle->runtime;
 598:../Dave/Generated/UART/uart.c ****   const UART_DMA_CONFIG_t * ptr_dma_config = handle->config->transmit_dma_config;
 599:../Dave/Generated/UART/uart.c ****   XMC_DMA_t * ptr_gpdma = handle->config->global_dma->dma;
 600:../Dave/Generated/UART/uart.c **** 
 601:../Dave/Generated/UART/uart.c ****   XMC_ASSERT("UART_StartTransmitDMA: UART APP handle invalid", (((handle != NULL)&&
 602:../Dave/Generated/UART/uart.c ****             (handle->runtime != NULL))&&(handle->config != NULL)))
 603:../Dave/Generated/UART/uart.c **** 
 604:../Dave/Generated/UART/uart.c ****   if (handle->config->transmit_mode == UART_TRANSFER_MODE_DMA)
 605:../Dave/Generated/UART/uart.c ****   {
 606:../Dave/Generated/UART/uart.c ****     ret_stat = UART_STATUS_BUSY;
 607:../Dave/Generated/UART/uart.c ****     if (ptr_runtime->tx_busy == false)
 608:../Dave/Generated/UART/uart.c ****     {
 609:../Dave/Generated/UART/uart.c ****       /*If there is no transmission in progress*/
 610:../Dave/Generated/UART/uart.c ****       if ((data_ptr != NULL) && ((count > 0U) &&(count <= UART_DMA_MAXCOUNT)))
 611:../Dave/Generated/UART/uart.c ****       {
 612:../Dave/Generated/UART/uart.c ****         /*Obtain the address of data, size of data*/
 613:../Dave/Generated/UART/uart.c ****         ptr_runtime->tx_data = data_ptr;
 614:../Dave/Generated/UART/uart.c ****         ptr_runtime->tx_data_count = count;
 615:../Dave/Generated/UART/uart.c ****         /*Initialize to first index and set the busy flag*/
 616:../Dave/Generated/UART/uart.c ****         ptr_runtime->tx_data_index = 0U;
 617:../Dave/Generated/UART/uart.c ****         ptr_runtime->tx_busy = true;
 618:../Dave/Generated/UART/uart.c **** 
 619:../Dave/Generated/UART/uart.c ****         /*Enable transmit event generation*/
 620:../Dave/Generated/UART/uart.c ****         XMC_UART_CH_EnableEvent(handle->channel, (uint32_t)XMC_UART_CH_EVENT_TRANSMIT_BUFFER);
 621:../Dave/Generated/UART/uart.c ****         ret_stat = UART_STATUS_SUCCESS;
 622:../Dave/Generated/UART/uart.c **** 
 623:../Dave/Generated/UART/uart.c ****         /*Enable DMA channel*/
 624:../Dave/Generated/UART/uart.c ****         XMC_DMA_CH_SetBlockSize(ptr_gpdma, ptr_dma_config->dma_channel, count);
 625:../Dave/Generated/UART/uart.c ****         XMC_DMA_CH_SetSourceAddress(ptr_gpdma, ptr_dma_config->dma_channel, (uint32_t)data_ptr);
 626:../Dave/Generated/UART/uart.c ****         XMC_DMA_CH_SetDestinationAddress(ptr_gpdma, ptr_dma_config->dma_channel,
 627:../Dave/Generated/UART/uart.c ****                                          (uint32_t)&(handle->channel->TBUF[0]));
 628:../Dave/Generated/UART/uart.c ****         XMC_DMA_CH_Enable(ptr_gpdma, ptr_dma_config->dma_channel);
 629:../Dave/Generated/UART/uart.c ****       }
 630:../Dave/Generated/UART/uart.c ****       else
 631:../Dave/Generated/UART/uart.c ****       {
 632:../Dave/Generated/UART/uart.c ****         ret_stat = UART_STATUS_BUFFER_INVALID;
 633:../Dave/Generated/UART/uart.c ****       }
 634:../Dave/Generated/UART/uart.c ****     }
 635:../Dave/Generated/UART/uart.c ****   }
 636:../Dave/Generated/UART/uart.c ****   return ret_stat;
 637:../Dave/Generated/UART/uart.c **** }
 638:../Dave/Generated/UART/uart.c **** #endif
 639:../Dave/Generated/UART/uart.c **** 
 640:../Dave/Generated/UART/uart.c **** #ifdef UART_RX_DMA_USED
 641:../Dave/Generated/UART/uart.c **** /*
 642:../Dave/Generated/UART/uart.c ****  * @brief Registers a request to receive data over UART channel using DMA.
 643:../Dave/Generated/UART/uart.c ****  *
 644:../Dave/Generated/UART/uart.c ****  * @param[in]  UART_t* UART APP handle pointer of type UART_t
 645:../Dave/Generated/UART/uart.c ****  * @param[in]  uint8_t*  Pointer to data array
 646:../Dave/Generated/UART/uart.c ****  * @param[in]  uint32_t  Total no of bytes to be read.
 647:../Dave/Generated/UART/uart.c ****  *
 648:../Dave/Generated/UART/uart.c ****  * @return  UART_STATUS_t UART_STATUS_SUCCESS if the request is accepted.
 649:../Dave/Generated/UART/uart.c ****  *                        UART_STATUS_BUSY if a reception is in progress.
 650:../Dave/Generated/UART/uart.c ****  * Details of function:
 651:../Dave/Generated/UART/uart.c ****  * This function registers the receive request by configuring the UART
 652:../Dave/Generated/UART/uart.c ****  * receive Standard buffer and the DMA channel. The data
 653:../Dave/Generated/UART/uart.c ****  * is received asynchronously. When the requested number of data bytes are received,
 654:../Dave/Generated/UART/uart.c ****  * optionally, the user configured callback function will be executed.
 655:../Dave/Generated/UART/uart.c ****  *
 656:../Dave/Generated/UART/uart.c ****  * <i>Imp Note:</i> Return value should be validated by user to ensure that the
 657:../Dave/Generated/UART/uart.c ****  * request is registered.
 658:../Dave/Generated/UART/uart.c ****  *
 659:../Dave/Generated/UART/uart.c ****  *
 660:../Dave/Generated/UART/uart.c ****  */
 661:../Dave/Generated/UART/uart.c **** UART_STATUS_t UART_StartReceiveDMA(const UART_t *const handle, uint8_t* data_ptr, uint32_t count)
 662:../Dave/Generated/UART/uart.c **** {
 663:../Dave/Generated/UART/uart.c ****   UART_STATUS_t ret_stat = UART_STATUS_MODE_MISMATCH;
 664:../Dave/Generated/UART/uart.c ****   UART_RUNTIME_t * ptr_runtime = handle->runtime;
 665:../Dave/Generated/UART/uart.c ****   const UART_DMA_CONFIG_t * ptr_dma_config = handle->config->receive_dma_config;
 666:../Dave/Generated/UART/uart.c ****   XMC_DMA_t * ptr_gpdma = handle->config->global_dma->dma;
 667:../Dave/Generated/UART/uart.c **** 
 668:../Dave/Generated/UART/uart.c ****   XMC_ASSERT("UART_StartReceiveDMA: UART APP handle invalid", (((handle != NULL)&&
 669:../Dave/Generated/UART/uart.c ****             (handle->runtime != NULL)) && (handle->config != NULL)))
 670:../Dave/Generated/UART/uart.c **** 
 671:../Dave/Generated/UART/uart.c ****   if (handle->config->receive_mode == UART_TRANSFER_MODE_DMA)
 672:../Dave/Generated/UART/uart.c ****   {
 673:../Dave/Generated/UART/uart.c ****     ret_stat = UART_STATUS_BUSY;
 674:../Dave/Generated/UART/uart.c ****     if (ptr_runtime->rx_busy == false)
 675:../Dave/Generated/UART/uart.c ****     {
 676:../Dave/Generated/UART/uart.c ****       /*If no active reception in progress*/
 677:../Dave/Generated/UART/uart.c ****       if ((data_ptr != NULL) && ((count > 0U) && (count <= UART_DMA_MAXCOUNT)))
 678:../Dave/Generated/UART/uart.c ****       {
 679:../Dave/Generated/UART/uart.c ****         /*Obtain the address of data buffer and
 680:../Dave/Generated/UART/uart.c ****          * number of data bytes to be received*/
 681:../Dave/Generated/UART/uart.c ****         ptr_runtime->rx_data = data_ptr;
 682:../Dave/Generated/UART/uart.c ****         ptr_runtime->rx_data_count = count;
 683:../Dave/Generated/UART/uart.c ****         ptr_runtime->rx_busy = true;
 684:../Dave/Generated/UART/uart.c ****         ptr_runtime->rx_data_index = 0U;
 685:../Dave/Generated/UART/uart.c **** 
 686:../Dave/Generated/UART/uart.c ****         XMC_USIC_CH_EnableEvent(handle->channel,
 687:../Dave/Generated/UART/uart.c ****           (uint32_t)((uint32_t)XMC_USIC_CH_EVENT_STANDARD_RECEIVE | (uint32_t)XMC_USIC_CH_EVENT_ALT
 688:../Dave/Generated/UART/uart.c ****         ret_stat = UART_STATUS_SUCCESS;
 689:../Dave/Generated/UART/uart.c **** 
 690:../Dave/Generated/UART/uart.c ****         /*Enable DMA channel*/
 691:../Dave/Generated/UART/uart.c ****         XMC_DMA_CH_SetBlockSize(ptr_gpdma, ptr_dma_config->dma_channel, count);
 692:../Dave/Generated/UART/uart.c ****         XMC_DMA_CH_SetSourceAddress(ptr_gpdma, ptr_dma_config->dma_channel, (uint32_t)&(handle->cha
 693:../Dave/Generated/UART/uart.c ****         XMC_DMA_CH_SetDestinationAddress(ptr_gpdma, ptr_dma_config->dma_channel, (uint32_t)data_ptr
 694:../Dave/Generated/UART/uart.c ****         XMC_DMA_CH_Enable(ptr_gpdma, ptr_dma_config->dma_channel);
 695:../Dave/Generated/UART/uart.c ****       }
 696:../Dave/Generated/UART/uart.c ****       else
 697:../Dave/Generated/UART/uart.c ****       {
 698:../Dave/Generated/UART/uart.c ****         ret_stat = UART_STATUS_BUFFER_INVALID;
 699:../Dave/Generated/UART/uart.c ****       }
 700:../Dave/Generated/UART/uart.c ****     }
 701:../Dave/Generated/UART/uart.c ****   }
 702:../Dave/Generated/UART/uart.c ****   return ret_stat;
 703:../Dave/Generated/UART/uart.c **** }
 704:../Dave/Generated/UART/uart.c **** #endif
 705:../Dave/Generated/UART/uart.c **** 
 706:../Dave/Generated/UART/uart.c **** #ifdef UART_TX_DIRECT_USED
 707:../Dave/Generated/UART/uart.c **** /*
 708:../Dave/Generated/UART/uart.c ****  * Polling method to transmit data.
 709:../Dave/Generated/UART/uart.c ****  * @param[in] UART_t* handle UART APP handle pointer
 710:../Dave/Generated/UART/uart.c ****  * @param[in] uint8_t*  Pointer to data array
 711:../Dave/Generated/UART/uart.c ****  * @param[in] uint32_t number of bytes to be transmitted.
 712:../Dave/Generated/UART/uart.c ****  *
 713:../Dave/Generated/UART/uart.c ****  * @return UART_STATUS_t Status of transmit request handling.
 714:../Dave/Generated/UART/uart.c ****  *
 715:../Dave/Generated/UART/uart.c ****  * Description:
 716:../Dave/Generated/UART/uart.c ****  * Transmits data by blocking the CPU until all data is sent. Transmission
 717:../Dave/Generated/UART/uart.c ****  * cannot be aborted since it is blocking implementation. Based on FIFO selection,
 718:../Dave/Generated/UART/uart.c ****  * either TBUF or IN register is updated with the data.
 719:../Dave/Generated/UART/uart.c ****  *
 720:../Dave/Generated/UART/uart.c ****  */
 721:../Dave/Generated/UART/uart.c **** static UART_STATUS_t UART_lStartTransmitPolling(const UART_t *const handle, uint8_t* data_ptr, uint
 722:../Dave/Generated/UART/uart.c **** {
 723:../Dave/Generated/UART/uart.c ****   UART_STATUS_t ret_stat = UART_STATUS_BUFFER_INVALID;
 724:../Dave/Generated/UART/uart.c ****   uint32_t loc_index;
 725:../Dave/Generated/UART/uart.c **** 
 726:../Dave/Generated/UART/uart.c ****   XMC_ASSERT("UART_Transmit: UART APP handle invalid", (((handle != NULL)&&
 727:../Dave/Generated/UART/uart.c ****             (handle->runtime != NULL))&&(handle->config != NULL)))
 728:../Dave/Generated/UART/uart.c **** 
 729:../Dave/Generated/UART/uart.c ****   if ((data_ptr != NULL) && (count > 0U))
 730:../Dave/Generated/UART/uart.c ****   {
 731:../Dave/Generated/UART/uart.c ****     ret_stat = UART_STATUS_BUSY;
 732:../Dave/Generated/UART/uart.c ****     if (handle->runtime->tx_busy == false)
 733:../Dave/Generated/UART/uart.c ****     {
 734:../Dave/Generated/UART/uart.c ****       handle->runtime->tx_busy = true;
 735:../Dave/Generated/UART/uart.c ****       if (handle->config->tx_fifo_size != XMC_USIC_CH_FIFO_DISABLED)
 736:../Dave/Generated/UART/uart.c ****       {
 737:../Dave/Generated/UART/uart.c ****         /*Clear the transmit FIFO*/
 738:../Dave/Generated/UART/uart.c ****         XMC_USIC_CH_TXFIFO_Flush(handle->channel);
 739:../Dave/Generated/UART/uart.c ****       }
 740:../Dave/Generated/UART/uart.c ****       /*Loop through each byte*/
 741:../Dave/Generated/UART/uart.c ****       for (loc_index = 0U; loc_index < count; loc_index++)
 742:../Dave/Generated/UART/uart.c ****       {
 743:../Dave/Generated/UART/uart.c ****         /*If FIFO is enabled, FIFO filling status should be checked
 744:../Dave/Generated/UART/uart.c ****          * to avoid overflow error*/
 745:../Dave/Generated/UART/uart.c ****         if (handle->config->tx_fifo_size != XMC_USIC_CH_FIFO_DISABLED)
 746:../Dave/Generated/UART/uart.c ****         {
 747:../Dave/Generated/UART/uart.c ****           /*Wait if transmit FIFO is full*/
 748:../Dave/Generated/UART/uart.c ****           while (XMC_USIC_CH_TXFIFO_IsFull(handle->channel) == true)
 749:../Dave/Generated/UART/uart.c ****           {
 750:../Dave/Generated/UART/uart.c ****           }
 751:../Dave/Generated/UART/uart.c ****         }
 752:../Dave/Generated/UART/uart.c ****         XMC_UART_CH_Transmit(handle->channel, (uint16_t)data_ptr[loc_index]);
 753:../Dave/Generated/UART/uart.c ****       }
 754:../Dave/Generated/UART/uart.c **** 
 755:../Dave/Generated/UART/uart.c ****       if (handle->config->tx_fifo_size != XMC_USIC_CH_FIFO_DISABLED)
 756:../Dave/Generated/UART/uart.c ****       {
 757:../Dave/Generated/UART/uart.c ****         /*Wait till FIFO is empty*/
 758:../Dave/Generated/UART/uart.c ****         while (XMC_USIC_CH_TXFIFO_IsEmpty(handle->channel) == false)
 759:../Dave/Generated/UART/uart.c ****         {
 760:../Dave/Generated/UART/uart.c ****         }
 761:../Dave/Generated/UART/uart.c ****       }
 762:../Dave/Generated/UART/uart.c ****       ret_stat = UART_STATUS_SUCCESS;
 763:../Dave/Generated/UART/uart.c ****       handle->runtime->tx_busy = false;
 764:../Dave/Generated/UART/uart.c ****     }
 765:../Dave/Generated/UART/uart.c ****   }
 766:../Dave/Generated/UART/uart.c ****   return ret_stat;
 767:../Dave/Generated/UART/uart.c **** }
 768:../Dave/Generated/UART/uart.c **** #endif
 769:../Dave/Generated/UART/uart.c **** 
 770:../Dave/Generated/UART/uart.c **** #ifdef UART_RX_DIRECT_USED
 771:../Dave/Generated/UART/uart.c **** /*
 772:../Dave/Generated/UART/uart.c ****  * Polling method to receive data.
 773:../Dave/Generated/UART/uart.c ****  * @param[in] UART_t* handle UART APP handle pointer
 774:../Dave/Generated/UART/uart.c ****  * @param[in] uint8_t*  Pointer to data array
 775:../Dave/Generated/UART/uart.c ****  * @param[in] uint32_t number of bytes to be received.
 776:../Dave/Generated/UART/uart.c ****  *
 777:../Dave/Generated/UART/uart.c ****  * @return UART_STATUS_t Status of receive request handling.
 778:../Dave/Generated/UART/uart.c ****  *
 779:../Dave/Generated/UART/uart.c ****  * Description:
 780:../Dave/Generated/UART/uart.c ****  * Receives data by blocking the CPU until all data is received. Reception
 781:../Dave/Generated/UART/uart.c ****  * cannot be aborted since it is blocking implementation. Based on FIFO selection,
 782:../Dave/Generated/UART/uart.c ****  * either RBUF or OUT register will be read.
 783:../Dave/Generated/UART/uart.c ****  *
 784:../Dave/Generated/UART/uart.c ****  */
 785:../Dave/Generated/UART/uart.c **** static UART_STATUS_t UART_lStartReceivePolling(const UART_t *const handle, uint8_t* data_ptr, uint3
 786:../Dave/Generated/UART/uart.c **** {
 787:../Dave/Generated/UART/uart.c ****   UART_STATUS_t ret_stat = UART_STATUS_BUFFER_INVALID;
 788:../Dave/Generated/UART/uart.c ****   uint32_t loc_index;
 789:../Dave/Generated/UART/uart.c ****   uint32_t loc_status;
 790:../Dave/Generated/UART/uart.c **** 
 791:../Dave/Generated/UART/uart.c ****   XMC_ASSERT("UART_Receive: UART APP handle invalid", ((handle != NULL)&&
 792:../Dave/Generated/UART/uart.c ****             (handle->runtime != NULL)))
 793:../Dave/Generated/UART/uart.c **** 
 794:../Dave/Generated/UART/uart.c ****   if ((data_ptr != NULL) && (count > 0U))
 795:../Dave/Generated/UART/uart.c ****   {
 796:../Dave/Generated/UART/uart.c ****     ret_stat = UART_STATUS_BUSY;
 797:../Dave/Generated/UART/uart.c ****     if (handle->runtime->rx_busy == false)
 798:../Dave/Generated/UART/uart.c ****     {
 799:../Dave/Generated/UART/uart.c ****       handle->runtime->rx_busy = true;
 800:../Dave/Generated/UART/uart.c ****       if (handle->config->rx_fifo_size != XMC_USIC_CH_FIFO_DISABLED)
 801:../Dave/Generated/UART/uart.c ****       {
 802:../Dave/Generated/UART/uart.c ****         /*Clear the receive FIFO, configure the trigger lime
 803:../Dave/Generated/UART/uart.c ****          * and enable the receive events*/
 804:../Dave/Generated/UART/uart.c ****         XMC_USIC_CH_RXFIFO_Flush(handle->channel);
 805:../Dave/Generated/UART/uart.c ****       }
 806:../Dave/Generated/UART/uart.c ****       for (loc_index = 0U; loc_index < count; loc_index++)
 807:../Dave/Generated/UART/uart.c ****       {
 808:../Dave/Generated/UART/uart.c ****         /*If receive FIFO is configured, wait for FIFO to get data.*/
 809:../Dave/Generated/UART/uart.c ****         if (handle->config->rx_fifo_size != XMC_USIC_CH_FIFO_DISABLED)
 810:../Dave/Generated/UART/uart.c ****         {
 811:../Dave/Generated/UART/uart.c ****           /*Wait if FIFO empty*/
 812:../Dave/Generated/UART/uart.c ****           while(XMC_USIC_CH_RXFIFO_IsEmpty(handle->channel) == true)
 813:../Dave/Generated/UART/uart.c ****           {
 814:../Dave/Generated/UART/uart.c ****           }
 815:../Dave/Generated/UART/uart.c ****         }
 816:../Dave/Generated/UART/uart.c ****         else
 817:../Dave/Generated/UART/uart.c ****         {
 818:../Dave/Generated/UART/uart.c ****           /*Wait for RIF or AIF flag update*/
 819:../Dave/Generated/UART/uart.c ****           loc_status = XMC_UART_CH_GetStatusFlag(handle->channel);
 820:../Dave/Generated/UART/uart.c ****           while (!(loc_status & ((uint32_t)XMC_UART_CH_STATUS_FLAG_ALTERNATIVE_RECEIVE_INDICATION |
 821:../Dave/Generated/UART/uart.c ****                 (uint32_t)XMC_UART_CH_STATUS_FLAG_RECEIVE_INDICATION)))
 822:../Dave/Generated/UART/uart.c ****           {
 823:../Dave/Generated/UART/uart.c ****             loc_status = XMC_UART_CH_GetStatusFlag(handle->channel);
 824:../Dave/Generated/UART/uart.c ****           }
 825:../Dave/Generated/UART/uart.c ****           /*Clear the detected event.
 826:../Dave/Generated/UART/uart.c ****            * Both events should not be cleared at once, otherwise if 2 bytes are received, only
 827:../Dave/Generated/UART/uart.c ****            * one byte will be read.*/
 828:../Dave/Generated/UART/uart.c ****           XMC_UART_CH_ClearStatusFlag(handle->channel,
 829:../Dave/Generated/UART/uart.c ****               ((uint32_t)XMC_UART_CH_STATUS_FLAG_RECEIVE_INDICATION | (uint32_t)XMC_UART_CH_STATUS_
 830:../Dave/Generated/UART/uart.c ****         }
 831:../Dave/Generated/UART/uart.c ****         data_ptr[loc_index] = (uint8_t)XMC_UART_CH_GetReceivedData(handle->channel);
 832:../Dave/Generated/UART/uart.c ****       }
 833:../Dave/Generated/UART/uart.c ****       ret_stat = UART_STATUS_SUCCESS;
 834:../Dave/Generated/UART/uart.c ****       handle->runtime->rx_busy = false;
 835:../Dave/Generated/UART/uart.c ****     }
 836:../Dave/Generated/UART/uart.c ****   }
 837:../Dave/Generated/UART/uart.c ****   return ret_stat;
 838:../Dave/Generated/UART/uart.c **** }
 839:../Dave/Generated/UART/uart.c **** #endif
 840:../Dave/Generated/UART/uart.c **** 
 841:../Dave/Generated/UART/uart.c **** #ifdef UART_TX_INTERRUPT_USED
 842:../Dave/Generated/UART/uart.c **** /*
 843:../Dave/Generated/UART/uart.c ****  * Transmit interrupt handler for the APP.
 844:../Dave/Generated/UART/uart.c ****  * This is a common interrupt handling function called for different instances of the APP.
 845:../Dave/Generated/UART/uart.c ****  *
 846:../Dave/Generated/UART/uart.c ****  *  * param[in]  handle UART APP handle pointer of type UART_t*
 847:../Dave/Generated/UART/uart.c ****  *
 848:../Dave/Generated/UART/uart.c ****  *  * return void
 849:../Dave/Generated/UART/uart.c ****  */
 850:../Dave/Generated/UART/uart.c **** void UART_lTransmitHandler(const UART_t * const handle)
 851:../Dave/Generated/UART/uart.c **** {
 852:../Dave/Generated/UART/uart.c ****   UART_RUNTIME_t * ptr_runtime = handle->runtime;
 853:../Dave/Generated/UART/uart.c **** 
 854:../Dave/Generated/UART/uart.c ****   if (ptr_runtime->tx_data_index < ptr_runtime->tx_data_count)
 855:../Dave/Generated/UART/uart.c ****   {
 856:../Dave/Generated/UART/uart.c ****     if (handle->config->tx_fifo_size != XMC_USIC_CH_FIFO_DISABLED)
 857:../Dave/Generated/UART/uart.c ****     {
 858:../Dave/Generated/UART/uart.c ****       /*When Transmit FIFO is enabled*/
 859:../Dave/Generated/UART/uart.c ****       /*Fill the transmit FIFO */
 860:../Dave/Generated/UART/uart.c ****       while (XMC_USIC_CH_TXFIFO_IsFull(handle->channel) == false)
 861:../Dave/Generated/UART/uart.c ****       {
 862:../Dave/Generated/UART/uart.c ****         if (ptr_runtime->tx_data_index < ptr_runtime->tx_data_count)
 863:../Dave/Generated/UART/uart.c ****         {
 864:../Dave/Generated/UART/uart.c ****           /*Load the FIFO byte by byte till either FIFO is full or all data is loaded*/
 865:../Dave/Generated/UART/uart.c ****           XMC_UART_CH_Transmit(handle->channel,(uint16_t)ptr_runtime->tx_data[ptr_runtime->tx_data_
 866:../Dave/Generated/UART/uart.c ****           (ptr_runtime->tx_data_index)++;
 867:../Dave/Generated/UART/uart.c ****         }
 868:../Dave/Generated/UART/uart.c ****         else
 869:../Dave/Generated/UART/uart.c ****         {
 870:../Dave/Generated/UART/uart.c ****           break;
 871:../Dave/Generated/UART/uart.c ****         }
 872:../Dave/Generated/UART/uart.c ****       }
 873:../Dave/Generated/UART/uart.c ****     }
 874:../Dave/Generated/UART/uart.c ****     else
 875:../Dave/Generated/UART/uart.c ****     {
 876:../Dave/Generated/UART/uart.c ****       /*When Transmit FIFO is disabled*/
 877:../Dave/Generated/UART/uart.c ****       XMC_UART_CH_Transmit(handle->channel,(uint16_t)ptr_runtime->tx_data[ptr_runtime->tx_data_inde
 878:../Dave/Generated/UART/uart.c ****       (ptr_runtime->tx_data_index)++;
 879:../Dave/Generated/UART/uart.c ****     }
 880:../Dave/Generated/UART/uart.c ****   }
 881:../Dave/Generated/UART/uart.c ****   else
 882:../Dave/Generated/UART/uart.c ****   {
 883:../Dave/Generated/UART/uart.c ****     if (XMC_USIC_CH_TXFIFO_IsEmpty(handle->channel) == true)
 884:../Dave/Generated/UART/uart.c ****     {
 885:../Dave/Generated/UART/uart.c ****       if (handle->config->tx_fifo_size != XMC_USIC_CH_FIFO_DISABLED)
 886:../Dave/Generated/UART/uart.c ****       {
 887:../Dave/Generated/UART/uart.c ****         /*Disable the transmit FIFO event*/
 888:../Dave/Generated/UART/uart.c ****         XMC_USIC_CH_TXFIFO_DisableEvent(handle->channel,(uint32_t)XMC_USIC_CH_TXFIFO_EVENT_CONF_STA
 889:../Dave/Generated/UART/uart.c ****       }
 890:../Dave/Generated/UART/uart.c ****       else
 891:../Dave/Generated/UART/uart.c ****       {
 892:../Dave/Generated/UART/uart.c ****         /*Disable the standard transmit event*/
 893:../Dave/Generated/UART/uart.c ****         XMC_USIC_CH_DisableEvent(handle->channel, (uint32_t)XMC_USIC_CH_EVENT_TRANSMIT_BUFFER);
 894:../Dave/Generated/UART/uart.c ****       }
 895:../Dave/Generated/UART/uart.c **** 
 896:../Dave/Generated/UART/uart.c ****       /*Wait for the transmit buffer to be free to ensure that all data is transmitted*/
 897:../Dave/Generated/UART/uart.c ****       while (XMC_USIC_CH_GetTransmitBufferStatus(handle->channel) == XMC_USIC_CH_TBUF_STATUS_BUSY)
 898:../Dave/Generated/UART/uart.c ****       {
 899:../Dave/Generated/UART/uart.c **** 
 900:../Dave/Generated/UART/uart.c ****       }
 901:../Dave/Generated/UART/uart.c ****       /*All data is transmitted*/
 902:../Dave/Generated/UART/uart.c ****       ptr_runtime->tx_busy = false;
 903:../Dave/Generated/UART/uart.c ****       ptr_runtime->tx_data = NULL;
 904:../Dave/Generated/UART/uart.c **** 
 905:../Dave/Generated/UART/uart.c ****       if (handle->config->tx_cbhandler != NULL)
 906:../Dave/Generated/UART/uart.c ****       {
 907:../Dave/Generated/UART/uart.c ****         /*Execute the callback function provided in the UART APP UI*/
 908:../Dave/Generated/UART/uart.c ****         handle->config->tx_cbhandler();
 909:../Dave/Generated/UART/uart.c ****       }
 910:../Dave/Generated/UART/uart.c ****     }
 911:../Dave/Generated/UART/uart.c ****   }
 912:../Dave/Generated/UART/uart.c **** }
 913:../Dave/Generated/UART/uart.c **** #endif
 914:../Dave/Generated/UART/uart.c **** 
 915:../Dave/Generated/UART/uart.c **** #ifdef UART_RX_INTERRUPT_USED
 916:../Dave/Generated/UART/uart.c **** /*
 917:../Dave/Generated/UART/uart.c ****  * Receive interrupt handler for the APP.
 918:../Dave/Generated/UART/uart.c ****  * This is a common interrupt handling function for different instances of the UART APP.
 919:../Dave/Generated/UART/uart.c ****  *
 920:../Dave/Generated/UART/uart.c ****  * param[in]  handle UART APP handle pointer of type UART_t*
 921:../Dave/Generated/UART/uart.c ****  *
 922:../Dave/Generated/UART/uart.c ****  * return void
 923:../Dave/Generated/UART/uart.c ****  */
 924:../Dave/Generated/UART/uart.c **** void UART_lReceiveHandler(const UART_t * const handle)
 925:../Dave/Generated/UART/uart.c **** {
 926:../Dave/Generated/UART/uart.c ****   UART_RUNTIME_t * ptr_runtime = handle->runtime;
 927:../Dave/Generated/UART/uart.c **** 
 928:../Dave/Generated/UART/uart.c ****   if (handle->config->rx_fifo_size != XMC_USIC_CH_FIFO_DISABLED)
 929:../Dave/Generated/UART/uart.c ****   {
 930:../Dave/Generated/UART/uart.c ****     /*When Receive FIFO is enabled*/
 931:../Dave/Generated/UART/uart.c ****     while (XMC_USIC_CH_RXFIFO_IsEmpty(handle->channel) == false)
 932:../Dave/Generated/UART/uart.c ****     {
 933:../Dave/Generated/UART/uart.c ****       if (ptr_runtime->rx_data_index < ptr_runtime->rx_data_count)
 934:../Dave/Generated/UART/uart.c ****       {
 935:../Dave/Generated/UART/uart.c ****         /*Read all the content of Receive FIFO */
 936:../Dave/Generated/UART/uart.c ****         ptr_runtime->rx_data[ptr_runtime->rx_data_index] = (uint8_t)XMC_UART_CH_GetReceivedData(han
 937:../Dave/Generated/UART/uart.c ****         (ptr_runtime->rx_data_index)++;
 938:../Dave/Generated/UART/uart.c ****       }
 939:../Dave/Generated/UART/uart.c **** 
 940:../Dave/Generated/UART/uart.c ****       if (ptr_runtime->rx_data_index == ptr_runtime->rx_data_count)
 941:../Dave/Generated/UART/uart.c ****       {
 942:../Dave/Generated/UART/uart.c ****         /*Reception complete*/
 943:../Dave/Generated/UART/uart.c ****         ptr_runtime->rx_busy = false;
 944:../Dave/Generated/UART/uart.c ****         /*Disable both standard receive and alternative receive FIFO events*/
 945:../Dave/Generated/UART/uart.c ****         XMC_USIC_CH_RXFIFO_DisableEvent(handle->channel,
 946:../Dave/Generated/UART/uart.c ****             (uint32_t)((uint32_t)XMC_USIC_CH_RXFIFO_EVENT_CONF_STANDARD |
 947:../Dave/Generated/UART/uart.c ****             (uint32_t)XMC_USIC_CH_RXFIFO_EVENT_CONF_ALTERNATE));
 948:../Dave/Generated/UART/uart.c ****         if (handle->config->rx_cbhandler != NULL)
 949:../Dave/Generated/UART/uart.c ****         {
 950:../Dave/Generated/UART/uart.c ****           /*Execute the 'End of reception' callback function*/
 951:../Dave/Generated/UART/uart.c ****           handle->config->rx_cbhandler();
 952:../Dave/Generated/UART/uart.c ****         }
 953:../Dave/Generated/UART/uart.c ****         break;
 954:../Dave/Generated/UART/uart.c ****       }
 955:../Dave/Generated/UART/uart.c ****     }
 956:../Dave/Generated/UART/uart.c ****     /*Set the trigger limit if data still to be received*/
 957:../Dave/Generated/UART/uart.c ****     if (ptr_runtime->rx_data_index < ptr_runtime->rx_data_count)
 958:../Dave/Generated/UART/uart.c ****     {
 959:../Dave/Generated/UART/uart.c ****       UART_lReconfigureRxFIFO(handle,
 960:../Dave/Generated/UART/uart.c ****           (uint32_t)(ptr_runtime->rx_data_count - ptr_runtime->rx_data_index));
 961:../Dave/Generated/UART/uart.c ****     }
 962:../Dave/Generated/UART/uart.c ****   }
 963:../Dave/Generated/UART/uart.c ****   else
 964:../Dave/Generated/UART/uart.c ****   {
 965:../Dave/Generated/UART/uart.c ****     /*When RxFIFO is disabled*/
 966:../Dave/Generated/UART/uart.c ****     if (ptr_runtime->rx_data_index < ptr_runtime->rx_data_count)
 967:../Dave/Generated/UART/uart.c ****     {
 968:../Dave/Generated/UART/uart.c ****       ptr_runtime->rx_data[ptr_runtime->rx_data_index] = (uint8_t)XMC_UART_CH_GetReceivedData(handl
 969:../Dave/Generated/UART/uart.c ****       (ptr_runtime->rx_data_index)++;
 970:../Dave/Generated/UART/uart.c ****     }
 971:../Dave/Generated/UART/uart.c **** 
 972:../Dave/Generated/UART/uart.c ****     if (ptr_runtime->rx_data_index == ptr_runtime->rx_data_count)
 973:../Dave/Generated/UART/uart.c ****     {
 974:../Dave/Generated/UART/uart.c ****       /*Reception complete*/
 975:../Dave/Generated/UART/uart.c ****       ptr_runtime->rx_busy = false;
 976:../Dave/Generated/UART/uart.c ****       /*Disable both standard receive and alternative receive FIFO events*/
 977:../Dave/Generated/UART/uart.c ****       XMC_USIC_CH_DisableEvent(handle->channel,
 978:../Dave/Generated/UART/uart.c ****           (uint32_t)((uint32_t)XMC_USIC_CH_EVENT_ALTERNATIVE_RECEIVE | (uint32_t)XMC_USIC_CH_EVENT_
 979:../Dave/Generated/UART/uart.c **** 
 980:../Dave/Generated/UART/uart.c ****       if (handle->config->rx_cbhandler != NULL)
 981:../Dave/Generated/UART/uart.c ****       {
 982:../Dave/Generated/UART/uart.c ****         /*Execute the 'End of reception' callback function*/
 983:../Dave/Generated/UART/uart.c ****         handle->config->rx_cbhandler();
 984:../Dave/Generated/UART/uart.c ****       }
 985:../Dave/Generated/UART/uart.c ****     }
 986:../Dave/Generated/UART/uart.c ****   }
 987:../Dave/Generated/UART/uart.c **** }
 988:../Dave/Generated/UART/uart.c **** 
 989:../Dave/Generated/UART/uart.c **** /*
 990:../Dave/Generated/UART/uart.c ****  * A local function to reconfigure Receive FIFO with the given size and trigger limit.
 991:../Dave/Generated/UART/uart.c ****  * Size is needed because the FIFO should be disabled before changing the trigger limit by
 992:../Dave/Generated/UART/uart.c ****  * clearing the FIFO size.
 993:../Dave/Generated/UART/uart.c ****  *
 994:../Dave/Generated/UART/uart.c ****  * param[in] UART_t * pointer to the UART APP handle
 995:../Dave/Generated/UART/uart.c ****  * param[in] uint8_t  number of bytes to be received.
 996:../Dave/Generated/UART/uart.c ****  *
 997:../Dave/Generated/UART/uart.c ****  * return void.
 998:../Dave/Generated/UART/uart.c ****  */
 999:../Dave/Generated/UART/uart.c **** static void UART_lReconfigureRxFIFO(const UART_t * const handle, uint32_t data_size)
1000:../Dave/Generated/UART/uart.c **** {
  27              	 .loc 1 1000 0
  28              	 .cfi_startproc
  29              	 
  30              	 
  31              	 
  32              	.LVL0:
1001:../Dave/Generated/UART/uart.c ****   uint32_t fifo_size;
1002:../Dave/Generated/UART/uart.c ****   uint32_t ret_limit_val = 0U;
1003:../Dave/Generated/UART/uart.c **** 
1004:../Dave/Generated/UART/uart.c ****   /*Get FIFO size in bytes*/
1005:../Dave/Generated/UART/uart.c ****   fifo_size = (uint32_t)(0x01UL << (uint8_t)(handle->config->rx_fifo_size));
  33              	 .loc 1 1005 0
  34 0000 4368     	 ldr r3,[r0,#4]
1006:../Dave/Generated/UART/uart.c ****   /*If data size is more than FIFO size, configure the limit to the FIFO size*/
1007:../Dave/Generated/UART/uart.c ****   if (data_size < fifo_size)
1008:../Dave/Generated/UART/uart.c ****   {
1009:../Dave/Generated/UART/uart.c ****     ret_limit_val = (uint32_t)(data_size - 1U);
1010:../Dave/Generated/UART/uart.c ****   }
1011:../Dave/Generated/UART/uart.c ****   else
1012:../Dave/Generated/UART/uart.c ****   {
1013:../Dave/Generated/UART/uart.c ****     ret_limit_val = (uint32_t)(fifo_size - 1U);
1014:../Dave/Generated/UART/uart.c ****   }
1015:../Dave/Generated/UART/uart.c ****   /*Set the limit value*/
1016:../Dave/Generated/UART/uart.c ****   XMC_USIC_CH_RXFIFO_SetSizeTriggerLimit(handle->channel,
  35              	 .loc 1 1016 0
  36 0002 0068     	 ldr r0,[r0]
  37              	.LVL1:
1005:../Dave/Generated/UART/uart.c ****   /*If data size is more than FIFO size, configure the limit to the FIFO size*/
  38              	 .loc 1 1005 0
  39 0004 93F82830 	 ldrb r3,[r3,#40]
  40 0008 0122     	 movs r2,#1
  41 000a 9A40     	 lsls r2,r2,r3
  42              	.LVL2:
1007:../Dave/Generated/UART/uart.c ****   {
  43              	 .loc 1 1007 0
  44 000c 9142     	 cmp r1,r2
1009:../Dave/Generated/UART/uart.c ****   }
  45              	 .loc 1 1009 0
  46 000e 34BF     	 ite cc
  47 0010 01F1FF32 	 addcc r2,r1,#-1
  48              	.LVL3:
1013:../Dave/Generated/UART/uart.c ****   }
  49              	 .loc 1 1013 0
  50 0014 02F1FF32 	 addcs r2,r2,#-1
  51              	.LVL4:
  52              	 .loc 1 1016 0
  53 0018 1946     	 mov r1,r3
  54              	.LVL5:
  55 001a FFF7FEBF 	 b XMC_USIC_CH_RXFIFO_SetSizeTriggerLimit
  56              	.LVL6:
  57              	 .cfi_endproc
  58              	.LFE292:
  60              	 .section .text.UART_GetAppVersion,"ax",%progbits
  61              	 .align 1
  62              	 .global UART_GetAppVersion
  63              	 .thumb
  64              	 .thumb_func
  66              	UART_GetAppVersion:
  67              	.LFB283:
 123:../Dave/Generated/UART/uart.c ****   DAVE_APP_VERSION_t version;
  68              	 .loc 1 123 0
  69              	 .cfi_startproc
  70              	 
  71              	 
  72              	 
  73              	.LVL7:
 130:../Dave/Generated/UART/uart.c **** }
  74              	 .loc 1 130 0
  75 0000 0423     	 movs r3,#4
  76 0002 0020     	 movs r0,#0
  77 0004 63F30700 	 bfi r0,r3,#0,#8
  78 0008 0123     	 movs r3,#1
  79 000a 63F30F20 	 bfi r0,r3,#8,#8
  80 000e 0C23     	 movs r3,#12
  81 0010 63F31740 	 bfi r0,r3,#16,#8
 123:../Dave/Generated/UART/uart.c ****   DAVE_APP_VERSION_t version;
  82              	 .loc 1 123 0
  83 0014 82B0     	 sub sp,sp,#8
  84              	.LCFI0:
  85              	 .cfi_def_cfa_offset 8
 131:../Dave/Generated/UART/uart.c **** 
  86              	 .loc 1 131 0
  87 0016 02B0     	 add sp,sp,#8
  88              	.LCFI1:
  89              	 .cfi_def_cfa_offset 0
  90              	 
  91 0018 7047     	 bx lr
  92              	 .cfi_endproc
  93              	.LFE283:
  95              	 .section .text.UART_Init,"ax",%progbits
  96              	 .align 1
  97              	 .global UART_Init
  98              	 .thumb
  99              	 .thumb_func
 101              	UART_Init:
 102              	.LFB284:
 144:../Dave/Generated/UART/uart.c ****   UART_STATUS_t status = UART_STATUS_SUCCESS;
 103              	 .loc 1 144 0
 104              	 .cfi_startproc
 105              	 
 106              	 
 107              	 
 108              	.LVL8:
 151:../Dave/Generated/UART/uart.c **** 
 109              	 .loc 1 151 0
 110 0000 4368     	 ldr r3,[r0,#4]
 111 0002 5B68     	 ldr r3,[r3,#4]
 112 0004 1847     	 bx r3
 113              	.LVL9:
 114              	 .cfi_endproc
 115              	.LFE284:
 117              	 .section .text.UART_Transmit,"ax",%progbits
 118              	 .align 1
 119              	 .global UART_Transmit
 120              	 .thumb
 121              	 .thumb_func
 123              	UART_Transmit:
 124              	.LFB285:
 171:../Dave/Generated/UART/uart.c ****   UART_STATUS_t ret_stat = UART_STATUS_MODE_MISMATCH;
 125              	 .loc 1 171 0
 126              	 .cfi_startproc
 127              	 
 128              	 
 129              	.LVL10:
 174:../Dave/Generated/UART/uart.c ****   {
 130              	 .loc 1 174 0
 131 0000 4368     	 ldr r3,[r0,#4]
 171:../Dave/Generated/UART/uart.c ****   UART_STATUS_t ret_stat = UART_STATUS_MODE_MISMATCH;
 132              	 .loc 1 171 0
 133 0002 70B5     	 push {r4,r5,r6,lr}
 134              	.LCFI2:
 135              	 .cfi_def_cfa_offset 16
 136              	 .cfi_offset 4,-16
 137              	 .cfi_offset 5,-12
 138              	 .cfi_offset 6,-8
 139              	 .cfi_offset 14,-4
 171:../Dave/Generated/UART/uart.c ****   UART_STATUS_t ret_stat = UART_STATUS_MODE_MISMATCH;
 140              	 .loc 1 171 0
 141 0004 0446     	 mov r4,r0
 142              	.LVL11:
 174:../Dave/Generated/UART/uart.c ****   {
 143              	 .loc 1 174 0
 144 0006 93F82500 	 ldrb r0,[r3,#37]
 145              	.LVL12:
 146 000a 0228     	 cmp r0,#2
 147 000c 2BD1     	 bne .L32
 148              	.LVL13:
 149              	.LBB40:
 150              	.LBB41:
 729:../Dave/Generated/UART/uart.c ****   {
 151              	 .loc 1 729 0
 152 000e 61B3     	 cbz r1,.L18
 153 0010 5AB3     	 cbz r2,.L18
 154              	.LVL14:
 732:../Dave/Generated/UART/uart.c ****     {
 155              	 .loc 1 732 0
 156 0012 A568     	 ldr r5,[r4,#8]
 157 0014 2E7E     	 ldrb r6,[r5,#24]
 158 0016 4EBB     	 cbnz r6,.L7
 735:../Dave/Generated/UART/uart.c ****       {
 159              	 .loc 1 735 0
 160 0018 93F82730 	 ldrb r3,[r3,#39]
 734:../Dave/Generated/UART/uart.c ****       if (handle->config->tx_fifo_size != XMC_USIC_CH_FIFO_DISABLED)
 161              	 .loc 1 734 0
 162 001c 0120     	 movs r0,#1
 163 001e 2876     	 strb r0,[r5,#24]
 735:../Dave/Generated/UART/uart.c ****       {
 164              	 .loc 1 735 0
 165 0020 23B1     	 cbz r3,.L9
 738:../Dave/Generated/UART/uart.c ****       }
 166              	 .loc 1 738 0
 167 0022 2368     	 ldr r3,[r4]
 168              	.LVL15:
 169              	.LBB42:
 170              	.LBB43:
 171              	 .file 2 "G:/dt_g1_balancing_plate_wise20192020/XMC/Libraries/XMCLib/inc/xmc_usic.h"
   1:G:/dt_g1_balancing_plate_wise20192020/XMC/Libraries/XMCLib/inc\xmc_usic.h **** /**
   2:G:/dt_g1_balancing_plate_wise20192020/XMC/Libraries/XMCLib/inc\xmc_usic.h ****  * @file xmc_usic.h
   3:G:/dt_g1_balancing_plate_wise20192020/XMC/Libraries/XMCLib/inc\xmc_usic.h ****  * @date 2019-05-07
   4:G:/dt_g1_balancing_plate_wise20192020/XMC/Libraries/XMCLib/inc\xmc_usic.h ****  *
   5:G:/dt_g1_balancing_plate_wise20192020/XMC/Libraries/XMCLib/inc\xmc_usic.h ****  * @cond
   6:G:/dt_g1_balancing_plate_wise20192020/XMC/Libraries/XMCLib/inc\xmc_usic.h ****  **************************************************************************************************
   7:G:/dt_g1_balancing_plate_wise20192020/XMC/Libraries/XMCLib/inc\xmc_usic.h ****  * XMClib v2.1.22 - XMC Peripheral Driver Library 
   8:G:/dt_g1_balancing_plate_wise20192020/XMC/Libraries/XMCLib/inc\xmc_usic.h ****  *
   9:G:/dt_g1_balancing_plate_wise20192020/XMC/Libraries/XMCLib/inc\xmc_usic.h ****  * Copyright (c) 2015-2019, Infineon Technologies AG
  10:G:/dt_g1_balancing_plate_wise20192020/XMC/Libraries/XMCLib/inc\xmc_usic.h ****  * All rights reserved.                        
  11:G:/dt_g1_balancing_plate_wise20192020/XMC/Libraries/XMCLib/inc\xmc_usic.h ****  *                                             
  12:G:/dt_g1_balancing_plate_wise20192020/XMC/Libraries/XMCLib/inc\xmc_usic.h ****  * Redistribution and use in source and binary forms, with or without modification,are permitted pr
  13:G:/dt_g1_balancing_plate_wise20192020/XMC/Libraries/XMCLib/inc\xmc_usic.h ****  * following conditions are met:   
  14:G:/dt_g1_balancing_plate_wise20192020/XMC/Libraries/XMCLib/inc\xmc_usic.h ****  *                                                                              
  15:G:/dt_g1_balancing_plate_wise20192020/XMC/Libraries/XMCLib/inc\xmc_usic.h ****  * Redistributions of source code must retain the above copyright notice, this list of conditions a
  16:G:/dt_g1_balancing_plate_wise20192020/XMC/Libraries/XMCLib/inc\xmc_usic.h ****  * disclaimer.                        
  17:G:/dt_g1_balancing_plate_wise20192020/XMC/Libraries/XMCLib/inc\xmc_usic.h ****  * 
  18:G:/dt_g1_balancing_plate_wise20192020/XMC/Libraries/XMCLib/inc\xmc_usic.h ****  * Redistributions in binary form must reproduce the above copyright notice, this list of condition
  19:G:/dt_g1_balancing_plate_wise20192020/XMC/Libraries/XMCLib/inc\xmc_usic.h ****  * disclaimer in the documentation and/or other materials provided with the distribution.          
  20:G:/dt_g1_balancing_plate_wise20192020/XMC/Libraries/XMCLib/inc\xmc_usic.h ****  * 
  21:G:/dt_g1_balancing_plate_wise20192020/XMC/Libraries/XMCLib/inc\xmc_usic.h ****  * Neither the name of the copyright holders nor the names of its contributors may be used to endor
  22:G:/dt_g1_balancing_plate_wise20192020/XMC/Libraries/XMCLib/inc\xmc_usic.h ****  * products derived from this software without specific prior written permission.                  
  23:G:/dt_g1_balancing_plate_wise20192020/XMC/Libraries/XMCLib/inc\xmc_usic.h ****  *                                                                              
  24:G:/dt_g1_balancing_plate_wise20192020/XMC/Libraries/XMCLib/inc\xmc_usic.h ****  * THIS SOFTWARE IS PROVIDED BY THE COPYRIGHT HOLDERS AND CONTRIBUTORS "AS IS" AND ANY EXPRESS OR I
  25:G:/dt_g1_balancing_plate_wise20192020/XMC/Libraries/XMCLib/inc\xmc_usic.h ****  * INCLUDING, BUT NOT LIMITED TO, THE IMPLIED WARRANTIES OF MERCHANTABILITY AND FITNESS FOR A PARTI
  26:G:/dt_g1_balancing_plate_wise20192020/XMC/Libraries/XMCLib/inc\xmc_usic.h ****  * DISCLAIMED. IN NO EVENT SHALL THE COPYRIGHT HOLDER OR CONTRIBUTORS BE LIABLE  FOR ANY DIRECT, IN
  27:G:/dt_g1_balancing_plate_wise20192020/XMC/Libraries/XMCLib/inc\xmc_usic.h ****  * SPECIAL, EXEMPLARY, OR CONSEQUENTIAL DAMAGES (INCLUDING, BUT NOT LIMITED TO, PROCUREMENT OF SUBS
  28:G:/dt_g1_balancing_plate_wise20192020/XMC/Libraries/XMCLib/inc\xmc_usic.h ****  * SERVICES; LOSS OF USE, DATA, OR PROFITS; OR BUSINESS INTERRUPTION) HOWEVER CAUSED AND ON ANY THE
  29:G:/dt_g1_balancing_plate_wise20192020/XMC/Libraries/XMCLib/inc\xmc_usic.h ****  * WHETHER IN CONTRACT, STRICT LIABILITY,OR TORT (INCLUDING NEGLIGENCE OR OTHERWISE) ARISING IN ANY
  30:G:/dt_g1_balancing_plate_wise20192020/XMC/Libraries/XMCLib/inc\xmc_usic.h ****  * OF THIS SOFTWARE, EVEN IF ADVISED OF THE POSSIBILITY OF SUCH DAMAGE.                            
  31:G:/dt_g1_balancing_plate_wise20192020/XMC/Libraries/XMCLib/inc\xmc_usic.h ****  *                                                                              
  32:G:/dt_g1_balancing_plate_wise20192020/XMC/Libraries/XMCLib/inc\xmc_usic.h ****  * To improve the quality of the software, users are encouraged to share modifications, enhancement
  33:G:/dt_g1_balancing_plate_wise20192020/XMC/Libraries/XMCLib/inc\xmc_usic.h ****  * Infineon Technologies AG dave@infineon.com).                                                    
  34:G:/dt_g1_balancing_plate_wise20192020/XMC/Libraries/XMCLib/inc\xmc_usic.h ****  **************************************************************************************************
  35:G:/dt_g1_balancing_plate_wise20192020/XMC/Libraries/XMCLib/inc\xmc_usic.h ****  *
  36:G:/dt_g1_balancing_plate_wise20192020/XMC/Libraries/XMCLib/inc\xmc_usic.h ****  * Change History
  37:G:/dt_g1_balancing_plate_wise20192020/XMC/Libraries/XMCLib/inc\xmc_usic.h ****  * --------------
  38:G:/dt_g1_balancing_plate_wise20192020/XMC/Libraries/XMCLib/inc\xmc_usic.h ****  *
  39:G:/dt_g1_balancing_plate_wise20192020/XMC/Libraries/XMCLib/inc\xmc_usic.h ****  * 2015-02-20:
  40:G:/dt_g1_balancing_plate_wise20192020/XMC/Libraries/XMCLib/inc\xmc_usic.h ****  *     - Initial draft<br>
  41:G:/dt_g1_balancing_plate_wise20192020/XMC/Libraries/XMCLib/inc\xmc_usic.h ****  *     - Documentation improved <br>
  42:G:/dt_g1_balancing_plate_wise20192020/XMC/Libraries/XMCLib/inc\xmc_usic.h ****  *
  43:G:/dt_g1_balancing_plate_wise20192020/XMC/Libraries/XMCLib/inc\xmc_usic.h ****  * 2015-05-08:
  44:G:/dt_g1_balancing_plate_wise20192020/XMC/Libraries/XMCLib/inc\xmc_usic.h ****  *     - Added XMC_USIC_CH_SetInputTriggerCombinationMode() and XMC_USIC_CH_SetTransmitBufferStatus
  45:G:/dt_g1_balancing_plate_wise20192020/XMC/Libraries/XMCLib/inc\xmc_usic.h ****  *      
  46:G:/dt_g1_balancing_plate_wise20192020/XMC/Libraries/XMCLib/inc\xmc_usic.h ****  * 2015-06-20:
  47:G:/dt_g1_balancing_plate_wise20192020/XMC/Libraries/XMCLib/inc\xmc_usic.h ****  *     - Removed version macros and declaration of GetDriverVersion API
  48:G:/dt_g1_balancing_plate_wise20192020/XMC/Libraries/XMCLib/inc\xmc_usic.h ****  * 
  49:G:/dt_g1_balancing_plate_wise20192020/XMC/Libraries/XMCLib/inc\xmc_usic.h ****  * 2015-08-17:
  50:G:/dt_g1_balancing_plate_wise20192020/XMC/Libraries/XMCLib/inc\xmc_usic.h ****  *     - Bug fixed in XMC_USIC_CH_SetTransmitBufferStatus API. OR operator removed.
  51:G:/dt_g1_balancing_plate_wise20192020/XMC/Libraries/XMCLib/inc\xmc_usic.h ****  *
  52:G:/dt_g1_balancing_plate_wise20192020/XMC/Libraries/XMCLib/inc\xmc_usic.h ****  * 2015-08-24:
  53:G:/dt_g1_balancing_plate_wise20192020/XMC/Libraries/XMCLib/inc\xmc_usic.h ****  *     - Added APIs for enabling/disabling delay compensation XMC_USIC_CH_DisableDelayCompensation(
  54:G:/dt_g1_balancing_plate_wise20192020/XMC/Libraries/XMCLib/inc\xmc_usic.h ****  *       XMC_USIC_CH_DisableDelayCompensation()
  55:G:/dt_g1_balancing_plate_wise20192020/XMC/Libraries/XMCLib/inc\xmc_usic.h ****  *
  56:G:/dt_g1_balancing_plate_wise20192020/XMC/Libraries/XMCLib/inc\xmc_usic.h ****  * 2015-08-25:
  57:G:/dt_g1_balancing_plate_wise20192020/XMC/Libraries/XMCLib/inc\xmc_usic.h ****  *     - Added APIs for defining if the data shift unit input is derived
  58:G:/dt_g1_balancing_plate_wise20192020/XMC/Libraries/XMCLib/inc\xmc_usic.h ****  *       from the input data path DXn or from the selected protocol pre-processors: XMC_USIC_CH_Con
  59:G:/dt_g1_balancing_plate_wise20192020/XMC/Libraries/XMCLib/inc\xmc_usic.h ****  *       and XMC_USIC_CH_ConnectInputDataShiftToDataInput()
  60:G:/dt_g1_balancing_plate_wise20192020/XMC/Libraries/XMCLib/inc\xmc_usic.h ****  *
  61:G:/dt_g1_balancing_plate_wise20192020/XMC/Libraries/XMCLib/inc\xmc_usic.h ****  * 2015-08-27:
  62:G:/dt_g1_balancing_plate_wise20192020/XMC/Libraries/XMCLib/inc\xmc_usic.h ****  *     - Fixed bug in XMC_USIC_CH_BRG_CLOCK_SOURCE_DX1T value.
  63:G:/dt_g1_balancing_plate_wise20192020/XMC/Libraries/XMCLib/inc\xmc_usic.h ****  *     - Added APIs for direct TBUF access: XMC_USIC_CH_WriteToTBUF() and XMC_USIC_CH_WriteToTBUFTC
  64:G:/dt_g1_balancing_plate_wise20192020/XMC/Libraries/XMCLib/inc\xmc_usic.h ****  *     - Added APIs for external input for BRG configuration:XMC_USIC_CH_ConfigExternalInputSignalT
  65:G:/dt_g1_balancing_plate_wise20192020/XMC/Libraries/XMCLib/inc\xmc_usic.h ****  *
  66:G:/dt_g1_balancing_plate_wise20192020/XMC/Libraries/XMCLib/inc\xmc_usic.h ****  * 2015-08-28:
  67:G:/dt_g1_balancing_plate_wise20192020/XMC/Libraries/XMCLib/inc\xmc_usic.h ****  *     - Added API for enabling the transfer trigger unit to set bit TCSR.TE if the trigger signal 
  68:G:/dt_g1_balancing_plate_wise20192020/XMC/Libraries/XMCLib/inc\xmc_usic.h ****  *       Clear to Send (CTS) signal: XMC_USIC_CH_EnableTBUFDataValidTrigger() and XMC_USIC_CH_Disab
  69:G:/dt_g1_balancing_plate_wise20192020/XMC/Libraries/XMCLib/inc\xmc_usic.h ****  *
  70:G:/dt_g1_balancing_plate_wise20192020/XMC/Libraries/XMCLib/inc\xmc_usic.h ****  * 2016-03-09:
  71:G:/dt_g1_balancing_plate_wise20192020/XMC/Libraries/XMCLib/inc\xmc_usic.h ****  *     - Optimization of write only registers
  72:G:/dt_g1_balancing_plate_wise20192020/XMC/Libraries/XMCLib/inc\xmc_usic.h ****  *
  73:G:/dt_g1_balancing_plate_wise20192020/XMC/Libraries/XMCLib/inc\xmc_usic.h ****  * 2016-04-10:
  74:G:/dt_g1_balancing_plate_wise20192020/XMC/Libraries/XMCLib/inc\xmc_usic.h ****  *     - Added an API to put the data into FIFO when hardware port control is enabled: XMC_USIC_CH_
  75:G:/dt_g1_balancing_plate_wise20192020/XMC/Libraries/XMCLib/inc\xmc_usic.h ****  *
  76:G:/dt_g1_balancing_plate_wise20192020/XMC/Libraries/XMCLib/inc\xmc_usic.h ****  * 2017-02-10:
  77:G:/dt_g1_balancing_plate_wise20192020/XMC/Libraries/XMCLib/inc\xmc_usic.h ****  *     - Added XMC_USIC_CH_SetShiftDirection() to allow selection of shift direction of the data wo
  78:G:/dt_g1_balancing_plate_wise20192020/XMC/Libraries/XMCLib/inc\xmc_usic.h ****  *     - Added XMC_USIC_CH_GetCaptureTimerValue() and XMC_USIC_CH_SetFractionalDivider()
  79:G:/dt_g1_balancing_plate_wise20192020/XMC/Libraries/XMCLib/inc\xmc_usic.h ****  *
  80:G:/dt_g1_balancing_plate_wise20192020/XMC/Libraries/XMCLib/inc\xmc_usic.h ****  * 2017-09-08:
  81:G:/dt_g1_balancing_plate_wise20192020/XMC/Libraries/XMCLib/inc\xmc_usic.h ****  *     - Fixed value of macro XMC_USIC_CH_SHIFT_DIRECTION_MSB_FIRST used in XMC_USIC_CH_SetShiftDir
  82:G:/dt_g1_balancing_plate_wise20192020/XMC/Libraries/XMCLib/inc\xmc_usic.h ****  *
  83:G:/dt_g1_balancing_plate_wise20192020/XMC/Libraries/XMCLib/inc\xmc_usic.h ****  * 2018-09-29:
  84:G:/dt_g1_balancing_plate_wise20192020/XMC/Libraries/XMCLib/inc\xmc_usic.h ****  *     - Added XMC_USIC_CH_SetBaudrateEx which uses the integer divider instead of the fractional d
  85:G:/dt_g1_balancing_plate_wise20192020/XMC/Libraries/XMCLib/inc\xmc_usic.h ****  * 
  86:G:/dt_g1_balancing_plate_wise20192020/XMC/Libraries/XMCLib/inc\xmc_usic.h ****  * 2019-05-07:
  87:G:/dt_g1_balancing_plate_wise20192020/XMC/Libraries/XMCLib/inc\xmc_usic.h ****  *     - Added XMC_USIC_CH_GetBaudrate(), XMC_USIC_CH_GetSCLKFrequency() and XMC_USIC_CH_GetMCLKFre
  88:G:/dt_g1_balancing_plate_wise20192020/XMC/Libraries/XMCLib/inc\xmc_usic.h ****  *
  89:G:/dt_g1_balancing_plate_wise20192020/XMC/Libraries/XMCLib/inc\xmc_usic.h ****  * @endcond
  90:G:/dt_g1_balancing_plate_wise20192020/XMC/Libraries/XMCLib/inc\xmc_usic.h ****  *
  91:G:/dt_g1_balancing_plate_wise20192020/XMC/Libraries/XMCLib/inc\xmc_usic.h ****  */
  92:G:/dt_g1_balancing_plate_wise20192020/XMC/Libraries/XMCLib/inc\xmc_usic.h **** 
  93:G:/dt_g1_balancing_plate_wise20192020/XMC/Libraries/XMCLib/inc\xmc_usic.h **** #ifndef XMC_USIC_H
  94:G:/dt_g1_balancing_plate_wise20192020/XMC/Libraries/XMCLib/inc\xmc_usic.h **** #define XMC_USIC_H
  95:G:/dt_g1_balancing_plate_wise20192020/XMC/Libraries/XMCLib/inc\xmc_usic.h **** /*******************************************************************************
  96:G:/dt_g1_balancing_plate_wise20192020/XMC/Libraries/XMCLib/inc\xmc_usic.h ****  * HEADER FILES
  97:G:/dt_g1_balancing_plate_wise20192020/XMC/Libraries/XMCLib/inc\xmc_usic.h ****  *******************************************************************************/
  98:G:/dt_g1_balancing_plate_wise20192020/XMC/Libraries/XMCLib/inc\xmc_usic.h **** 
  99:G:/dt_g1_balancing_plate_wise20192020/XMC/Libraries/XMCLib/inc\xmc_usic.h **** #include "xmc_common.h"
 100:G:/dt_g1_balancing_plate_wise20192020/XMC/Libraries/XMCLib/inc\xmc_usic.h **** 
 101:G:/dt_g1_balancing_plate_wise20192020/XMC/Libraries/XMCLib/inc\xmc_usic.h **** /**
 102:G:/dt_g1_balancing_plate_wise20192020/XMC/Libraries/XMCLib/inc\xmc_usic.h ****  * @addtogroup XMClib XMC Peripheral Library
 103:G:/dt_g1_balancing_plate_wise20192020/XMC/Libraries/XMCLib/inc\xmc_usic.h ****  * @{
 104:G:/dt_g1_balancing_plate_wise20192020/XMC/Libraries/XMCLib/inc\xmc_usic.h ****  */
 105:G:/dt_g1_balancing_plate_wise20192020/XMC/Libraries/XMCLib/inc\xmc_usic.h **** 
 106:G:/dt_g1_balancing_plate_wise20192020/XMC/Libraries/XMCLib/inc\xmc_usic.h **** /**
 107:G:/dt_g1_balancing_plate_wise20192020/XMC/Libraries/XMCLib/inc\xmc_usic.h ****  * @addtogroup USIC
 108:G:/dt_g1_balancing_plate_wise20192020/XMC/Libraries/XMCLib/inc\xmc_usic.h ****  * @brief Universal Serial Interface Channel(USIC) driver for serial communication.
 109:G:/dt_g1_balancing_plate_wise20192020/XMC/Libraries/XMCLib/inc\xmc_usic.h ****  *
 110:G:/dt_g1_balancing_plate_wise20192020/XMC/Libraries/XMCLib/inc\xmc_usic.h ****  * The Universal Serial Interface Channel(USIC) module is a flexible interface module
 111:G:/dt_g1_balancing_plate_wise20192020/XMC/Libraries/XMCLib/inc\xmc_usic.h ****  * covering several serial communication protocols. A USIC module contains two
 112:G:/dt_g1_balancing_plate_wise20192020/XMC/Libraries/XMCLib/inc\xmc_usic.h ****  * independent communication channels named USICx_CH0 and USICx_CH1, with x
 113:G:/dt_g1_balancing_plate_wise20192020/XMC/Libraries/XMCLib/inc\xmc_usic.h ****  * being the number of the USIC module. The user can program, during run-time, which protocol will 
 114:G:/dt_g1_balancing_plate_wise20192020/XMC/Libraries/XMCLib/inc\xmc_usic.h ****  * by each communication channel and which pins are used.
 115:G:/dt_g1_balancing_plate_wise20192020/XMC/Libraries/XMCLib/inc\xmc_usic.h ****  * The driver provides APIs, configuration structures and enumerations to configure common features
 116:G:/dt_g1_balancing_plate_wise20192020/XMC/Libraries/XMCLib/inc\xmc_usic.h ****  * communication protocols.
 117:G:/dt_g1_balancing_plate_wise20192020/XMC/Libraries/XMCLib/inc\xmc_usic.h ****  * 
 118:G:/dt_g1_balancing_plate_wise20192020/XMC/Libraries/XMCLib/inc\xmc_usic.h ****  * USIC driver features:
 119:G:/dt_g1_balancing_plate_wise20192020/XMC/Libraries/XMCLib/inc\xmc_usic.h ****  * -# Allows configuration of FIFO for transmit and receive functions.
 120:G:/dt_g1_balancing_plate_wise20192020/XMC/Libraries/XMCLib/inc\xmc_usic.h ****  * -# Provides a structure type XMC_USIC_CH_t to represent the USIC channel registers in a programm
 121:G:/dt_g1_balancing_plate_wise20192020/XMC/Libraries/XMCLib/inc\xmc_usic.h ****  friendly format.
 122:G:/dt_g1_balancing_plate_wise20192020/XMC/Libraries/XMCLib/inc\xmc_usic.h ****  * -# Allows configuration of automatic update for frame length, word length, slave select or slave
 123:G:/dt_g1_balancing_plate_wise20192020/XMC/Libraries/XMCLib/inc\xmc_usic.h ****  * -# Allows transmission of data to FIFO using XMC_USIC_CH_TXFIFO_PutData() and XMC_USIC_CH_TXFIFO
 124:G:/dt_g1_balancing_plate_wise20192020/XMC/Libraries/XMCLib/inc\xmc_usic.h ****  * -# Allows reading of received data in FIFO using XMC_USIC_CH_RXFIFO_GetData()
 125:G:/dt_g1_balancing_plate_wise20192020/XMC/Libraries/XMCLib/inc\xmc_usic.h ****  * -# Allows configuration of baudrate using XMC_USIC_CH_SetBaudrate()
 126:G:/dt_g1_balancing_plate_wise20192020/XMC/Libraries/XMCLib/inc\xmc_usic.h ****  * -# Provides API to trigger interrupts using XMC_USIC_CH_TriggerServiceRequest()
 127:G:/dt_g1_balancing_plate_wise20192020/XMC/Libraries/XMCLib/inc\xmc_usic.h ****  * @{
 128:G:/dt_g1_balancing_plate_wise20192020/XMC/Libraries/XMCLib/inc\xmc_usic.h ****  */
 129:G:/dt_g1_balancing_plate_wise20192020/XMC/Libraries/XMCLib/inc\xmc_usic.h **** 
 130:G:/dt_g1_balancing_plate_wise20192020/XMC/Libraries/XMCLib/inc\xmc_usic.h **** /*******************************************************************************
 131:G:/dt_g1_balancing_plate_wise20192020/XMC/Libraries/XMCLib/inc\xmc_usic.h ****  * MACROS
 132:G:/dt_g1_balancing_plate_wise20192020/XMC/Libraries/XMCLib/inc\xmc_usic.h ****  *******************************************************************************/
 133:G:/dt_g1_balancing_plate_wise20192020/XMC/Libraries/XMCLib/inc\xmc_usic.h **** 
 134:G:/dt_g1_balancing_plate_wise20192020/XMC/Libraries/XMCLib/inc\xmc_usic.h **** #define XMC_USIC0 ((XMC_USIC_t *)USIC0_BASE)			/**< USIC0 module base address */
 135:G:/dt_g1_balancing_plate_wise20192020/XMC/Libraries/XMCLib/inc\xmc_usic.h **** #define XMC_USIC0_CH0 ((XMC_USIC_CH_t *)USIC0_CH0_BASE)	/**< USIC0 channel 0 base address */
 136:G:/dt_g1_balancing_plate_wise20192020/XMC/Libraries/XMCLib/inc\xmc_usic.h **** #define XMC_USIC0_CH1 ((XMC_USIC_CH_t *)USIC0_CH1_BASE)	/**< USIC0 channel 1 base address */
 137:G:/dt_g1_balancing_plate_wise20192020/XMC/Libraries/XMCLib/inc\xmc_usic.h **** 
 138:G:/dt_g1_balancing_plate_wise20192020/XMC/Libraries/XMCLib/inc\xmc_usic.h **** #if defined(USIC1)
 139:G:/dt_g1_balancing_plate_wise20192020/XMC/Libraries/XMCLib/inc\xmc_usic.h **** #define XMC_USIC1 ((XMC_USIC_t *)USIC1_BASE)			/**< USIC1 module base address */
 140:G:/dt_g1_balancing_plate_wise20192020/XMC/Libraries/XMCLib/inc\xmc_usic.h **** #define XMC_USIC1_CH0 ((XMC_USIC_CH_t *)USIC1_CH0_BASE)	/**< USIC1 channel 0 base address */
 141:G:/dt_g1_balancing_plate_wise20192020/XMC/Libraries/XMCLib/inc\xmc_usic.h **** #define XMC_USIC1_CH1 ((XMC_USIC_CH_t *)USIC1_CH1_BASE)	/**< USIC1 channel 1 base address */
 142:G:/dt_g1_balancing_plate_wise20192020/XMC/Libraries/XMCLib/inc\xmc_usic.h **** #endif
 143:G:/dt_g1_balancing_plate_wise20192020/XMC/Libraries/XMCLib/inc\xmc_usic.h **** 
 144:G:/dt_g1_balancing_plate_wise20192020/XMC/Libraries/XMCLib/inc\xmc_usic.h **** #if defined(USIC2)
 145:G:/dt_g1_balancing_plate_wise20192020/XMC/Libraries/XMCLib/inc\xmc_usic.h **** #define XMC_USIC2 ((XMC_USIC_t *)USIC2_BASE)			/**< USIC2 module base address */
 146:G:/dt_g1_balancing_plate_wise20192020/XMC/Libraries/XMCLib/inc\xmc_usic.h **** #define XMC_USIC2_CH0 ((XMC_USIC_CH_t *)USIC2_CH0_BASE)	/**< USIC2 channel 0 base address */
 147:G:/dt_g1_balancing_plate_wise20192020/XMC/Libraries/XMCLib/inc\xmc_usic.h **** #define XMC_USIC2_CH1 ((XMC_USIC_CH_t *)USIC2_CH1_BASE)	/**< USIC2 channel 1 base address */
 148:G:/dt_g1_balancing_plate_wise20192020/XMC/Libraries/XMCLib/inc\xmc_usic.h **** #endif
 149:G:/dt_g1_balancing_plate_wise20192020/XMC/Libraries/XMCLib/inc\xmc_usic.h **** 
 150:G:/dt_g1_balancing_plate_wise20192020/XMC/Libraries/XMCLib/inc\xmc_usic.h **** #define USIC_CH_DXCR_DSEL_Msk  USIC_CH_DX0CR_DSEL_Msk   /**< Common mask for DSEL bitfield mask in 
 151:G:/dt_g1_balancing_plate_wise20192020/XMC/Libraries/XMCLib/inc\xmc_usic.h **** #define USIC_CH_DXCR_DSEL_Pos  USIC_CH_DX0CR_DSEL_Pos   /**< Common mask for DSEL bitfield position
 152:G:/dt_g1_balancing_plate_wise20192020/XMC/Libraries/XMCLib/inc\xmc_usic.h **** #define USIC_CH_DXCR_SFSEL_Pos USIC_CH_DX0CR_SFSEL_Pos  /**< Common mask for SFSEL bitfield positio
 153:G:/dt_g1_balancing_plate_wise20192020/XMC/Libraries/XMCLib/inc\xmc_usic.h **** #define USIC_CH_DXCR_SFSEL_Msk USIC_CH_DX0CR_SFSEL_Msk  /**< Common mask for SFSEL bitfield mask in
 154:G:/dt_g1_balancing_plate_wise20192020/XMC/Libraries/XMCLib/inc\xmc_usic.h **** #define USIC_CH_DXCR_DPOL_Msk  USIC_CH_DX0CR_DPOL_Msk   /**< Common mask for DPOL bitfield mask in 
 155:G:/dt_g1_balancing_plate_wise20192020/XMC/Libraries/XMCLib/inc\xmc_usic.h **** #define USIC_CH_DXCR_DFEN_Msk  USIC_CH_DX0CR_DFEN_Msk   /**< Common mask for DFEN bitfield mask in 
 156:G:/dt_g1_balancing_plate_wise20192020/XMC/Libraries/XMCLib/inc\xmc_usic.h **** #define USIC_CH_DXCR_DSEN_Msk  USIC_CH_DX0CR_DSEN_Msk   /**< Common mask for DSEN bitfield mask in 
 157:G:/dt_g1_balancing_plate_wise20192020/XMC/Libraries/XMCLib/inc\xmc_usic.h **** #define USIC_CH_DXCR_CM_Pos    USIC_CH_DX0CR_CM_Pos     /**< Common mask for CM bitfield position i
 158:G:/dt_g1_balancing_plate_wise20192020/XMC/Libraries/XMCLib/inc\xmc_usic.h **** #define USIC_CH_DXCR_CM_Msk    USIC_CH_DX0CR_CM_Msk     /**< Common mask for CM bitfield mask in DX
 159:G:/dt_g1_balancing_plate_wise20192020/XMC/Libraries/XMCLib/inc\xmc_usic.h **** #define USIC_CH_DXCR_INSW_Msk  USIC_CH_DX0CR_INSW_Msk   /**< Common mask for INSW bitfield mask in 
 160:G:/dt_g1_balancing_plate_wise20192020/XMC/Libraries/XMCLib/inc\xmc_usic.h **** #define USIC_CH_DXCR_INSW_pos  USIC_CH_DX0CR_INSW_Pos   /**< Common mask for INSW bitfield position
 161:G:/dt_g1_balancing_plate_wise20192020/XMC/Libraries/XMCLib/inc\xmc_usic.h **** 
 162:G:/dt_g1_balancing_plate_wise20192020/XMC/Libraries/XMCLib/inc\xmc_usic.h **** #if UC_FAMILY == XMC1
 163:G:/dt_g1_balancing_plate_wise20192020/XMC/Libraries/XMCLib/inc\xmc_usic.h ****  #include "xmc1_usic_map.h"
 164:G:/dt_g1_balancing_plate_wise20192020/XMC/Libraries/XMCLib/inc\xmc_usic.h **** #endif
 165:G:/dt_g1_balancing_plate_wise20192020/XMC/Libraries/XMCLib/inc\xmc_usic.h **** 
 166:G:/dt_g1_balancing_plate_wise20192020/XMC/Libraries/XMCLib/inc\xmc_usic.h **** #if UC_FAMILY == XMC4
 167:G:/dt_g1_balancing_plate_wise20192020/XMC/Libraries/XMCLib/inc\xmc_usic.h ****  #include "xmc4_usic_map.h"
 168:G:/dt_g1_balancing_plate_wise20192020/XMC/Libraries/XMCLib/inc\xmc_usic.h **** #endif
 169:G:/dt_g1_balancing_plate_wise20192020/XMC/Libraries/XMCLib/inc\xmc_usic.h **** 
 170:G:/dt_g1_balancing_plate_wise20192020/XMC/Libraries/XMCLib/inc\xmc_usic.h **** /*******************************************************************************
 171:G:/dt_g1_balancing_plate_wise20192020/XMC/Libraries/XMCLib/inc\xmc_usic.h ****  * ENUMS
 172:G:/dt_g1_balancing_plate_wise20192020/XMC/Libraries/XMCLib/inc\xmc_usic.h ****  *******************************************************************************/
 173:G:/dt_g1_balancing_plate_wise20192020/XMC/Libraries/XMCLib/inc\xmc_usic.h **** 
 174:G:/dt_g1_balancing_plate_wise20192020/XMC/Libraries/XMCLib/inc\xmc_usic.h **** /**
 175:G:/dt_g1_balancing_plate_wise20192020/XMC/Libraries/XMCLib/inc\xmc_usic.h ****  * USIC channel driver status
 176:G:/dt_g1_balancing_plate_wise20192020/XMC/Libraries/XMCLib/inc\xmc_usic.h ****  */
 177:G:/dt_g1_balancing_plate_wise20192020/XMC/Libraries/XMCLib/inc\xmc_usic.h **** typedef enum XMC_USIC_CH_STATUS
 178:G:/dt_g1_balancing_plate_wise20192020/XMC/Libraries/XMCLib/inc\xmc_usic.h **** {
 179:G:/dt_g1_balancing_plate_wise20192020/XMC/Libraries/XMCLib/inc\xmc_usic.h ****   XMC_USIC_CH_STATUS_OK,    /**< USIC driver status : OK */
 180:G:/dt_g1_balancing_plate_wise20192020/XMC/Libraries/XMCLib/inc\xmc_usic.h ****   XMC_USIC_CH_STATUS_ERROR, /**< USIC driver status : ERROR */
 181:G:/dt_g1_balancing_plate_wise20192020/XMC/Libraries/XMCLib/inc\xmc_usic.h ****   XMC_USIC_CH_STATUS_BUSY   /**< USIC driver status : BUSY */
 182:G:/dt_g1_balancing_plate_wise20192020/XMC/Libraries/XMCLib/inc\xmc_usic.h **** } XMC_USIC_CH_STATUS_t;
 183:G:/dt_g1_balancing_plate_wise20192020/XMC/Libraries/XMCLib/inc\xmc_usic.h **** 
 184:G:/dt_g1_balancing_plate_wise20192020/XMC/Libraries/XMCLib/inc\xmc_usic.h **** /**
 185:G:/dt_g1_balancing_plate_wise20192020/XMC/Libraries/XMCLib/inc\xmc_usic.h **** * USIC channel kernel mode
 186:G:/dt_g1_balancing_plate_wise20192020/XMC/Libraries/XMCLib/inc\xmc_usic.h **** */
 187:G:/dt_g1_balancing_plate_wise20192020/XMC/Libraries/XMCLib/inc\xmc_usic.h **** typedef enum XMC_USIC_CH_KERNEL_MODE
 188:G:/dt_g1_balancing_plate_wise20192020/XMC/Libraries/XMCLib/inc\xmc_usic.h **** {
 189:G:/dt_g1_balancing_plate_wise20192020/XMC/Libraries/XMCLib/inc\xmc_usic.h ****   XMC_USIC_CH_KERNEL_MODE_RUN_0  = 0x0UL,  /**< Run mode 0 (transmission and reception possible)*/
 190:G:/dt_g1_balancing_plate_wise20192020/XMC/Libraries/XMCLib/inc\xmc_usic.h ****   XMC_USIC_CH_KERNEL_MODE_RUN_1  = 0x1UL << USIC_CH_KSCFG_NOMCFG_Pos,  /**< Run mode 1 (transmissio
 191:G:/dt_g1_balancing_plate_wise20192020/XMC/Libraries/XMCLib/inc\xmc_usic.h ****   XMC_USIC_CH_KERNEL_MODE_STOP_0 = 0x2UL << USIC_CH_KSCFG_NOMCFG_Pos,  /**< Stop mode 0 (no transmi
 192:G:/dt_g1_balancing_plate_wise20192020/XMC/Libraries/XMCLib/inc\xmc_usic.h ****   XMC_USIC_CH_KERNEL_MODE_STOP_1 = 0x3UL << USIC_CH_KSCFG_NOMCFG_Pos   /**< Stop mode 1 (both trans
 193:G:/dt_g1_balancing_plate_wise20192020/XMC/Libraries/XMCLib/inc\xmc_usic.h **** } XMC_USIC_CH_KERNEL_MODE_t;
 194:G:/dt_g1_balancing_plate_wise20192020/XMC/Libraries/XMCLib/inc\xmc_usic.h **** 
 195:G:/dt_g1_balancing_plate_wise20192020/XMC/Libraries/XMCLib/inc\xmc_usic.h **** /**
 196:G:/dt_g1_balancing_plate_wise20192020/XMC/Libraries/XMCLib/inc\xmc_usic.h ****  * USIC channel operating mode
 197:G:/dt_g1_balancing_plate_wise20192020/XMC/Libraries/XMCLib/inc\xmc_usic.h ****  */
 198:G:/dt_g1_balancing_plate_wise20192020/XMC/Libraries/XMCLib/inc\xmc_usic.h **** typedef enum XMC_USIC_CH_OPERATING_MODE
 199:G:/dt_g1_balancing_plate_wise20192020/XMC/Libraries/XMCLib/inc\xmc_usic.h **** {
 200:G:/dt_g1_balancing_plate_wise20192020/XMC/Libraries/XMCLib/inc\xmc_usic.h ****   XMC_USIC_CH_OPERATING_MODE_IDLE = 0x0UL, /**< USIC channel idle */
 201:G:/dt_g1_balancing_plate_wise20192020/XMC/Libraries/XMCLib/inc\xmc_usic.h ****   XMC_USIC_CH_OPERATING_MODE_SPI  = 0x1UL << USIC_CH_CCR_MODE_Pos, /**< SPI mode */
 202:G:/dt_g1_balancing_plate_wise20192020/XMC/Libraries/XMCLib/inc\xmc_usic.h ****   XMC_USIC_CH_OPERATING_MODE_UART = 0x2UL << USIC_CH_CCR_MODE_Pos, /**< UART mode */
 203:G:/dt_g1_balancing_plate_wise20192020/XMC/Libraries/XMCLib/inc\xmc_usic.h ****   XMC_USIC_CH_OPERATING_MODE_I2S  = 0x3UL << USIC_CH_CCR_MODE_Pos, /**< I2S mode */
 204:G:/dt_g1_balancing_plate_wise20192020/XMC/Libraries/XMCLib/inc\xmc_usic.h ****   XMC_USIC_CH_OPERATING_MODE_I2C  = 0x4UL << USIC_CH_CCR_MODE_Pos  /**< I2C mode */
 205:G:/dt_g1_balancing_plate_wise20192020/XMC/Libraries/XMCLib/inc\xmc_usic.h **** } XMC_USIC_CH_OPERATING_MODE_t;
 206:G:/dt_g1_balancing_plate_wise20192020/XMC/Libraries/XMCLib/inc\xmc_usic.h **** 
 207:G:/dt_g1_balancing_plate_wise20192020/XMC/Libraries/XMCLib/inc\xmc_usic.h **** /**
 208:G:/dt_g1_balancing_plate_wise20192020/XMC/Libraries/XMCLib/inc\xmc_usic.h ****  * USIC channel inputs
 209:G:/dt_g1_balancing_plate_wise20192020/XMC/Libraries/XMCLib/inc\xmc_usic.h ****  */
 210:G:/dt_g1_balancing_plate_wise20192020/XMC/Libraries/XMCLib/inc\xmc_usic.h **** typedef enum XMC_USIC_CH_INPUT
 211:G:/dt_g1_balancing_plate_wise20192020/XMC/Libraries/XMCLib/inc\xmc_usic.h **** {
 212:G:/dt_g1_balancing_plate_wise20192020/XMC/Libraries/XMCLib/inc\xmc_usic.h ****   XMC_USIC_CH_INPUT_DX0, /**< DX0 input */
 213:G:/dt_g1_balancing_plate_wise20192020/XMC/Libraries/XMCLib/inc\xmc_usic.h ****   XMC_USIC_CH_INPUT_DX1, /**< DX1 input */
 214:G:/dt_g1_balancing_plate_wise20192020/XMC/Libraries/XMCLib/inc\xmc_usic.h ****   XMC_USIC_CH_INPUT_DX2, /**< DX2 input */
 215:G:/dt_g1_balancing_plate_wise20192020/XMC/Libraries/XMCLib/inc\xmc_usic.h ****   XMC_USIC_CH_INPUT_DX3, /**< DX3 input */
 216:G:/dt_g1_balancing_plate_wise20192020/XMC/Libraries/XMCLib/inc\xmc_usic.h ****   XMC_USIC_CH_INPUT_DX4, /**< DX4 input */
 217:G:/dt_g1_balancing_plate_wise20192020/XMC/Libraries/XMCLib/inc\xmc_usic.h ****   XMC_USIC_CH_INPUT_DX5  /**< DX5 input */
 218:G:/dt_g1_balancing_plate_wise20192020/XMC/Libraries/XMCLib/inc\xmc_usic.h **** } XMC_USIC_CH_INPUT_t;
 219:G:/dt_g1_balancing_plate_wise20192020/XMC/Libraries/XMCLib/inc\xmc_usic.h **** 
 220:G:/dt_g1_balancing_plate_wise20192020/XMC/Libraries/XMCLib/inc\xmc_usic.h **** /**
 221:G:/dt_g1_balancing_plate_wise20192020/XMC/Libraries/XMCLib/inc\xmc_usic.h ****  * USIC channel input source sampling frequency
 222:G:/dt_g1_balancing_plate_wise20192020/XMC/Libraries/XMCLib/inc\xmc_usic.h ****  */
 223:G:/dt_g1_balancing_plate_wise20192020/XMC/Libraries/XMCLib/inc\xmc_usic.h **** typedef enum XMC_USIC_CH_INPUT_SAMPLING_FREQ
 224:G:/dt_g1_balancing_plate_wise20192020/XMC/Libraries/XMCLib/inc\xmc_usic.h **** {
 225:G:/dt_g1_balancing_plate_wise20192020/XMC/Libraries/XMCLib/inc\xmc_usic.h ****   XMC_USIC_CH_INPUT_SAMPLING_FREQ_FPERIPH            = 0x0UL, /**< Use fperiph frequency for input 
 226:G:/dt_g1_balancing_plate_wise20192020/XMC/Libraries/XMCLib/inc\xmc_usic.h ****   XMC_USIC_CH_INPUT_SAMPLING_FREQ_FRACTIONAL_DIVIDER = 0x1UL << USIC_CH_DXCR_SFSEL_Pos  /**< Use fF
 227:G:/dt_g1_balancing_plate_wise20192020/XMC/Libraries/XMCLib/inc\xmc_usic.h **** } XMC_USIC_CH_INPUT_SAMPLING_FREQ_t;
 228:G:/dt_g1_balancing_plate_wise20192020/XMC/Libraries/XMCLib/inc\xmc_usic.h **** 
 229:G:/dt_g1_balancing_plate_wise20192020/XMC/Libraries/XMCLib/inc\xmc_usic.h **** /**
 230:G:/dt_g1_balancing_plate_wise20192020/XMC/Libraries/XMCLib/inc\xmc_usic.h ****  * USIC channel input combination mode
 231:G:/dt_g1_balancing_plate_wise20192020/XMC/Libraries/XMCLib/inc\xmc_usic.h ****  */
 232:G:/dt_g1_balancing_plate_wise20192020/XMC/Libraries/XMCLib/inc\xmc_usic.h **** typedef enum XMC_USIC_CH_INPUT_COMBINATION_MODE
 233:G:/dt_g1_balancing_plate_wise20192020/XMC/Libraries/XMCLib/inc\xmc_usic.h **** {
 234:G:/dt_g1_balancing_plate_wise20192020/XMC/Libraries/XMCLib/inc\xmc_usic.h ****   XMC_USIC_CH_INPUT_COMBINATION_MODE_TRIGGER_DISABLED = 0x0UL, /**< The trigger activation is disab
 235:G:/dt_g1_balancing_plate_wise20192020/XMC/Libraries/XMCLib/inc\xmc_usic.h ****   XMC_USIC_CH_INPUT_COMBINATION_MODE_RISING_EDGE      = 0x1UL, /**< A rising edge activates DXnT*/
 236:G:/dt_g1_balancing_plate_wise20192020/XMC/Libraries/XMCLib/inc\xmc_usic.h ****   XMC_USIC_CH_INPUT_COMBINATION_MODE_FALLING_EDGE     = 0x2UL, /**< A falling edge activates DXnT*/
 237:G:/dt_g1_balancing_plate_wise20192020/XMC/Libraries/XMCLib/inc\xmc_usic.h ****   XMC_USIC_CH_INPUT_COMBINATION_MODE_BOTH_EDGES       = 0x3UL, /**< Both edges activate DXnT*/
 238:G:/dt_g1_balancing_plate_wise20192020/XMC/Libraries/XMCLib/inc\xmc_usic.h **** } XMC_USIC_CH_INPUT_COMBINATION_MODE_t;
 239:G:/dt_g1_balancing_plate_wise20192020/XMC/Libraries/XMCLib/inc\xmc_usic.h **** 
 240:G:/dt_g1_balancing_plate_wise20192020/XMC/Libraries/XMCLib/inc\xmc_usic.h **** /**
 241:G:/dt_g1_balancing_plate_wise20192020/XMC/Libraries/XMCLib/inc\xmc_usic.h ****  * USIC channel data transmission start modes.
 242:G:/dt_g1_balancing_plate_wise20192020/XMC/Libraries/XMCLib/inc\xmc_usic.h ****  * Data shifted out of the transmit pin depends on the value configured for the
 243:G:/dt_g1_balancing_plate_wise20192020/XMC/Libraries/XMCLib/inc\xmc_usic.h ****  * TDEN bitfield of the TCSR register. Following enum values are used for configuring
 244:G:/dt_g1_balancing_plate_wise20192020/XMC/Libraries/XMCLib/inc\xmc_usic.h ****  * the TCSR->TDEN bitfield.
 245:G:/dt_g1_balancing_plate_wise20192020/XMC/Libraries/XMCLib/inc\xmc_usic.h ****  */
 246:G:/dt_g1_balancing_plate_wise20192020/XMC/Libraries/XMCLib/inc\xmc_usic.h **** typedef enum XMC_USIC_CH_START_TRANSMISION_MODE
 247:G:/dt_g1_balancing_plate_wise20192020/XMC/Libraries/XMCLib/inc\xmc_usic.h **** {
 248:G:/dt_g1_balancing_plate_wise20192020/XMC/Libraries/XMCLib/inc\xmc_usic.h ****   XMC_USIC_CH_START_TRANSMISION_DISABLED      = 0x0U, /**< Passive data level is sent out on transm
 249:G:/dt_g1_balancing_plate_wise20192020/XMC/Libraries/XMCLib/inc\xmc_usic.h ****   XMC_USIC_CH_START_TRANSMISION_ON_TDV        = 0x1UL << USIC_CH_TCSR_TDEN_Pos, /**< Transmission o
 250:G:/dt_g1_balancing_plate_wise20192020/XMC/Libraries/XMCLib/inc\xmc_usic.h ****   XMC_USIC_CH_START_TRANSMISION_ON_TDV_DX2S_0 = 0x2UL << USIC_CH_TCSR_TDEN_Pos, /**< Transmission o
 251:G:/dt_g1_balancing_plate_wise20192020/XMC/Libraries/XMCLib/inc\xmc_usic.h ****   XMC_USIC_CH_START_TRANSMISION_ON_TDV_DX2S_1 = 0x3UL << USIC_CH_TCSR_TDEN_Pos  /**< Transmission o
 252:G:/dt_g1_balancing_plate_wise20192020/XMC/Libraries/XMCLib/inc\xmc_usic.h **** } XMC_USIC_CH_START_TRANSMISION_MODE_t;
 253:G:/dt_g1_balancing_plate_wise20192020/XMC/Libraries/XMCLib/inc\xmc_usic.h **** 
 254:G:/dt_g1_balancing_plate_wise20192020/XMC/Libraries/XMCLib/inc\xmc_usic.h **** /**
 255:G:/dt_g1_balancing_plate_wise20192020/XMC/Libraries/XMCLib/inc\xmc_usic.h ****  * USIC channel interrupt node pointers
 256:G:/dt_g1_balancing_plate_wise20192020/XMC/Libraries/XMCLib/inc\xmc_usic.h ****  */
 257:G:/dt_g1_balancing_plate_wise20192020/XMC/Libraries/XMCLib/inc\xmc_usic.h **** typedef enum XMC_USIC_CH_INTERRUPT_NODE_POINTER
 258:G:/dt_g1_balancing_plate_wise20192020/XMC/Libraries/XMCLib/inc\xmc_usic.h **** {
 259:G:/dt_g1_balancing_plate_wise20192020/XMC/Libraries/XMCLib/inc\xmc_usic.h ****   XMC_USIC_CH_INTERRUPT_NODE_POINTER_TRANSMIT_SHIFT      = USIC_CH_INPR_TSINP_Pos, /**< Node pointe
 260:G:/dt_g1_balancing_plate_wise20192020/XMC/Libraries/XMCLib/inc\xmc_usic.h ****   XMC_USIC_CH_INTERRUPT_NODE_POINTER_TRANSMIT_BUFFER     = USIC_CH_INPR_TBINP_Pos, /**< Node pointe
 261:G:/dt_g1_balancing_plate_wise20192020/XMC/Libraries/XMCLib/inc\xmc_usic.h ****   XMC_USIC_CH_INTERRUPT_NODE_POINTER_RECEIVE             = USIC_CH_INPR_RINP_Pos,  /**< Node pointe
 262:G:/dt_g1_balancing_plate_wise20192020/XMC/Libraries/XMCLib/inc\xmc_usic.h ****   XMC_USIC_CH_INTERRUPT_NODE_POINTER_ALTERNATE_RECEIVE   = USIC_CH_INPR_AINP_Pos,  /**< Node pointe
 263:G:/dt_g1_balancing_plate_wise20192020/XMC/Libraries/XMCLib/inc\xmc_usic.h ****   XMC_USIC_CH_INTERRUPT_NODE_POINTER_PROTOCOL            = USIC_CH_INPR_PINP_Pos   /**< Node pointe
 264:G:/dt_g1_balancing_plate_wise20192020/XMC/Libraries/XMCLib/inc\xmc_usic.h **** } XMC_USIC_CH_INTERRUPT_NODE_POINTER_t;
 265:G:/dt_g1_balancing_plate_wise20192020/XMC/Libraries/XMCLib/inc\xmc_usic.h **** 
 266:G:/dt_g1_balancing_plate_wise20192020/XMC/Libraries/XMCLib/inc\xmc_usic.h **** /**
 267:G:/dt_g1_balancing_plate_wise20192020/XMC/Libraries/XMCLib/inc\xmc_usic.h ****  * USIC channel events
 268:G:/dt_g1_balancing_plate_wise20192020/XMC/Libraries/XMCLib/inc\xmc_usic.h ****  */
 269:G:/dt_g1_balancing_plate_wise20192020/XMC/Libraries/XMCLib/inc\xmc_usic.h **** typedef enum XMC_USIC_CH_EVENT
 270:G:/dt_g1_balancing_plate_wise20192020/XMC/Libraries/XMCLib/inc\xmc_usic.h **** {
 271:G:/dt_g1_balancing_plate_wise20192020/XMC/Libraries/XMCLib/inc\xmc_usic.h ****   XMC_USIC_CH_EVENT_RECEIVE_START       = USIC_CH_CCR_RSIEN_Msk, /**< Receive start event */
 272:G:/dt_g1_balancing_plate_wise20192020/XMC/Libraries/XMCLib/inc\xmc_usic.h ****   XMC_USIC_CH_EVENT_DATA_LOST           = USIC_CH_CCR_DLIEN_Msk, /**< Data lost event */
 273:G:/dt_g1_balancing_plate_wise20192020/XMC/Libraries/XMCLib/inc\xmc_usic.h ****   XMC_USIC_CH_EVENT_TRANSMIT_SHIFT      = USIC_CH_CCR_TSIEN_Msk, /**< Transmit shift event */
 274:G:/dt_g1_balancing_plate_wise20192020/XMC/Libraries/XMCLib/inc\xmc_usic.h ****   XMC_USIC_CH_EVENT_TRANSMIT_BUFFER     = USIC_CH_CCR_TBIEN_Msk, /**< Transmit buffer event */
 275:G:/dt_g1_balancing_plate_wise20192020/XMC/Libraries/XMCLib/inc\xmc_usic.h ****   XMC_USIC_CH_EVENT_STANDARD_RECEIVE    = USIC_CH_CCR_RIEN_Msk,  /**< Receive event */
 276:G:/dt_g1_balancing_plate_wise20192020/XMC/Libraries/XMCLib/inc\xmc_usic.h ****   XMC_USIC_CH_EVENT_ALTERNATIVE_RECEIVE = USIC_CH_CCR_AIEN_Msk,  /**< Alternate receive event */
 277:G:/dt_g1_balancing_plate_wise20192020/XMC/Libraries/XMCLib/inc\xmc_usic.h ****   XMC_USIC_CH_EVENT_BAUD_RATE_GENERATOR = USIC_CH_CCR_BRGIEN_Msk /**< Baudrate generator event */
 278:G:/dt_g1_balancing_plate_wise20192020/XMC/Libraries/XMCLib/inc\xmc_usic.h **** } XMC_USIC_CH_EVENT_t;
 279:G:/dt_g1_balancing_plate_wise20192020/XMC/Libraries/XMCLib/inc\xmc_usic.h **** 
 280:G:/dt_g1_balancing_plate_wise20192020/XMC/Libraries/XMCLib/inc\xmc_usic.h **** /**
 281:G:/dt_g1_balancing_plate_wise20192020/XMC/Libraries/XMCLib/inc\xmc_usic.h **** * USIC channel parity mode
 282:G:/dt_g1_balancing_plate_wise20192020/XMC/Libraries/XMCLib/inc\xmc_usic.h **** */
 283:G:/dt_g1_balancing_plate_wise20192020/XMC/Libraries/XMCLib/inc\xmc_usic.h **** typedef enum XMC_USIC_CH_PARITY_MODE
 284:G:/dt_g1_balancing_plate_wise20192020/XMC/Libraries/XMCLib/inc\xmc_usic.h **** {
 285:G:/dt_g1_balancing_plate_wise20192020/XMC/Libraries/XMCLib/inc\xmc_usic.h ****   XMC_USIC_CH_PARITY_MODE_NONE     = 0x0UL,  /**< Disable parity mode */
 286:G:/dt_g1_balancing_plate_wise20192020/XMC/Libraries/XMCLib/inc\xmc_usic.h ****   XMC_USIC_CH_PARITY_MODE_EVEN     = 0x2UL << USIC_CH_CCR_PM_Pos,  /**< Enable even parity mode */
 287:G:/dt_g1_balancing_plate_wise20192020/XMC/Libraries/XMCLib/inc\xmc_usic.h ****   XMC_USIC_CH_PARITY_MODE_ODD      = 0x3UL << USIC_CH_CCR_PM_Pos   /**< Enable odd parity mode */
 288:G:/dt_g1_balancing_plate_wise20192020/XMC/Libraries/XMCLib/inc\xmc_usic.h **** } XMC_USIC_CH_PARITY_MODE_t;
 289:G:/dt_g1_balancing_plate_wise20192020/XMC/Libraries/XMCLib/inc\xmc_usic.h **** 
 290:G:/dt_g1_balancing_plate_wise20192020/XMC/Libraries/XMCLib/inc\xmc_usic.h **** /**
 291:G:/dt_g1_balancing_plate_wise20192020/XMC/Libraries/XMCLib/inc\xmc_usic.h **** * USIC channel data output mode
 292:G:/dt_g1_balancing_plate_wise20192020/XMC/Libraries/XMCLib/inc\xmc_usic.h **** */
 293:G:/dt_g1_balancing_plate_wise20192020/XMC/Libraries/XMCLib/inc\xmc_usic.h **** typedef enum XMC_USIC_CH_DATA_OUTPUT_MODE
 294:G:/dt_g1_balancing_plate_wise20192020/XMC/Libraries/XMCLib/inc\xmc_usic.h **** {
 295:G:/dt_g1_balancing_plate_wise20192020/XMC/Libraries/XMCLib/inc\xmc_usic.h ****   XMC_USIC_CH_DATA_OUTPUT_MODE_NORMAL   = 0x0UL,  /**< Data output normal mode */
 296:G:/dt_g1_balancing_plate_wise20192020/XMC/Libraries/XMCLib/inc\xmc_usic.h ****   XMC_USIC_CH_DATA_OUTPUT_MODE_INVERTED = 0x1UL << USIC_CH_SCTR_DOCFG_Pos   /**< Data output invert
 297:G:/dt_g1_balancing_plate_wise20192020/XMC/Libraries/XMCLib/inc\xmc_usic.h **** } XMC_USIC_CH_DATA_OUTPUT_MODE_t;
 298:G:/dt_g1_balancing_plate_wise20192020/XMC/Libraries/XMCLib/inc\xmc_usic.h **** 
 299:G:/dt_g1_balancing_plate_wise20192020/XMC/Libraries/XMCLib/inc\xmc_usic.h **** /**
 300:G:/dt_g1_balancing_plate_wise20192020/XMC/Libraries/XMCLib/inc\xmc_usic.h **** * USIC channel data transmit buffer status
 301:G:/dt_g1_balancing_plate_wise20192020/XMC/Libraries/XMCLib/inc\xmc_usic.h **** */
 302:G:/dt_g1_balancing_plate_wise20192020/XMC/Libraries/XMCLib/inc\xmc_usic.h **** typedef enum XMC_USIC_CH_TBUF_STATUS
 303:G:/dt_g1_balancing_plate_wise20192020/XMC/Libraries/XMCLib/inc\xmc_usic.h **** {
 304:G:/dt_g1_balancing_plate_wise20192020/XMC/Libraries/XMCLib/inc\xmc_usic.h ****   XMC_USIC_CH_TBUF_STATUS_IDLE = 0x0UL,                 /**< Transfer buffer is currently idle*/
 305:G:/dt_g1_balancing_plate_wise20192020/XMC/Libraries/XMCLib/inc\xmc_usic.h ****   XMC_USIC_CH_TBUF_STATUS_BUSY = USIC_CH_TCSR_TDV_Msk   /**< Transfer buffer is currently busy*/
 306:G:/dt_g1_balancing_plate_wise20192020/XMC/Libraries/XMCLib/inc\xmc_usic.h **** } XMC_USIC_CH_TBUF_STATUS_t;
 307:G:/dt_g1_balancing_plate_wise20192020/XMC/Libraries/XMCLib/inc\xmc_usic.h **** 
 308:G:/dt_g1_balancing_plate_wise20192020/XMC/Libraries/XMCLib/inc\xmc_usic.h **** 
 309:G:/dt_g1_balancing_plate_wise20192020/XMC/Libraries/XMCLib/inc\xmc_usic.h **** 
 310:G:/dt_g1_balancing_plate_wise20192020/XMC/Libraries/XMCLib/inc\xmc_usic.h **** /**
 311:G:/dt_g1_balancing_plate_wise20192020/XMC/Libraries/XMCLib/inc\xmc_usic.h **** * USIC channel data transmit buffer status modification
 312:G:/dt_g1_balancing_plate_wise20192020/XMC/Libraries/XMCLib/inc\xmc_usic.h **** */
 313:G:/dt_g1_balancing_plate_wise20192020/XMC/Libraries/XMCLib/inc\xmc_usic.h **** typedef enum XMC_USIC_CH_TBUF_STATUS_SET
 314:G:/dt_g1_balancing_plate_wise20192020/XMC/Libraries/XMCLib/inc\xmc_usic.h **** {
 315:G:/dt_g1_balancing_plate_wise20192020/XMC/Libraries/XMCLib/inc\xmc_usic.h ****   XMC_USIC_CH_TBUF_STATUS_SET_BUSY   = 0x1UL, /**< Set Transfer buffer status to busy*/
 316:G:/dt_g1_balancing_plate_wise20192020/XMC/Libraries/XMCLib/inc\xmc_usic.h ****   XMC_USIC_CH_TBUF_STATUS_SET_IDLE   = 0x2UL  /**< Set Transfer buffer status to idle*/
 317:G:/dt_g1_balancing_plate_wise20192020/XMC/Libraries/XMCLib/inc\xmc_usic.h **** } XMC_USIC_CH_TBUF_STATUS_SET_t;
 318:G:/dt_g1_balancing_plate_wise20192020/XMC/Libraries/XMCLib/inc\xmc_usic.h **** 
 319:G:/dt_g1_balancing_plate_wise20192020/XMC/Libraries/XMCLib/inc\xmc_usic.h **** /**
 320:G:/dt_g1_balancing_plate_wise20192020/XMC/Libraries/XMCLib/inc\xmc_usic.h **** * USIC channel receive buffer status
 321:G:/dt_g1_balancing_plate_wise20192020/XMC/Libraries/XMCLib/inc\xmc_usic.h **** */
 322:G:/dt_g1_balancing_plate_wise20192020/XMC/Libraries/XMCLib/inc\xmc_usic.h **** typedef enum XMC_USIC_CH_RBUF_STATUS
 323:G:/dt_g1_balancing_plate_wise20192020/XMC/Libraries/XMCLib/inc\xmc_usic.h **** {
 324:G:/dt_g1_balancing_plate_wise20192020/XMC/Libraries/XMCLib/inc\xmc_usic.h ****   XMC_USIC_CH_RBUF_STATUS_DATA_VALID0 = USIC_CH_RBUFSR_RDV0_Msk, /**< RBUF0 data has not yet been r
 325:G:/dt_g1_balancing_plate_wise20192020/XMC/Libraries/XMCLib/inc\xmc_usic.h ****   XMC_USIC_CH_RBUF_STATUS_DATA_VALID1 = USIC_CH_RBUFSR_RDV1_Msk  /**< RBUF1 data has not yet been r
 326:G:/dt_g1_balancing_plate_wise20192020/XMC/Libraries/XMCLib/inc\xmc_usic.h **** } XMC_USIC_CH_RBUF_STATUS_t;
 327:G:/dt_g1_balancing_plate_wise20192020/XMC/Libraries/XMCLib/inc\xmc_usic.h **** 
 328:G:/dt_g1_balancing_plate_wise20192020/XMC/Libraries/XMCLib/inc\xmc_usic.h **** /**
 329:G:/dt_g1_balancing_plate_wise20192020/XMC/Libraries/XMCLib/inc\xmc_usic.h ****  * USIC channel output signal passive data level
 330:G:/dt_g1_balancing_plate_wise20192020/XMC/Libraries/XMCLib/inc\xmc_usic.h **** */
 331:G:/dt_g1_balancing_plate_wise20192020/XMC/Libraries/XMCLib/inc\xmc_usic.h **** typedef enum XMC_USCI_CH_PASSIVE_DATA_LEVEL
 332:G:/dt_g1_balancing_plate_wise20192020/XMC/Libraries/XMCLib/inc\xmc_usic.h **** {
 333:G:/dt_g1_balancing_plate_wise20192020/XMC/Libraries/XMCLib/inc\xmc_usic.h ****   XMC_USIC_CH_PASSIVE_DATA_LEVEL0 = 0x0UL, /**< Passive level(idle mode signal level) 0 */
 334:G:/dt_g1_balancing_plate_wise20192020/XMC/Libraries/XMCLib/inc\xmc_usic.h ****   XMC_USIC_CH_PASSIVE_DATA_LEVEL1 = 0x1UL << USIC_CH_SCTR_PDL_Pos  /**< Passive level(idle mode sig
 335:G:/dt_g1_balancing_plate_wise20192020/XMC/Libraries/XMCLib/inc\xmc_usic.h **** } XMC_USIC_CH_PASSIVE_DATA_LEVEL_t;
 336:G:/dt_g1_balancing_plate_wise20192020/XMC/Libraries/XMCLib/inc\xmc_usic.h **** 
 337:G:/dt_g1_balancing_plate_wise20192020/XMC/Libraries/XMCLib/inc\xmc_usic.h **** /**
 338:G:/dt_g1_balancing_plate_wise20192020/XMC/Libraries/XMCLib/inc\xmc_usic.h **** * USIC channel receive FIFO size
 339:G:/dt_g1_balancing_plate_wise20192020/XMC/Libraries/XMCLib/inc\xmc_usic.h **** */
 340:G:/dt_g1_balancing_plate_wise20192020/XMC/Libraries/XMCLib/inc\xmc_usic.h **** typedef enum XMC_USIC_CH_FIFO_SIZE
 341:G:/dt_g1_balancing_plate_wise20192020/XMC/Libraries/XMCLib/inc\xmc_usic.h **** {
 342:G:/dt_g1_balancing_plate_wise20192020/XMC/Libraries/XMCLib/inc\xmc_usic.h ****   XMC_USIC_CH_FIFO_DISABLED     = 0x0U,  /**< FIFO Disabled */
 343:G:/dt_g1_balancing_plate_wise20192020/XMC/Libraries/XMCLib/inc\xmc_usic.h ****   XMC_USIC_CH_FIFO_SIZE_2WORDS  = 0x1U,  /**< FIFO size: 2 words */
 344:G:/dt_g1_balancing_plate_wise20192020/XMC/Libraries/XMCLib/inc\xmc_usic.h ****   XMC_USIC_CH_FIFO_SIZE_4WORDS  = 0x2U,  /**< FIFO size: 4 words */
 345:G:/dt_g1_balancing_plate_wise20192020/XMC/Libraries/XMCLib/inc\xmc_usic.h ****   XMC_USIC_CH_FIFO_SIZE_8WORDS  = 0x3U,  /**< FIFO size: 8 words */
 346:G:/dt_g1_balancing_plate_wise20192020/XMC/Libraries/XMCLib/inc\xmc_usic.h ****   XMC_USIC_CH_FIFO_SIZE_16WORDS = 0x4U,  /**< FIFO size: 16 words */
 347:G:/dt_g1_balancing_plate_wise20192020/XMC/Libraries/XMCLib/inc\xmc_usic.h ****   XMC_USIC_CH_FIFO_SIZE_32WORDS = 0x5U,  /**< FIFO size: 32 words */
 348:G:/dt_g1_balancing_plate_wise20192020/XMC/Libraries/XMCLib/inc\xmc_usic.h ****   XMC_USIC_CH_FIFO_SIZE_64WORDS = 0x6U   /**< FIFO size: 64 words */
 349:G:/dt_g1_balancing_plate_wise20192020/XMC/Libraries/XMCLib/inc\xmc_usic.h **** } XMC_USIC_CH_FIFO_SIZE_t;
 350:G:/dt_g1_balancing_plate_wise20192020/XMC/Libraries/XMCLib/inc\xmc_usic.h **** 
 351:G:/dt_g1_balancing_plate_wise20192020/XMC/Libraries/XMCLib/inc\xmc_usic.h **** /**
 352:G:/dt_g1_balancing_plate_wise20192020/XMC/Libraries/XMCLib/inc\xmc_usic.h **** * USIC channel transmit FIFO interrupt node pointers
 353:G:/dt_g1_balancing_plate_wise20192020/XMC/Libraries/XMCLib/inc\xmc_usic.h **** */
 354:G:/dt_g1_balancing_plate_wise20192020/XMC/Libraries/XMCLib/inc\xmc_usic.h **** typedef enum XMC_USIC_CH_TXFIFO_INTERRUPT_NODE_POINTER
 355:G:/dt_g1_balancing_plate_wise20192020/XMC/Libraries/XMCLib/inc\xmc_usic.h **** {
 356:G:/dt_g1_balancing_plate_wise20192020/XMC/Libraries/XMCLib/inc\xmc_usic.h ****   XMC_USIC_CH_TXFIFO_INTERRUPT_NODE_POINTER_STANDARD  = USIC_CH_TBCTR_STBINP_Pos,  /**< Node pointe
 357:G:/dt_g1_balancing_plate_wise20192020/XMC/Libraries/XMCLib/inc\xmc_usic.h ****   XMC_USIC_CH_TXFIFO_INTERRUPT_NODE_POINTER_ALTERNATE = USIC_CH_TBCTR_ATBINP_Pos   /**< Node pointe
 358:G:/dt_g1_balancing_plate_wise20192020/XMC/Libraries/XMCLib/inc\xmc_usic.h **** } XMC_USIC_CH_TXFIFO_INTERRUPT_NODE_POINTER_t;
 359:G:/dt_g1_balancing_plate_wise20192020/XMC/Libraries/XMCLib/inc\xmc_usic.h **** 
 360:G:/dt_g1_balancing_plate_wise20192020/XMC/Libraries/XMCLib/inc\xmc_usic.h **** /**
 361:G:/dt_g1_balancing_plate_wise20192020/XMC/Libraries/XMCLib/inc\xmc_usic.h **** * USIC channel transmit FIFO event configuration
 362:G:/dt_g1_balancing_plate_wise20192020/XMC/Libraries/XMCLib/inc\xmc_usic.h **** */
 363:G:/dt_g1_balancing_plate_wise20192020/XMC/Libraries/XMCLib/inc\xmc_usic.h **** typedef enum XMC_USIC_CH_TXFIFO_EVENT_CONF
 364:G:/dt_g1_balancing_plate_wise20192020/XMC/Libraries/XMCLib/inc\xmc_usic.h **** {
 365:G:/dt_g1_balancing_plate_wise20192020/XMC/Libraries/XMCLib/inc\xmc_usic.h ****   XMC_USIC_CH_TXFIFO_EVENT_CONF_STANDARD  = USIC_CH_TBCTR_STBIEN_Msk,   /**< Enable FIFO standard t
 366:G:/dt_g1_balancing_plate_wise20192020/XMC/Libraries/XMCLib/inc\xmc_usic.h ****   XMC_USIC_CH_TXFIFO_EVENT_CONF_ERROR     = (int32_t)USIC_CH_TBCTR_TBERIEN_Msk  /**< Enable transmi
 367:G:/dt_g1_balancing_plate_wise20192020/XMC/Libraries/XMCLib/inc\xmc_usic.h **** } XMC_USIC_CH_TXFIFO_EVENT_CONF_t;
 368:G:/dt_g1_balancing_plate_wise20192020/XMC/Libraries/XMCLib/inc\xmc_usic.h **** 
 369:G:/dt_g1_balancing_plate_wise20192020/XMC/Libraries/XMCLib/inc\xmc_usic.h **** /**
 370:G:/dt_g1_balancing_plate_wise20192020/XMC/Libraries/XMCLib/inc\xmc_usic.h **** * USIC channel transmit FIFO status
 371:G:/dt_g1_balancing_plate_wise20192020/XMC/Libraries/XMCLib/inc\xmc_usic.h **** */
 372:G:/dt_g1_balancing_plate_wise20192020/XMC/Libraries/XMCLib/inc\xmc_usic.h **** typedef enum XMC_USIC_CH_TXFIFO_EVENT
 373:G:/dt_g1_balancing_plate_wise20192020/XMC/Libraries/XMCLib/inc\xmc_usic.h **** {
 374:G:/dt_g1_balancing_plate_wise20192020/XMC/Libraries/XMCLib/inc\xmc_usic.h ****   XMC_USIC_CH_TXFIFO_EVENT_STANDARD = USIC_CH_TRBSR_STBI_Msk,    /**< Transmit FIFO status: Standar
 375:G:/dt_g1_balancing_plate_wise20192020/XMC/Libraries/XMCLib/inc\xmc_usic.h ****   XMC_USIC_CH_TXFIFO_EVENT_ERROR    = USIC_CH_TRBSR_TBERI_Msk    /**< Transmit FIFO status: Error e
 376:G:/dt_g1_balancing_plate_wise20192020/XMC/Libraries/XMCLib/inc\xmc_usic.h **** } XMC_USIC_CH_TXFIFO_EVENT_t;
 377:G:/dt_g1_balancing_plate_wise20192020/XMC/Libraries/XMCLib/inc\xmc_usic.h **** 
 378:G:/dt_g1_balancing_plate_wise20192020/XMC/Libraries/XMCLib/inc\xmc_usic.h **** /**
 379:G:/dt_g1_balancing_plate_wise20192020/XMC/Libraries/XMCLib/inc\xmc_usic.h **** * USIC channel receive FIFO interrupt node pointers
 380:G:/dt_g1_balancing_plate_wise20192020/XMC/Libraries/XMCLib/inc\xmc_usic.h **** */
 381:G:/dt_g1_balancing_plate_wise20192020/XMC/Libraries/XMCLib/inc\xmc_usic.h **** typedef enum XMC_USIC_CH_RXFIFO_INTERRUPT_NODE_POINTER
 382:G:/dt_g1_balancing_plate_wise20192020/XMC/Libraries/XMCLib/inc\xmc_usic.h **** {
 383:G:/dt_g1_balancing_plate_wise20192020/XMC/Libraries/XMCLib/inc\xmc_usic.h ****   XMC_USIC_CH_RXFIFO_INTERRUPT_NODE_POINTER_STANDARD  = USIC_CH_RBCTR_SRBINP_Pos, /**< Node pointer
 384:G:/dt_g1_balancing_plate_wise20192020/XMC/Libraries/XMCLib/inc\xmc_usic.h ****   XMC_USIC_CH_RXFIFO_INTERRUPT_NODE_POINTER_ALTERNATE = USIC_CH_RBCTR_ARBINP_Pos  /**< Node pointer
 385:G:/dt_g1_balancing_plate_wise20192020/XMC/Libraries/XMCLib/inc\xmc_usic.h **** } XMC_USIC_CH_RXFIFO_INTERRUPT_NODE_POINTER_t;
 386:G:/dt_g1_balancing_plate_wise20192020/XMC/Libraries/XMCLib/inc\xmc_usic.h **** 
 387:G:/dt_g1_balancing_plate_wise20192020/XMC/Libraries/XMCLib/inc\xmc_usic.h **** /**
 388:G:/dt_g1_balancing_plate_wise20192020/XMC/Libraries/XMCLib/inc\xmc_usic.h **** * USIC channel receive FIFO event configuration
 389:G:/dt_g1_balancing_plate_wise20192020/XMC/Libraries/XMCLib/inc\xmc_usic.h **** */
 390:G:/dt_g1_balancing_plate_wise20192020/XMC/Libraries/XMCLib/inc\xmc_usic.h **** typedef enum XMC_USIC_CH_RXFIFO_EVENT_CONF
 391:G:/dt_g1_balancing_plate_wise20192020/XMC/Libraries/XMCLib/inc\xmc_usic.h **** {
 392:G:/dt_g1_balancing_plate_wise20192020/XMC/Libraries/XMCLib/inc\xmc_usic.h ****   XMC_USIC_CH_RXFIFO_EVENT_CONF_STANDARD  = USIC_CH_RBCTR_SRBIEN_Msk,   /**< Enable FIFO standard r
 393:G:/dt_g1_balancing_plate_wise20192020/XMC/Libraries/XMCLib/inc\xmc_usic.h ****   XMC_USIC_CH_RXFIFO_EVENT_CONF_ERROR     = (int32_t)USIC_CH_RBCTR_RBERIEN_Msk,  /**< Enable receiv
 394:G:/dt_g1_balancing_plate_wise20192020/XMC/Libraries/XMCLib/inc\xmc_usic.h ****   XMC_USIC_CH_RXFIFO_EVENT_CONF_ALTERNATE = USIC_CH_RBCTR_ARBIEN_Msk   /**< Enable FIFO alternative
 395:G:/dt_g1_balancing_plate_wise20192020/XMC/Libraries/XMCLib/inc\xmc_usic.h **** } XMC_USIC_CH_RXFIFO_EVENT_CONF_t;
 396:G:/dt_g1_balancing_plate_wise20192020/XMC/Libraries/XMCLib/inc\xmc_usic.h **** 
 397:G:/dt_g1_balancing_plate_wise20192020/XMC/Libraries/XMCLib/inc\xmc_usic.h **** /**
 398:G:/dt_g1_balancing_plate_wise20192020/XMC/Libraries/XMCLib/inc\xmc_usic.h **** * USIC channel receive FIFO status
 399:G:/dt_g1_balancing_plate_wise20192020/XMC/Libraries/XMCLib/inc\xmc_usic.h **** */
 400:G:/dt_g1_balancing_plate_wise20192020/XMC/Libraries/XMCLib/inc\xmc_usic.h **** typedef enum XMC_USIC_CH_RXFIFO_EVENT
 401:G:/dt_g1_balancing_plate_wise20192020/XMC/Libraries/XMCLib/inc\xmc_usic.h **** {
 402:G:/dt_g1_balancing_plate_wise20192020/XMC/Libraries/XMCLib/inc\xmc_usic.h ****   XMC_USIC_CH_RXFIFO_EVENT_STANDARD  = USIC_CH_TRBSR_SRBI_Msk,   /**< Receive FIFO status: Standard
 403:G:/dt_g1_balancing_plate_wise20192020/XMC/Libraries/XMCLib/inc\xmc_usic.h ****   XMC_USIC_CH_RXFIFO_EVENT_ERROR     = USIC_CH_TRBSR_RBERI_Msk,  /**< Receive FIFO status: Error ev
 404:G:/dt_g1_balancing_plate_wise20192020/XMC/Libraries/XMCLib/inc\xmc_usic.h ****   XMC_USIC_CH_RXFIFO_EVENT_ALTERNATE = USIC_CH_TRBSR_ARBI_Msk    /**< Receive FIFO status: Alternat
 405:G:/dt_g1_balancing_plate_wise20192020/XMC/Libraries/XMCLib/inc\xmc_usic.h **** } XMC_USIC_CH_RXFIFO_EVENT_t;
 406:G:/dt_g1_balancing_plate_wise20192020/XMC/Libraries/XMCLib/inc\xmc_usic.h **** 
 407:G:/dt_g1_balancing_plate_wise20192020/XMC/Libraries/XMCLib/inc\xmc_usic.h **** /**
 408:G:/dt_g1_balancing_plate_wise20192020/XMC/Libraries/XMCLib/inc\xmc_usic.h **** * USIC channel baudrate generator clock source
 409:G:/dt_g1_balancing_plate_wise20192020/XMC/Libraries/XMCLib/inc\xmc_usic.h **** */
 410:G:/dt_g1_balancing_plate_wise20192020/XMC/Libraries/XMCLib/inc\xmc_usic.h **** typedef enum XMC_USIC_CH_BRG_CLOCK_SOURCE
 411:G:/dt_g1_balancing_plate_wise20192020/XMC/Libraries/XMCLib/inc\xmc_usic.h **** {
 412:G:/dt_g1_balancing_plate_wise20192020/XMC/Libraries/XMCLib/inc\xmc_usic.h ****   XMC_USIC_CH_BRG_CLOCK_SOURCE_DIVIDER = 0x0UL, /**< Baudrate generator clock source : Source divid
 413:G:/dt_g1_balancing_plate_wise20192020/XMC/Libraries/XMCLib/inc\xmc_usic.h ****   XMC_USIC_CH_BRG_CLOCK_SOURCE_DX1T    = 0x2UL << USIC_CH_BRG_CLKSEL_Pos  /**< Baudrate generator c
 414:G:/dt_g1_balancing_plate_wise20192020/XMC/Libraries/XMCLib/inc\xmc_usic.h **** } XMC_USIC_CH_BRG_CLOCK_SOURCE_t;
 415:G:/dt_g1_balancing_plate_wise20192020/XMC/Libraries/XMCLib/inc\xmc_usic.h **** 
 416:G:/dt_g1_balancing_plate_wise20192020/XMC/Libraries/XMCLib/inc\xmc_usic.h **** /**
 417:G:/dt_g1_balancing_plate_wise20192020/XMC/Libraries/XMCLib/inc\xmc_usic.h **** * USIC channel baudrate generator divider mode
 418:G:/dt_g1_balancing_plate_wise20192020/XMC/Libraries/XMCLib/inc\xmc_usic.h **** */
 419:G:/dt_g1_balancing_plate_wise20192020/XMC/Libraries/XMCLib/inc\xmc_usic.h **** typedef enum XMC_USIC_CH_BRG_CLOCK_DIVIDER_MODE
 420:G:/dt_g1_balancing_plate_wise20192020/XMC/Libraries/XMCLib/inc\xmc_usic.h **** {
 421:G:/dt_g1_balancing_plate_wise20192020/XMC/Libraries/XMCLib/inc\xmc_usic.h ****   XMC_USIC_CH_BRG_CLOCK_DIVIDER_MODE_DISABLED   = 0x0UL, /**< Baudrate generator clock divider: Dis
 422:G:/dt_g1_balancing_plate_wise20192020/XMC/Libraries/XMCLib/inc\xmc_usic.h ****   XMC_USIC_CH_BRG_CLOCK_DIVIDER_MODE_NORMAL     = 0x1UL << USIC_CH_FDR_DM_Pos, /**< Baudrate genera
 423:G:/dt_g1_balancing_plate_wise20192020/XMC/Libraries/XMCLib/inc\xmc_usic.h ****   XMC_USIC_CH_BRG_CLOCK_DIVIDER_MODE_FRACTIONAL = 0x2UL << USIC_CH_FDR_DM_Pos  /**< Baudrate genera
 424:G:/dt_g1_balancing_plate_wise20192020/XMC/Libraries/XMCLib/inc\xmc_usic.h **** } XMC_USIC_CH_BRG_CLOCK_DIVIDER_MODE_t;
 425:G:/dt_g1_balancing_plate_wise20192020/XMC/Libraries/XMCLib/inc\xmc_usic.h **** 
 426:G:/dt_g1_balancing_plate_wise20192020/XMC/Libraries/XMCLib/inc\xmc_usic.h **** /**
 427:G:/dt_g1_balancing_plate_wise20192020/XMC/Libraries/XMCLib/inc\xmc_usic.h **** * USIC channel baudrate generator master clock passive level
 428:G:/dt_g1_balancing_plate_wise20192020/XMC/Libraries/XMCLib/inc\xmc_usic.h **** */
 429:G:/dt_g1_balancing_plate_wise20192020/XMC/Libraries/XMCLib/inc\xmc_usic.h **** typedef enum XMC_USIC_CH_BRG_MASTER_CLOCK_PASSIVE_LEVEL
 430:G:/dt_g1_balancing_plate_wise20192020/XMC/Libraries/XMCLib/inc\xmc_usic.h **** {
 431:G:/dt_g1_balancing_plate_wise20192020/XMC/Libraries/XMCLib/inc\xmc_usic.h ****   XMC_USIC_CH_BRG_MASTER_CLOCK_PASSIVE_LEVEL_0 = 0x0UL, /**< Baudrate generator master clock passiv
 432:G:/dt_g1_balancing_plate_wise20192020/XMC/Libraries/XMCLib/inc\xmc_usic.h ****   XMC_USIC_CH_BRG_MASTER_CLOCK_PASSIVE_LEVEL_1 = 0x1UL << USIC_CH_BRG_MCLKCFG_Pos  /**< Baudrate ge
 433:G:/dt_g1_balancing_plate_wise20192020/XMC/Libraries/XMCLib/inc\xmc_usic.h **** } XMC_USIC_CH_BRG_MASTER_CLOCK_PASSIVE_LEVEL_t;
 434:G:/dt_g1_balancing_plate_wise20192020/XMC/Libraries/XMCLib/inc\xmc_usic.h **** 
 435:G:/dt_g1_balancing_plate_wise20192020/XMC/Libraries/XMCLib/inc\xmc_usic.h **** /**
 436:G:/dt_g1_balancing_plate_wise20192020/XMC/Libraries/XMCLib/inc\xmc_usic.h **** * USIC channel baudrate generator shift clock passive level
 437:G:/dt_g1_balancing_plate_wise20192020/XMC/Libraries/XMCLib/inc\xmc_usic.h **** */
 438:G:/dt_g1_balancing_plate_wise20192020/XMC/Libraries/XMCLib/inc\xmc_usic.h **** typedef enum XMC_USIC_CH_BRG_SHIFT_CLOCK_PASSIVE_LEVEL
 439:G:/dt_g1_balancing_plate_wise20192020/XMC/Libraries/XMCLib/inc\xmc_usic.h **** {
 440:G:/dt_g1_balancing_plate_wise20192020/XMC/Libraries/XMCLib/inc\xmc_usic.h ****   XMC_USIC_CH_BRG_SHIFT_CLOCK_PASSIVE_LEVEL_0_DELAY_DISABLED = 0x0UL, /**< Shift clock passive leve
 441:G:/dt_g1_balancing_plate_wise20192020/XMC/Libraries/XMCLib/inc\xmc_usic.h ****   XMC_USIC_CH_BRG_SHIFT_CLOCK_PASSIVE_LEVEL_1_DELAY_DISABLED = 0x1UL << USIC_CH_BRG_SCLKCFG_Pos, /*
 442:G:/dt_g1_balancing_plate_wise20192020/XMC/Libraries/XMCLib/inc\xmc_usic.h ****   XMC_USIC_CH_BRG_SHIFT_CLOCK_PASSIVE_LEVEL_0_DELAY_ENABLED  = (int32_t)(0x2UL << USIC_CH_BRG_SCLKC
 443:G:/dt_g1_balancing_plate_wise20192020/XMC/Libraries/XMCLib/inc\xmc_usic.h ****   XMC_USIC_CH_BRG_SHIFT_CLOCK_PASSIVE_LEVEL_1_DELAY_ENABLED  = (int32_t)(0x3UL << USIC_CH_BRG_SCLKC
 444:G:/dt_g1_balancing_plate_wise20192020/XMC/Libraries/XMCLib/inc\xmc_usic.h **** } XMC_USIC_CH_BRG_SHIFT_CLOCK_PASSIVE_LEVEL_t;
 445:G:/dt_g1_balancing_plate_wise20192020/XMC/Libraries/XMCLib/inc\xmc_usic.h **** 
 446:G:/dt_g1_balancing_plate_wise20192020/XMC/Libraries/XMCLib/inc\xmc_usic.h **** /**
 447:G:/dt_g1_balancing_plate_wise20192020/XMC/Libraries/XMCLib/inc\xmc_usic.h **** * USIC channel baudrate generator shift clock output
 448:G:/dt_g1_balancing_plate_wise20192020/XMC/Libraries/XMCLib/inc\xmc_usic.h **** */
 449:G:/dt_g1_balancing_plate_wise20192020/XMC/Libraries/XMCLib/inc\xmc_usic.h **** typedef enum XMC_USIC_CH_BRG_SHIFT_CLOCK_OUTPUT
 450:G:/dt_g1_balancing_plate_wise20192020/XMC/Libraries/XMCLib/inc\xmc_usic.h **** {
 451:G:/dt_g1_balancing_plate_wise20192020/XMC/Libraries/XMCLib/inc\xmc_usic.h ****   XMC_USIC_CH_BRG_SHIFT_CLOCK_OUTPUT_SCLK = 0x0UL, /**< Baudrate generator shift clock output: SCL.
 452:G:/dt_g1_balancing_plate_wise20192020/XMC/Libraries/XMCLib/inc\xmc_usic.h ****   XMC_USIC_CH_BRG_SHIFT_CLOCK_OUTPUT_DX1 = 0x1UL << USIC_CH_BRG_SCLKOSEL_Pos   /**< Baudrate genera
 453:G:/dt_g1_balancing_plate_wise20192020/XMC/Libraries/XMCLib/inc\xmc_usic.h **** } XMC_USIC_CH_BRG_SHIFT_CLOCK_OUTPUT_t;
 454:G:/dt_g1_balancing_plate_wise20192020/XMC/Libraries/XMCLib/inc\xmc_usic.h **** 
 455:G:/dt_g1_balancing_plate_wise20192020/XMC/Libraries/XMCLib/inc\xmc_usic.h **** /**
 456:G:/dt_g1_balancing_plate_wise20192020/XMC/Libraries/XMCLib/inc\xmc_usic.h **** * USIC channel shift direction.
 457:G:/dt_g1_balancing_plate_wise20192020/XMC/Libraries/XMCLib/inc\xmc_usic.h **** * Defines the shift direction of the data words for transmission and reception
 458:G:/dt_g1_balancing_plate_wise20192020/XMC/Libraries/XMCLib/inc\xmc_usic.h **** */
 459:G:/dt_g1_balancing_plate_wise20192020/XMC/Libraries/XMCLib/inc\xmc_usic.h **** typedef enum XMC_USIC_CH_SHIFT_DIRECTION
 460:G:/dt_g1_balancing_plate_wise20192020/XMC/Libraries/XMCLib/inc\xmc_usic.h **** {
 461:G:/dt_g1_balancing_plate_wise20192020/XMC/Libraries/XMCLib/inc\xmc_usic.h ****   XMC_USIC_CH_SHIFT_DIRECTION_LSB_FIRST = 0x0UL, /**< Shift LSB first. The first data bit of a data
 462:G:/dt_g1_balancing_plate_wise20192020/XMC/Libraries/XMCLib/inc\xmc_usic.h ****   XMC_USIC_CH_SHIFT_DIRECTION_MSB_FIRST = 0x1UL << USIC_CH_SCTR_SDIR_Pos /**< Shift MSB first. The 
 463:G:/dt_g1_balancing_plate_wise20192020/XMC/Libraries/XMCLib/inc\xmc_usic.h **** } XMC_USIC_CH_SHIFT_DIRECTION_t;
 464:G:/dt_g1_balancing_plate_wise20192020/XMC/Libraries/XMCLib/inc\xmc_usic.h **** 
 465:G:/dt_g1_balancing_plate_wise20192020/XMC/Libraries/XMCLib/inc\xmc_usic.h **** 
 466:G:/dt_g1_balancing_plate_wise20192020/XMC/Libraries/XMCLib/inc\xmc_usic.h **** /*******************************************************************************
 467:G:/dt_g1_balancing_plate_wise20192020/XMC/Libraries/XMCLib/inc\xmc_usic.h ****  * DATA STRUCTURES
 468:G:/dt_g1_balancing_plate_wise20192020/XMC/Libraries/XMCLib/inc\xmc_usic.h ****  *******************************************************************************/
 469:G:/dt_g1_balancing_plate_wise20192020/XMC/Libraries/XMCLib/inc\xmc_usic.h **** 
 470:G:/dt_g1_balancing_plate_wise20192020/XMC/Libraries/XMCLib/inc\xmc_usic.h **** /*Anonymous structure/union guard start*/
 471:G:/dt_g1_balancing_plate_wise20192020/XMC/Libraries/XMCLib/inc\xmc_usic.h **** #if defined(__CC_ARM)
 472:G:/dt_g1_balancing_plate_wise20192020/XMC/Libraries/XMCLib/inc\xmc_usic.h ****   #pragma push
 473:G:/dt_g1_balancing_plate_wise20192020/XMC/Libraries/XMCLib/inc\xmc_usic.h ****   #pragma anon_unions
 474:G:/dt_g1_balancing_plate_wise20192020/XMC/Libraries/XMCLib/inc\xmc_usic.h **** #elif defined(__TASKING__)
 475:G:/dt_g1_balancing_plate_wise20192020/XMC/Libraries/XMCLib/inc\xmc_usic.h ****   #pragma warning 586
 476:G:/dt_g1_balancing_plate_wise20192020/XMC/Libraries/XMCLib/inc\xmc_usic.h **** #endif
 477:G:/dt_g1_balancing_plate_wise20192020/XMC/Libraries/XMCLib/inc\xmc_usic.h **** 
 478:G:/dt_g1_balancing_plate_wise20192020/XMC/Libraries/XMCLib/inc\xmc_usic.h **** /**
 479:G:/dt_g1_balancing_plate_wise20192020/XMC/Libraries/XMCLib/inc\xmc_usic.h ****  * USIC module structure
 480:G:/dt_g1_balancing_plate_wise20192020/XMC/Libraries/XMCLib/inc\xmc_usic.h ****  */
 481:G:/dt_g1_balancing_plate_wise20192020/XMC/Libraries/XMCLib/inc\xmc_usic.h **** typedef USIC_GLOBAL_TypeDef XMC_USIC_t;
 482:G:/dt_g1_balancing_plate_wise20192020/XMC/Libraries/XMCLib/inc\xmc_usic.h **** 
 483:G:/dt_g1_balancing_plate_wise20192020/XMC/Libraries/XMCLib/inc\xmc_usic.h **** /**
 484:G:/dt_g1_balancing_plate_wise20192020/XMC/Libraries/XMCLib/inc\xmc_usic.h ****  * USIC channel structure.<br> The members of the structure are same as in the device header file, 
 485:G:/dt_g1_balancing_plate_wise20192020/XMC/Libraries/XMCLib/inc\xmc_usic.h ****  * except for some registers.
 486:G:/dt_g1_balancing_plate_wise20192020/XMC/Libraries/XMCLib/inc\xmc_usic.h ****  * DX0CR, DX1CR, DX2CR, DX3CR, DX4CR and DX5CR are replaced with the array DXCR[6].
 487:G:/dt_g1_balancing_plate_wise20192020/XMC/Libraries/XMCLib/inc\xmc_usic.h ****  * TBUF0 to TBUF31 are replaced with TBUF[32].
 488:G:/dt_g1_balancing_plate_wise20192020/XMC/Libraries/XMCLib/inc\xmc_usic.h ****  * IN0 to IN31 are replaced with IN[32].
 489:G:/dt_g1_balancing_plate_wise20192020/XMC/Libraries/XMCLib/inc\xmc_usic.h ****  */
 490:G:/dt_g1_balancing_plate_wise20192020/XMC/Libraries/XMCLib/inc\xmc_usic.h **** typedef struct XMC_USIC_CH
 491:G:/dt_g1_balancing_plate_wise20192020/XMC/Libraries/XMCLib/inc\xmc_usic.h **** {
 492:G:/dt_g1_balancing_plate_wise20192020/XMC/Libraries/XMCLib/inc\xmc_usic.h ****   __I  uint32_t  RESERVED0;
 493:G:/dt_g1_balancing_plate_wise20192020/XMC/Libraries/XMCLib/inc\xmc_usic.h ****   __I  uint32_t  CCFG;			/**< Channel configuration register*/
 494:G:/dt_g1_balancing_plate_wise20192020/XMC/Libraries/XMCLib/inc\xmc_usic.h ****   __I  uint32_t  RESERVED1;
 495:G:/dt_g1_balancing_plate_wise20192020/XMC/Libraries/XMCLib/inc\xmc_usic.h ****   __IO uint32_t  KSCFG;			/**< Kernel state configuration register*/
 496:G:/dt_g1_balancing_plate_wise20192020/XMC/Libraries/XMCLib/inc\xmc_usic.h ****   __IO uint32_t  FDR;			/**< Fractional divider configuration register*/
 497:G:/dt_g1_balancing_plate_wise20192020/XMC/Libraries/XMCLib/inc\xmc_usic.h ****   __IO uint32_t  BRG;			/**< Baud rate generator register*/
 498:G:/dt_g1_balancing_plate_wise20192020/XMC/Libraries/XMCLib/inc\xmc_usic.h ****   __IO uint32_t  INPR;			/**< Interrupt node pointer register*/
 499:G:/dt_g1_balancing_plate_wise20192020/XMC/Libraries/XMCLib/inc\xmc_usic.h ****   __IO uint32_t  DXCR[6];		/**< Input control registers DX0 to DX5.*/
 500:G:/dt_g1_balancing_plate_wise20192020/XMC/Libraries/XMCLib/inc\xmc_usic.h ****   __IO uint32_t  SCTR;			/**< Shift control register*/
 501:G:/dt_g1_balancing_plate_wise20192020/XMC/Libraries/XMCLib/inc\xmc_usic.h ****   __IO uint32_t  TCSR;
 502:G:/dt_g1_balancing_plate_wise20192020/XMC/Libraries/XMCLib/inc\xmc_usic.h **** 
 503:G:/dt_g1_balancing_plate_wise20192020/XMC/Libraries/XMCLib/inc\xmc_usic.h ****   union {
 504:G:/dt_g1_balancing_plate_wise20192020/XMC/Libraries/XMCLib/inc\xmc_usic.h ****     __IO uint32_t  PCR_IICMode;	/**< I2C protocol configuration register*/
 505:G:/dt_g1_balancing_plate_wise20192020/XMC/Libraries/XMCLib/inc\xmc_usic.h ****     __IO uint32_t  PCR_IISMode; /**< I2S protocol configuration register*/
 506:G:/dt_g1_balancing_plate_wise20192020/XMC/Libraries/XMCLib/inc\xmc_usic.h ****     __IO uint32_t  PCR_SSCMode;	/**< SPI protocol configuration register*/
 507:G:/dt_g1_balancing_plate_wise20192020/XMC/Libraries/XMCLib/inc\xmc_usic.h ****     __IO uint32_t  PCR;			/**< Protocol configuration register*/
 508:G:/dt_g1_balancing_plate_wise20192020/XMC/Libraries/XMCLib/inc\xmc_usic.h ****     __IO uint32_t  PCR_ASCMode;	/**< UART protocol configuration register*/
 509:G:/dt_g1_balancing_plate_wise20192020/XMC/Libraries/XMCLib/inc\xmc_usic.h ****   };
 510:G:/dt_g1_balancing_plate_wise20192020/XMC/Libraries/XMCLib/inc\xmc_usic.h ****   __IO uint32_t  CCR;			/**< Channel control register*/
 511:G:/dt_g1_balancing_plate_wise20192020/XMC/Libraries/XMCLib/inc\xmc_usic.h ****   __IO uint32_t  CMTR;			/**< Capture mode timer register*/
 512:G:/dt_g1_balancing_plate_wise20192020/XMC/Libraries/XMCLib/inc\xmc_usic.h **** 
 513:G:/dt_g1_balancing_plate_wise20192020/XMC/Libraries/XMCLib/inc\xmc_usic.h ****   union {
 514:G:/dt_g1_balancing_plate_wise20192020/XMC/Libraries/XMCLib/inc\xmc_usic.h ****     __IO uint32_t  PSR_IICMode;	/**< I2C protocol status register*/
 515:G:/dt_g1_balancing_plate_wise20192020/XMC/Libraries/XMCLib/inc\xmc_usic.h ****     __IO uint32_t  PSR_IISMode;	/**< I2S protocol status register*/
 516:G:/dt_g1_balancing_plate_wise20192020/XMC/Libraries/XMCLib/inc\xmc_usic.h ****     __IO uint32_t  PSR_SSCMode;	/**< SPI protocol status register*/
 517:G:/dt_g1_balancing_plate_wise20192020/XMC/Libraries/XMCLib/inc\xmc_usic.h ****     __IO uint32_t  PSR;			/**< Protocol status register*/
 518:G:/dt_g1_balancing_plate_wise20192020/XMC/Libraries/XMCLib/inc\xmc_usic.h ****     __IO uint32_t  PSR_ASCMode;	/**< UART protocol status register*/
 519:G:/dt_g1_balancing_plate_wise20192020/XMC/Libraries/XMCLib/inc\xmc_usic.h ****   };
 520:G:/dt_g1_balancing_plate_wise20192020/XMC/Libraries/XMCLib/inc\xmc_usic.h ****   __O  uint32_t  PSCR;			/**< Protocol status clear register*/
 521:G:/dt_g1_balancing_plate_wise20192020/XMC/Libraries/XMCLib/inc\xmc_usic.h ****   __I  uint32_t  RBUFSR;		/**< Receive buffer status register*/
 522:G:/dt_g1_balancing_plate_wise20192020/XMC/Libraries/XMCLib/inc\xmc_usic.h ****   __I  uint32_t  RBUF;			/**< Receive buffer register*/
 523:G:/dt_g1_balancing_plate_wise20192020/XMC/Libraries/XMCLib/inc\xmc_usic.h ****   __I  uint32_t  RBUFD;			/**< Debug mode receive buffer register*/
 524:G:/dt_g1_balancing_plate_wise20192020/XMC/Libraries/XMCLib/inc\xmc_usic.h ****   __I  uint32_t  RBUF0;			/**< Receive buffer 0*/
 525:G:/dt_g1_balancing_plate_wise20192020/XMC/Libraries/XMCLib/inc\xmc_usic.h ****   __I  uint32_t  RBUF1;			/**< Receive buffer 1*/
 526:G:/dt_g1_balancing_plate_wise20192020/XMC/Libraries/XMCLib/inc\xmc_usic.h ****   __I  uint32_t  RBUF01SR;		/**< Receive buffer status register*/
 527:G:/dt_g1_balancing_plate_wise20192020/XMC/Libraries/XMCLib/inc\xmc_usic.h ****   __O  uint32_t  FMR;			/**< Flag modification register*/
 528:G:/dt_g1_balancing_plate_wise20192020/XMC/Libraries/XMCLib/inc\xmc_usic.h ****   __I  uint32_t  RESERVED2[5];
 529:G:/dt_g1_balancing_plate_wise20192020/XMC/Libraries/XMCLib/inc\xmc_usic.h ****   __IO uint32_t  TBUF[32];		/**< Tranmsit buffer registers*/
 530:G:/dt_g1_balancing_plate_wise20192020/XMC/Libraries/XMCLib/inc\xmc_usic.h ****   __IO uint32_t  BYP;			/**< FIFO bypass register*/
 531:G:/dt_g1_balancing_plate_wise20192020/XMC/Libraries/XMCLib/inc\xmc_usic.h ****   __IO uint32_t  BYPCR;			/**< FIFO bypass control register*/
 532:G:/dt_g1_balancing_plate_wise20192020/XMC/Libraries/XMCLib/inc\xmc_usic.h ****   __IO uint32_t  TBCTR;			/**< Transmit FIFO control register*/
 533:G:/dt_g1_balancing_plate_wise20192020/XMC/Libraries/XMCLib/inc\xmc_usic.h ****   __IO uint32_t  RBCTR;			/**< Receive FIFO control register*/
 534:G:/dt_g1_balancing_plate_wise20192020/XMC/Libraries/XMCLib/inc\xmc_usic.h ****   __I  uint32_t  TRBPTR;		/**< Transmit/recive buffer pointer register*/
 535:G:/dt_g1_balancing_plate_wise20192020/XMC/Libraries/XMCLib/inc\xmc_usic.h ****   __IO uint32_t  TRBSR;			/**< Transmit/receive buffer status register*/
 536:G:/dt_g1_balancing_plate_wise20192020/XMC/Libraries/XMCLib/inc\xmc_usic.h ****   __O  uint32_t  TRBSCR;		/**< Transmit/receive buffer status clear register*/
 537:G:/dt_g1_balancing_plate_wise20192020/XMC/Libraries/XMCLib/inc\xmc_usic.h ****   __I  uint32_t  OUTR;			/**< Receive FIFO output register*/
 538:G:/dt_g1_balancing_plate_wise20192020/XMC/Libraries/XMCLib/inc\xmc_usic.h ****   __I  uint32_t  OUTDR;			/**< Receive FIFO debug output register*/
 539:G:/dt_g1_balancing_plate_wise20192020/XMC/Libraries/XMCLib/inc\xmc_usic.h ****   __I  uint32_t  RESERVED3[23];
 540:G:/dt_g1_balancing_plate_wise20192020/XMC/Libraries/XMCLib/inc\xmc_usic.h ****   __O  uint32_t  IN[32];		/**< Transmit FIFO input register*/
 541:G:/dt_g1_balancing_plate_wise20192020/XMC/Libraries/XMCLib/inc\xmc_usic.h **** } XMC_USIC_CH_t;
 542:G:/dt_g1_balancing_plate_wise20192020/XMC/Libraries/XMCLib/inc\xmc_usic.h **** 
 543:G:/dt_g1_balancing_plate_wise20192020/XMC/Libraries/XMCLib/inc\xmc_usic.h **** 
 544:G:/dt_g1_balancing_plate_wise20192020/XMC/Libraries/XMCLib/inc\xmc_usic.h **** /*Anonymous structure/union guard end*/
 545:G:/dt_g1_balancing_plate_wise20192020/XMC/Libraries/XMCLib/inc\xmc_usic.h **** #if defined(__CC_ARM)
 546:G:/dt_g1_balancing_plate_wise20192020/XMC/Libraries/XMCLib/inc\xmc_usic.h ****   #pragma pop
 547:G:/dt_g1_balancing_plate_wise20192020/XMC/Libraries/XMCLib/inc\xmc_usic.h **** #elif defined(__TASKING__)
 548:G:/dt_g1_balancing_plate_wise20192020/XMC/Libraries/XMCLib/inc\xmc_usic.h ****   #pragma warning restore
 549:G:/dt_g1_balancing_plate_wise20192020/XMC/Libraries/XMCLib/inc\xmc_usic.h **** #endif
 550:G:/dt_g1_balancing_plate_wise20192020/XMC/Libraries/XMCLib/inc\xmc_usic.h **** 
 551:G:/dt_g1_balancing_plate_wise20192020/XMC/Libraries/XMCLib/inc\xmc_usic.h **** /*******************************************************************************
 552:G:/dt_g1_balancing_plate_wise20192020/XMC/Libraries/XMCLib/inc\xmc_usic.h ****  * API PROTOTYPES
 553:G:/dt_g1_balancing_plate_wise20192020/XMC/Libraries/XMCLib/inc\xmc_usic.h ****  ******************************************************************************/
 554:G:/dt_g1_balancing_plate_wise20192020/XMC/Libraries/XMCLib/inc\xmc_usic.h **** 
 555:G:/dt_g1_balancing_plate_wise20192020/XMC/Libraries/XMCLib/inc\xmc_usic.h **** #ifdef __cplusplus
 556:G:/dt_g1_balancing_plate_wise20192020/XMC/Libraries/XMCLib/inc\xmc_usic.h **** extern "C" {
 557:G:/dt_g1_balancing_plate_wise20192020/XMC/Libraries/XMCLib/inc\xmc_usic.h **** #endif
 558:G:/dt_g1_balancing_plate_wise20192020/XMC/Libraries/XMCLib/inc\xmc_usic.h **** 
 559:G:/dt_g1_balancing_plate_wise20192020/XMC/Libraries/XMCLib/inc\xmc_usic.h **** __STATIC_INLINE bool XMC_USIC_IsModuleValid(const XMC_USIC_t *const module)
 560:G:/dt_g1_balancing_plate_wise20192020/XMC/Libraries/XMCLib/inc\xmc_usic.h **** {
 561:G:/dt_g1_balancing_plate_wise20192020/XMC/Libraries/XMCLib/inc\xmc_usic.h ****   bool tmp;
 562:G:/dt_g1_balancing_plate_wise20192020/XMC/Libraries/XMCLib/inc\xmc_usic.h **** 
 563:G:/dt_g1_balancing_plate_wise20192020/XMC/Libraries/XMCLib/inc\xmc_usic.h ****   tmp = (module == XMC_USIC0);
 564:G:/dt_g1_balancing_plate_wise20192020/XMC/Libraries/XMCLib/inc\xmc_usic.h **** #if defined(XMC_USIC1)  
 565:G:/dt_g1_balancing_plate_wise20192020/XMC/Libraries/XMCLib/inc\xmc_usic.h ****   tmp = tmp || (module == XMC_USIC1);
 566:G:/dt_g1_balancing_plate_wise20192020/XMC/Libraries/XMCLib/inc\xmc_usic.h **** #endif
 567:G:/dt_g1_balancing_plate_wise20192020/XMC/Libraries/XMCLib/inc\xmc_usic.h **** #if defined(XMC_USIC2)  
 568:G:/dt_g1_balancing_plate_wise20192020/XMC/Libraries/XMCLib/inc\xmc_usic.h ****   tmp = tmp || (module == XMC_USIC2);
 569:G:/dt_g1_balancing_plate_wise20192020/XMC/Libraries/XMCLib/inc\xmc_usic.h **** #endif
 570:G:/dt_g1_balancing_plate_wise20192020/XMC/Libraries/XMCLib/inc\xmc_usic.h **** 
 571:G:/dt_g1_balancing_plate_wise20192020/XMC/Libraries/XMCLib/inc\xmc_usic.h ****   return tmp;
 572:G:/dt_g1_balancing_plate_wise20192020/XMC/Libraries/XMCLib/inc\xmc_usic.h **** }
 573:G:/dt_g1_balancing_plate_wise20192020/XMC/Libraries/XMCLib/inc\xmc_usic.h **** 
 574:G:/dt_g1_balancing_plate_wise20192020/XMC/Libraries/XMCLib/inc\xmc_usic.h **** __STATIC_INLINE bool XMC_USIC_IsChannelValid(const XMC_USIC_CH_t *const channel)
 575:G:/dt_g1_balancing_plate_wise20192020/XMC/Libraries/XMCLib/inc\xmc_usic.h **** {
 576:G:/dt_g1_balancing_plate_wise20192020/XMC/Libraries/XMCLib/inc\xmc_usic.h ****   bool tmp;
 577:G:/dt_g1_balancing_plate_wise20192020/XMC/Libraries/XMCLib/inc\xmc_usic.h **** 
 578:G:/dt_g1_balancing_plate_wise20192020/XMC/Libraries/XMCLib/inc\xmc_usic.h ****   tmp = ((channel == XMC_USIC0_CH0) || (channel == XMC_USIC0_CH1));
 579:G:/dt_g1_balancing_plate_wise20192020/XMC/Libraries/XMCLib/inc\xmc_usic.h **** #if defined(XMC_USIC1)  
 580:G:/dt_g1_balancing_plate_wise20192020/XMC/Libraries/XMCLib/inc\xmc_usic.h ****   tmp = tmp || ((channel == XMC_USIC1_CH0) || (channel == XMC_USIC1_CH1));
 581:G:/dt_g1_balancing_plate_wise20192020/XMC/Libraries/XMCLib/inc\xmc_usic.h **** #endif
 582:G:/dt_g1_balancing_plate_wise20192020/XMC/Libraries/XMCLib/inc\xmc_usic.h **** #if defined(XMC_USIC2)  
 583:G:/dt_g1_balancing_plate_wise20192020/XMC/Libraries/XMCLib/inc\xmc_usic.h ****   tmp = tmp || ((channel == XMC_USIC2_CH0) || (channel == XMC_USIC2_CH1));
 584:G:/dt_g1_balancing_plate_wise20192020/XMC/Libraries/XMCLib/inc\xmc_usic.h **** #endif
 585:G:/dt_g1_balancing_plate_wise20192020/XMC/Libraries/XMCLib/inc\xmc_usic.h **** 
 586:G:/dt_g1_balancing_plate_wise20192020/XMC/Libraries/XMCLib/inc\xmc_usic.h ****   return tmp;
 587:G:/dt_g1_balancing_plate_wise20192020/XMC/Libraries/XMCLib/inc\xmc_usic.h **** }
 588:G:/dt_g1_balancing_plate_wise20192020/XMC/Libraries/XMCLib/inc\xmc_usic.h **** 
 589:G:/dt_g1_balancing_plate_wise20192020/XMC/Libraries/XMCLib/inc\xmc_usic.h **** /* Common APIs */
 590:G:/dt_g1_balancing_plate_wise20192020/XMC/Libraries/XMCLib/inc\xmc_usic.h **** 
 591:G:/dt_g1_balancing_plate_wise20192020/XMC/Libraries/XMCLib/inc\xmc_usic.h **** /**
 592:G:/dt_g1_balancing_plate_wise20192020/XMC/Libraries/XMCLib/inc\xmc_usic.h ****  * @param  usic Pointer to USIC module handler of type @ref XMC_USIC_t.\n
 593:G:/dt_g1_balancing_plate_wise20192020/XMC/Libraries/XMCLib/inc\xmc_usic.h ****  * 				\b Range: @ref XMC_USIC0 to @ref XMC_USIC2 based on device support.
 594:G:/dt_g1_balancing_plate_wise20192020/XMC/Libraries/XMCLib/inc\xmc_usic.h ****  * @return None
 595:G:/dt_g1_balancing_plate_wise20192020/XMC/Libraries/XMCLib/inc\xmc_usic.h ****  * 
 596:G:/dt_g1_balancing_plate_wise20192020/XMC/Libraries/XMCLib/inc\xmc_usic.h ****  * \par<b>Description</b><br>
 597:G:/dt_g1_balancing_plate_wise20192020/XMC/Libraries/XMCLib/inc\xmc_usic.h ****  * Enables the USIC module.\n\n
 598:G:/dt_g1_balancing_plate_wise20192020/XMC/Libraries/XMCLib/inc\xmc_usic.h ****  * Enables the clock for the USIC module by following the
 599:G:/dt_g1_balancing_plate_wise20192020/XMC/Libraries/XMCLib/inc\xmc_usic.h ****  * clock enabling sequence for the selected device.
 600:G:/dt_g1_balancing_plate_wise20192020/XMC/Libraries/XMCLib/inc\xmc_usic.h ****  *
 601:G:/dt_g1_balancing_plate_wise20192020/XMC/Libraries/XMCLib/inc\xmc_usic.h ****  * \par<b>Related APIs:</b><BR>
 602:G:/dt_g1_balancing_plate_wise20192020/XMC/Libraries/XMCLib/inc\xmc_usic.h ****  * XMC_USIC_CH_Enable(), XMC_USIC_Disable() \n\n\n
 603:G:/dt_g1_balancing_plate_wise20192020/XMC/Libraries/XMCLib/inc\xmc_usic.h ****  */
 604:G:/dt_g1_balancing_plate_wise20192020/XMC/Libraries/XMCLib/inc\xmc_usic.h **** void XMC_USIC_Enable(XMC_USIC_t *const usic);
 605:G:/dt_g1_balancing_plate_wise20192020/XMC/Libraries/XMCLib/inc\xmc_usic.h **** /**
 606:G:/dt_g1_balancing_plate_wise20192020/XMC/Libraries/XMCLib/inc\xmc_usic.h ****  * @param  usic Pointer to USIC module handler of type @ref XMC_USIC_t.\n
 607:G:/dt_g1_balancing_plate_wise20192020/XMC/Libraries/XMCLib/inc\xmc_usic.h ****  * 				\b Range: @ref XMC_USIC0 to @ref XMC_USIC2 based on device support.
 608:G:/dt_g1_balancing_plate_wise20192020/XMC/Libraries/XMCLib/inc\xmc_usic.h ****  * @return None
 609:G:/dt_g1_balancing_plate_wise20192020/XMC/Libraries/XMCLib/inc\xmc_usic.h ****  *
 610:G:/dt_g1_balancing_plate_wise20192020/XMC/Libraries/XMCLib/inc\xmc_usic.h ****  * \par<b>Description</b><br>
 611:G:/dt_g1_balancing_plate_wise20192020/XMC/Libraries/XMCLib/inc\xmc_usic.h ****  * Disables the USIC module.\n\n
 612:G:/dt_g1_balancing_plate_wise20192020/XMC/Libraries/XMCLib/inc\xmc_usic.h ****  * Disables the clock for the USIC module by following the clock
 613:G:/dt_g1_balancing_plate_wise20192020/XMC/Libraries/XMCLib/inc\xmc_usic.h ****  * disabling sequence for the selected device.
 614:G:/dt_g1_balancing_plate_wise20192020/XMC/Libraries/XMCLib/inc\xmc_usic.h ****  *
 615:G:/dt_g1_balancing_plate_wise20192020/XMC/Libraries/XMCLib/inc\xmc_usic.h ****  * \par<b>Related APIs:</b><BR>
 616:G:/dt_g1_balancing_plate_wise20192020/XMC/Libraries/XMCLib/inc\xmc_usic.h ****  * XMC_USIC_CH_Disable(), XMC_USIC_Enable() \n\n\n
 617:G:/dt_g1_balancing_plate_wise20192020/XMC/Libraries/XMCLib/inc\xmc_usic.h ****  */
 618:G:/dt_g1_balancing_plate_wise20192020/XMC/Libraries/XMCLib/inc\xmc_usic.h **** void XMC_USIC_Disable(XMC_USIC_t *const usic);
 619:G:/dt_g1_balancing_plate_wise20192020/XMC/Libraries/XMCLib/inc\xmc_usic.h **** /**
 620:G:/dt_g1_balancing_plate_wise20192020/XMC/Libraries/XMCLib/inc\xmc_usic.h ****  * @param  channel Pointer to USIC channel handler of type @ref XMC_USIC_CH_t \n
 621:G:/dt_g1_balancing_plate_wise20192020/XMC/Libraries/XMCLib/inc\xmc_usic.h ****  * 				   \b Range: @ref XMC_USIC0_CH0, @ref XMC_USIC0_CH1 to @ref XMC_USIC2_CH1 based on device su
 622:G:/dt_g1_balancing_plate_wise20192020/XMC/Libraries/XMCLib/inc\xmc_usic.h ****  * @return None
 623:G:/dt_g1_balancing_plate_wise20192020/XMC/Libraries/XMCLib/inc\xmc_usic.h ****  *
 624:G:/dt_g1_balancing_plate_wise20192020/XMC/Libraries/XMCLib/inc\xmc_usic.h ****  * \par<b>Description</b><br>
 625:G:/dt_g1_balancing_plate_wise20192020/XMC/Libraries/XMCLib/inc\xmc_usic.h ****  * Enables the USIC channel. \n\n
 626:G:/dt_g1_balancing_plate_wise20192020/XMC/Libraries/XMCLib/inc\xmc_usic.h ****  * USIC channel is enabled by setting the module enable bit in KSCFG register bitfield MODEN.
 627:G:/dt_g1_balancing_plate_wise20192020/XMC/Libraries/XMCLib/inc\xmc_usic.h ****  * On enabling, the channel is set to idle mode.
 628:G:/dt_g1_balancing_plate_wise20192020/XMC/Libraries/XMCLib/inc\xmc_usic.h ****  *
 629:G:/dt_g1_balancing_plate_wise20192020/XMC/Libraries/XMCLib/inc\xmc_usic.h ****  * \par<b>Related APIs:</b><BR>
 630:G:/dt_g1_balancing_plate_wise20192020/XMC/Libraries/XMCLib/inc\xmc_usic.h ****  * XMC_USIC_CH_Disable(), XMC_USIC_Enable() \n\n\n
 631:G:/dt_g1_balancing_plate_wise20192020/XMC/Libraries/XMCLib/inc\xmc_usic.h ****  */
 632:G:/dt_g1_balancing_plate_wise20192020/XMC/Libraries/XMCLib/inc\xmc_usic.h **** void XMC_USIC_CH_Enable(XMC_USIC_CH_t *const channel);
 633:G:/dt_g1_balancing_plate_wise20192020/XMC/Libraries/XMCLib/inc\xmc_usic.h **** /**
 634:G:/dt_g1_balancing_plate_wise20192020/XMC/Libraries/XMCLib/inc\xmc_usic.h ****  * @param  channel Pointer to USIC channel handler of type @ref XMC_USIC_CH_t \n
 635:G:/dt_g1_balancing_plate_wise20192020/XMC/Libraries/XMCLib/inc\xmc_usic.h ****  * 				   \b Range: @ref XMC_USIC0_CH0, @ref XMC_USIC0_CH1 to @ref XMC_USIC2_CH1 based on device su
 636:G:/dt_g1_balancing_plate_wise20192020/XMC/Libraries/XMCLib/inc\xmc_usic.h ****  * @return None
 637:G:/dt_g1_balancing_plate_wise20192020/XMC/Libraries/XMCLib/inc\xmc_usic.h ****  *
 638:G:/dt_g1_balancing_plate_wise20192020/XMC/Libraries/XMCLib/inc\xmc_usic.h ****  * \par<b>Description</b><br>
 639:G:/dt_g1_balancing_plate_wise20192020/XMC/Libraries/XMCLib/inc\xmc_usic.h ****  * Disables the USIC channel.\n\n
 640:G:/dt_g1_balancing_plate_wise20192020/XMC/Libraries/XMCLib/inc\xmc_usic.h ****  * USIC channel is disabled by setting the module enable bit(MDEN) to 0 in the register KSCFG.
 641:G:/dt_g1_balancing_plate_wise20192020/XMC/Libraries/XMCLib/inc\xmc_usic.h ****  *
 642:G:/dt_g1_balancing_plate_wise20192020/XMC/Libraries/XMCLib/inc\xmc_usic.h ****  * \par<b>Related APIs:</b><BR>
 643:G:/dt_g1_balancing_plate_wise20192020/XMC/Libraries/XMCLib/inc\xmc_usic.h ****  * XMC_USIC_CH_Enable(), XMC_USIC_Disable() \n\n\n
 644:G:/dt_g1_balancing_plate_wise20192020/XMC/Libraries/XMCLib/inc\xmc_usic.h ****  */
 645:G:/dt_g1_balancing_plate_wise20192020/XMC/Libraries/XMCLib/inc\xmc_usic.h **** void XMC_USIC_CH_Disable(XMC_USIC_CH_t *const channel);
 646:G:/dt_g1_balancing_plate_wise20192020/XMC/Libraries/XMCLib/inc\xmc_usic.h **** 
 647:G:/dt_g1_balancing_plate_wise20192020/XMC/Libraries/XMCLib/inc\xmc_usic.h **** /**
 648:G:/dt_g1_balancing_plate_wise20192020/XMC/Libraries/XMCLib/inc\xmc_usic.h ****  * @param  channel Pointer to USIC channel handler of type @ref XMC_USIC_CH_t \n
 649:G:/dt_g1_balancing_plate_wise20192020/XMC/Libraries/XMCLib/inc\xmc_usic.h ****  * 				   \b Range: @ref XMC_USIC0_CH0, @ref XMC_USIC0_CH1 to @ref XMC_USIC2_CH1 based on device su
 650:G:/dt_g1_balancing_plate_wise20192020/XMC/Libraries/XMCLib/inc\xmc_usic.h ****  * @param  rate Desired baudrate. \b Range: minimum value = 100, maximum value depends on the perip
 651:G:/dt_g1_balancing_plate_wise20192020/XMC/Libraries/XMCLib/inc\xmc_usic.h ****  * 				and \a oversampling. Maximum baudrate can be derived using the formula: (fperiph * 1023)/(10
 652:G:/dt_g1_balancing_plate_wise20192020/XMC/Libraries/XMCLib/inc\xmc_usic.h ****  * @param  oversampling Required oversampling. The value indicates the number of time quanta for on
 653:G:/dt_g1_balancing_plate_wise20192020/XMC/Libraries/XMCLib/inc\xmc_usic.h ****  * 						This can be related to the number of samples for each logic state of the data signal. \n
 654:G:/dt_g1_balancing_plate_wise20192020/XMC/Libraries/XMCLib/inc\xmc_usic.h ****  * 						\b Range: 1 to 32. Value should be chosen based on the protocol used.
 655:G:/dt_g1_balancing_plate_wise20192020/XMC/Libraries/XMCLib/inc\xmc_usic.h ****  * @return Status indicating the baudrate configuration.\n
 656:G:/dt_g1_balancing_plate_wise20192020/XMC/Libraries/XMCLib/inc\xmc_usic.h ****  * 			\b Range: @ref XMC_USIC_CH_STATUS_OK if baudrate is successfully configured,
 657:G:/dt_g1_balancing_plate_wise20192020/XMC/Libraries/XMCLib/inc\xmc_usic.h ****  * 					  @ref XMC_USIC_CH_STATUS_ERROR if desired baudrate or oversampling is invalid.
 658:G:/dt_g1_balancing_plate_wise20192020/XMC/Libraries/XMCLib/inc\xmc_usic.h ****  *
 659:G:/dt_g1_balancing_plate_wise20192020/XMC/Libraries/XMCLib/inc\xmc_usic.h ****  * \par<b>Description</b><br>
 660:G:/dt_g1_balancing_plate_wise20192020/XMC/Libraries/XMCLib/inc\xmc_usic.h ****  * Configures the baudrate of the USIC channel. \n\n
 661:G:/dt_g1_balancing_plate_wise20192020/XMC/Libraries/XMCLib/inc\xmc_usic.h ****  * Baudrate is configured by considering the peripheral frequency and the desired baudrate.
 662:G:/dt_g1_balancing_plate_wise20192020/XMC/Libraries/XMCLib/inc\xmc_usic.h ****  * Optimum values of FDR->STEP and BRG->PDIV are calulated and used for generating the desired
 663:G:/dt_g1_balancing_plate_wise20192020/XMC/Libraries/XMCLib/inc\xmc_usic.h ****  * baudrate.
 664:G:/dt_g1_balancing_plate_wise20192020/XMC/Libraries/XMCLib/inc\xmc_usic.h ****  *
 665:G:/dt_g1_balancing_plate_wise20192020/XMC/Libraries/XMCLib/inc\xmc_usic.h ****  * \par<b>Related APIs:</b><BR>
 666:G:/dt_g1_balancing_plate_wise20192020/XMC/Libraries/XMCLib/inc\xmc_usic.h ****  * XMC_USIC_CH_SetStartTransmisionMode(), XMC_USIC_CH_SetInputSource() \n\n\n
 667:G:/dt_g1_balancing_plate_wise20192020/XMC/Libraries/XMCLib/inc\xmc_usic.h ****  */
 668:G:/dt_g1_balancing_plate_wise20192020/XMC/Libraries/XMCLib/inc\xmc_usic.h **** XMC_USIC_CH_STATUS_t XMC_USIC_CH_SetBaudrate(XMC_USIC_CH_t *const channel, uint32_t rate, uint32_t 
 669:G:/dt_g1_balancing_plate_wise20192020/XMC/Libraries/XMCLib/inc\xmc_usic.h **** 
 670:G:/dt_g1_balancing_plate_wise20192020/XMC/Libraries/XMCLib/inc\xmc_usic.h **** /**
 671:G:/dt_g1_balancing_plate_wise20192020/XMC/Libraries/XMCLib/inc\xmc_usic.h ****  * @param  channel Pointer to USIC channel handler of type @ref XMC_USIC_CH_t \n
 672:G:/dt_g1_balancing_plate_wise20192020/XMC/Libraries/XMCLib/inc\xmc_usic.h ****  *           \b Range: @ref XMC_USIC0_CH0, @ref XMC_USIC0_CH1 to @ref XMC_USIC2_CH1 based on device
 673:G:/dt_g1_balancing_plate_wise20192020/XMC/Libraries/XMCLib/inc\xmc_usic.h ****  * @param  rate Desired baudrate. Only integer dividers of peripheral clock are achievable
 674:G:/dt_g1_balancing_plate_wise20192020/XMC/Libraries/XMCLib/inc\xmc_usic.h ****  * @param  oversampling Required oversampling. The value indicates the number of time quanta for on
 675:G:/dt_g1_balancing_plate_wise20192020/XMC/Libraries/XMCLib/inc\xmc_usic.h ****  *            This can be related to the number of samples for each logic state of the data signal.
 676:G:/dt_g1_balancing_plate_wise20192020/XMC/Libraries/XMCLib/inc\xmc_usic.h ****  *            \b Range: 1 to 32. Value should be chosen based on the protocol used.
 677:G:/dt_g1_balancing_plate_wise20192020/XMC/Libraries/XMCLib/inc\xmc_usic.h ****  * @return Status indicating the baudrate configuration.\n
 678:G:/dt_g1_balancing_plate_wise20192020/XMC/Libraries/XMCLib/inc\xmc_usic.h ****  *      \b Range: @ref XMC_USIC_CH_STATUS_OK if baudrate is successfully configured,
 679:G:/dt_g1_balancing_plate_wise20192020/XMC/Libraries/XMCLib/inc\xmc_usic.h ****  *            @ref XMC_USIC_CH_STATUS_ERROR if desired baudrate or oversampling is invalid.
 680:G:/dt_g1_balancing_plate_wise20192020/XMC/Libraries/XMCLib/inc\xmc_usic.h ****  *
 681:G:/dt_g1_balancing_plate_wise20192020/XMC/Libraries/XMCLib/inc\xmc_usic.h ****  * \par<b>Description</b><br>
 682:G:/dt_g1_balancing_plate_wise20192020/XMC/Libraries/XMCLib/inc\xmc_usic.h ****  * Configures the baudrate of the USIC channel using the integer divider which restrics the achieva
 683:G:/dt_g1_balancing_plate_wise20192020/XMC/Libraries/XMCLib/inc\xmc_usic.h ****  * Baudrate is configured by considering the peripheral frequency and the desired baudrate.
 684:G:/dt_g1_balancing_plate_wise20192020/XMC/Libraries/XMCLib/inc\xmc_usic.h ****  * Optimum values of FDR->STEP and BRG->PDIV are calulated and used for generating the desired
 685:G:/dt_g1_balancing_plate_wise20192020/XMC/Libraries/XMCLib/inc\xmc_usic.h ****  * baudrate.
 686:G:/dt_g1_balancing_plate_wise20192020/XMC/Libraries/XMCLib/inc\xmc_usic.h ****  *
 687:G:/dt_g1_balancing_plate_wise20192020/XMC/Libraries/XMCLib/inc\xmc_usic.h ****  * \par<b>Related APIs:</b><BR>
 688:G:/dt_g1_balancing_plate_wise20192020/XMC/Libraries/XMCLib/inc\xmc_usic.h ****  * XMC_USIC_CH_SetStartTransmisionMode(), XMC_USIC_CH_SetInputSource() \n\n\n
 689:G:/dt_g1_balancing_plate_wise20192020/XMC/Libraries/XMCLib/inc\xmc_usic.h ****  */
 690:G:/dt_g1_balancing_plate_wise20192020/XMC/Libraries/XMCLib/inc\xmc_usic.h **** XMC_USIC_CH_STATUS_t XMC_USIC_CH_SetBaudrateEx(XMC_USIC_CH_t *const channel, uint32_t rate, uint32_
 691:G:/dt_g1_balancing_plate_wise20192020/XMC/Libraries/XMCLib/inc\xmc_usic.h **** 
 692:G:/dt_g1_balancing_plate_wise20192020/XMC/Libraries/XMCLib/inc\xmc_usic.h **** 
 693:G:/dt_g1_balancing_plate_wise20192020/XMC/Libraries/XMCLib/inc\xmc_usic.h **** /**
 694:G:/dt_g1_balancing_plate_wise20192020/XMC/Libraries/XMCLib/inc\xmc_usic.h ****  * @param  channel Pointer to USIC channel handler of type @ref XMC_USIC_CH_t \n
 695:G:/dt_g1_balancing_plate_wise20192020/XMC/Libraries/XMCLib/inc\xmc_usic.h ****  *           \b Range: @ref XMC_USIC0_CH0, @ref XMC_USIC0_CH1 to @ref XMC_USIC2_CH1 based on device
 696:G:/dt_g1_balancing_plate_wise20192020/XMC/Libraries/XMCLib/inc\xmc_usic.h ****  * @return baudrate currently used by USIC channel for .\n
 697:G:/dt_g1_balancing_plate_wise20192020/XMC/Libraries/XMCLib/inc\xmc_usic.h ****  *
 698:G:/dt_g1_balancing_plate_wise20192020/XMC/Libraries/XMCLib/inc\xmc_usic.h ****  * \par<b>Description</b><br>
 699:G:/dt_g1_balancing_plate_wise20192020/XMC/Libraries/XMCLib/inc\xmc_usic.h ****  * Calculates the current used baudrate (fCTQIN) of a USIC channel. \n\n
 700:G:/dt_g1_balancing_plate_wise20192020/XMC/Libraries/XMCLib/inc\xmc_usic.h ****  * @image html ../images/usic_brg.png	 
 701:G:/dt_g1_balancing_plate_wise20192020/XMC/Libraries/XMCLib/inc\xmc_usic.h ****  * @image latex ../images/usic_brg.png	 
 702:G:/dt_g1_balancing_plate_wise20192020/XMC/Libraries/XMCLib/inc\xmc_usic.h ****  *
 703:G:/dt_g1_balancing_plate_wise20192020/XMC/Libraries/XMCLib/inc\xmc_usic.h ****  * \par<b>Related APIs:</b><BR>
 704:G:/dt_g1_balancing_plate_wise20192020/XMC/Libraries/XMCLib/inc\xmc_usic.h ****  * XMC_USIC_CH_SetBaudrateMode(), XMC_USIC_CH_SetBaudrate(), XMC_USIC_CH_SetBaudrateEx() \n\n\n
 705:G:/dt_g1_balancing_plate_wise20192020/XMC/Libraries/XMCLib/inc\xmc_usic.h ****  */
 706:G:/dt_g1_balancing_plate_wise20192020/XMC/Libraries/XMCLib/inc\xmc_usic.h **** uint32_t XMC_USIC_CH_GetBaudrate(XMC_USIC_CH_t *const channel);
 707:G:/dt_g1_balancing_plate_wise20192020/XMC/Libraries/XMCLib/inc\xmc_usic.h **** 
 708:G:/dt_g1_balancing_plate_wise20192020/XMC/Libraries/XMCLib/inc\xmc_usic.h **** /**
 709:G:/dt_g1_balancing_plate_wise20192020/XMC/Libraries/XMCLib/inc\xmc_usic.h ****  * @param  channel Pointer to USIC channel handler of type @ref XMC_USIC_CH_t \n
 710:G:/dt_g1_balancing_plate_wise20192020/XMC/Libraries/XMCLib/inc\xmc_usic.h ****  *           \b Range: @ref XMC_USIC0_CH0, @ref XMC_USIC0_CH1 to @ref XMC_USIC2_CH1 based on device
 711:G:/dt_g1_balancing_plate_wise20192020/XMC/Libraries/XMCLib/inc\xmc_usic.h ****  * @return baudrate currently used by USIC channel.\n
 712:G:/dt_g1_balancing_plate_wise20192020/XMC/Libraries/XMCLib/inc\xmc_usic.h ****  *
 713:G:/dt_g1_balancing_plate_wise20192020/XMC/Libraries/XMCLib/inc\xmc_usic.h ****  * \par<b>Description</b><br>
 714:G:/dt_g1_balancing_plate_wise20192020/XMC/Libraries/XMCLib/inc\xmc_usic.h ****  * Calculates the current used SCLK frequency of a USIC channel. \n\n
 715:G:/dt_g1_balancing_plate_wise20192020/XMC/Libraries/XMCLib/inc\xmc_usic.h ****  * @image html ../images/usic_brg.png	 
 716:G:/dt_g1_balancing_plate_wise20192020/XMC/Libraries/XMCLib/inc\xmc_usic.h ****  * @image latex ../images/usic_brg.png	 
 717:G:/dt_g1_balancing_plate_wise20192020/XMC/Libraries/XMCLib/inc\xmc_usic.h ****  *
 718:G:/dt_g1_balancing_plate_wise20192020/XMC/Libraries/XMCLib/inc\xmc_usic.h ****  * \par<b>Related APIs:</b><BR>
 719:G:/dt_g1_balancing_plate_wise20192020/XMC/Libraries/XMCLib/inc\xmc_usic.h ****  * XMC_USIC_CH_SetBaudrateMode(), XMC_USIC_CH_SetBaudrate(), XMC_USIC_CH_SetBaudrateEx() \n\n\n
 720:G:/dt_g1_balancing_plate_wise20192020/XMC/Libraries/XMCLib/inc\xmc_usic.h ****  */
 721:G:/dt_g1_balancing_plate_wise20192020/XMC/Libraries/XMCLib/inc\xmc_usic.h **** uint32_t XMC_USIC_CH_GetSCLKFrequency(XMC_USIC_CH_t *const channel);
 722:G:/dt_g1_balancing_plate_wise20192020/XMC/Libraries/XMCLib/inc\xmc_usic.h **** 
 723:G:/dt_g1_balancing_plate_wise20192020/XMC/Libraries/XMCLib/inc\xmc_usic.h **** /**
 724:G:/dt_g1_balancing_plate_wise20192020/XMC/Libraries/XMCLib/inc\xmc_usic.h ****  * @param  channel Pointer to USIC channel handler of type @ref XMC_USIC_CH_t \n
 725:G:/dt_g1_balancing_plate_wise20192020/XMC/Libraries/XMCLib/inc\xmc_usic.h ****  *           \b Range: @ref XMC_USIC0_CH0, @ref XMC_USIC0_CH1 to @ref XMC_USIC2_CH1 based on device
 726:G:/dt_g1_balancing_plate_wise20192020/XMC/Libraries/XMCLib/inc\xmc_usic.h ****  * @return baudrate currently used by USIC channel.\n
 727:G:/dt_g1_balancing_plate_wise20192020/XMC/Libraries/XMCLib/inc\xmc_usic.h ****  *
 728:G:/dt_g1_balancing_plate_wise20192020/XMC/Libraries/XMCLib/inc\xmc_usic.h ****  * \par<b>Description</b><br>
 729:G:/dt_g1_balancing_plate_wise20192020/XMC/Libraries/XMCLib/inc\xmc_usic.h ****  * Calculates the current used MCLK frequency of a USIC channel. \n\n
 730:G:/dt_g1_balancing_plate_wise20192020/XMC/Libraries/XMCLib/inc\xmc_usic.h ****  * @image html ../images/usic_brg.png	 
 731:G:/dt_g1_balancing_plate_wise20192020/XMC/Libraries/XMCLib/inc\xmc_usic.h ****  * @image latex ../images/usic_brg.png	 
 732:G:/dt_g1_balancing_plate_wise20192020/XMC/Libraries/XMCLib/inc\xmc_usic.h ****  *
 733:G:/dt_g1_balancing_plate_wise20192020/XMC/Libraries/XMCLib/inc\xmc_usic.h ****  * \par<b>Related APIs:</b><BR>
 734:G:/dt_g1_balancing_plate_wise20192020/XMC/Libraries/XMCLib/inc\xmc_usic.h ****  * XMC_USIC_CH_SetBaudrateMode(), XMC_USIC_CH_SetBaudrate(), XMC_USIC_CH_SetBaudrateEx() \n\n\n
 735:G:/dt_g1_balancing_plate_wise20192020/XMC/Libraries/XMCLib/inc\xmc_usic.h ****  */
 736:G:/dt_g1_balancing_plate_wise20192020/XMC/Libraries/XMCLib/inc\xmc_usic.h **** uint32_t XMC_USIC_CH_GetMCLKFrequency(XMC_USIC_CH_t *const channel);
 737:G:/dt_g1_balancing_plate_wise20192020/XMC/Libraries/XMCLib/inc\xmc_usic.h **** 
 738:G:/dt_g1_balancing_plate_wise20192020/XMC/Libraries/XMCLib/inc\xmc_usic.h **** /**
 739:G:/dt_g1_balancing_plate_wise20192020/XMC/Libraries/XMCLib/inc\xmc_usic.h ****  * @param  channel Pointer to USIC channel handler of type @ref XMC_USIC_CH_t \n
 740:G:/dt_g1_balancing_plate_wise20192020/XMC/Libraries/XMCLib/inc\xmc_usic.h ****  * 				   \b Range: @ref XMC_USIC0_CH0, @ref XMC_USIC0_CH1 to @ref XMC_USIC2_CH1 based on device su
 741:G:/dt_g1_balancing_plate_wise20192020/XMC/Libraries/XMCLib/inc\xmc_usic.h ****  * @param  pdiv Desired divider for the external frequency input. \b Range: minimum value = 1, maxi
 742:G:/dt_g1_balancing_plate_wise20192020/XMC/Libraries/XMCLib/inc\xmc_usic.h ****  * @param  oversampling Required oversampling. The value indicates the number of time quanta for on
 743:G:/dt_g1_balancing_plate_wise20192020/XMC/Libraries/XMCLib/inc\xmc_usic.h ****  * 						This can be related to the number of samples for each logic state of the data signal. \n
 744:G:/dt_g1_balancing_plate_wise20192020/XMC/Libraries/XMCLib/inc\xmc_usic.h ****  * 						\b Range: 1 to 32. Value should be chosen based on the protocol used.
 745:G:/dt_g1_balancing_plate_wise20192020/XMC/Libraries/XMCLib/inc\xmc_usic.h ****  * @param  combination_mode Selects which edge of the synchronized(and optionally filtered) signal 
 746:G:/dt_g1_balancing_plate_wise20192020/XMC/Libraries/XMCLib/inc\xmc_usic.h ****  *                          output DXnT of the input stage.
 747:G:/dt_g1_balancing_plate_wise20192020/XMC/Libraries/XMCLib/inc\xmc_usic.h ****  *
 748:G:/dt_g1_balancing_plate_wise20192020/XMC/Libraries/XMCLib/inc\xmc_usic.h ****  * @return None
 749:G:/dt_g1_balancing_plate_wise20192020/XMC/Libraries/XMCLib/inc\xmc_usic.h ****  *
 750:G:/dt_g1_balancing_plate_wise20192020/XMC/Libraries/XMCLib/inc\xmc_usic.h ****  * \par<b>Description</b><br>
 751:G:/dt_g1_balancing_plate_wise20192020/XMC/Libraries/XMCLib/inc\xmc_usic.h ****  * Enables the external frequency input for the Baudrate Generator and configures the divider, over
 752:G:/dt_g1_balancing_plate_wise20192020/XMC/Libraries/XMCLib/inc\xmc_usic.h ****  * the combination mode of the USIC channel. \n\n
 753:G:/dt_g1_balancing_plate_wise20192020/XMC/Libraries/XMCLib/inc\xmc_usic.h ****  *
 754:G:/dt_g1_balancing_plate_wise20192020/XMC/Libraries/XMCLib/inc\xmc_usic.h ****  * \par<b>Related APIs:</b><BR>
 755:G:/dt_g1_balancing_plate_wise20192020/XMC/Libraries/XMCLib/inc\xmc_usic.h ****  * XMC_USIC_CH_SetBRGInputClockSource(), XMC_USIC_CH_SetInputTriggerCombinationMode() \n\n\n
 756:G:/dt_g1_balancing_plate_wise20192020/XMC/Libraries/XMCLib/inc\xmc_usic.h ****  */
 757:G:/dt_g1_balancing_plate_wise20192020/XMC/Libraries/XMCLib/inc\xmc_usic.h **** void XMC_USIC_CH_ConfigExternalInputSignalToBRG(XMC_USIC_CH_t *const channel,
 758:G:/dt_g1_balancing_plate_wise20192020/XMC/Libraries/XMCLib/inc\xmc_usic.h **** 		                                         const uint16_t pdiv,
 759:G:/dt_g1_balancing_plate_wise20192020/XMC/Libraries/XMCLib/inc\xmc_usic.h **** 												 const uint32_t oversampling,
 760:G:/dt_g1_balancing_plate_wise20192020/XMC/Libraries/XMCLib/inc\xmc_usic.h **** 												 const XMC_USIC_CH_INPUT_COMBINATION_MODE_t combination_mode);
 761:G:/dt_g1_balancing_plate_wise20192020/XMC/Libraries/XMCLib/inc\xmc_usic.h **** 
 762:G:/dt_g1_balancing_plate_wise20192020/XMC/Libraries/XMCLib/inc\xmc_usic.h **** /**
 763:G:/dt_g1_balancing_plate_wise20192020/XMC/Libraries/XMCLib/inc\xmc_usic.h ****  * @param  channel Pointer to USIC channel handler of type @ref XMC_USIC_CH_t \n
 764:G:/dt_g1_balancing_plate_wise20192020/XMC/Libraries/XMCLib/inc\xmc_usic.h ****  * 				   \b Range: @ref XMC_USIC0_CH0, @ref XMC_USIC0_CH1 to @ref XMC_USIC2_CH1 based on device su
 765:G:/dt_g1_balancing_plate_wise20192020/XMC/Libraries/XMCLib/inc\xmc_usic.h ****  * @param  input USIC channel input stage of type @ref XMC_USIC_CH_INPUT_t. \n
 766:G:/dt_g1_balancing_plate_wise20192020/XMC/Libraries/XMCLib/inc\xmc_usic.h ****  * 				 \b Range: @ref XMC_USIC_CH_INPUT_DX0 to @ref XMC_USIC_CH_INPUT_DX5
 767:G:/dt_g1_balancing_plate_wise20192020/XMC/Libraries/XMCLib/inc\xmc_usic.h ****  * @param  source Input source select for the input stage. The table below maps the enum value with
 768:G:/dt_g1_balancing_plate_wise20192020/XMC/Libraries/XMCLib/inc\xmc_usic.h ****  * <table><tr><td>0</td><td>DXnA</td></tr><tr><td>1</td><td>DXnB</td></tr><tr><td>2</td><td>DXnC</t
 769:G:/dt_g1_balancing_plate_wise20192020/XMC/Libraries/XMCLib/inc\xmc_usic.h ****  * <tr><td>4</td><td>DXnE</td></tr><tr><td>5</td><td>DXnF</td></tr><tr><td>6</td><td>DXnG</td></tr>
 770:G:/dt_g1_balancing_plate_wise20192020/XMC/Libraries/XMCLib/inc\xmc_usic.h ****  * </tr></table>
 771:G:/dt_g1_balancing_plate_wise20192020/XMC/Libraries/XMCLib/inc\xmc_usic.h ****  * @return None
 772:G:/dt_g1_balancing_plate_wise20192020/XMC/Libraries/XMCLib/inc\xmc_usic.h ****  *
 773:G:/dt_g1_balancing_plate_wise20192020/XMC/Libraries/XMCLib/inc\xmc_usic.h ****  * \par<b>Description</b><br>
 774:G:/dt_g1_balancing_plate_wise20192020/XMC/Libraries/XMCLib/inc\xmc_usic.h ****  * Selects the data source for USIC input stage.\n\n
 775:G:/dt_g1_balancing_plate_wise20192020/XMC/Libraries/XMCLib/inc\xmc_usic.h ****  * Selects the input data signal source among DXnA, DXnB.. DXnG for the input stage. The API can be
 776:G:/dt_g1_balancing_plate_wise20192020/XMC/Libraries/XMCLib/inc\xmc_usic.h ****  * like DX0CR, DX1CR etc. 
 777:G:/dt_g1_balancing_plate_wise20192020/XMC/Libraries/XMCLib/inc\xmc_usic.h ****  *  
 778:G:/dt_g1_balancing_plate_wise20192020/XMC/Libraries/XMCLib/inc\xmc_usic.h ****  * \par<b>Related APIs:</b><BR>
 779:G:/dt_g1_balancing_plate_wise20192020/XMC/Libraries/XMCLib/inc\xmc_usic.h ****  * XMC_USIC_CH_EnableInputInversion(), XMC_USIC_CH_EnableInputDigitalFilter(), XMC_USIC_CH_EnableIn
 780:G:/dt_g1_balancing_plate_wise20192020/XMC/Libraries/XMCLib/inc\xmc_usic.h ****  * XMC_USIC_CH_SetInputSamplingFreq()\n\n\n
 781:G:/dt_g1_balancing_plate_wise20192020/XMC/Libraries/XMCLib/inc\xmc_usic.h ****  */
 782:G:/dt_g1_balancing_plate_wise20192020/XMC/Libraries/XMCLib/inc\xmc_usic.h **** __STATIC_INLINE void XMC_USIC_CH_SetInputSource(XMC_USIC_CH_t *const channel, const XMC_USIC_CH_INP
 783:G:/dt_g1_balancing_plate_wise20192020/XMC/Libraries/XMCLib/inc\xmc_usic.h **** {
 784:G:/dt_g1_balancing_plate_wise20192020/XMC/Libraries/XMCLib/inc\xmc_usic.h ****   channel->DXCR[input] = (uint32_t)((channel->DXCR[input] & (uint32_t)(~USIC_CH_DXCR_DSEL_Msk)) |
 785:G:/dt_g1_balancing_plate_wise20192020/XMC/Libraries/XMCLib/inc\xmc_usic.h ****                          ((uint32_t)source << USIC_CH_DXCR_DSEL_Pos));
 786:G:/dt_g1_balancing_plate_wise20192020/XMC/Libraries/XMCLib/inc\xmc_usic.h **** }
 787:G:/dt_g1_balancing_plate_wise20192020/XMC/Libraries/XMCLib/inc\xmc_usic.h **** /**
 788:G:/dt_g1_balancing_plate_wise20192020/XMC/Libraries/XMCLib/inc\xmc_usic.h ****  * @param  channel Pointer to USIC channel handler of type @ref XMC_USIC_CH_t \n
 789:G:/dt_g1_balancing_plate_wise20192020/XMC/Libraries/XMCLib/inc\xmc_usic.h ****  * 				   \b Range: @ref XMC_USIC0_CH0, @ref XMC_USIC0_CH1 to @ref XMC_USIC2_CH1 based on device su
 790:G:/dt_g1_balancing_plate_wise20192020/XMC/Libraries/XMCLib/inc\xmc_usic.h ****  * @param  input USIC channel input stage of type @ref XMC_USIC_CH_INPUT_t. \n
 791:G:/dt_g1_balancing_plate_wise20192020/XMC/Libraries/XMCLib/inc\xmc_usic.h ****  * 				 \b Range: @ref XMC_USIC_CH_INPUT_DX0 to @ref XMC_USIC_CH_INPUT_DX5
 792:G:/dt_g1_balancing_plate_wise20192020/XMC/Libraries/XMCLib/inc\xmc_usic.h ****  * @return None
 793:G:/dt_g1_balancing_plate_wise20192020/XMC/Libraries/XMCLib/inc\xmc_usic.h ****  *
 794:G:/dt_g1_balancing_plate_wise20192020/XMC/Libraries/XMCLib/inc\xmc_usic.h ****  * \par<b>Description</b><br>
 795:G:/dt_g1_balancing_plate_wise20192020/XMC/Libraries/XMCLib/inc\xmc_usic.h ****  * The input of the data shift unit is controlled by the
 796:G:/dt_g1_balancing_plate_wise20192020/XMC/Libraries/XMCLib/inc\xmc_usic.h ****  * protocol pre-processor. \n\n
 797:G:/dt_g1_balancing_plate_wise20192020/XMC/Libraries/XMCLib/inc\xmc_usic.h ****  *
 798:G:/dt_g1_balancing_plate_wise20192020/XMC/Libraries/XMCLib/inc\xmc_usic.h ****  * \par<b>Related APIs:</b><BR>
 799:G:/dt_g1_balancing_plate_wise20192020/XMC/Libraries/XMCLib/inc\xmc_usic.h ****  * XMC_USIC_CH_ConnectInputDataShiftToDataInput()\n\n\n
 800:G:/dt_g1_balancing_plate_wise20192020/XMC/Libraries/XMCLib/inc\xmc_usic.h ****  */
 801:G:/dt_g1_balancing_plate_wise20192020/XMC/Libraries/XMCLib/inc\xmc_usic.h **** __STATIC_INLINE void XMC_USIC_CH_ConnectInputDataShiftToPPP(XMC_USIC_CH_t *const channel, const XMC
 802:G:/dt_g1_balancing_plate_wise20192020/XMC/Libraries/XMCLib/inc\xmc_usic.h **** {
 803:G:/dt_g1_balancing_plate_wise20192020/XMC/Libraries/XMCLib/inc\xmc_usic.h ****   channel->DXCR[input] &=(uint32_t)~USIC_CH_DXCR_INSW_Msk;
 804:G:/dt_g1_balancing_plate_wise20192020/XMC/Libraries/XMCLib/inc\xmc_usic.h **** }
 805:G:/dt_g1_balancing_plate_wise20192020/XMC/Libraries/XMCLib/inc\xmc_usic.h **** 
 806:G:/dt_g1_balancing_plate_wise20192020/XMC/Libraries/XMCLib/inc\xmc_usic.h **** /**
 807:G:/dt_g1_balancing_plate_wise20192020/XMC/Libraries/XMCLib/inc\xmc_usic.h ****  * @param  channel Pointer to USIC channel handler of type @ref XMC_USIC_CH_t \n
 808:G:/dt_g1_balancing_plate_wise20192020/XMC/Libraries/XMCLib/inc\xmc_usic.h ****  * 				   \b Range: @ref XMC_USIC0_CH0, @ref XMC_USIC0_CH1 to @ref XMC_USIC2_CH1 based on device su
 809:G:/dt_g1_balancing_plate_wise20192020/XMC/Libraries/XMCLib/inc\xmc_usic.h ****  * @param  input USIC channel input stage of type @ref XMC_USIC_CH_INPUT_t. \n
 810:G:/dt_g1_balancing_plate_wise20192020/XMC/Libraries/XMCLib/inc\xmc_usic.h ****  * 				 \b Range: @ref XMC_USIC_CH_INPUT_DX0 to @ref XMC_USIC_CH_INPUT_DX5
 811:G:/dt_g1_balancing_plate_wise20192020/XMC/Libraries/XMCLib/inc\xmc_usic.h ****  * @return None
 812:G:/dt_g1_balancing_plate_wise20192020/XMC/Libraries/XMCLib/inc\xmc_usic.h ****  *
 813:G:/dt_g1_balancing_plate_wise20192020/XMC/Libraries/XMCLib/inc\xmc_usic.h ****  * \par<b>Description</b><br>
 814:G:/dt_g1_balancing_plate_wise20192020/XMC/Libraries/XMCLib/inc\xmc_usic.h ****  * The input of the data shift unit is connected to
 815:G:/dt_g1_balancing_plate_wise20192020/XMC/Libraries/XMCLib/inc\xmc_usic.h ****  * the selected data input line. \n\n
 816:G:/dt_g1_balancing_plate_wise20192020/XMC/Libraries/XMCLib/inc\xmc_usic.h ****  *
 817:G:/dt_g1_balancing_plate_wise20192020/XMC/Libraries/XMCLib/inc\xmc_usic.h ****  * This setting is used
 818:G:/dt_g1_balancing_plate_wise20192020/XMC/Libraries/XMCLib/inc\xmc_usic.h ****  * if the signals are directly derived from an input
 819:G:/dt_g1_balancing_plate_wise20192020/XMC/Libraries/XMCLib/inc\xmc_usic.h ****  * pin without treatment by the protocol preprocessor.
 820:G:/dt_g1_balancing_plate_wise20192020/XMC/Libraries/XMCLib/inc\xmc_usic.h ****  * \par<b>Related APIs:</b><BR>
 821:G:/dt_g1_balancing_plate_wise20192020/XMC/Libraries/XMCLib/inc\xmc_usic.h ****  * XMC_USIC_CH_ConnectInputDataShiftToPPP()\n\n\n
 822:G:/dt_g1_balancing_plate_wise20192020/XMC/Libraries/XMCLib/inc\xmc_usic.h ****  */
 823:G:/dt_g1_balancing_plate_wise20192020/XMC/Libraries/XMCLib/inc\xmc_usic.h **** __STATIC_INLINE void XMC_USIC_CH_ConnectInputDataShiftToDataInput(XMC_USIC_CH_t *const channel, con
 824:G:/dt_g1_balancing_plate_wise20192020/XMC/Libraries/XMCLib/inc\xmc_usic.h **** {
 825:G:/dt_g1_balancing_plate_wise20192020/XMC/Libraries/XMCLib/inc\xmc_usic.h ****   channel->DXCR[input] |= USIC_CH_DXCR_INSW_Msk;
 826:G:/dt_g1_balancing_plate_wise20192020/XMC/Libraries/XMCLib/inc\xmc_usic.h **** }
 827:G:/dt_g1_balancing_plate_wise20192020/XMC/Libraries/XMCLib/inc\xmc_usic.h **** 
 828:G:/dt_g1_balancing_plate_wise20192020/XMC/Libraries/XMCLib/inc\xmc_usic.h **** /**
 829:G:/dt_g1_balancing_plate_wise20192020/XMC/Libraries/XMCLib/inc\xmc_usic.h ****  * @param  channel Pointer to USIC channel handler of type @ref XMC_USIC_CH_t \n
 830:G:/dt_g1_balancing_plate_wise20192020/XMC/Libraries/XMCLib/inc\xmc_usic.h ****  * 				   \b Range: @ref XMC_USIC0_CH0, @ref XMC_USIC0_CH1 to @ref XMC_USIC2_CH1 based on device su
 831:G:/dt_g1_balancing_plate_wise20192020/XMC/Libraries/XMCLib/inc\xmc_usic.h ****  * @param  input USIC channel input stage of type @ref XMC_USIC_CH_INPUT_t. \n
 832:G:/dt_g1_balancing_plate_wise20192020/XMC/Libraries/XMCLib/inc\xmc_usic.h ****  * 				 \b Range: @ref XMC_USIC_CH_INPUT_DX0 to @ref XMC_USIC_CH_INPUT_DX5
 833:G:/dt_g1_balancing_plate_wise20192020/XMC/Libraries/XMCLib/inc\xmc_usic.h ****  * @return None
 834:G:/dt_g1_balancing_plate_wise20192020/XMC/Libraries/XMCLib/inc\xmc_usic.h ****  *
 835:G:/dt_g1_balancing_plate_wise20192020/XMC/Libraries/XMCLib/inc\xmc_usic.h ****  * \par<b>Description</b><br>
 836:G:/dt_g1_balancing_plate_wise20192020/XMC/Libraries/XMCLib/inc\xmc_usic.h ****  * Enables input inversion for USIC channel input data signal. \n\n
 837:G:/dt_g1_balancing_plate_wise20192020/XMC/Libraries/XMCLib/inc\xmc_usic.h ****  *
 838:G:/dt_g1_balancing_plate_wise20192020/XMC/Libraries/XMCLib/inc\xmc_usic.h ****  * Polarity of the input source can be changed to provide inverted data input.
 839:G:/dt_g1_balancing_plate_wise20192020/XMC/Libraries/XMCLib/inc\xmc_usic.h ****  * \par<b>Related APIs:</b><BR>
 840:G:/dt_g1_balancing_plate_wise20192020/XMC/Libraries/XMCLib/inc\xmc_usic.h ****  * XMC_USIC_CH_DisableInputInversion()\n\n\n
 841:G:/dt_g1_balancing_plate_wise20192020/XMC/Libraries/XMCLib/inc\xmc_usic.h ****  */
 842:G:/dt_g1_balancing_plate_wise20192020/XMC/Libraries/XMCLib/inc\xmc_usic.h **** __STATIC_INLINE void XMC_USIC_CH_EnableInputInversion(XMC_USIC_CH_t *const channel, const XMC_USIC_
 843:G:/dt_g1_balancing_plate_wise20192020/XMC/Libraries/XMCLib/inc\xmc_usic.h **** {
 844:G:/dt_g1_balancing_plate_wise20192020/XMC/Libraries/XMCLib/inc\xmc_usic.h ****   channel->DXCR[input] |= USIC_CH_DXCR_DPOL_Msk;
 845:G:/dt_g1_balancing_plate_wise20192020/XMC/Libraries/XMCLib/inc\xmc_usic.h **** }
 846:G:/dt_g1_balancing_plate_wise20192020/XMC/Libraries/XMCLib/inc\xmc_usic.h **** 
 847:G:/dt_g1_balancing_plate_wise20192020/XMC/Libraries/XMCLib/inc\xmc_usic.h **** /**
 848:G:/dt_g1_balancing_plate_wise20192020/XMC/Libraries/XMCLib/inc\xmc_usic.h ****  * @param  channel Pointer to USIC channel handler of type @ref XMC_USIC_CH_t \n
 849:G:/dt_g1_balancing_plate_wise20192020/XMC/Libraries/XMCLib/inc\xmc_usic.h ****  * 				   \b Range: @ref XMC_USIC0_CH0, @ref XMC_USIC0_CH1 to @ref XMC_USIC2_CH1 based on device su
 850:G:/dt_g1_balancing_plate_wise20192020/XMC/Libraries/XMCLib/inc\xmc_usic.h ****  * @param  input USIC channel input stage of type @ref XMC_USIC_CH_INPUT_t. \n
 851:G:/dt_g1_balancing_plate_wise20192020/XMC/Libraries/XMCLib/inc\xmc_usic.h ****  * 				 \b Range: @ref XMC_USIC_CH_INPUT_DX0 to @ref XMC_USIC_CH_INPUT_DX5
 852:G:/dt_g1_balancing_plate_wise20192020/XMC/Libraries/XMCLib/inc\xmc_usic.h ****  * @return None
 853:G:/dt_g1_balancing_plate_wise20192020/XMC/Libraries/XMCLib/inc\xmc_usic.h ****  *
 854:G:/dt_g1_balancing_plate_wise20192020/XMC/Libraries/XMCLib/inc\xmc_usic.h ****  * \par<b>Description</b><br>
 855:G:/dt_g1_balancing_plate_wise20192020/XMC/Libraries/XMCLib/inc\xmc_usic.h ****  * Disables input inversion for USIC channel. \n\n
 856:G:/dt_g1_balancing_plate_wise20192020/XMC/Libraries/XMCLib/inc\xmc_usic.h ****  *
 857:G:/dt_g1_balancing_plate_wise20192020/XMC/Libraries/XMCLib/inc\xmc_usic.h ****  * Resets the input data polarity for the USIC channel input data signal.
 858:G:/dt_g1_balancing_plate_wise20192020/XMC/Libraries/XMCLib/inc\xmc_usic.h ****  * \par<b>Related APIs:</b><BR>
 859:G:/dt_g1_balancing_plate_wise20192020/XMC/Libraries/XMCLib/inc\xmc_usic.h ****  * XMC_USIC_CH_EnableInputInversion()\n\n\n
 860:G:/dt_g1_balancing_plate_wise20192020/XMC/Libraries/XMCLib/inc\xmc_usic.h ****  */
 861:G:/dt_g1_balancing_plate_wise20192020/XMC/Libraries/XMCLib/inc\xmc_usic.h **** __STATIC_INLINE void XMC_USIC_CH_DisableInputInversion(XMC_USIC_CH_t *const channel, const XMC_USIC
 862:G:/dt_g1_balancing_plate_wise20192020/XMC/Libraries/XMCLib/inc\xmc_usic.h **** {
 863:G:/dt_g1_balancing_plate_wise20192020/XMC/Libraries/XMCLib/inc\xmc_usic.h ****   channel->DXCR[input] &=(uint32_t)~USIC_CH_DXCR_DPOL_Msk;
 864:G:/dt_g1_balancing_plate_wise20192020/XMC/Libraries/XMCLib/inc\xmc_usic.h **** }
 865:G:/dt_g1_balancing_plate_wise20192020/XMC/Libraries/XMCLib/inc\xmc_usic.h **** 
 866:G:/dt_g1_balancing_plate_wise20192020/XMC/Libraries/XMCLib/inc\xmc_usic.h **** /**
 867:G:/dt_g1_balancing_plate_wise20192020/XMC/Libraries/XMCLib/inc\xmc_usic.h ****  * @param  channel Pointer to USIC channel handler of type @ref XMC_USIC_CH_t \n
 868:G:/dt_g1_balancing_plate_wise20192020/XMC/Libraries/XMCLib/inc\xmc_usic.h ****  * 				   \b Range: @ref XMC_USIC0_CH0, @ref XMC_USIC0_CH1 to @ref XMC_USIC2_CH1 based on device su
 869:G:/dt_g1_balancing_plate_wise20192020/XMC/Libraries/XMCLib/inc\xmc_usic.h ****  * @return None
 870:G:/dt_g1_balancing_plate_wise20192020/XMC/Libraries/XMCLib/inc\xmc_usic.h ****  *
 871:G:/dt_g1_balancing_plate_wise20192020/XMC/Libraries/XMCLib/inc\xmc_usic.h ****  * \par<b>Description</b><br>
 872:G:/dt_g1_balancing_plate_wise20192020/XMC/Libraries/XMCLib/inc\xmc_usic.h ****  * Enables delay compensation. \n\n
 873:G:/dt_g1_balancing_plate_wise20192020/XMC/Libraries/XMCLib/inc\xmc_usic.h ****  *
 874:G:/dt_g1_balancing_plate_wise20192020/XMC/Libraries/XMCLib/inc\xmc_usic.h ****  * Delay compensation can be applied to the receive path.
 875:G:/dt_g1_balancing_plate_wise20192020/XMC/Libraries/XMCLib/inc\xmc_usic.h ****  * \par<b>Related APIs:</b><BR>
 876:G:/dt_g1_balancing_plate_wise20192020/XMC/Libraries/XMCLib/inc\xmc_usic.h ****  * XMC_USIC_CH_DisableDelayCompensation()\n\n\n
 877:G:/dt_g1_balancing_plate_wise20192020/XMC/Libraries/XMCLib/inc\xmc_usic.h ****  */
 878:G:/dt_g1_balancing_plate_wise20192020/XMC/Libraries/XMCLib/inc\xmc_usic.h **** __STATIC_INLINE void XMC_USIC_CH_EnableDelayCompensation(XMC_USIC_CH_t *const channel)
 879:G:/dt_g1_balancing_plate_wise20192020/XMC/Libraries/XMCLib/inc\xmc_usic.h **** {
 880:G:/dt_g1_balancing_plate_wise20192020/XMC/Libraries/XMCLib/inc\xmc_usic.h ****   channel->DXCR[1U] |= USIC_CH_DX1CR_DCEN_Msk;
 881:G:/dt_g1_balancing_plate_wise20192020/XMC/Libraries/XMCLib/inc\xmc_usic.h **** }
 882:G:/dt_g1_balancing_plate_wise20192020/XMC/Libraries/XMCLib/inc\xmc_usic.h **** 
 883:G:/dt_g1_balancing_plate_wise20192020/XMC/Libraries/XMCLib/inc\xmc_usic.h **** /**
 884:G:/dt_g1_balancing_plate_wise20192020/XMC/Libraries/XMCLib/inc\xmc_usic.h ****  * @param  channel Pointer to USIC channel handler of type @ref XMC_USIC_CH_t \n
 885:G:/dt_g1_balancing_plate_wise20192020/XMC/Libraries/XMCLib/inc\xmc_usic.h ****  * 				   \b Range: @ref XMC_USIC0_CH0, @ref XMC_USIC0_CH1 to @ref XMC_USIC2_CH1 based on device su
 886:G:/dt_g1_balancing_plate_wise20192020/XMC/Libraries/XMCLib/inc\xmc_usic.h ****  * @return None
 887:G:/dt_g1_balancing_plate_wise20192020/XMC/Libraries/XMCLib/inc\xmc_usic.h ****  *
 888:G:/dt_g1_balancing_plate_wise20192020/XMC/Libraries/XMCLib/inc\xmc_usic.h ****  * \par<b>Description</b><br>
 889:G:/dt_g1_balancing_plate_wise20192020/XMC/Libraries/XMCLib/inc\xmc_usic.h ****  * Disables delay compensation.. \n\n
 890:G:/dt_g1_balancing_plate_wise20192020/XMC/Libraries/XMCLib/inc\xmc_usic.h ****  *
 891:G:/dt_g1_balancing_plate_wise20192020/XMC/Libraries/XMCLib/inc\xmc_usic.h ****  * \par<b>Related APIs:</b><BR>
 892:G:/dt_g1_balancing_plate_wise20192020/XMC/Libraries/XMCLib/inc\xmc_usic.h ****  * XMC_USIC_CH_EnableDelayCompensation()\n\n\n
 893:G:/dt_g1_balancing_plate_wise20192020/XMC/Libraries/XMCLib/inc\xmc_usic.h ****  */
 894:G:/dt_g1_balancing_plate_wise20192020/XMC/Libraries/XMCLib/inc\xmc_usic.h **** __STATIC_INLINE void XMC_USIC_CH_DisableDelayCompensation(XMC_USIC_CH_t *const channel)
 895:G:/dt_g1_balancing_plate_wise20192020/XMC/Libraries/XMCLib/inc\xmc_usic.h **** {
 896:G:/dt_g1_balancing_plate_wise20192020/XMC/Libraries/XMCLib/inc\xmc_usic.h ****   channel->DXCR[1U] &=(uint32_t)~USIC_CH_DX1CR_DCEN_Msk;
 897:G:/dt_g1_balancing_plate_wise20192020/XMC/Libraries/XMCLib/inc\xmc_usic.h **** }
 898:G:/dt_g1_balancing_plate_wise20192020/XMC/Libraries/XMCLib/inc\xmc_usic.h **** 
 899:G:/dt_g1_balancing_plate_wise20192020/XMC/Libraries/XMCLib/inc\xmc_usic.h **** /**
 900:G:/dt_g1_balancing_plate_wise20192020/XMC/Libraries/XMCLib/inc\xmc_usic.h ****  * @param  channel Pointer to USIC channel handler of type @ref XMC_USIC_CH_t \n
 901:G:/dt_g1_balancing_plate_wise20192020/XMC/Libraries/XMCLib/inc\xmc_usic.h ****  * 				   \b Range: @ref XMC_USIC0_CH0, @ref XMC_USIC0_CH1 to @ref XMC_USIC2_CH1 based on device su
 902:G:/dt_g1_balancing_plate_wise20192020/XMC/Libraries/XMCLib/inc\xmc_usic.h ****  * @param  input USIC channel input stage of type @ref XMC_USIC_CH_INPUT_t. \n
 903:G:/dt_g1_balancing_plate_wise20192020/XMC/Libraries/XMCLib/inc\xmc_usic.h ****  * 				 \b Range: @ref XMC_USIC_CH_INPUT_DX0 to @ref XMC_USIC_CH_INPUT_DX5
 904:G:/dt_g1_balancing_plate_wise20192020/XMC/Libraries/XMCLib/inc\xmc_usic.h ****  * @return None
 905:G:/dt_g1_balancing_plate_wise20192020/XMC/Libraries/XMCLib/inc\xmc_usic.h ****  *
 906:G:/dt_g1_balancing_plate_wise20192020/XMC/Libraries/XMCLib/inc\xmc_usic.h ****  * \par<b>Description</b><br>
 907:G:/dt_g1_balancing_plate_wise20192020/XMC/Libraries/XMCLib/inc\xmc_usic.h ****  * Enables the input digital filter for USIC channel input data signal. \n\n
 908:G:/dt_g1_balancing_plate_wise20192020/XMC/Libraries/XMCLib/inc\xmc_usic.h ****  * Input data signal from the selected multiplexer will be digitally filtered.
 909:G:/dt_g1_balancing_plate_wise20192020/XMC/Libraries/XMCLib/inc\xmc_usic.h ****  *
 910:G:/dt_g1_balancing_plate_wise20192020/XMC/Libraries/XMCLib/inc\xmc_usic.h ****  * \par<b>Related APIs:</b><BR>
 911:G:/dt_g1_balancing_plate_wise20192020/XMC/Libraries/XMCLib/inc\xmc_usic.h ****  * XMC_USIC_CH_DisableInputDigitalFilter()\n\n\n
 912:G:/dt_g1_balancing_plate_wise20192020/XMC/Libraries/XMCLib/inc\xmc_usic.h ****  */
 913:G:/dt_g1_balancing_plate_wise20192020/XMC/Libraries/XMCLib/inc\xmc_usic.h **** __STATIC_INLINE void XMC_USIC_CH_EnableInputDigitalFilter(XMC_USIC_CH_t *const channel, const XMC_U
 914:G:/dt_g1_balancing_plate_wise20192020/XMC/Libraries/XMCLib/inc\xmc_usic.h **** {
 915:G:/dt_g1_balancing_plate_wise20192020/XMC/Libraries/XMCLib/inc\xmc_usic.h ****   channel->DXCR[input] |= (uint32_t)USIC_CH_DXCR_DFEN_Msk;
 916:G:/dt_g1_balancing_plate_wise20192020/XMC/Libraries/XMCLib/inc\xmc_usic.h **** }
 917:G:/dt_g1_balancing_plate_wise20192020/XMC/Libraries/XMCLib/inc\xmc_usic.h **** /**
 918:G:/dt_g1_balancing_plate_wise20192020/XMC/Libraries/XMCLib/inc\xmc_usic.h ****  * @param  channel Pointer to USIC channel handler of type @ref XMC_USIC_CH_t \n
 919:G:/dt_g1_balancing_plate_wise20192020/XMC/Libraries/XMCLib/inc\xmc_usic.h ****  * 				   \b Range: @ref XMC_USIC0_CH0, @ref XMC_USIC0_CH1 to @ref XMC_USIC2_CH1 based on device su
 920:G:/dt_g1_balancing_plate_wise20192020/XMC/Libraries/XMCLib/inc\xmc_usic.h ****  * @param  input USIC channel input stage of type @ref XMC_USIC_CH_INPUT_t. \n
 921:G:/dt_g1_balancing_plate_wise20192020/XMC/Libraries/XMCLib/inc\xmc_usic.h ****  * 				 \b Range: @ref XMC_USIC_CH_INPUT_DX0 to @ref XMC_USIC_CH_INPUT_DX5
 922:G:/dt_g1_balancing_plate_wise20192020/XMC/Libraries/XMCLib/inc\xmc_usic.h ****  * @return None
 923:G:/dt_g1_balancing_plate_wise20192020/XMC/Libraries/XMCLib/inc\xmc_usic.h ****  *
 924:G:/dt_g1_balancing_plate_wise20192020/XMC/Libraries/XMCLib/inc\xmc_usic.h ****  * \par<b>Description</b><br>
 925:G:/dt_g1_balancing_plate_wise20192020/XMC/Libraries/XMCLib/inc\xmc_usic.h ****  * Disables the input digital filter for USIC channel input data signal. \n\n
 926:G:/dt_g1_balancing_plate_wise20192020/XMC/Libraries/XMCLib/inc\xmc_usic.h ****  * Input data signal from the selected multiplexer will not be digitally filtered.
 927:G:/dt_g1_balancing_plate_wise20192020/XMC/Libraries/XMCLib/inc\xmc_usic.h ****  *
 928:G:/dt_g1_balancing_plate_wise20192020/XMC/Libraries/XMCLib/inc\xmc_usic.h ****  * \par<b>Related APIs:</b><BR>
 929:G:/dt_g1_balancing_plate_wise20192020/XMC/Libraries/XMCLib/inc\xmc_usic.h ****  * XMC_USIC_CH_EnableInputDigitalFilter()\n\n\n
 930:G:/dt_g1_balancing_plate_wise20192020/XMC/Libraries/XMCLib/inc\xmc_usic.h ****  */
 931:G:/dt_g1_balancing_plate_wise20192020/XMC/Libraries/XMCLib/inc\xmc_usic.h **** __STATIC_INLINE void XMC_USIC_CH_DisableInputDigitalFilter(XMC_USIC_CH_t *const channel, const XMC_
 932:G:/dt_g1_balancing_plate_wise20192020/XMC/Libraries/XMCLib/inc\xmc_usic.h **** {
 933:G:/dt_g1_balancing_plate_wise20192020/XMC/Libraries/XMCLib/inc\xmc_usic.h ****   channel->DXCR[input] &=(uint32_t)~USIC_CH_DXCR_DFEN_Msk;
 934:G:/dt_g1_balancing_plate_wise20192020/XMC/Libraries/XMCLib/inc\xmc_usic.h **** }
 935:G:/dt_g1_balancing_plate_wise20192020/XMC/Libraries/XMCLib/inc\xmc_usic.h **** /**
 936:G:/dt_g1_balancing_plate_wise20192020/XMC/Libraries/XMCLib/inc\xmc_usic.h ****  * @param  channel Pointer to USIC channel handler of type @ref XMC_USIC_CH_t \n
 937:G:/dt_g1_balancing_plate_wise20192020/XMC/Libraries/XMCLib/inc\xmc_usic.h ****  * 				   \b Range: @ref XMC_USIC0_CH0, @ref XMC_USIC0_CH1 to @ref XMC_USIC2_CH1 based on device su
 938:G:/dt_g1_balancing_plate_wise20192020/XMC/Libraries/XMCLib/inc\xmc_usic.h ****  * @param  input USIC channel input stage of type @ref XMC_USIC_CH_INPUT_t. \n
 939:G:/dt_g1_balancing_plate_wise20192020/XMC/Libraries/XMCLib/inc\xmc_usic.h ****  * 				 \b Range: @ref XMC_USIC_CH_INPUT_DX0 to @ref XMC_USIC_CH_INPUT_DX5
 940:G:/dt_g1_balancing_plate_wise20192020/XMC/Libraries/XMCLib/inc\xmc_usic.h ****  * @return None
 941:G:/dt_g1_balancing_plate_wise20192020/XMC/Libraries/XMCLib/inc\xmc_usic.h ****  *
 942:G:/dt_g1_balancing_plate_wise20192020/XMC/Libraries/XMCLib/inc\xmc_usic.h ****  * \par<b>Description</b><br>
 943:G:/dt_g1_balancing_plate_wise20192020/XMC/Libraries/XMCLib/inc\xmc_usic.h ****  * Enables input synchronization for the USIC channel input data signal. \n\n
 944:G:/dt_g1_balancing_plate_wise20192020/XMC/Libraries/XMCLib/inc\xmc_usic.h ****  * Input data signal from the selected multiplexer will be synchronized with fPERIPH.
 945:G:/dt_g1_balancing_plate_wise20192020/XMC/Libraries/XMCLib/inc\xmc_usic.h ****  * A noisy signal can be synchronized and filtered by enabling the digital filter.
 946:G:/dt_g1_balancing_plate_wise20192020/XMC/Libraries/XMCLib/inc\xmc_usic.h ****  *
 947:G:/dt_g1_balancing_plate_wise20192020/XMC/Libraries/XMCLib/inc\xmc_usic.h ****  * \par<b>Related APIs:</b><BR>
 948:G:/dt_g1_balancing_plate_wise20192020/XMC/Libraries/XMCLib/inc\xmc_usic.h ****  * XMC_USIC_CH_DisableInputSync(), XMC_USIC_CH_EnableInputDigitalFilter()\n\n\n
 949:G:/dt_g1_balancing_plate_wise20192020/XMC/Libraries/XMCLib/inc\xmc_usic.h ****  */
 950:G:/dt_g1_balancing_plate_wise20192020/XMC/Libraries/XMCLib/inc\xmc_usic.h **** __STATIC_INLINE void XMC_USIC_CH_EnableInputSync(XMC_USIC_CH_t *const channel, const XMC_USIC_CH_IN
 951:G:/dt_g1_balancing_plate_wise20192020/XMC/Libraries/XMCLib/inc\xmc_usic.h **** {
 952:G:/dt_g1_balancing_plate_wise20192020/XMC/Libraries/XMCLib/inc\xmc_usic.h ****   channel->DXCR[input] |=(uint32_t)USIC_CH_DXCR_DSEN_Msk;
 953:G:/dt_g1_balancing_plate_wise20192020/XMC/Libraries/XMCLib/inc\xmc_usic.h **** }
 954:G:/dt_g1_balancing_plate_wise20192020/XMC/Libraries/XMCLib/inc\xmc_usic.h **** /**
 955:G:/dt_g1_balancing_plate_wise20192020/XMC/Libraries/XMCLib/inc\xmc_usic.h ****  * @param  channel Pointer to USIC channel handler of type @ref XMC_USIC_CH_t \n
 956:G:/dt_g1_balancing_plate_wise20192020/XMC/Libraries/XMCLib/inc\xmc_usic.h ****  * 				   \b Range: @ref XMC_USIC0_CH0, @ref XMC_USIC0_CH1 to @ref XMC_USIC2_CH1 based on device su
 957:G:/dt_g1_balancing_plate_wise20192020/XMC/Libraries/XMCLib/inc\xmc_usic.h ****  * @param  input USIC channel input stage of type @ref XMC_USIC_CH_INPUT_t. \n
 958:G:/dt_g1_balancing_plate_wise20192020/XMC/Libraries/XMCLib/inc\xmc_usic.h ****  * 				 \b Range: @ref XMC_USIC_CH_INPUT_DX0 to @ref XMC_USIC_CH_INPUT_DX5
 959:G:/dt_g1_balancing_plate_wise20192020/XMC/Libraries/XMCLib/inc\xmc_usic.h ****  * @return None
 960:G:/dt_g1_balancing_plate_wise20192020/XMC/Libraries/XMCLib/inc\xmc_usic.h ****  *
 961:G:/dt_g1_balancing_plate_wise20192020/XMC/Libraries/XMCLib/inc\xmc_usic.h ****  * \par<b>Description</b><br>
 962:G:/dt_g1_balancing_plate_wise20192020/XMC/Libraries/XMCLib/inc\xmc_usic.h ****  * Disables input synchronization for the USIC channel input data signal. \n\n
 963:G:/dt_g1_balancing_plate_wise20192020/XMC/Libraries/XMCLib/inc\xmc_usic.h ****  * Input data signal from the selected multiplexer will not be synchronized.
 964:G:/dt_g1_balancing_plate_wise20192020/XMC/Libraries/XMCLib/inc\xmc_usic.h ****  *
 965:G:/dt_g1_balancing_plate_wise20192020/XMC/Libraries/XMCLib/inc\xmc_usic.h ****  * \par<b>Related APIs:</b><BR>
 966:G:/dt_g1_balancing_plate_wise20192020/XMC/Libraries/XMCLib/inc\xmc_usic.h ****  * XMC_USIC_CH_EnableInputSync(), XMC_USIC_CH_DisableInputDigitalFilter() \n\n\n
 967:G:/dt_g1_balancing_plate_wise20192020/XMC/Libraries/XMCLib/inc\xmc_usic.h ****  */
 968:G:/dt_g1_balancing_plate_wise20192020/XMC/Libraries/XMCLib/inc\xmc_usic.h **** __STATIC_INLINE void XMC_USIC_CH_DisableInputSync(XMC_USIC_CH_t *const channel, const XMC_USIC_CH_I
 969:G:/dt_g1_balancing_plate_wise20192020/XMC/Libraries/XMCLib/inc\xmc_usic.h **** {
 970:G:/dt_g1_balancing_plate_wise20192020/XMC/Libraries/XMCLib/inc\xmc_usic.h ****   channel->DXCR[input] &=(uint32_t)~USIC_CH_DXCR_DSEN_Msk;
 971:G:/dt_g1_balancing_plate_wise20192020/XMC/Libraries/XMCLib/inc\xmc_usic.h **** }
 972:G:/dt_g1_balancing_plate_wise20192020/XMC/Libraries/XMCLib/inc\xmc_usic.h **** /**
 973:G:/dt_g1_balancing_plate_wise20192020/XMC/Libraries/XMCLib/inc\xmc_usic.h ****  * @param  channel Pointer to USIC channel handler of type @ref XMC_USIC_CH_t \n
 974:G:/dt_g1_balancing_plate_wise20192020/XMC/Libraries/XMCLib/inc\xmc_usic.h ****  * 				   \b Range: @ref XMC_USIC0_CH0, @ref XMC_USIC0_CH1 to @ref XMC_USIC2_CH1 based on device su
 975:G:/dt_g1_balancing_plate_wise20192020/XMC/Libraries/XMCLib/inc\xmc_usic.h ****  * @param  input USIC channel input stage of type @ref XMC_USIC_CH_INPUT_t. \n
 976:G:/dt_g1_balancing_plate_wise20192020/XMC/Libraries/XMCLib/inc\xmc_usic.h ****  * 				 \b Range: @ref XMC_USIC_CH_INPUT_DX0 to @ref XMC_USIC_CH_INPUT_DX5
 977:G:/dt_g1_balancing_plate_wise20192020/XMC/Libraries/XMCLib/inc\xmc_usic.h ****  * @param  sampling_freq Sampling frequency value of type \a XMC_USIC_CH_INPUT_SAMPLING_FREQ_t.
 978:G:/dt_g1_balancing_plate_wise20192020/XMC/Libraries/XMCLib/inc\xmc_usic.h ****  * @return None
 979:G:/dt_g1_balancing_plate_wise20192020/XMC/Libraries/XMCLib/inc\xmc_usic.h ****  *
 980:G:/dt_g1_balancing_plate_wise20192020/XMC/Libraries/XMCLib/inc\xmc_usic.h ****  * \par<b>Description</b><br>
 981:G:/dt_g1_balancing_plate_wise20192020/XMC/Libraries/XMCLib/inc\xmc_usic.h ****  * Sets sampling frequency for USIC channel input data signal. \n\n
 982:G:/dt_g1_balancing_plate_wise20192020/XMC/Libraries/XMCLib/inc\xmc_usic.h ****  *
 983:G:/dt_g1_balancing_plate_wise20192020/XMC/Libraries/XMCLib/inc\xmc_usic.h ****  * \par<b>Related APIs:</b><BR>
 984:G:/dt_g1_balancing_plate_wise20192020/XMC/Libraries/XMCLib/inc\xmc_usic.h ****  * XMC_USIC_CH_SetInputSource(), XMC_USIC_CH_EnableInputSync(), XMC_USIC_CH_EnableInputDigitalFilte
 985:G:/dt_g1_balancing_plate_wise20192020/XMC/Libraries/XMCLib/inc\xmc_usic.h ****  */
 986:G:/dt_g1_balancing_plate_wise20192020/XMC/Libraries/XMCLib/inc\xmc_usic.h **** __STATIC_INLINE void XMC_USIC_CH_SetInputSamplingFreq(XMC_USIC_CH_t *const channel,
 987:G:/dt_g1_balancing_plate_wise20192020/XMC/Libraries/XMCLib/inc\xmc_usic.h **** 		                                              const XMC_USIC_CH_INPUT_t input,
 988:G:/dt_g1_balancing_plate_wise20192020/XMC/Libraries/XMCLib/inc\xmc_usic.h **** 		                                              const XMC_USIC_CH_INPUT_SAMPLING_FREQ_t sampling_fr
 989:G:/dt_g1_balancing_plate_wise20192020/XMC/Libraries/XMCLib/inc\xmc_usic.h **** {
 990:G:/dt_g1_balancing_plate_wise20192020/XMC/Libraries/XMCLib/inc\xmc_usic.h ****   channel->DXCR[input] = (uint32_t)(channel->DXCR[input] & (~USIC_CH_DXCR_SFSEL_Msk)) |
 991:G:/dt_g1_balancing_plate_wise20192020/XMC/Libraries/XMCLib/inc\xmc_usic.h ****                          ((uint32_t)sampling_freq);
 992:G:/dt_g1_balancing_plate_wise20192020/XMC/Libraries/XMCLib/inc\xmc_usic.h **** }
 993:G:/dt_g1_balancing_plate_wise20192020/XMC/Libraries/XMCLib/inc\xmc_usic.h **** 
 994:G:/dt_g1_balancing_plate_wise20192020/XMC/Libraries/XMCLib/inc\xmc_usic.h **** /**
 995:G:/dt_g1_balancing_plate_wise20192020/XMC/Libraries/XMCLib/inc\xmc_usic.h ****  * @param  channel Pointer to USIC channel handler of type @ref XMC_USIC_CH_t \n
 996:G:/dt_g1_balancing_plate_wise20192020/XMC/Libraries/XMCLib/inc\xmc_usic.h ****  * 				   \b Range: @ref XMC_USIC0_CH0, @ref XMC_USIC0_CH1 to @ref XMC_USIC2_CH1 based on device su
 997:G:/dt_g1_balancing_plate_wise20192020/XMC/Libraries/XMCLib/inc\xmc_usic.h ****  * @param  input USIC channel input stage of type @ref XMC_USIC_CH_INPUT_t. \n
 998:G:/dt_g1_balancing_plate_wise20192020/XMC/Libraries/XMCLib/inc\xmc_usic.h ****  * 				 \b Range: @ref XMC_USIC_CH_INPUT_DX0 to @ref XMC_USIC_CH_INPUT_DX5
 999:G:/dt_g1_balancing_plate_wise20192020/XMC/Libraries/XMCLib/inc\xmc_usic.h ****  * @param  combination_mode Combination mode value of type \a XMC_USIC_CH_INPUT_COMBINATION_MODE_t.
1000:G:/dt_g1_balancing_plate_wise20192020/XMC/Libraries/XMCLib/inc\xmc_usic.h ****  * @return None
1001:G:/dt_g1_balancing_plate_wise20192020/XMC/Libraries/XMCLib/inc\xmc_usic.h ****  *
1002:G:/dt_g1_balancing_plate_wise20192020/XMC/Libraries/XMCLib/inc\xmc_usic.h ****  * \par<b>Description</b><br>
1003:G:/dt_g1_balancing_plate_wise20192020/XMC/Libraries/XMCLib/inc\xmc_usic.h ****  * Selects which edge of the synchronized signal DXnS activates the trigger output DXnT of the inpu
1004:G:/dt_g1_balancing_plate_wise20192020/XMC/Libraries/XMCLib/inc\xmc_usic.h ****  *
1005:G:/dt_g1_balancing_plate_wise20192020/XMC/Libraries/XMCLib/inc\xmc_usic.h ****  * \par<b>Related APIs:</b><BR>
1006:G:/dt_g1_balancing_plate_wise20192020/XMC/Libraries/XMCLib/inc\xmc_usic.h ****  * XMC_USIC_CH_SetInputSource(), XMC_USIC_CH_EnableInputSync(), XMC_USIC_CH_EnableInputDigitalFilte
1007:G:/dt_g1_balancing_plate_wise20192020/XMC/Libraries/XMCLib/inc\xmc_usic.h ****  */
1008:G:/dt_g1_balancing_plate_wise20192020/XMC/Libraries/XMCLib/inc\xmc_usic.h **** __STATIC_INLINE void XMC_USIC_CH_SetInputTriggerCombinationMode(XMC_USIC_CH_t *const channel,
1009:G:/dt_g1_balancing_plate_wise20192020/XMC/Libraries/XMCLib/inc\xmc_usic.h **** 		                                                        const XMC_USIC_CH_INPUT_t input,
1010:G:/dt_g1_balancing_plate_wise20192020/XMC/Libraries/XMCLib/inc\xmc_usic.h **** 		                                                        const XMC_USIC_CH_INPUT_COMBINATION_MODE_
1011:G:/dt_g1_balancing_plate_wise20192020/XMC/Libraries/XMCLib/inc\xmc_usic.h **** {
1012:G:/dt_g1_balancing_plate_wise20192020/XMC/Libraries/XMCLib/inc\xmc_usic.h ****   channel->DXCR[input] = (uint32_t)(channel->DXCR[input] & (~USIC_CH_DXCR_CM_Msk)) |
1013:G:/dt_g1_balancing_plate_wise20192020/XMC/Libraries/XMCLib/inc\xmc_usic.h ****                          ((uint32_t)combination_mode << USIC_CH_DXCR_CM_Pos);
1014:G:/dt_g1_balancing_plate_wise20192020/XMC/Libraries/XMCLib/inc\xmc_usic.h **** }
1015:G:/dt_g1_balancing_plate_wise20192020/XMC/Libraries/XMCLib/inc\xmc_usic.h **** 
1016:G:/dt_g1_balancing_plate_wise20192020/XMC/Libraries/XMCLib/inc\xmc_usic.h **** /**
1017:G:/dt_g1_balancing_plate_wise20192020/XMC/Libraries/XMCLib/inc\xmc_usic.h ****  * @param  channel Pointer to USIC channel handler of type @ref XMC_USIC_CH_t \n
1018:G:/dt_g1_balancing_plate_wise20192020/XMC/Libraries/XMCLib/inc\xmc_usic.h ****  * 				   \b Range: @ref XMC_USIC0_CH0, @ref XMC_USIC0_CH1 to @ref XMC_USIC2_CH1 based on device su
1019:G:/dt_g1_balancing_plate_wise20192020/XMC/Libraries/XMCLib/inc\xmc_usic.h ****  * @param  clock_source clock source for the BRG.
1020:G:/dt_g1_balancing_plate_wise20192020/XMC/Libraries/XMCLib/inc\xmc_usic.h ****  * @return None
1021:G:/dt_g1_balancing_plate_wise20192020/XMC/Libraries/XMCLib/inc\xmc_usic.h ****  *
1022:G:/dt_g1_balancing_plate_wise20192020/XMC/Libraries/XMCLib/inc\xmc_usic.h ****  * \par<b>Description</b><br>
1023:G:/dt_g1_balancing_plate_wise20192020/XMC/Libraries/XMCLib/inc\xmc_usic.h ****  * Sets the clock source for the BRG. \n\n
1024:G:/dt_g1_balancing_plate_wise20192020/XMC/Libraries/XMCLib/inc\xmc_usic.h ****  *
1025:G:/dt_g1_balancing_plate_wise20192020/XMC/Libraries/XMCLib/inc\xmc_usic.h ****  * \par<b>Related APIs:</b><BR>
1026:G:/dt_g1_balancing_plate_wise20192020/XMC/Libraries/XMCLib/inc\xmc_usic.h ****  * XMC_USIC_CH_SetInputTriggerCombinationMode(), XMC_USIC_CH_SetExternalClockBRGDivider()\n\n\n
1027:G:/dt_g1_balancing_plate_wise20192020/XMC/Libraries/XMCLib/inc\xmc_usic.h ****  */
1028:G:/dt_g1_balancing_plate_wise20192020/XMC/Libraries/XMCLib/inc\xmc_usic.h **** __STATIC_INLINE void XMC_USIC_CH_SetBRGInputClockSource(XMC_USIC_CH_t *const channel, const XMC_USI
1029:G:/dt_g1_balancing_plate_wise20192020/XMC/Libraries/XMCLib/inc\xmc_usic.h **** {
1030:G:/dt_g1_balancing_plate_wise20192020/XMC/Libraries/XMCLib/inc\xmc_usic.h ****   channel->BRG = (uint32_t)(channel->BRG & (~USIC_CH_BRG_CLKSEL_Msk)) | (uint32_t)(clock_source);
1031:G:/dt_g1_balancing_plate_wise20192020/XMC/Libraries/XMCLib/inc\xmc_usic.h **** }
1032:G:/dt_g1_balancing_plate_wise20192020/XMC/Libraries/XMCLib/inc\xmc_usic.h **** 
1033:G:/dt_g1_balancing_plate_wise20192020/XMC/Libraries/XMCLib/inc\xmc_usic.h **** /**
1034:G:/dt_g1_balancing_plate_wise20192020/XMC/Libraries/XMCLib/inc\xmc_usic.h ****  * @param channel Pointer to USIC channel handler of type @ref XMC_USIC_CH_t \n
1035:G:/dt_g1_balancing_plate_wise20192020/XMC/Libraries/XMCLib/inc\xmc_usic.h ****  * 				   \b Range: @ref XMC_USIC0_CH0, @ref XMC_USIC0_CH1 to @ref XMC_USIC2_CH1 based on device su
1036:G:/dt_g1_balancing_plate_wise20192020/XMC/Libraries/XMCLib/inc\xmc_usic.h ****  * @param data Data to be transmitted. \n
1037:G:/dt_g1_balancing_plate_wise20192020/XMC/Libraries/XMCLib/inc\xmc_usic.h ****  *           \b Range: 16bit unsigned data. minimum= 0, maximum= 65535
1038:G:/dt_g1_balancing_plate_wise20192020/XMC/Libraries/XMCLib/inc\xmc_usic.h ****  * @return None
1039:G:/dt_g1_balancing_plate_wise20192020/XMC/Libraries/XMCLib/inc\xmc_usic.h ****  *
1040:G:/dt_g1_balancing_plate_wise20192020/XMC/Libraries/XMCLib/inc\xmc_usic.h ****  * \par<b>Description</b><br>
1041:G:/dt_g1_balancing_plate_wise20192020/XMC/Libraries/XMCLib/inc\xmc_usic.h ****  * Writes data into the transmit buffer. \n\n
1042:G:/dt_g1_balancing_plate_wise20192020/XMC/Libraries/XMCLib/inc\xmc_usic.h ****  * The data provided is placed in TBUF[0U].
1043:G:/dt_g1_balancing_plate_wise20192020/XMC/Libraries/XMCLib/inc\xmc_usic.h ****  *
1044:G:/dt_g1_balancing_plate_wise20192020/XMC/Libraries/XMCLib/inc\xmc_usic.h ****  *
1045:G:/dt_g1_balancing_plate_wise20192020/XMC/Libraries/XMCLib/inc\xmc_usic.h ****  * \par<b>Related APIs:</b><BR>
1046:G:/dt_g1_balancing_plate_wise20192020/XMC/Libraries/XMCLib/inc\xmc_usic.h ****  * XMC_USIC_CH_WriteToTBUFTCI() \n\n\n
1047:G:/dt_g1_balancing_plate_wise20192020/XMC/Libraries/XMCLib/inc\xmc_usic.h ****  */
1048:G:/dt_g1_balancing_plate_wise20192020/XMC/Libraries/XMCLib/inc\xmc_usic.h **** __STATIC_INLINE void XMC_USIC_CH_WriteToTBUF(XMC_USIC_CH_t *const channel, const uint16_t data)
1049:G:/dt_g1_balancing_plate_wise20192020/XMC/Libraries/XMCLib/inc\xmc_usic.h **** {
1050:G:/dt_g1_balancing_plate_wise20192020/XMC/Libraries/XMCLib/inc\xmc_usic.h ****   channel->TBUF[0U] = data;
1051:G:/dt_g1_balancing_plate_wise20192020/XMC/Libraries/XMCLib/inc\xmc_usic.h **** }
1052:G:/dt_g1_balancing_plate_wise20192020/XMC/Libraries/XMCLib/inc\xmc_usic.h **** 
1053:G:/dt_g1_balancing_plate_wise20192020/XMC/Libraries/XMCLib/inc\xmc_usic.h **** /**
1054:G:/dt_g1_balancing_plate_wise20192020/XMC/Libraries/XMCLib/inc\xmc_usic.h ****  * @param channel Pointer to USIC channel handler of type @ref XMC_USIC_CH_t \n
1055:G:/dt_g1_balancing_plate_wise20192020/XMC/Libraries/XMCLib/inc\xmc_usic.h ****  * 				   \b Range: @ref XMC_USIC0_CH0, @ref XMC_USIC0_CH1 to @ref XMC_USIC2_CH1 based on device su
1056:G:/dt_g1_balancing_plate_wise20192020/XMC/Libraries/XMCLib/inc\xmc_usic.h ****  * @param data Data to be transmitted.
1057:G:/dt_g1_balancing_plate_wise20192020/XMC/Libraries/XMCLib/inc\xmc_usic.h ****  * @param transmit_control_information transmit control information to be configured while transmit
1058:G:/dt_g1_balancing_plate_wise20192020/XMC/Libraries/XMCLib/inc\xmc_usic.h ****  * 			\b Range: minimum= 0, maximum= 31.
1059:G:/dt_g1_balancing_plate_wise20192020/XMC/Libraries/XMCLib/inc\xmc_usic.h ****  * @return None
1060:G:/dt_g1_balancing_plate_wise20192020/XMC/Libraries/XMCLib/inc\xmc_usic.h ****  *
1061:G:/dt_g1_balancing_plate_wise20192020/XMC/Libraries/XMCLib/inc\xmc_usic.h ****  * \par<b>Description</b><br>
1062:G:/dt_g1_balancing_plate_wise20192020/XMC/Libraries/XMCLib/inc\xmc_usic.h ****  * Writes data to the transmit buffer in a control mode. \n\n
1063:G:/dt_g1_balancing_plate_wise20192020/XMC/Libraries/XMCLib/inc\xmc_usic.h ****  * When the respective control mode is enabled , this API can be used.
1064:G:/dt_g1_balancing_plate_wise20192020/XMC/Libraries/XMCLib/inc\xmc_usic.h ****  *
1065:G:/dt_g1_balancing_plate_wise20192020/XMC/Libraries/XMCLib/inc\xmc_usic.h ****  *
1066:G:/dt_g1_balancing_plate_wise20192020/XMC/Libraries/XMCLib/inc\xmc_usic.h ****  * \par<b>Related APIs:</b><BR>
1067:G:/dt_g1_balancing_plate_wise20192020/XMC/Libraries/XMCLib/inc\xmc_usic.h ****  * XMC_USIC_CH_WriteToTBUF() \n\n\n
1068:G:/dt_g1_balancing_plate_wise20192020/XMC/Libraries/XMCLib/inc\xmc_usic.h ****  */
1069:G:/dt_g1_balancing_plate_wise20192020/XMC/Libraries/XMCLib/inc\xmc_usic.h **** __STATIC_INLINE void XMC_USIC_CH_WriteToTBUFTCI(XMC_USIC_CH_t *const channel,
1070:G:/dt_g1_balancing_plate_wise20192020/XMC/Libraries/XMCLib/inc\xmc_usic.h ****                                              const uint16_t data,
1071:G:/dt_g1_balancing_plate_wise20192020/XMC/Libraries/XMCLib/inc\xmc_usic.h ****                                              const uint32_t transmit_control_information)
1072:G:/dt_g1_balancing_plate_wise20192020/XMC/Libraries/XMCLib/inc\xmc_usic.h **** {
1073:G:/dt_g1_balancing_plate_wise20192020/XMC/Libraries/XMCLib/inc\xmc_usic.h ****   channel->TBUF[transmit_control_information] = data;
1074:G:/dt_g1_balancing_plate_wise20192020/XMC/Libraries/XMCLib/inc\xmc_usic.h **** }
1075:G:/dt_g1_balancing_plate_wise20192020/XMC/Libraries/XMCLib/inc\xmc_usic.h **** 
1076:G:/dt_g1_balancing_plate_wise20192020/XMC/Libraries/XMCLib/inc\xmc_usic.h **** /**
1077:G:/dt_g1_balancing_plate_wise20192020/XMC/Libraries/XMCLib/inc\xmc_usic.h ****  * @param  channel Pointer to USIC channel handler of type @ref XMC_USIC_CH_t \n
1078:G:/dt_g1_balancing_plate_wise20192020/XMC/Libraries/XMCLib/inc\xmc_usic.h ****  * 				   \b Range: @ref XMC_USIC0_CH0, @ref XMC_USIC0_CH1 to @ref XMC_USIC2_CH1 based on device su
1079:G:/dt_g1_balancing_plate_wise20192020/XMC/Libraries/XMCLib/inc\xmc_usic.h ****  * @param  word_length Number of bits to be configured for a data word. \n
1080:G:/dt_g1_balancing_plate_wise20192020/XMC/Libraries/XMCLib/inc\xmc_usic.h ****  * 					   \b Range: minimum= 1, maximum= 16. \n
1081:G:/dt_g1_balancing_plate_wise20192020/XMC/Libraries/XMCLib/inc\xmc_usic.h ****  * 					   e.g: For word length of 8, \a word_length should be provided as 8.
1082:G:/dt_g1_balancing_plate_wise20192020/XMC/Libraries/XMCLib/inc\xmc_usic.h ****  * @return None
1083:G:/dt_g1_balancing_plate_wise20192020/XMC/Libraries/XMCLib/inc\xmc_usic.h ****  *
1084:G:/dt_g1_balancing_plate_wise20192020/XMC/Libraries/XMCLib/inc\xmc_usic.h ****  * \par<b>Description</b><br>
1085:G:/dt_g1_balancing_plate_wise20192020/XMC/Libraries/XMCLib/inc\xmc_usic.h ****  * Sets the data word length in number of bits. \n\n
1086:G:/dt_g1_balancing_plate_wise20192020/XMC/Libraries/XMCLib/inc\xmc_usic.h ****  * Sets the number of bits to represent a data word. Frame length should be a multiple of word leng
1087:G:/dt_g1_balancing_plate_wise20192020/XMC/Libraries/XMCLib/inc\xmc_usic.h ****  *
1088:G:/dt_g1_balancing_plate_wise20192020/XMC/Libraries/XMCLib/inc\xmc_usic.h ****  * \par<b>Related APIs:</b><BR>
1089:G:/dt_g1_balancing_plate_wise20192020/XMC/Libraries/XMCLib/inc\xmc_usic.h ****  * XMC_USIC_CH_SetFrameLength()\n\n\n
1090:G:/dt_g1_balancing_plate_wise20192020/XMC/Libraries/XMCLib/inc\xmc_usic.h ****  */
1091:G:/dt_g1_balancing_plate_wise20192020/XMC/Libraries/XMCLib/inc\xmc_usic.h **** __STATIC_INLINE void XMC_USIC_CH_SetWordLength(XMC_USIC_CH_t *const channel, const uint8_t word_len
1092:G:/dt_g1_balancing_plate_wise20192020/XMC/Libraries/XMCLib/inc\xmc_usic.h **** {
1093:G:/dt_g1_balancing_plate_wise20192020/XMC/Libraries/XMCLib/inc\xmc_usic.h ****   channel->SCTR = (uint32_t)(channel->SCTR & (~USIC_CH_SCTR_WLE_Msk)) |
1094:G:/dt_g1_balancing_plate_wise20192020/XMC/Libraries/XMCLib/inc\xmc_usic.h ****                   (uint32_t)(((uint32_t)word_length - 1UL)  << USIC_CH_SCTR_WLE_Pos);
1095:G:/dt_g1_balancing_plate_wise20192020/XMC/Libraries/XMCLib/inc\xmc_usic.h **** }
1096:G:/dt_g1_balancing_plate_wise20192020/XMC/Libraries/XMCLib/inc\xmc_usic.h **** 
1097:G:/dt_g1_balancing_plate_wise20192020/XMC/Libraries/XMCLib/inc\xmc_usic.h **** /**
1098:G:/dt_g1_balancing_plate_wise20192020/XMC/Libraries/XMCLib/inc\xmc_usic.h ****  * @param  channel Pointer to USIC channel handler of type @ref XMC_USIC_CH_t \n
1099:G:/dt_g1_balancing_plate_wise20192020/XMC/Libraries/XMCLib/inc\xmc_usic.h ****  *           \b Range: @ref XMC_USIC0_CH0, @ref XMC_USIC0_CH1 to @ref XMC_USIC2_CH1 based on device
1100:G:/dt_g1_balancing_plate_wise20192020/XMC/Libraries/XMCLib/inc\xmc_usic.h ****  * @param  word_length Number of bits to be configured for a data word. \n
1101:G:/dt_g1_balancing_plate_wise20192020/XMC/Libraries/XMCLib/inc\xmc_usic.h ****  *             \b Range: minimum= 1, maximum= 16. \n
1102:G:/dt_g1_balancing_plate_wise20192020/XMC/Libraries/XMCLib/inc\xmc_usic.h ****  *             e.g: For word length of 8, \a word_length should be provided as 8.
1103:G:/dt_g1_balancing_plate_wise20192020/XMC/Libraries/XMCLib/inc\xmc_usic.h ****  * @return None
1104:G:/dt_g1_balancing_plate_wise20192020/XMC/Libraries/XMCLib/inc\xmc_usic.h ****  *
1105:G:/dt_g1_balancing_plate_wise20192020/XMC/Libraries/XMCLib/inc\xmc_usic.h ****  * \par<b>Description</b><br>
1106:G:/dt_g1_balancing_plate_wise20192020/XMC/Libraries/XMCLib/inc\xmc_usic.h ****  * Sets the data word length in number of bits. \n\n
1107:G:/dt_g1_balancing_plate_wise20192020/XMC/Libraries/XMCLib/inc\xmc_usic.h ****  * Sets the number of bits to represent a data word. Frame length should be a multiple of word leng
1108:G:/dt_g1_balancing_plate_wise20192020/XMC/Libraries/XMCLib/inc\xmc_usic.h ****  *
1109:G:/dt_g1_balancing_plate_wise20192020/XMC/Libraries/XMCLib/inc\xmc_usic.h ****  * \par<b>Related APIs:</b><BR>
1110:G:/dt_g1_balancing_plate_wise20192020/XMC/Libraries/XMCLib/inc\xmc_usic.h ****  * XMC_USIC_CH_SetFrameLength()\n\n\n
1111:G:/dt_g1_balancing_plate_wise20192020/XMC/Libraries/XMCLib/inc\xmc_usic.h ****  */
1112:G:/dt_g1_balancing_plate_wise20192020/XMC/Libraries/XMCLib/inc\xmc_usic.h **** __STATIC_INLINE void XMC_USIC_CH_SetShiftDirection(XMC_USIC_CH_t *const channel, const XMC_USIC_CH_
1113:G:/dt_g1_balancing_plate_wise20192020/XMC/Libraries/XMCLib/inc\xmc_usic.h **** {
1114:G:/dt_g1_balancing_plate_wise20192020/XMC/Libraries/XMCLib/inc\xmc_usic.h ****   channel->SCTR = (uint32_t)(channel->SCTR & (~USIC_CH_SCTR_SDIR_Msk)) | (uint32_t)shift_direction;
1115:G:/dt_g1_balancing_plate_wise20192020/XMC/Libraries/XMCLib/inc\xmc_usic.h **** }
1116:G:/dt_g1_balancing_plate_wise20192020/XMC/Libraries/XMCLib/inc\xmc_usic.h **** 
1117:G:/dt_g1_balancing_plate_wise20192020/XMC/Libraries/XMCLib/inc\xmc_usic.h **** 
1118:G:/dt_g1_balancing_plate_wise20192020/XMC/Libraries/XMCLib/inc\xmc_usic.h **** /**
1119:G:/dt_g1_balancing_plate_wise20192020/XMC/Libraries/XMCLib/inc\xmc_usic.h ****  * @param  channel Pointer to USIC channel handler of type @ref XMC_USIC_CH_t \n
1120:G:/dt_g1_balancing_plate_wise20192020/XMC/Libraries/XMCLib/inc\xmc_usic.h ****  *           \b Range: @ref XMC_USIC0_CH0, @ref XMC_USIC0_CH1 to @ref XMC_USIC2_CH1 based on device
1121:G:/dt_g1_balancing_plate_wise20192020/XMC/Libraries/XMCLib/inc\xmc_usic.h ****  * @return Captured counter value 
1122:G:/dt_g1_balancing_plate_wise20192020/XMC/Libraries/XMCLib/inc\xmc_usic.h ****  *
1123:G:/dt_g1_balancing_plate_wise20192020/XMC/Libraries/XMCLib/inc\xmc_usic.h ****  *
1124:G:/dt_g1_balancing_plate_wise20192020/XMC/Libraries/XMCLib/inc\xmc_usic.h ****  * \par<b>Description</b><br>
1125:G:/dt_g1_balancing_plate_wise20192020/XMC/Libraries/XMCLib/inc\xmc_usic.h ****  * The value of the counter is captured if one of the trigger signals DX0T or DX1T are activated by
1126:G:/dt_g1_balancing_plate_wise20192020/XMC/Libraries/XMCLib/inc\xmc_usic.h ****  */
1127:G:/dt_g1_balancing_plate_wise20192020/XMC/Libraries/XMCLib/inc\xmc_usic.h **** __STATIC_INLINE uint32_t XMC_USIC_CH_GetCaptureTimerValue(const XMC_USIC_CH_t *const channel)
1128:G:/dt_g1_balancing_plate_wise20192020/XMC/Libraries/XMCLib/inc\xmc_usic.h **** {
1129:G:/dt_g1_balancing_plate_wise20192020/XMC/Libraries/XMCLib/inc\xmc_usic.h ****   return channel->CMTR;
1130:G:/dt_g1_balancing_plate_wise20192020/XMC/Libraries/XMCLib/inc\xmc_usic.h **** }
1131:G:/dt_g1_balancing_plate_wise20192020/XMC/Libraries/XMCLib/inc\xmc_usic.h **** 
1132:G:/dt_g1_balancing_plate_wise20192020/XMC/Libraries/XMCLib/inc\xmc_usic.h **** /**
1133:G:/dt_g1_balancing_plate_wise20192020/XMC/Libraries/XMCLib/inc\xmc_usic.h ****  * @param  channel Pointer to USIC channel handler of type @ref XMC_USIC_CH_t \n
1134:G:/dt_g1_balancing_plate_wise20192020/XMC/Libraries/XMCLib/inc\xmc_usic.h ****  *           \b Range: @ref XMC_USIC0_CH0, @ref XMC_USIC0_CH1 to @ref XMC_USIC2_CH1 based on device
1135:G:/dt_g1_balancing_plate_wise20192020/XMC/Libraries/XMCLib/inc\xmc_usic.h ****  * @param  mode divider mode ::XMC_USIC_CH_BRG_CLOCK_DIVIDER_MODE_t \n
1136:G:/dt_g1_balancing_plate_wise20192020/XMC/Libraries/XMCLib/inc\xmc_usic.h ****  * @param  step divider \n
1137:G:/dt_g1_balancing_plate_wise20192020/XMC/Libraries/XMCLib/inc\xmc_usic.h ****  *             \b XMC_USIC_CH_BRG_CLOCK_DIVIDER_MODE_NORMAL resulting divider = 1023 - step \n
1138:G:/dt_g1_balancing_plate_wise20192020/XMC/Libraries/XMCLib/inc\xmc_usic.h ****  *             \b XMC_USIC_CH_BRG_CLOCK_DIVIDER_MODE_FRACTIONAL resulting divider = 1023 / step \n
1139:G:/dt_g1_balancing_plate_wise20192020/XMC/Libraries/XMCLib/inc\xmc_usic.h ****  * 
1140:G:/dt_g1_balancing_plate_wise20192020/XMC/Libraries/XMCLib/inc\xmc_usic.h ****  * @return None
1141:G:/dt_g1_balancing_plate_wise20192020/XMC/Libraries/XMCLib/inc\xmc_usic.h ****  * 
1142:G:/dt_g1_balancing_plate_wise20192020/XMC/Libraries/XMCLib/inc\xmc_usic.h ****  * \par<b>Description</b><br>
1143:G:/dt_g1_balancing_plate_wise20192020/XMC/Libraries/XMCLib/inc\xmc_usic.h ****  * The fractional divider generates its output frequency fFD by either dividing the input frequency
1144:G:/dt_g1_balancing_plate_wise20192020/XMC/Libraries/XMCLib/inc\xmc_usic.h ****  *
1145:G:/dt_g1_balancing_plate_wise20192020/XMC/Libraries/XMCLib/inc\xmc_usic.h ****  */
1146:G:/dt_g1_balancing_plate_wise20192020/XMC/Libraries/XMCLib/inc\xmc_usic.h **** __STATIC_INLINE void XMC_USIC_CH_SetFractionalDivider(XMC_USIC_CH_t *const channel, const XMC_USIC_
1147:G:/dt_g1_balancing_plate_wise20192020/XMC/Libraries/XMCLib/inc\xmc_usic.h **** {
1148:G:/dt_g1_balancing_plate_wise20192020/XMC/Libraries/XMCLib/inc\xmc_usic.h ****   channel->FDR = mode | step;
1149:G:/dt_g1_balancing_plate_wise20192020/XMC/Libraries/XMCLib/inc\xmc_usic.h **** }
1150:G:/dt_g1_balancing_plate_wise20192020/XMC/Libraries/XMCLib/inc\xmc_usic.h **** 
1151:G:/dt_g1_balancing_plate_wise20192020/XMC/Libraries/XMCLib/inc\xmc_usic.h **** /**
1152:G:/dt_g1_balancing_plate_wise20192020/XMC/Libraries/XMCLib/inc\xmc_usic.h ****  * @param  channel Pointer to USIC channel handler of type @ref XMC_USIC_CH_t \n
1153:G:/dt_g1_balancing_plate_wise20192020/XMC/Libraries/XMCLib/inc\xmc_usic.h ****  * 				   \b Range: @ref XMC_USIC0_CH0, @ref XMC_USIC0_CH1 to @ref XMC_USIC2_CH1 based on device su
1154:G:/dt_g1_balancing_plate_wise20192020/XMC/Libraries/XMCLib/inc\xmc_usic.h ****  * @param  frame_length Number of bits in a frame. \n
1155:G:/dt_g1_balancing_plate_wise20192020/XMC/Libraries/XMCLib/inc\xmc_usic.h ****  * 						\b Range: minimum= 1, maximum= 0x3f. The maximum value for fixed frame size is 0x3f. \n
1156:G:/dt_g1_balancing_plate_wise20192020/XMC/Libraries/XMCLib/inc\xmc_usic.h ****  * 						e.g: For a frame length of 16, \a frame_length should be provided as 16.
1157:G:/dt_g1_balancing_plate_wise20192020/XMC/Libraries/XMCLib/inc\xmc_usic.h ****  * @return None
1158:G:/dt_g1_balancing_plate_wise20192020/XMC/Libraries/XMCLib/inc\xmc_usic.h ****  *
1159:G:/dt_g1_balancing_plate_wise20192020/XMC/Libraries/XMCLib/inc\xmc_usic.h ****  * \par<b>Description</b><br>
1160:G:/dt_g1_balancing_plate_wise20192020/XMC/Libraries/XMCLib/inc\xmc_usic.h ****  * Define the data frame length.\n\n
1161:G:/dt_g1_balancing_plate_wise20192020/XMC/Libraries/XMCLib/inc\xmc_usic.h ****  * Set the number of bits to be serially transmitted in a frame.
1162:G:/dt_g1_balancing_plate_wise20192020/XMC/Libraries/XMCLib/inc\xmc_usic.h ****  * The frame length should be multiples of word length. If the value is set to 0x40, the frame leng
1163:G:/dt_g1_balancing_plate_wise20192020/XMC/Libraries/XMCLib/inc\xmc_usic.h ****  * has to be controlled explicitly. 
1164:G:/dt_g1_balancing_plate_wise20192020/XMC/Libraries/XMCLib/inc\xmc_usic.h ****  *
1165:G:/dt_g1_balancing_plate_wise20192020/XMC/Libraries/XMCLib/inc\xmc_usic.h ****  * \par<b>Related APIs:</b><BR>
1166:G:/dt_g1_balancing_plate_wise20192020/XMC/Libraries/XMCLib/inc\xmc_usic.h ****  * XMC_USIC_CH_SetWordLength(), XMC_USIC_CH_EnableFrameLengthControl() \n\n\n
1167:G:/dt_g1_balancing_plate_wise20192020/XMC/Libraries/XMCLib/inc\xmc_usic.h ****  */
1168:G:/dt_g1_balancing_plate_wise20192020/XMC/Libraries/XMCLib/inc\xmc_usic.h **** __STATIC_INLINE void XMC_USIC_CH_SetFrameLength(XMC_USIC_CH_t *const channel, const uint8_t frame_l
1169:G:/dt_g1_balancing_plate_wise20192020/XMC/Libraries/XMCLib/inc\xmc_usic.h **** {
1170:G:/dt_g1_balancing_plate_wise20192020/XMC/Libraries/XMCLib/inc\xmc_usic.h ****   channel->SCTR = (uint32_t)(channel->SCTR & (~USIC_CH_SCTR_FLE_Msk)) |
1171:G:/dt_g1_balancing_plate_wise20192020/XMC/Libraries/XMCLib/inc\xmc_usic.h ****                   (((uint32_t)frame_length - 0x1U)  << USIC_CH_SCTR_FLE_Pos);
1172:G:/dt_g1_balancing_plate_wise20192020/XMC/Libraries/XMCLib/inc\xmc_usic.h **** }
1173:G:/dt_g1_balancing_plate_wise20192020/XMC/Libraries/XMCLib/inc\xmc_usic.h **** 
1174:G:/dt_g1_balancing_plate_wise20192020/XMC/Libraries/XMCLib/inc\xmc_usic.h **** /**
1175:G:/dt_g1_balancing_plate_wise20192020/XMC/Libraries/XMCLib/inc\xmc_usic.h ****  * @param channel Pointer to USIC channel handler of type @ref XMC_USIC_CH_t \n
1176:G:/dt_g1_balancing_plate_wise20192020/XMC/Libraries/XMCLib/inc\xmc_usic.h ****  * 				   \b Range: @ref XMC_USIC0_CH0, @ref XMC_USIC0_CH1 to @ref XMC_USIC2_CH1 based on device su
1177:G:/dt_g1_balancing_plate_wise20192020/XMC/Libraries/XMCLib/inc\xmc_usic.h ****  * @param event Bit mask of the channel events to be enabled. Use @ref XMC_USIC_CH_EVENT_t for the 
1178:G:/dt_g1_balancing_plate_wise20192020/XMC/Libraries/XMCLib/inc\xmc_usic.h ****  * 				\b Range: @ref XMC_USIC_CH_EVENT_RECEIVE_START, @ref XMC_USIC_CH_EVENT_DATA_LOST etc. Multip
1179:G:/dt_g1_balancing_plate_wise20192020/XMC/Libraries/XMCLib/inc\xmc_usic.h ****  * 				can be combined using \a OR operation.
1180:G:/dt_g1_balancing_plate_wise20192020/XMC/Libraries/XMCLib/inc\xmc_usic.h ****  * @return None
1181:G:/dt_g1_balancing_plate_wise20192020/XMC/Libraries/XMCLib/inc\xmc_usic.h ****  *
1182:G:/dt_g1_balancing_plate_wise20192020/XMC/Libraries/XMCLib/inc\xmc_usic.h ****  * \par<b>Description</b><br>
1183:G:/dt_g1_balancing_plate_wise20192020/XMC/Libraries/XMCLib/inc\xmc_usic.h ****  * Enable the channel interrupt events.\n\n
1184:G:/dt_g1_balancing_plate_wise20192020/XMC/Libraries/XMCLib/inc\xmc_usic.h ****  * Common channel events related to serial communication can be configured using this API.
1185:G:/dt_g1_balancing_plate_wise20192020/XMC/Libraries/XMCLib/inc\xmc_usic.h ****  * Multiple events can be combined using the bitwise OR operation and configured in one function ca
1186:G:/dt_g1_balancing_plate_wise20192020/XMC/Libraries/XMCLib/inc\xmc_usic.h ****  * XMC_USIC_CH_EVENT_t enumerates multiple protocol event bitmasks. These enumerations can be used 
1187:G:/dt_g1_balancing_plate_wise20192020/XMC/Libraries/XMCLib/inc\xmc_usic.h ****  *
1188:G:/dt_g1_balancing_plate_wise20192020/XMC/Libraries/XMCLib/inc\xmc_usic.h ****  * \par<b>Related APIs:</b><BR>
1189:G:/dt_g1_balancing_plate_wise20192020/XMC/Libraries/XMCLib/inc\xmc_usic.h ****  * XMC_USIC_CH_DisableEvent(), XMC_USIC_CH_SetInterruptNodePointer() \n\n\n
1190:G:/dt_g1_balancing_plate_wise20192020/XMC/Libraries/XMCLib/inc\xmc_usic.h ****  */
1191:G:/dt_g1_balancing_plate_wise20192020/XMC/Libraries/XMCLib/inc\xmc_usic.h **** __STATIC_INLINE void XMC_USIC_CH_EnableEvent(XMC_USIC_CH_t *const channel, const uint32_t event)
1192:G:/dt_g1_balancing_plate_wise20192020/XMC/Libraries/XMCLib/inc\xmc_usic.h **** {
1193:G:/dt_g1_balancing_plate_wise20192020/XMC/Libraries/XMCLib/inc\xmc_usic.h ****   channel->CCR |= event;
1194:G:/dt_g1_balancing_plate_wise20192020/XMC/Libraries/XMCLib/inc\xmc_usic.h **** }
1195:G:/dt_g1_balancing_plate_wise20192020/XMC/Libraries/XMCLib/inc\xmc_usic.h **** 
1196:G:/dt_g1_balancing_plate_wise20192020/XMC/Libraries/XMCLib/inc\xmc_usic.h **** /**
1197:G:/dt_g1_balancing_plate_wise20192020/XMC/Libraries/XMCLib/inc\xmc_usic.h ****  * @param channel Pointer to USIC channel handler of type @ref XMC_USIC_CH_t \n
1198:G:/dt_g1_balancing_plate_wise20192020/XMC/Libraries/XMCLib/inc\xmc_usic.h ****  * 				  \b Range: @ref XMC_USIC0_CH0, @ref XMC_USIC0_CH1 to @ref XMC_USIC2_CH1 based on device sup
1199:G:/dt_g1_balancing_plate_wise20192020/XMC/Libraries/XMCLib/inc\xmc_usic.h ****  * @param event Bit mask of the channel events to be disabled. Use @ref XMC_USIC_CH_EVENT_t for the
1200:G:/dt_g1_balancing_plate_wise20192020/XMC/Libraries/XMCLib/inc\xmc_usic.h ****  * 				\b Range: @ref XMC_USIC_CH_EVENT_RECEIVE_START, @ref XMC_USIC_CH_EVENT_DATA_LOST etc. Multip
1201:G:/dt_g1_balancing_plate_wise20192020/XMC/Libraries/XMCLib/inc\xmc_usic.h ****  * 				can be combined using \a OR operation.
1202:G:/dt_g1_balancing_plate_wise20192020/XMC/Libraries/XMCLib/inc\xmc_usic.h ****  * @return None
1203:G:/dt_g1_balancing_plate_wise20192020/XMC/Libraries/XMCLib/inc\xmc_usic.h ****  *
1204:G:/dt_g1_balancing_plate_wise20192020/XMC/Libraries/XMCLib/inc\xmc_usic.h ****  * \par<b>Description</b><br>
1205:G:/dt_g1_balancing_plate_wise20192020/XMC/Libraries/XMCLib/inc\xmc_usic.h ****  * Disable the channel interrupt events. \n\n
1206:G:/dt_g1_balancing_plate_wise20192020/XMC/Libraries/XMCLib/inc\xmc_usic.h ****  * Multiple events can be combined using the bitwise OR operation and configured in one function ca
1207:G:/dt_g1_balancing_plate_wise20192020/XMC/Libraries/XMCLib/inc\xmc_usic.h ****  * XMC_USIC_CH_EVENT_t enumerates multiple protocol event bitmasks. These enumerations can be used 
1208:G:/dt_g1_balancing_plate_wise20192020/XMC/Libraries/XMCLib/inc\xmc_usic.h ****  *
1209:G:/dt_g1_balancing_plate_wise20192020/XMC/Libraries/XMCLib/inc\xmc_usic.h ****  * \par<b>Related APIs:</b><BR>
1210:G:/dt_g1_balancing_plate_wise20192020/XMC/Libraries/XMCLib/inc\xmc_usic.h ****  * XMC_USIC_CH_EnableEvent(), XMC_USIC_CH_SetInterruptNodePointer() \n\n\n
1211:G:/dt_g1_balancing_plate_wise20192020/XMC/Libraries/XMCLib/inc\xmc_usic.h **** */
1212:G:/dt_g1_balancing_plate_wise20192020/XMC/Libraries/XMCLib/inc\xmc_usic.h **** __STATIC_INLINE void XMC_USIC_CH_DisableEvent(XMC_USIC_CH_t *const channel, const uint32_t event)
1213:G:/dt_g1_balancing_plate_wise20192020/XMC/Libraries/XMCLib/inc\xmc_usic.h **** {
1214:G:/dt_g1_balancing_plate_wise20192020/XMC/Libraries/XMCLib/inc\xmc_usic.h ****   channel->CCR &= (uint32_t)~event;
1215:G:/dt_g1_balancing_plate_wise20192020/XMC/Libraries/XMCLib/inc\xmc_usic.h **** }
1216:G:/dt_g1_balancing_plate_wise20192020/XMC/Libraries/XMCLib/inc\xmc_usic.h **** 
1217:G:/dt_g1_balancing_plate_wise20192020/XMC/Libraries/XMCLib/inc\xmc_usic.h **** /**
1218:G:/dt_g1_balancing_plate_wise20192020/XMC/Libraries/XMCLib/inc\xmc_usic.h ****  * @param channel Pointer to USIC channel handler of type @ref XMC_USIC_CH_t \n
1219:G:/dt_g1_balancing_plate_wise20192020/XMC/Libraries/XMCLib/inc\xmc_usic.h ****  * 				  \b Range: @ref XMC_USIC0_CH0, @ref XMC_USIC0_CH1 to @ref XMC_USIC2_CH1 based on device sup
1220:G:/dt_g1_balancing_plate_wise20192020/XMC/Libraries/XMCLib/inc\xmc_usic.h ****  * @param  interrupt_node Interrupt node pointer to be configured. \n
1221:G:/dt_g1_balancing_plate_wise20192020/XMC/Libraries/XMCLib/inc\xmc_usic.h ****  * 						  \b Range: @ref XMC_USIC_CH_INTERRUPT_NODE_POINTER_TRANSMIT_SHIFT,
1222:G:/dt_g1_balancing_plate_wise20192020/XMC/Libraries/XMCLib/inc\xmc_usic.h ****  * 						  			@ref XMC_USIC_CH_INTERRUPT_NODE_POINTER_TRANSMIT_BUFFER etc.
1223:G:/dt_g1_balancing_plate_wise20192020/XMC/Libraries/XMCLib/inc\xmc_usic.h ****  * @param service_request Service request number.\n
1224:G:/dt_g1_balancing_plate_wise20192020/XMC/Libraries/XMCLib/inc\xmc_usic.h ****  * 						  \b Range: 0 to 5.
1225:G:/dt_g1_balancing_plate_wise20192020/XMC/Libraries/XMCLib/inc\xmc_usic.h ****  * @return None
1226:G:/dt_g1_balancing_plate_wise20192020/XMC/Libraries/XMCLib/inc\xmc_usic.h ****  *
1227:G:/dt_g1_balancing_plate_wise20192020/XMC/Libraries/XMCLib/inc\xmc_usic.h ****  * \par<b>Description</b><br>
1228:G:/dt_g1_balancing_plate_wise20192020/XMC/Libraries/XMCLib/inc\xmc_usic.h ****  * Sets the interrupt node for USIC channel events. \n\n
1229:G:/dt_g1_balancing_plate_wise20192020/XMC/Libraries/XMCLib/inc\xmc_usic.h ****  * For an event to generate interrupt, node pointer should be configured with service request(SR0, 
1230:G:/dt_g1_balancing_plate_wise20192020/XMC/Libraries/XMCLib/inc\xmc_usic.h ****  * The NVIC node gets linked to the interrupt event by doing so.<br>
1231:G:/dt_g1_balancing_plate_wise20192020/XMC/Libraries/XMCLib/inc\xmc_usic.h ****  * Note: NVIC node should be separately enabled to generate the interrupt.
1232:G:/dt_g1_balancing_plate_wise20192020/XMC/Libraries/XMCLib/inc\xmc_usic.h ****  *
1233:G:/dt_g1_balancing_plate_wise20192020/XMC/Libraries/XMCLib/inc\xmc_usic.h ****  * \par<b>Related APIs:</b><BR>
1234:G:/dt_g1_balancing_plate_wise20192020/XMC/Libraries/XMCLib/inc\xmc_usic.h ****  * XMC_USIC_CH_EnableEvent() \n\n\n
1235:G:/dt_g1_balancing_plate_wise20192020/XMC/Libraries/XMCLib/inc\xmc_usic.h ****  */
1236:G:/dt_g1_balancing_plate_wise20192020/XMC/Libraries/XMCLib/inc\xmc_usic.h **** void XMC_USIC_CH_SetInterruptNodePointer(XMC_USIC_CH_t *const channel,
1237:G:/dt_g1_balancing_plate_wise20192020/XMC/Libraries/XMCLib/inc\xmc_usic.h ****                                          const XMC_USIC_CH_INTERRUPT_NODE_POINTER_t interrupt_node,
1238:G:/dt_g1_balancing_plate_wise20192020/XMC/Libraries/XMCLib/inc\xmc_usic.h ****                                          const uint32_t service_request);
1239:G:/dt_g1_balancing_plate_wise20192020/XMC/Libraries/XMCLib/inc\xmc_usic.h **** 
1240:G:/dt_g1_balancing_plate_wise20192020/XMC/Libraries/XMCLib/inc\xmc_usic.h **** /**
1241:G:/dt_g1_balancing_plate_wise20192020/XMC/Libraries/XMCLib/inc\xmc_usic.h ****  * @param  channel Pointer to USIC channel handler of type @ref XMC_USIC_CH_t \n
1242:G:/dt_g1_balancing_plate_wise20192020/XMC/Libraries/XMCLib/inc\xmc_usic.h ****  * 				   \b Range: @ref XMC_USIC0_CH0, @ref XMC_USIC0_CH1 to @ref XMC_USIC2_CH1 based on device su
1243:G:/dt_g1_balancing_plate_wise20192020/XMC/Libraries/XMCLib/inc\xmc_usic.h ****  * @return Stataus @ref XMC_USIC_CH_TBUF_STATUS_IDLE if transmit buffer is free,
1244:G:/dt_g1_balancing_plate_wise20192020/XMC/Libraries/XMCLib/inc\xmc_usic.h ****  *                 @ref XMC_USIC_CH_TBUF_STATUS_BUSY if transmit buffer is busy.
1245:G:/dt_g1_balancing_plate_wise20192020/XMC/Libraries/XMCLib/inc\xmc_usic.h ****  *
1246:G:/dt_g1_balancing_plate_wise20192020/XMC/Libraries/XMCLib/inc\xmc_usic.h ****  * \par<b>Description</b><br>
1247:G:/dt_g1_balancing_plate_wise20192020/XMC/Libraries/XMCLib/inc\xmc_usic.h ****  * Gets transmit buffer status. \n\n
1248:G:/dt_g1_balancing_plate_wise20192020/XMC/Libraries/XMCLib/inc\xmc_usic.h ****  * Status indicates whether the transmit buffer is free, or busy transmitting data.
1249:G:/dt_g1_balancing_plate_wise20192020/XMC/Libraries/XMCLib/inc\xmc_usic.h ****  * The status depends on the value of TDV flag in TCSR register.
1250:G:/dt_g1_balancing_plate_wise20192020/XMC/Libraries/XMCLib/inc\xmc_usic.h ****  * This status can be used while transmitting data. Transmit data when the transmit buffer
1251:G:/dt_g1_balancing_plate_wise20192020/XMC/Libraries/XMCLib/inc\xmc_usic.h ****  * status is @ref XMC_USIC_CH_TBUF_STATUS_IDLE.
1252:G:/dt_g1_balancing_plate_wise20192020/XMC/Libraries/XMCLib/inc\xmc_usic.h ****  *
1253:G:/dt_g1_balancing_plate_wise20192020/XMC/Libraries/XMCLib/inc\xmc_usic.h ****  * \par<b>Related APIs:</b><BR>
1254:G:/dt_g1_balancing_plate_wise20192020/XMC/Libraries/XMCLib/inc\xmc_usic.h ****  * XMC_USIC_CH_SetDataOutputMode() \n\n\n
1255:G:/dt_g1_balancing_plate_wise20192020/XMC/Libraries/XMCLib/inc\xmc_usic.h ****  */
1256:G:/dt_g1_balancing_plate_wise20192020/XMC/Libraries/XMCLib/inc\xmc_usic.h **** __STATIC_INLINE XMC_USIC_CH_TBUF_STATUS_t XMC_USIC_CH_GetTransmitBufferStatus(XMC_USIC_CH_t *const 
1257:G:/dt_g1_balancing_plate_wise20192020/XMC/Libraries/XMCLib/inc\xmc_usic.h **** {
1258:G:/dt_g1_balancing_plate_wise20192020/XMC/Libraries/XMCLib/inc\xmc_usic.h ****   return (XMC_USIC_CH_TBUF_STATUS_t)(channel->TCSR & USIC_CH_TCSR_TDV_Msk);
1259:G:/dt_g1_balancing_plate_wise20192020/XMC/Libraries/XMCLib/inc\xmc_usic.h **** }
1260:G:/dt_g1_balancing_plate_wise20192020/XMC/Libraries/XMCLib/inc\xmc_usic.h **** 
1261:G:/dt_g1_balancing_plate_wise20192020/XMC/Libraries/XMCLib/inc\xmc_usic.h **** /**
1262:G:/dt_g1_balancing_plate_wise20192020/XMC/Libraries/XMCLib/inc\xmc_usic.h ****  * @brief API to get receive buffer status
1263:G:/dt_g1_balancing_plate_wise20192020/XMC/Libraries/XMCLib/inc\xmc_usic.h ****  * @param  channel Pointer to USIC channel handler of type @ref XMC_USIC_CH_t \n
1264:G:/dt_g1_balancing_plate_wise20192020/XMC/Libraries/XMCLib/inc\xmc_usic.h ****  * 				   \b Range: @ref XMC_USIC0_CH0, @ref XMC_USIC0_CH1 to @ref XMC_USIC2_CH1 based on device su
1265:G:/dt_g1_balancing_plate_wise20192020/XMC/Libraries/XMCLib/inc\xmc_usic.h ****  * @return Status of data validity check for RBUF0 and RBUF1. \n
1266:G:/dt_g1_balancing_plate_wise20192020/XMC/Libraries/XMCLib/inc\xmc_usic.h ****  * 		   Returned value should be masked with RDV0 and RDV1 bits to know the status. \n
1267:G:/dt_g1_balancing_plate_wise20192020/XMC/Libraries/XMCLib/inc\xmc_usic.h ****  * 		   \b Range: @ref XMC_USIC_CH_RBUF_STATUS_DATA_VALID0, @ref XMC_USIC_CH_RBUF_STATUS_DATA_VALID
1268:G:/dt_g1_balancing_plate_wise20192020/XMC/Libraries/XMCLib/inc\xmc_usic.h ****  *
1269:G:/dt_g1_balancing_plate_wise20192020/XMC/Libraries/XMCLib/inc\xmc_usic.h ****  * \par<b>Description</b><br>
1270:G:/dt_g1_balancing_plate_wise20192020/XMC/Libraries/XMCLib/inc\xmc_usic.h ****  * Checks if RBUF0 and RBUF1 have valid unread data. \n\n
1271:G:/dt_g1_balancing_plate_wise20192020/XMC/Libraries/XMCLib/inc\xmc_usic.h ****  * It checks the bits RDV0 and RDV1 of the RBUFSR register.
1272:G:/dt_g1_balancing_plate_wise20192020/XMC/Libraries/XMCLib/inc\xmc_usic.h ****  * Returns the value of RBUFSR masked with bitmasks of RDV0 and RDV1.
1273:G:/dt_g1_balancing_plate_wise20192020/XMC/Libraries/XMCLib/inc\xmc_usic.h ****  * It can be used to decide whether 2bytes has to be read from RBUF or 1 byte. 
1274:G:/dt_g1_balancing_plate_wise20192020/XMC/Libraries/XMCLib/inc\xmc_usic.h ****  * If both bitmasks XMC_USIC_CH_RBUF_STATUS_DATA_VALID0 and XMC_USIC_CH_RBUF_STATUS_DATA_VALID1
1275:G:/dt_g1_balancing_plate_wise20192020/XMC/Libraries/XMCLib/inc\xmc_usic.h ****  * are set, then 2 bytes can be read from RBUF. If only either of them is set, then only one byte
1276:G:/dt_g1_balancing_plate_wise20192020/XMC/Libraries/XMCLib/inc\xmc_usic.h ****  * can be read from RBUF.
1277:G:/dt_g1_balancing_plate_wise20192020/XMC/Libraries/XMCLib/inc\xmc_usic.h ****  * \par<b>Related APIs:</b><BR>
1278:G:/dt_g1_balancing_plate_wise20192020/XMC/Libraries/XMCLib/inc\xmc_usic.h ****  * XMC_USIC_CH_GetTransmitBufferStatus() \n\n\n
1279:G:/dt_g1_balancing_plate_wise20192020/XMC/Libraries/XMCLib/inc\xmc_usic.h ****  */
1280:G:/dt_g1_balancing_plate_wise20192020/XMC/Libraries/XMCLib/inc\xmc_usic.h **** __STATIC_INLINE uint32_t XMC_USIC_CH_GetReceiveBufferStatus(XMC_USIC_CH_t *const channel)
1281:G:/dt_g1_balancing_plate_wise20192020/XMC/Libraries/XMCLib/inc\xmc_usic.h **** {
1282:G:/dt_g1_balancing_plate_wise20192020/XMC/Libraries/XMCLib/inc\xmc_usic.h ****   return ((uint32_t) (channel->RBUFSR & (USIC_CH_RBUFSR_RDV0_Msk | USIC_CH_RBUFSR_RDV1_Msk)));
1283:G:/dt_g1_balancing_plate_wise20192020/XMC/Libraries/XMCLib/inc\xmc_usic.h **** }
1284:G:/dt_g1_balancing_plate_wise20192020/XMC/Libraries/XMCLib/inc\xmc_usic.h **** 
1285:G:/dt_g1_balancing_plate_wise20192020/XMC/Libraries/XMCLib/inc\xmc_usic.h **** 
1286:G:/dt_g1_balancing_plate_wise20192020/XMC/Libraries/XMCLib/inc\xmc_usic.h **** /**
1287:G:/dt_g1_balancing_plate_wise20192020/XMC/Libraries/XMCLib/inc\xmc_usic.h ****  * @param  channel Pointer to USIC channel handler of type @ref XMC_USIC_CH_t \n
1288:G:/dt_g1_balancing_plate_wise20192020/XMC/Libraries/XMCLib/inc\xmc_usic.h ****  * 				   \b Range: @ref XMC_USIC0_CH0, @ref XMC_USIC0_CH1 to @ref XMC_USIC2_CH1 based on device su
1289:G:/dt_g1_balancing_plate_wise20192020/XMC/Libraries/XMCLib/inc\xmc_usic.h ****  * @param  start_transmision_mode Transmission mode to be enabled. \n
1290:G:/dt_g1_balancing_plate_wise20192020/XMC/Libraries/XMCLib/inc\xmc_usic.h ****  * 								\b Range: @ref XMC_USIC_CH_START_TRANSMISION_DISABLED,
1291:G:/dt_g1_balancing_plate_wise20192020/XMC/Libraries/XMCLib/inc\xmc_usic.h ****  * 								@ref XMC_USIC_CH_START_TRANSMISION_ON_TDV, @ref XMC_USIC_CH_START_TRANSMISION_ON_TDV_DX2
1292:G:/dt_g1_balancing_plate_wise20192020/XMC/Libraries/XMCLib/inc\xmc_usic.h ****  * 								@ref XMC_USIC_CH_START_TRANSMISION_ON_TDV_DX2S_1
1293:G:/dt_g1_balancing_plate_wise20192020/XMC/Libraries/XMCLib/inc\xmc_usic.h ****  *                              
1294:G:/dt_g1_balancing_plate_wise20192020/XMC/Libraries/XMCLib/inc\xmc_usic.h ****  * @return None
1295:G:/dt_g1_balancing_plate_wise20192020/XMC/Libraries/XMCLib/inc\xmc_usic.h ****  *
1296:G:/dt_g1_balancing_plate_wise20192020/XMC/Libraries/XMCLib/inc\xmc_usic.h ****  * \par<b>Description</b><br>
1297:G:/dt_g1_balancing_plate_wise20192020/XMC/Libraries/XMCLib/inc\xmc_usic.h ****  * Configures data transmission. \n\n
1298:G:/dt_g1_balancing_plate_wise20192020/XMC/Libraries/XMCLib/inc\xmc_usic.h ****  * The configuration affects the data shifted on the DOUT0 pin.
1299:G:/dt_g1_balancing_plate_wise20192020/XMC/Libraries/XMCLib/inc\xmc_usic.h ****  * 
1300:G:/dt_g1_balancing_plate_wise20192020/XMC/Libraries/XMCLib/inc\xmc_usic.h ****  * \par<b>Related APIs:</b><BR>
1301:G:/dt_g1_balancing_plate_wise20192020/XMC/Libraries/XMCLib/inc\xmc_usic.h ****  * XMC_USIC_CH_GetTransmitBufferStatus(), XMC_USIC_CH_SetDataOutputMode() \n\n\n
1302:G:/dt_g1_balancing_plate_wise20192020/XMC/Libraries/XMCLib/inc\xmc_usic.h ****  */
1303:G:/dt_g1_balancing_plate_wise20192020/XMC/Libraries/XMCLib/inc\xmc_usic.h **** __STATIC_INLINE void XMC_USIC_CH_SetStartTransmisionMode(XMC_USIC_CH_t *const channel,
1304:G:/dt_g1_balancing_plate_wise20192020/XMC/Libraries/XMCLib/inc\xmc_usic.h ****                                                          const XMC_USIC_CH_START_TRANSMISION_MODE_t
1305:G:/dt_g1_balancing_plate_wise20192020/XMC/Libraries/XMCLib/inc\xmc_usic.h **** {
1306:G:/dt_g1_balancing_plate_wise20192020/XMC/Libraries/XMCLib/inc\xmc_usic.h ****   channel->TCSR = (uint32_t)(channel->TCSR & (~USIC_CH_TCSR_TDEN_Msk)) | (uint32_t)start_transmisio
