   1              	 .syntax unified
   2              	 .cpu cortex-m4
   3              	 .eabi_attribute 27,3
   4              	 .fpu fpv4-sp-d16
   5              	 .eabi_attribute 20,1
   6              	 .eabi_attribute 21,1
   7              	 .eabi_attribute 23,3
   8              	 .eabi_attribute 24,1
   9              	 .eabi_attribute 25,1
  10              	 .eabi_attribute 26,1
  11              	 .eabi_attribute 30,4
  12              	 .eabi_attribute 34,1
  13              	 .eabi_attribute 18,4
  14              	 .thumb
  15              	 .file "main.c"
  16              	 .text
  17              	.Ltext0:
  18              	 .cfi_sections .debug_frame
  19              	 .section .text.busy_waitMs,"ax",%progbits
  20              	 .align 1
  21              	 .global busy_waitMs
  22              	 .thumb
  23              	 .thumb_func
  25              	busy_waitMs:
  26              	.LFB334:
  27              	 .file 1 "../main.c"
   1:../main.c     **** /*
   2:../main.c     ****  * main.c
   3:../main.c     ****  *
   4:../main.c     ****  *  Created on: 2019 Nov 12 10:18:39
   5:../main.c     ****  *  Author: brm47801
   6:../main.c     ****  */
   7:../main.c     **** 
   8:../main.c     **** 
   9:../main.c     **** 
  10:../main.c     **** 
  11:../main.c     **** #include <DAVE.h>                 //Declarations from DAVE Code Generation (includes SFR declaratio
  12:../main.c     **** 
  13:../main.c     **** /**
  14:../main.c     **** 
  15:../main.c     ****  * @brief main() - Application entry point
  16:../main.c     ****  *
  17:../main.c     ****  * <b>Details of function</b><br>
  18:../main.c     ****  * This routine is the application entry point. It is invoked by the device startup code. It is res
  19:../main.c     ****  * invoking the APP initialization dispatcher routine - DAVE_Init() and hosting the place-holder fo
  20:../main.c     ****  * code.
  21:../main.c     ****  */
  22:../main.c     **** 
  23:../main.c     **** void busy_waitMs(int ms)
  24:../main.c     **** {
  28              	 .loc 1 24 0
  29              	 .cfi_startproc
  30              	 
  31              	 
  32              	 
  33              	.LVL0:
  34              	.LBB2:
  25:../main.c     **** 	int i;
  26:../main.c     **** 
  27:../main.c     **** 	for(int c = 0; c < ms; c++)
  35              	 .loc 1 27 0
  36 0000 0023     	 movs r3,#0
  37              	.LVL1:
  38              	.L2:
  39              	 .loc 1 27 0 is_stmt 0 discriminator 1
  40 0002 8342     	 cmp r3,r0
  41 0004 0CDA     	 bge .L7
  42 0006 42F21072 	 movw r2,#10000
  43              	.L4:
  44              	.LVL2:
  28:../main.c     **** 	{
  29:../main.c     **** 		i = 10000;
  30:../main.c     **** 		while(--i)
  45              	 .loc 1 30 0 is_stmt 1
  46 000a 013A     	 subs r2,r2,#1
  47              	.LVL3:
  48 000c 06D0     	 beq .L8
  49              	.LVL4:
  31:../main.c     **** 		{
  32:../main.c     **** 			__NOP();
  50              	 .loc 1 32 0
  51              	
  52 000e 00BF     	 nop
  53              	
  33:../main.c     **** 			__NOP();
  54              	 .loc 1 33 0
  55              	
  56 0010 00BF     	 nop
  57              	
  34:../main.c     **** 			__NOP();
  58              	 .loc 1 34 0
  59              	
  60 0012 00BF     	 nop
  61              	
  35:../main.c     **** 			__NOP();
  62              	 .loc 1 35 0
  63              	
  64 0014 00BF     	 nop
  65              	
  36:../main.c     **** 			__NOP();
  66              	 .loc 1 36 0
  67              	
  68 0016 00BF     	 nop
  69              	
  37:../main.c     **** 			__NOP();
  70              	 .loc 1 37 0
  71              	
  72 0018 00BF     	 nop
  73              	
  74              	 .thumb
  75 001a F6E7     	 b .L4
  76              	.LVL5:
  77              	.L8:
  27:../main.c     **** 	{
  78              	 .loc 1 27 0 discriminator 2
  79 001c 0133     	 adds r3,r3,#1
  80              	.LVL6:
  81 001e F0E7     	 b .L2
  82              	.LVL7:
  83              	.L7:
  84              	.LBE2:
  38:../main.c     **** 		}
  39:../main.c     **** 	}
  40:../main.c     **** }
  85              	 .loc 1 40 0
  86 0020 7047     	 bx lr
  87              	 .cfi_endproc
  88              	.LFE334:
  90              	 .section .text.startup.main,"ax",%progbits
  91              	 .align 1
  92              	 .global main
  93              	 .thumb
  94              	 .thumb_func
  96              	main:
  97              	.LFB335:
  41:../main.c     **** 
  42:../main.c     **** #define BUFFERSIZE 1024
  43:../main.c     **** 
  44:../main.c     **** uint8_t read_data[BUFFERSIZE];
  45:../main.c     **** uint8_t testdata[] = "testdata";
  46:../main.c     **** 
  47:../main.c     **** int main(void)
  48:../main.c     **** {
  98              	 .loc 1 48 0
  99              	 .cfi_startproc
 100              	 
 101              	 
 102 0000 70B5     	 push {r4,r5,r6,lr}
 103              	.LCFI0:
 104              	 .cfi_def_cfa_offset 16
 105              	 .cfi_offset 4,-16
 106              	 .cfi_offset 5,-12
 107              	 .cfi_offset 6,-8
 108              	 .cfi_offset 14,-4
  49:../main.c     ****   DAVE_STATUS_t status;
  50:../main.c     ****   uint8_t init_data[] = "startasfdasfdasfsadfasdfsafdasfdsadfasdfsadfasf";
 109              	 .loc 1 50 0
 110 0002 104B     	 ldr r3,.L16
  48:../main.c     ****   DAVE_STATUS_t status;
 111              	 .loc 1 48 0
 112 0004 8CB0     	 sub sp,sp,#48
 113              	.LCFI1:
 114              	 .cfi_def_cfa_offset 64
 115              	 .loc 1 50 0
 116 0006 6A46     	 mov r2,sp
 117 0008 03F13006 	 add r6,r3,#48
 118 000c 6D46     	 mov r5,sp
 119              	.L10:
 120 000e 1868     	 ldr r0,[r3]
 121 0010 5968     	 ldr r1,[r3,#4]
 122 0012 1446     	 mov r4,r2
 123 0014 03C4     	 stmia r4!,{r0,r1}
 124 0016 0833     	 adds r3,r3,#8
 125 0018 B342     	 cmp r3,r6
 126 001a 2246     	 mov r2,r4
 127 001c F7D1     	 bne .L10
  51:../main.c     **** 
  52:../main.c     ****   memset(read_data, 0, BUFFERSIZE);
 128              	 .loc 1 52 0
 129 001e 0021     	 movs r1,#0
 130 0020 4FF48062 	 mov r2,#1024
 131 0024 0848     	 ldr r0,.L16+4
 132 0026 FFF7FEFF 	 bl memset
 133              	.LVL8:
  53:../main.c     ****   status = DAVE_Init();           /* Initialization of DAVE APPs  */
 134              	 .loc 1 53 0
 135 002a FFF7FEFF 	 bl DAVE_Init
 136              	.LVL9:
  54:../main.c     **** 
  55:../main.c     ****   if(status != DAVE_STATUS_SUCCESS)
 137              	 .loc 1 55 0
 138 002e 00B1     	 cbz r0,.L11
 139              	.L15:
  56:../main.c     ****   {
  57:../main.c     ****     /* Placeholder for error handler code. The while loop below can be replaced with an user error 
  58:../main.c     ****     XMC_DEBUG("DAVE APPs initialization failed\n");
  59:../main.c     **** 
  60:../main.c     ****     while(1U)
  61:../main.c     ****     {
  62:../main.c     **** 
  63:../main.c     ****     }
 140              	 .loc 1 63 0 discriminator 1
 141 0030 FEE7     	 b .L15
 142              	.L11:
  64:../main.c     ****   }
  65:../main.c     **** 
  66:../main.c     ****   /* Placeholder for user application code. The while loop below can be replaced with user applicat
  67:../main.c     **** 
  68:../main.c     ****   // Minimal position 450  ^ 4,5  duty ^ 0,9ms
  69:../main.c     ****   // Neutral position 750  ^ 7,5  duty ^ 1,5ms
  70:../main.c     ****   // Maximal position 1050 ^ 10,5 duty ^ 2,1ms
  71:../main.c     **** 
  72:../main.c     ****   UART_Transmit(&UART_0, init_data, sizeof(init_data));
 143              	 .loc 1 72 0
 144 0032 0648     	 ldr r0,.L16+8
 145              	.LVL10:
 146 0034 2946     	 mov r1,r5
 147 0036 3022     	 movs r2,#48
 148 0038 FFF7FEFF 	 bl UART_Transmit
 149              	.LVL11:
 150              	.L13:
  73:../main.c     **** 
  74:../main.c     ****   while(1U)
  75:../main.c     ****   {
  76:../main.c     **** 	  /*
  77:../main.c     **** 	  for(int i = 450; i <= 1050; i += 10)
  78:../main.c     **** 	  {
  79:../main.c     **** 		  PWM_SetDutyCycle(&PWM_MOTOR_0, i);
  80:../main.c     **** 		  busy_waitMs(20);
  81:../main.c     **** 	  }
  82:../main.c     **** 	  for(int i = 1049; i > 450; i -= 10)
  83:../main.c     **** 	  {
  84:../main.c     **** 		  PWM_SetDutyCycle(&PWM_MOTOR_0, i);
  85:../main.c     **** 		  busy_waitMs(20);
  86:../main.c     **** 	  }
  87:../main.c     **** 		*/
  88:../main.c     **** 	  busy_waitMs(100);
 151              	 .loc 1 88 0 discriminator 1
 152 003c 6420     	 movs r0,#100
 153 003e FFF7FEFF 	 bl busy_waitMs
 154              	.LVL12:
  89:../main.c     **** 	  /*UART_Receive(&UART_0, read_data, BUFFERSIZE);
  90:../main.c     **** 	  if(read_data[0] != '\0') {
  91:../main.c     **** 		  busy_waitMs(5000);
  92:../main.c     **** 		  UART_Transmit(&UART_0, read_data, BUFFERSIZE);
  93:../main.c     **** 		  memset(read_data, 0, BUFFERSIZE);
  94:../main.c     **** 	  }*/
  95:../main.c     ****   }
 155              	 .loc 1 95 0 discriminator 1
 156 0042 FBE7     	 b .L13
 157              	.L17:
 158              	 .align 2
 159              	.L16:
 160 0044 00000000 	 .word .LC0
 161 0048 00000000 	 .word read_data
 162 004c 00000000 	 .word UART_0
 163              	 .cfi_endproc
 164              	.LFE335:
 166              	 .section .text.USIC0_5_IRQHandler,"ax",%progbits
 167              	 .align 1
 168              	 .global USIC0_5_IRQHandler
 169              	 .thumb
 170              	 .thumb_func
 172              	USIC0_5_IRQHandler:
 173              	.LFB336:
  96:../main.c     **** }
  97:../main.c     **** int a = 0;
  98:../main.c     **** void DataReceived(void) {
 174              	 .loc 1 98 0
 175              	 .cfi_startproc
 176              	 
 177              	 
 178 0000 38B5     	 push {r3,r4,r5,lr}
 179              	.LCFI2:
 180              	 .cfi_def_cfa_offset 16
 181              	 .cfi_offset 3,-16
 182              	 .cfi_offset 4,-12
 183              	 .cfi_offset 5,-8
 184              	 .cfi_offset 14,-4
  99:../main.c     **** 	UART_Receive(&UART_0, read_data, 8);
 185              	 .loc 1 99 0
 186 0002 0B4C     	 ldr r4,.L19
 187 0004 0B4D     	 ldr r5,.L19+4
 188 0006 2146     	 mov r1,r4
 189 0008 2846     	 mov r0,r5
 190 000a 0822     	 movs r2,#8
 191 000c FFF7FEFF 	 bl UART_Receive
 192              	.LVL13:
 100:../main.c     **** 	read_data[0] = '1';
 193              	 .loc 1 100 0
 194 0010 3123     	 movs r3,#49
 101:../main.c     **** 	read_data[1] = '1';
 102:../main.c     **** 	UART_Transmit(&UART_0, read_data, 8);
 195              	 .loc 1 102 0
 196 0012 2146     	 mov r1,r4
 197 0014 2846     	 mov r0,r5
 198 0016 0822     	 movs r2,#8
 100:../main.c     **** 	read_data[0] = '1';
 199              	 .loc 1 100 0
 200 0018 2370     	 strb r3,[r4]
 101:../main.c     **** 	read_data[1] = '1';
 201              	 .loc 1 101 0
 202 001a 6370     	 strb r3,[r4,#1]
 203              	 .loc 1 102 0
 204 001c FFF7FEFF 	 bl UART_Transmit
 205              	.LVL14:
 103:../main.c     **** 	memset(read_data, 0, BUFFERSIZE);
 206              	 .loc 1 103 0
 207 0020 2046     	 mov r0,r4
 208 0022 0021     	 movs r1,#0
 209 0024 4FF48062 	 mov r2,#1024
 104:../main.c     **** }
 210              	 .loc 1 104 0
 211 0028 BDE83840 	 pop {r3,r4,r5,lr}
 212              	.LCFI3:
 213              	 .cfi_restore 14
 214              	 .cfi_restore 5
 215              	 .cfi_restore 4
 216              	 .cfi_restore 3
 217              	 .cfi_def_cfa_offset 0
 103:../main.c     **** 	memset(read_data, 0, BUFFERSIZE);
 218              	 .loc 1 103 0
 219 002c FFF7FEBF 	 b memset
 220              	.LVL15:
 221              	.L20:
 222              	 .align 2
 223              	.L19:
 224 0030 00000000 	 .word read_data
 225 0034 00000000 	 .word UART_0
 226              	 .cfi_endproc
 227              	.LFE336:
 229              	 .global a
 230              	 .global testdata
 231              	 .comm read_data,1024,1
 232              	 .section .data.testdata,"aw",%progbits
 235              	testdata:
 236 0000 74657374 	 .ascii "testdata\000"
 236      64617461 
 236      00
 237              	 .section .rodata.str1.1,"aMS",%progbits,1
 238              	.LC0:
 239 0000 73746172 	 .ascii "startasfdasfdasfsadfasdfsafdasfdsadfasdfsadfasf\000"
 239      74617366 
 239      64617366 
 239      64617366 
 239      73616466 
 240              	 .section .bss.a,"aw",%nobits
 241              	 .align 2
 244              	a:
 245 0000 00000000 	 .space 4
 246              	 .text
 247              	.Letext0:
 248              	 .file 2 "c:\\program files\\dave_4\\dave-ide-4.4.2-64bit\\eclipse\\arm-gcc-49\\arm-none-eabi\\include\\machine\\_default_types.h"
 249              	 .file 3 "c:\\program files\\dave_4\\dave-ide-4.4.2-64bit\\eclipse\\arm-gcc-49\\arm-none-eabi\\include\\stdint.h"
 250              	 .file 4 "G:/DT/dt_g1_balancing_plate_wise20192020/XMC/Libraries/XMCLib/inc/xmc_gpio.h"
 251              	 .file 5 "G:/DT/dt_g1_balancing_plate_wise20192020/XMC/Libraries/XMCLib/inc/xmc4_gpio.h"
 252              	 .file 6 "G:/DT/dt_g1_balancing_plate_wise20192020/XMC/Libraries/XMCLib/inc/xmc_usic.h"
 253              	 .file 7 "G:/DT/dt_g1_balancing_plate_wise20192020/XMC/Libraries/XMCLib/inc/xmc_uart.h"
 254              	 .file 8 "G:/DT/dt_g1_balancing_plate_wise20192020/XMC/Dave/Generated/UART/uart.h"
 255              	 .file 9 "G:/DT/dt_g1_balancing_plate_wise20192020/XMC/Dave/Generated/DAVE.h"
 256              	 .file 10 "G:/DT/dt_g1_balancing_plate_wise20192020/XMC/Libraries/CMSIS/Include/core_cm4.h"
 257              	 .file 11 "G:/DT/dt_g1_balancing_plate_wise20192020/XMC/Libraries/CMSIS/Infineon/XMC4500_series/Include/system_XMC4500.h"
 258              	 .file 12 "G:/DT/dt_g1_balancing_plate_wise20192020/XMC/Dave/Generated/UART/uart_extern.h"