   1              	 .syntax unified
   2              	 .cpu cortex-m4
   3              	 .eabi_attribute 27,3
   4              	 .fpu fpv4-sp-d16
   5              	 .eabi_attribute 20,1
   6              	 .eabi_attribute 21,1
   7              	 .eabi_attribute 23,3
   8              	 .eabi_attribute 24,1
   9              	 .eabi_attribute 25,1
  10              	 .eabi_attribute 26,1
  11              	 .eabi_attribute 30,4
  12              	 .eabi_attribute 34,1
  13              	 .eabi_attribute 18,4
  14              	 .thumb
  15              	 .file "DAVE.c"
  16              	 .text
  17              	.Ltext0:
  18              	 .cfi_sections .debug_frame
  19              	 .section .text.DAVE_Init,"ax",%progbits
  20              	 .align 1
  21              	 .weak DAVE_Init
  22              	 .thumb
  23              	 .thumb_func
  25              	DAVE_Init:
  26              	.LFB419:
  27              	 .file 1 "../Dave/Generated/DAVE.c"
   1:../Dave/Generated/DAVE.c **** 
   2:../Dave/Generated/DAVE.c **** /**
   3:../Dave/Generated/DAVE.c ****  * @cond
   4:../Dave/Generated/DAVE.c ****  **************************************************************************************************
   5:../Dave/Generated/DAVE.c ****  *
   6:../Dave/Generated/DAVE.c ****  * Copyright (c) 2015-2019, Infineon Technologies AG
   7:../Dave/Generated/DAVE.c ****  * All rights reserved.
   8:../Dave/Generated/DAVE.c ****  *
   9:../Dave/Generated/DAVE.c ****  * Redistribution and use in source and binary forms, with or without modification,are permitted pr
  10:../Dave/Generated/DAVE.c ****  * following conditions are met:
  11:../Dave/Generated/DAVE.c ****  *
  12:../Dave/Generated/DAVE.c ****  *   Redistributions of source code must retain the above copyright notice, this list of conditions
  13:../Dave/Generated/DAVE.c ****  *   disclaimer.
  14:../Dave/Generated/DAVE.c ****  *
  15:../Dave/Generated/DAVE.c ****  *   Redistributions in binary form must reproduce the above copyright notice, this list of conditi
  16:../Dave/Generated/DAVE.c ****  *   following disclaimer in the documentation and/or other materials provided with the distributio
  17:../Dave/Generated/DAVE.c ****  *
  18:../Dave/Generated/DAVE.c ****  *   Neither the name of the copyright holders nor the names of its contributors may be used to end
  19:../Dave/Generated/DAVE.c ****  *   products derived from this software without specific prior written permission.
  20:../Dave/Generated/DAVE.c ****  *
  21:../Dave/Generated/DAVE.c ****  * THIS SOFTWARE IS PROVIDED BY THE COPYRIGHT HOLDERS AND CONTRIBUTORS "AS IS" AND ANY EXPRESS OR I
  22:../Dave/Generated/DAVE.c ****  * INCLUDING, BUT NOT LIMITED TO, THE IMPLIED WARRANTIES OF MERCHANTABILITY AND FITNESS FOR A PARTI
  23:../Dave/Generated/DAVE.c ****  * DISCLAIMED. IN NO EVENT SHALL THE COPYRIGHT HOLDER OR CONTRIBUTORS BE LIABLE  FOR ANY DIRECT, IN
  24:../Dave/Generated/DAVE.c ****  * SPECIAL, EXEMPLARY, OR CONSEQUENTIAL DAMAGES (INCLUDING, BUT NOT LIMITED TO, PROCUREMENT OF SUBS
  25:../Dave/Generated/DAVE.c ****  * SERVICES; LOSS OF USE, DATA, OR PROFITS; OR BUSINESS INTERRUPTION) HOWEVER CAUSED AND ON ANY THE
  26:../Dave/Generated/DAVE.c ****  * WHETHER IN CONTRACT, STRICT LIABILITY,OR TORT (INCLUDING NEGLIGENCE OR OTHERWISE) ARISING IN ANY
  27:../Dave/Generated/DAVE.c ****  * USE OF THIS SOFTWARE, EVEN IF ADVISED OF THE POSSIBILITY OF SUCH DAMAGE.
  28:../Dave/Generated/DAVE.c ****  *
  29:../Dave/Generated/DAVE.c ****  * To improve the quality of the software, users are encouraged to share modifications, enhancement
  30:../Dave/Generated/DAVE.c ****  * with Infineon Technologies AG (dave@infineon.com).
  31:../Dave/Generated/DAVE.c ****  **************************************************************************************************
  32:../Dave/Generated/DAVE.c ****  *
  33:../Dave/Generated/DAVE.c ****  * Change History
  34:../Dave/Generated/DAVE.c ****  * --------------
  35:../Dave/Generated/DAVE.c ****  *
  36:../Dave/Generated/DAVE.c ****  * 2014-06-16:
  37:../Dave/Generated/DAVE.c ****  *     - Initial version<br>
  38:../Dave/Generated/DAVE.c ****  * 2015-08-28:
  39:../Dave/Generated/DAVE.c ****  *     - Added CLOCK_XMC1_Init conditionally
  40:../Dave/Generated/DAVE.c ****  * 2018-08-08:
  41:../Dave/Generated/DAVE.c ****  *     - Add creation of projectData.bak file
  42:../Dave/Generated/DAVE.c ****  * 2019-01-30:
  43:../Dave/Generated/DAVE.c ****  *     - Fix creation of projectData.bak file
  44:../Dave/Generated/DAVE.c ****  * 2019-04-29:
  45:../Dave/Generated/DAVE.c ****  *     - Make DAVE_Init() weak, the user can reimplement the function
  46:../Dave/Generated/DAVE.c ****  *
  47:../Dave/Generated/DAVE.c ****  * @endcond
  48:../Dave/Generated/DAVE.c ****  *
  49:../Dave/Generated/DAVE.c ****  */
  50:../Dave/Generated/DAVE.c **** 
  51:../Dave/Generated/DAVE.c **** /**************************************************************************************************
  52:../Dave/Generated/DAVE.c ****  * HEADER FILES
  53:../Dave/Generated/DAVE.c ****  **************************************************************************************************
  54:../Dave/Generated/DAVE.c **** #include "DAVE.h"
  55:../Dave/Generated/DAVE.c **** 
  56:../Dave/Generated/DAVE.c **** /**************************************************************************************************
  57:../Dave/Generated/DAVE.c ****  * API IMPLEMENTATION
  58:../Dave/Generated/DAVE.c ****  **************************************************************************************************
  59:../Dave/Generated/DAVE.c **** 
  60:../Dave/Generated/DAVE.c **** /*******************************************************************************
  61:../Dave/Generated/DAVE.c ****  * @brief This function initializes the APPs Init Functions.
  62:../Dave/Generated/DAVE.c ****  *
  63:../Dave/Generated/DAVE.c ****  * @param[in]  None
  64:../Dave/Generated/DAVE.c ****  *
  65:../Dave/Generated/DAVE.c ****  * @return  DAVE_STATUS_t <BR>
  66:../Dave/Generated/DAVE.c ****  ******************************************************************************/
  67:../Dave/Generated/DAVE.c **** __WEAK DAVE_STATUS_t DAVE_Init(void)
  68:../Dave/Generated/DAVE.c **** {
  28              	 .loc 1 68 0
  29              	 .cfi_startproc
  30              	 
  31              	 
  32              	.LVL0:
  33 0000 08B5     	 push {r3,lr}
  34              	.LCFI0:
  35              	 .cfi_def_cfa_offset 8
  36              	 .cfi_offset 3,-8
  37              	 .cfi_offset 14,-4
  69:../Dave/Generated/DAVE.c ****   DAVE_STATUS_t init_status;
  70:../Dave/Generated/DAVE.c ****   
  71:../Dave/Generated/DAVE.c ****   init_status = DAVE_STATUS_SUCCESS;
  72:../Dave/Generated/DAVE.c ****      /** @Initialization of APPs Init Functions */
  73:../Dave/Generated/DAVE.c ****      init_status = (DAVE_STATUS_t)CLOCK_XMC4_Init(&CLOCK_XMC4_0);
  38              	 .loc 1 73 0
  39 0002 1D48     	 ldr r0,.L15
  40 0004 FFF7FEFF 	 bl CLOCK_XMC4_Init
  41              	.LVL1:
  74:../Dave/Generated/DAVE.c **** 
  75:../Dave/Generated/DAVE.c ****   if (init_status == DAVE_STATUS_SUCCESS)
  42              	 .loc 1 75 0
  43 0008 0028     	 cmp r0,#0
  44 000a 34D1     	 bne .L13
  76:../Dave/Generated/DAVE.c ****   {
  77:../Dave/Generated/DAVE.c **** 	 /**  Initialization of PWM APP instance PWM_MOTOR_0 */
  78:../Dave/Generated/DAVE.c **** 	 init_status = (DAVE_STATUS_t)PWM_Init(&PWM_MOTOR_0); 
  45              	 .loc 1 78 0
  46 000c 1B48     	 ldr r0,.L15+4
  47              	.LVL2:
  48 000e FFF7FEFF 	 bl PWM_Init
  49              	.LVL3:
  79:../Dave/Generated/DAVE.c ****    } 
  80:../Dave/Generated/DAVE.c ****   if (init_status == DAVE_STATUS_SUCCESS)
  50              	 .loc 1 80 0
  51 0012 80BB     	 cbnz r0,.L13
  81:../Dave/Generated/DAVE.c ****   {
  82:../Dave/Generated/DAVE.c **** 	 /**  Initialization of UART APP instance UART_0 */
  83:../Dave/Generated/DAVE.c **** 	 init_status = (DAVE_STATUS_t)UART_Init(&UART_0); 
  52              	 .loc 1 83 0
  53 0014 1A48     	 ldr r0,.L15+8
  54              	.LVL4:
  55 0016 FFF7FEFF 	 bl UART_Init
  56              	.LVL5:
  84:../Dave/Generated/DAVE.c ****    } 
  85:../Dave/Generated/DAVE.c ****   if (init_status == DAVE_STATUS_SUCCESS)
  57              	 .loc 1 85 0
  58 001a 60BB     	 cbnz r0,.L13
  86:../Dave/Generated/DAVE.c ****   {
  87:../Dave/Generated/DAVE.c **** 	 /**  Initialization of PWM APP instance PWM_MOTOR_1 */
  88:../Dave/Generated/DAVE.c **** 	 init_status = (DAVE_STATUS_t)PWM_Init(&PWM_MOTOR_1); 
  59              	 .loc 1 88 0
  60 001c 1948     	 ldr r0,.L15+12
  61              	.LVL6:
  62 001e FFF7FEFF 	 bl PWM_Init
  63              	.LVL7:
  89:../Dave/Generated/DAVE.c ****    } 
  90:../Dave/Generated/DAVE.c ****   if (init_status == DAVE_STATUS_SUCCESS)
  64              	 .loc 1 90 0
  65 0022 40BB     	 cbnz r0,.L13
  91:../Dave/Generated/DAVE.c ****   {
  92:../Dave/Generated/DAVE.c **** 	 /**  Initialization of PWM APP instance PWM_MOTOR_2 */
  93:../Dave/Generated/DAVE.c **** 	 init_status = (DAVE_STATUS_t)PWM_Init(&PWM_MOTOR_2); 
  66              	 .loc 1 93 0
  67 0024 1848     	 ldr r0,.L15+16
  68              	.LVL8:
  69 0026 FFF7FEFF 	 bl PWM_Init
  70              	.LVL9:
  94:../Dave/Generated/DAVE.c ****    } 
  95:../Dave/Generated/DAVE.c ****   if (init_status == DAVE_STATUS_SUCCESS)
  71              	 .loc 1 95 0
  72 002a 20BB     	 cbnz r0,.L13
  96:../Dave/Generated/DAVE.c ****   {
  97:../Dave/Generated/DAVE.c **** 	 /**  Initialization of ADC_MEASUREMENT APP instance ADC_MEASUREMENT_0 */
  98:../Dave/Generated/DAVE.c **** 	 init_status = (DAVE_STATUS_t)ADC_MEASUREMENT_Init(&ADC_MEASUREMENT_0); 
  73              	 .loc 1 98 0
  74 002c 1748     	 ldr r0,.L15+20
  75              	.LVL10:
  76 002e FFF7FEFF 	 bl ADC_MEASUREMENT_Init
  77              	.LVL11:
  99:../Dave/Generated/DAVE.c ****    } 
 100:../Dave/Generated/DAVE.c ****   if (init_status == DAVE_STATUS_SUCCESS)
  78              	 .loc 1 100 0
  79 0032 00BB     	 cbnz r0,.L13
 101:../Dave/Generated/DAVE.c ****   {
 102:../Dave/Generated/DAVE.c **** 	 /**  Initialization of DIGITAL_IO APP instance DIGITAL_IO_PLATE_LL */
 103:../Dave/Generated/DAVE.c **** 	 init_status = (DAVE_STATUS_t)DIGITAL_IO_Init(&DIGITAL_IO_PLATE_LL); 
  80              	 .loc 1 103 0
  81 0034 1648     	 ldr r0,.L15+24
  82              	.LVL12:
  83 0036 FFF7FEFF 	 bl DIGITAL_IO_Init
  84              	.LVL13:
 104:../Dave/Generated/DAVE.c ****    } 
 105:../Dave/Generated/DAVE.c ****   if (init_status == DAVE_STATUS_SUCCESS)
  85              	 .loc 1 105 0
  86 003a E0B9     	 cbnz r0,.L13
 106:../Dave/Generated/DAVE.c ****   {
 107:../Dave/Generated/DAVE.c **** 	 /**  Initialization of DIGITAL_IO APP instance DIGITAL_IO_PLATE_UR */
 108:../Dave/Generated/DAVE.c **** 	 init_status = (DAVE_STATUS_t)DIGITAL_IO_Init(&DIGITAL_IO_PLATE_UR); 
  87              	 .loc 1 108 0
  88 003c 1548     	 ldr r0,.L15+28
  89              	.LVL14:
  90 003e FFF7FEFF 	 bl DIGITAL_IO_Init
  91              	.LVL15:
 109:../Dave/Generated/DAVE.c ****    } 
 110:../Dave/Generated/DAVE.c ****   if (init_status == DAVE_STATUS_SUCCESS)
  92              	 .loc 1 110 0
  93 0042 C0B9     	 cbnz r0,.L13
 111:../Dave/Generated/DAVE.c ****   {
 112:../Dave/Generated/DAVE.c **** 	 /**  Initialization of TIMER APP instance TIMER_PLATE_SCAN */
 113:../Dave/Generated/DAVE.c **** 	 init_status = (DAVE_STATUS_t)TIMER_Init(&TIMER_PLATE_SCAN); 
  94              	 .loc 1 113 0
  95 0044 1448     	 ldr r0,.L15+32
  96              	.LVL16:
  97 0046 FFF7FEFF 	 bl TIMER_Init
  98              	.LVL17:
 114:../Dave/Generated/DAVE.c ****    } 
 115:../Dave/Generated/DAVE.c ****   if (init_status == DAVE_STATUS_SUCCESS)
  99              	 .loc 1 115 0
 100 004a A0B9     	 cbnz r0,.L13
 116:../Dave/Generated/DAVE.c ****   {
 117:../Dave/Generated/DAVE.c **** 	 /**  Initialization of INTERRUPT APP instance INTERRUPT_TIMER_PLATE_SCAN */
 118:../Dave/Generated/DAVE.c **** 	 init_status = (DAVE_STATUS_t)INTERRUPT_Init(&INTERRUPT_TIMER_PLATE_SCAN); 
 101              	 .loc 1 118 0
 102 004c 1348     	 ldr r0,.L15+36
 103              	.LVL18:
 104 004e FFF7FEFF 	 bl INTERRUPT_Init
 105              	.LVL19:
 119:../Dave/Generated/DAVE.c ****    } 
 120:../Dave/Generated/DAVE.c ****   if (init_status == DAVE_STATUS_SUCCESS)
 106              	 .loc 1 120 0
 107 0052 80B9     	 cbnz r0,.L13
 121:../Dave/Generated/DAVE.c ****   {
 122:../Dave/Generated/DAVE.c **** 	 /**  Initialization of DIGITAL_IO APP instance DIGITAL_IO_PLATE_LR */
 123:../Dave/Generated/DAVE.c **** 	 init_status = (DAVE_STATUS_t)DIGITAL_IO_Init(&DIGITAL_IO_PLATE_LR); 
 108              	 .loc 1 123 0
 109 0054 1248     	 ldr r0,.L15+40
 110              	.LVL20:
 111 0056 FFF7FEFF 	 bl DIGITAL_IO_Init
 112              	.LVL21:
 124:../Dave/Generated/DAVE.c ****    } 
 125:../Dave/Generated/DAVE.c ****   if (init_status == DAVE_STATUS_SUCCESS)
 113              	 .loc 1 125 0
 114 005a 60B9     	 cbnz r0,.L13
 126:../Dave/Generated/DAVE.c ****   {
 127:../Dave/Generated/DAVE.c **** 	 /**  Initialization of DIGITAL_IO APP instance DIGITAL_IO_PLATE_UL */
 128:../Dave/Generated/DAVE.c **** 	 init_status = (DAVE_STATUS_t)DIGITAL_IO_Init(&DIGITAL_IO_PLATE_UL); 
 115              	 .loc 1 128 0
 116 005c 1148     	 ldr r0,.L15+44
 117              	.LVL22:
 118 005e FFF7FEFF 	 bl DIGITAL_IO_Init
 119              	.LVL23:
 129:../Dave/Generated/DAVE.c ****    } 
 130:../Dave/Generated/DAVE.c ****   if (init_status == DAVE_STATUS_SUCCESS)
 120              	 .loc 1 130 0
 121 0062 40B9     	 cbnz r0,.L13
 131:../Dave/Generated/DAVE.c ****   {
 132:../Dave/Generated/DAVE.c **** 	 /**  Initialization of TIMER APP instance TIMER_SET_PWM_VALUES */
 133:../Dave/Generated/DAVE.c **** 	 init_status = (DAVE_STATUS_t)TIMER_Init(&TIMER_SET_PWM_VALUES); 
 122              	 .loc 1 133 0
 123 0064 1048     	 ldr r0,.L15+48
 124              	.LVL24:
 125 0066 FFF7FEFF 	 bl TIMER_Init
 126              	.LVL25:
 134:../Dave/Generated/DAVE.c ****    } 
 135:../Dave/Generated/DAVE.c ****   if (init_status == DAVE_STATUS_SUCCESS)
 127              	 .loc 1 135 0
 128 006a 20B9     	 cbnz r0,.L13
 136:../Dave/Generated/DAVE.c ****   {
 137:../Dave/Generated/DAVE.c **** 	 /**  Initialization of INTERRUPT APP instance INTERRUPT_SET_PWM_VALUES */
 138:../Dave/Generated/DAVE.c **** 	 init_status = (DAVE_STATUS_t)INTERRUPT_Init(&INTERRUPT_SET_PWM_VALUES); 
 129              	 .loc 1 138 0
 130 006c 0F48     	 ldr r0,.L15+52
 131              	.LVL26:
 139:../Dave/Generated/DAVE.c ****    }  
 140:../Dave/Generated/DAVE.c ****   return init_status;
 141:../Dave/Generated/DAVE.c **** } /**  End of function DAVE_Init */
 132              	 .loc 1 141 0
 133 006e BDE80840 	 pop {r3,lr}
 134              	.LCFI1:
 135              	 .cfi_remember_state
 136              	 .cfi_restore 14
 137              	 .cfi_restore 3
 138              	 .cfi_def_cfa_offset 0
 138:../Dave/Generated/DAVE.c ****    }  
 139              	 .loc 1 138 0
 140 0072 FFF7FEBF 	 b INTERRUPT_Init
 141              	.LVL27:
 142              	.L13:
 143              	.LCFI2:
 144              	 .cfi_restore_state
 145              	 .loc 1 141 0
 146 0076 08BD     	 pop {r3,pc}
 147              	.L16:
 148              	 .align 2
 149              	.L15:
 150 0078 00000000 	 .word CLOCK_XMC4_0
 151 007c 00000000 	 .word PWM_MOTOR_0
 152 0080 00000000 	 .word UART_0
 153 0084 00000000 	 .word PWM_MOTOR_1
 154 0088 00000000 	 .word PWM_MOTOR_2
 155 008c 00000000 	 .word ADC_MEASUREMENT_0
 156 0090 00000000 	 .word DIGITAL_IO_PLATE_LL
 157 0094 00000000 	 .word DIGITAL_IO_PLATE_UR
 158 0098 00000000 	 .word TIMER_PLATE_SCAN
 159 009c 00000000 	 .word INTERRUPT_TIMER_PLATE_SCAN
 160 00a0 00000000 	 .word DIGITAL_IO_PLATE_LR
 161 00a4 00000000 	 .word DIGITAL_IO_PLATE_UL
 162 00a8 00000000 	 .word TIMER_SET_PWM_VALUES
 163 00ac 00000000 	 .word INTERRUPT_SET_PWM_VALUES
 164              	 .cfi_endproc
 165              	.LFE419:
 167              	 .text
 168              	.Letext0:
 169              	 .file 2 "c:\\program files\\dave_4\\dave-ide-4.4.2-64bit\\eclipse\\arm-gcc-49\\arm-none-eabi\\include\\machine\\_default_types.h"
 170              	 .file 3 "c:\\program files\\dave_4\\dave-ide-4.4.2-64bit\\eclipse\\arm-gcc-49\\arm-none-eabi\\include\\stdint.h"
 171              	 .file 4 "G:/dt_g1_balancing_plate_wise20192020/XMC/Libraries/CMSIS/Infineon/XMC4500_series/Include/XMC4500.h"
 172              	 .file 5 "G:/dt_g1_balancing_plate_wise20192020/XMC/Libraries/XMCLib/inc/xmc4_scu.h"
 173              	 .file 6 "G:/dt_g1_balancing_plate_wise20192020/XMC/Libraries/XMCLib/inc/xmc_gpio.h"
 174              	 .file 7 "G:/dt_g1_balancing_plate_wise20192020/XMC/Libraries/XMCLib/inc/xmc4_gpio.h"
 175              	 .file 8 "../Dave/Generated/CLOCK_XMC4/clock_xmc4.h"
 176              	 .file 9 "G:/dt_g1_balancing_plate_wise20192020/XMC/Libraries/XMCLib/inc/xmc_ccu4.h"
 177              	 .file 10 "../Dave/Generated/GLOBAL_CCU4/global_ccu4.h"
 178              	 .file 11 "../Dave/Generated/PWM/pwm.h"
 179              	 .file 12 "G:/dt_g1_balancing_plate_wise20192020/XMC/Libraries/XMCLib/inc/xmc_usic.h"
 180              	 .file 13 "G:/dt_g1_balancing_plate_wise20192020/XMC/Libraries/XMCLib/inc/xmc_uart.h"
 181              	 .file 14 "../Dave/Generated/UART/uart.h"
 182              	 .file 15 "G:/dt_g1_balancing_plate_wise20192020/XMC/Libraries/XMCLib/inc/xmc_vadc.h"
 183              	 .file 16 "../Dave/Generated/GLOBAL_ADC/global_adc.h"
 184              	 .file 17 "../Dave/Generated/ADC_MEASUREMENT/adc_measurement.h"
 185              	 .file 18 "../Dave/Generated/DIGITAL_IO/digital_io.h"
 186              	 .file 19 "../Dave/Generated/TIMER/timer.h"
 187              	 .file 20 "../Dave/Generated/INTERRUPT/interrupt.h"
 188              	 .file 21 "../Dave/Generated/DAVE.h"
 189              	 .file 22 "G:/dt_g1_balancing_plate_wise20192020/XMC/Libraries/CMSIS/Include/core_cm4.h"
 190              	 .file 23 "G:/dt_g1_balancing_plate_wise20192020/XMC/Libraries/CMSIS/Infineon/XMC4500_series/Include/system_XMC4500.h"
 191              	 .file 24 "../Dave/Generated/CLOCK_XMC4/clock_xmc4_extern.h"
 192              	 .file 25 "../Dave/Generated/PWM/PWM_Extern.h"
 193              	 .file 26 "../Dave/Generated/UART/uart_extern.h"
 194              	 .file 27 "../Dave/Generated/ADC_MEASUREMENT/ADC_MEASUREMENT_Extern.h"
 195              	 .file 28 "../Dave/Generated/DIGITAL_IO/digital_io_extern.h"
 196              	 .file 29 "../Dave/Generated/TIMER/timer_extern.h"
 197              	 .file 30 "../Dave/Generated/INTERRUPT/interrupt_extern.h"