   1              	 .syntax unified
   2              	 .cpu cortex-m4
   3              	 .eabi_attribute 27,3
   4              	 .fpu fpv4-sp-d16
   5              	 .eabi_attribute 20,1
   6              	 .eabi_attribute 21,1
   7              	 .eabi_attribute 23,3
   8              	 .eabi_attribute 24,1
   9              	 .eabi_attribute 25,1
  10              	 .eabi_attribute 26,1
  11              	 .eabi_attribute 30,4
  12              	 .eabi_attribute 34,1
  13              	 .eabi_attribute 18,4
  14              	 .thumb
  15              	 .file "xmc4_scu.c"
  16              	 .text
  17              	.Ltext0:
  18              	 .cfi_sections .debug_frame
  19              	 .section .text.XMC_SCU_lDelay,"ax",%progbits
  20              	 .align 1
  21              	 .thumb
  22              	 .thumb_func
  24              	XMC_SCU_lDelay:
  25              	.LFB174:
  26              	 .file 1 "../Libraries/XMCLib/src/xmc4_scu.c"
   1:../Libraries/XMCLib/src/xmc4_scu.c **** /**
   2:../Libraries/XMCLib/src/xmc4_scu.c ****  * @file xmc4_scu.c
   3:../Libraries/XMCLib/src/xmc4_scu.c ****  * @date 2018-06-21
   4:../Libraries/XMCLib/src/xmc4_scu.c ****  *
   5:../Libraries/XMCLib/src/xmc4_scu.c ****  * @cond
   6:../Libraries/XMCLib/src/xmc4_scu.c ****  **************************************************************************************************
   7:../Libraries/XMCLib/src/xmc4_scu.c ****  * XMClib v2.1.22 - XMC Peripheral Driver Library 
   8:../Libraries/XMCLib/src/xmc4_scu.c ****  *
   9:../Libraries/XMCLib/src/xmc4_scu.c ****  * Copyright (c) 2015-2019, Infineon Technologies AG
  10:../Libraries/XMCLib/src/xmc4_scu.c ****  * All rights reserved.                        
  11:../Libraries/XMCLib/src/xmc4_scu.c ****  *                                             
  12:../Libraries/XMCLib/src/xmc4_scu.c ****  * Redistribution and use in source and binary forms, with or without modification,are permitted pr
  13:../Libraries/XMCLib/src/xmc4_scu.c ****  * following conditions are met:   
  14:../Libraries/XMCLib/src/xmc4_scu.c ****  *                                                                              
  15:../Libraries/XMCLib/src/xmc4_scu.c ****  * Redistributions of source code must retain the above copyright notice, this list of conditions a
  16:../Libraries/XMCLib/src/xmc4_scu.c ****  * disclaimer.                        
  17:../Libraries/XMCLib/src/xmc4_scu.c ****  * 
  18:../Libraries/XMCLib/src/xmc4_scu.c ****  * Redistributions in binary form must reproduce the above copyright notice, this list of condition
  19:../Libraries/XMCLib/src/xmc4_scu.c ****  * disclaimer in the documentation and/or other materials provided with the distribution.          
  20:../Libraries/XMCLib/src/xmc4_scu.c ****  * 
  21:../Libraries/XMCLib/src/xmc4_scu.c ****  * Neither the name of the copyright holders nor the names of its contributors may be used to endor
  22:../Libraries/XMCLib/src/xmc4_scu.c ****  * products derived from this software without specific prior written permission.                  
  23:../Libraries/XMCLib/src/xmc4_scu.c ****  *                                                                              
  24:../Libraries/XMCLib/src/xmc4_scu.c ****  * THIS SOFTWARE IS PROVIDED BY THE COPYRIGHT HOLDERS AND CONTRIBUTORS "AS IS" AND ANY EXPRESS OR I
  25:../Libraries/XMCLib/src/xmc4_scu.c ****  * INCLUDING, BUT NOT LIMITED TO, THE IMPLIED WARRANTIES OF MERCHANTABILITY AND FITNESS FOR A PARTI
  26:../Libraries/XMCLib/src/xmc4_scu.c ****  * DISCLAIMED. IN NO EVENT SHALL THE COPYRIGHT HOLDER OR CONTRIBUTORS BE LIABLE  FOR ANY DIRECT, IN
  27:../Libraries/XMCLib/src/xmc4_scu.c ****  * SPECIAL, EXEMPLARY, OR CONSEQUENTIAL DAMAGES (INCLUDING, BUT NOT LIMITED TO, PROCUREMENT OF SUBS
  28:../Libraries/XMCLib/src/xmc4_scu.c ****  * SERVICES; LOSS OF USE, DATA, OR PROFITS; OR BUSINESS INTERRUPTION) HOWEVER CAUSED AND ON ANY THE
  29:../Libraries/XMCLib/src/xmc4_scu.c ****  * WHETHER IN CONTRACT, STRICT LIABILITY,OR TORT (INCLUDING NEGLIGENCE OR OTHERWISE) ARISING IN ANY
  30:../Libraries/XMCLib/src/xmc4_scu.c ****  * OF THIS SOFTWARE, EVEN IF ADVISED OF THE POSSIBILITY OF SUCH DAMAGE.                            
  31:../Libraries/XMCLib/src/xmc4_scu.c ****  *                                                                              
  32:../Libraries/XMCLib/src/xmc4_scu.c ****  * To improve the quality of the software, users are encouraged to share modifications, enhancement
  33:../Libraries/XMCLib/src/xmc4_scu.c ****  * Infineon Technologies AG dave@infineon.com).                                                    
  34:../Libraries/XMCLib/src/xmc4_scu.c ****  **************************************************************************************************
  35:../Libraries/XMCLib/src/xmc4_scu.c ****  *
  36:../Libraries/XMCLib/src/xmc4_scu.c ****  * Change History
  37:../Libraries/XMCLib/src/xmc4_scu.c ****  * --------------
  38:../Libraries/XMCLib/src/xmc4_scu.c ****  *
  39:../Libraries/XMCLib/src/xmc4_scu.c ****  * 2015-02-20:
  40:../Libraries/XMCLib/src/xmc4_scu.c ****  *     - Initial <br>
  41:../Libraries/XMCLib/src/xmc4_scu.c ****  *      
  42:../Libraries/XMCLib/src/xmc4_scu.c ****  * 2015-05-20:
  43:../Libraries/XMCLib/src/xmc4_scu.c ****  *     - XMC_ASSERT() hanging issues have fixed.  <br>
  44:../Libraries/XMCLib/src/xmc4_scu.c ****  *     - Line indentation aligned with 120 characters. <br>
  45:../Libraries/XMCLib/src/xmc4_scu.c ****  *     
  46:../Libraries/XMCLib/src/xmc4_scu.c ****  * 2015-06-20:
  47:../Libraries/XMCLib/src/xmc4_scu.c ****  *     - XMC_SCU_INTERRUPT_EnableEvent,XMC_SCU_INTERRUPT_DisableEvent,
  48:../Libraries/XMCLib/src/xmc4_scu.c ****  *     - XMC_SCU_INTERRUPT_TriggerEvent,XMC_SCU_INTERUPT_GetEventStatus,
  49:../Libraries/XMCLib/src/xmc4_scu.c ****  *     - XMC_SCU_INTERRUPT_ClearEventStatus are added
  50:../Libraries/XMCLib/src/xmc4_scu.c ****  *     - Added Weak implementation for OSCHP_GetFrequency()
  51:../Libraries/XMCLib/src/xmc4_scu.c ****  *
  52:../Libraries/XMCLib/src/xmc4_scu.c ****  * 2015-11-30:
  53:../Libraries/XMCLib/src/xmc4_scu.c ****  *     - Documentation improved <br>
  54:../Libraries/XMCLib/src/xmc4_scu.c ****  *     - Following API functionalities are improved
  55:../Libraries/XMCLib/src/xmc4_scu.c ****  *       XMC_SCU_CLOCK_GatePeripheralClock, XMC_SCU_CLOCK_UngatePeripheralClock, XMC_SCU_CLOCK_IsPe
  56:../Libraries/XMCLib/src/xmc4_scu.c ****  *       XMC_SCU_RESET_AssertPeripheralReset, XMC_SCU_RESET_DeassertPeripheralReset, XMC_SCU_RESET_
  57:../Libraries/XMCLib/src/xmc4_scu.c ****  *
  58:../Libraries/XMCLib/src/xmc4_scu.c ****  * 2015-12-08:
  59:../Libraries/XMCLib/src/xmc4_scu.c ****  *     - XMC_SCU_GetTemperature renamed to XMC_SCU_GetTemperatureMeasurement
  60:../Libraries/XMCLib/src/xmc4_scu.c ****  *
  61:../Libraries/XMCLib/src/xmc4_scu.c ****  * 2016-03-09:
  62:../Libraries/XMCLib/src/xmc4_scu.c ****  *     - Optimize write only registers
  63:../Libraries/XMCLib/src/xmc4_scu.c ****  *     - Added XMC_SCU_HIB_SetPinMode
  64:../Libraries/XMCLib/src/xmc4_scu.c ****  *     - Added XMC_SCU_HIB_GetHibernateControlStatus,
  65:../Libraries/XMCLib/src/xmc4_scu.c ****  *             XMC_SCU_HIB_GetEventStatus, XMC_SCU_HIB_ClearEventStatus, XMC_SCU_HIB_TriggerEvent, 
  66:../Libraries/XMCLib/src/xmc4_scu.c ****  *             XMC_SCU_HIB_EnableEvent, XMC_SCU_HIB_DisableEvent
  67:../Libraries/XMCLib/src/xmc4_scu.c ****  *     - Added XMC_SCU_HIB_SetWakeupTriggerInput, XMC_SCU_HIB_SetPinMode, XMC_SCU_HIB_SetOutputPinL
  68:../Libraries/XMCLib/src/xmc4_scu.c ****  *             XMC_SCU_HIB_SetInput0, XMC_SCU_HIB_EnterHibernateState
  69:../Libraries/XMCLib/src/xmc4_scu.c ****  *
  70:../Libraries/XMCLib/src/xmc4_scu.c ****  * 2016-04-06:
  71:../Libraries/XMCLib/src/xmc4_scu.c ****  *     - Fixed XMC_SCU_ReadFromRetentionMemory functionality
  72:../Libraries/XMCLib/src/xmc4_scu.c ****  *
  73:../Libraries/XMCLib/src/xmc4_scu.c ****  * 2016-05-19:
  74:../Libraries/XMCLib/src/xmc4_scu.c ****  *     - Changed XMC_SCU_CLOCK_StartSystemPll to avoid using floating point calculation which might
  75:../Libraries/XMCLib/src/xmc4_scu.c ****  *     - Added XMC_SCU_CLOCK_IsLowPowerOscillatorStable() and XMC_SCU_CLOCK_IsHighPerformanceOscill
  76:../Libraries/XMCLib/src/xmc4_scu.c ****  *     - Added XMC_SCU_CLOCK_EnableLowPowerOscillatorGeneralPurposeInput(), 
  77:../Libraries/XMCLib/src/xmc4_scu.c ****  *             XMC_SCU_CLOCK_DisableLowPowerOscillatorGeneralPurposeInput(),
  78:../Libraries/XMCLib/src/xmc4_scu.c ****  *             XMC_SCU_CLOCK_GetLowPowerOscillatorGeneralPurposeInputStatus()
  79:../Libraries/XMCLib/src/xmc4_scu.c ****  *     - Added XMC_SCU_CLOCK_EnableHighPerformanceOscillatorGeneralPurposeInput(), 
  80:../Libraries/XMCLib/src/xmc4_scu.c ****  *             XMC_SCU_CLOCK_DisableHighPerformanceOscillatorGeneralPurposeInput(),
  81:../Libraries/XMCLib/src/xmc4_scu.c ****  *             XMC_SCU_CLOCK_GetHighPerformanceOscillatorGeneralPurposeInputStatus()
  82:../Libraries/XMCLib/src/xmc4_scu.c ****  *
  83:../Libraries/XMCLib/src/xmc4_scu.c ****  * 2016-06-15:
  84:../Libraries/XMCLib/src/xmc4_scu.c ****  *     - Added XMC_SCU_HIB_EnterHibernateStateEx() which allows to select between external or inter
  85:../Libraries/XMCLib/src/xmc4_scu.c ****  *     - Extended wakeup hibernate events using LPAC wakeup on events. Only available in XMC44, XMC
  86:../Libraries/XMCLib/src/xmc4_scu.c ****  *     - Added LPAC APIs. Only available in XMC44, XMC42 and XMC41 series.
  87:../Libraries/XMCLib/src/xmc4_scu.c ****  *
  88:../Libraries/XMCLib/src/xmc4_scu.c ****  * 2018-06-21:
  89:../Libraries/XMCLib/src/xmc4_scu.c ****  *     - Fixed XMC_SCU_HIB_SetSR1Input()
  90:../Libraries/XMCLib/src/xmc4_scu.c ****  *     - Fixed XMC_SCU_CLOCK_EnableLowPowerOscillator()
  91:../Libraries/XMCLib/src/xmc4_scu.c ****  *
  92:../Libraries/XMCLib/src/xmc4_scu.c ****  * @endcond 
  93:../Libraries/XMCLib/src/xmc4_scu.c ****  *
  94:../Libraries/XMCLib/src/xmc4_scu.c ****  */
  95:../Libraries/XMCLib/src/xmc4_scu.c **** 
  96:../Libraries/XMCLib/src/xmc4_scu.c **** /**
  97:../Libraries/XMCLib/src/xmc4_scu.c ****  *
  98:../Libraries/XMCLib/src/xmc4_scu.c ****  * @brief SCU low level driver API prototype definition for XMC4 family of microcontrollers. 
  99:../Libraries/XMCLib/src/xmc4_scu.c ****  *
 100:../Libraries/XMCLib/src/xmc4_scu.c ****  * <b>Detailed description of file:</b> <br>
 101:../Libraries/XMCLib/src/xmc4_scu.c ****  * APIs provided in this file cover the following functional blocks of SCU: <br>
 102:../Libraries/XMCLib/src/xmc4_scu.c ****  * -- GCU (APIs prefixed with XMC_SCU_GEN_) <br>
 103:../Libraries/XMCLib/src/xmc4_scu.c ****  * ------ Temperature Monitoring, Bootmode selection, CCU Start, Comparator configuration etc  <br>
 104:../Libraries/XMCLib/src/xmc4_scu.c ****  * -- CCU (APIs prefixed with XMC_SCU_CLOCK_) <br>
 105:../Libraries/XMCLib/src/xmc4_scu.c ****  * ------ Clock sources init, Clock tree init, Clock gating, Sleep Management etc <br>
 106:../Libraries/XMCLib/src/xmc4_scu.c ****  * -- RCU (APIs prefixed with XMC_SCU_RESET_) <br>
 107:../Libraries/XMCLib/src/xmc4_scu.c ****  * ------ Reset Init, Cause, Manual Reset Assert/Deassert <br>
 108:../Libraries/XMCLib/src/xmc4_scu.c ****  * -- INTERRUPT (APIs prefixed with XMC_SCU_INTERRUPT_) <br>
 109:../Libraries/XMCLib/src/xmc4_scu.c ****  * ------ Init, Manual Assert/Deassert, Acknowledge etc <br>
 110:../Libraries/XMCLib/src/xmc4_scu.c ****  * -- PARITY (APIs prefixed with XMC_SCU_PARITY_) <br>
 111:../Libraries/XMCLib/src/xmc4_scu.c ****  * ------ Init, Acknowledge etc <br>
 112:../Libraries/XMCLib/src/xmc4_scu.c ****  * -- HIBERNATION (APIs prefixed with XMC_SCU_HIB_) <br>
 113:../Libraries/XMCLib/src/xmc4_scu.c ****  * ------ Hibernation entry/exit config, entry/wakeup sequences, LPAC configuration etc <br>
 114:../Libraries/XMCLib/src/xmc4_scu.c ****  * -- TRAP (APIs prefixed with XMC_SCU_TRAP_) <br>
 115:../Libraries/XMCLib/src/xmc4_scu.c ****  * ------ Init, Enable/Disable, Acknowledge etc <br>
 116:../Libraries/XMCLib/src/xmc4_scu.c ****  *
 117:../Libraries/XMCLib/src/xmc4_scu.c ****  */
 118:../Libraries/XMCLib/src/xmc4_scu.c **** 
 119:../Libraries/XMCLib/src/xmc4_scu.c **** /**************************************************************************************************
 120:../Libraries/XMCLib/src/xmc4_scu.c ****  * HEADER FILES
 121:../Libraries/XMCLib/src/xmc4_scu.c ****  **************************************************************************************************
 122:../Libraries/XMCLib/src/xmc4_scu.c **** #include <xmc_scu.h>
 123:../Libraries/XMCLib/src/xmc4_scu.c **** 
 124:../Libraries/XMCLib/src/xmc4_scu.c **** #if UC_FAMILY == XMC4
 125:../Libraries/XMCLib/src/xmc4_scu.c **** 
 126:../Libraries/XMCLib/src/xmc4_scu.c **** /**************************************************************************************************
 127:../Libraries/XMCLib/src/xmc4_scu.c ****  * MACROS
 128:../Libraries/XMCLib/src/xmc4_scu.c ****  **************************************************************************************************
 129:../Libraries/XMCLib/src/xmc4_scu.c **** #define FOSCREF   (2500000UL)    /**< Oscillator reference frequency (fOSCREF) monitored by Oscilla
 130:../Libraries/XMCLib/src/xmc4_scu.c **** #define FREQ_1MHZ (1000000UL)    /**< Used during calculation. */
 131:../Libraries/XMCLib/src/xmc4_scu.c **** 
 132:../Libraries/XMCLib/src/xmc4_scu.c **** #ifndef OFI_FREQUENCY
 133:../Libraries/XMCLib/src/xmc4_scu.c **** #define OFI_FREQUENCY (24000000UL)    /**< Fast internal backup clock source. */
 134:../Libraries/XMCLib/src/xmc4_scu.c **** #endif
 135:../Libraries/XMCLib/src/xmc4_scu.c **** 
 136:../Libraries/XMCLib/src/xmc4_scu.c **** #ifndef OSI_FREQUENCY
 137:../Libraries/XMCLib/src/xmc4_scu.c **** #define OSI_FREQUENCY (32768UL)    /**< Internal slow clock source. */
 138:../Libraries/XMCLib/src/xmc4_scu.c **** #endif
 139:../Libraries/XMCLib/src/xmc4_scu.c **** 
 140:../Libraries/XMCLib/src/xmc4_scu.c **** #ifndef OSCHP_FREQUENCY
 141:../Libraries/XMCLib/src/xmc4_scu.c **** #define OSCHP_FREQUENCY (12000000U)    /**< External crystal High Precision Oscillator. */
 142:../Libraries/XMCLib/src/xmc4_scu.c **** #endif
 143:../Libraries/XMCLib/src/xmc4_scu.c **** 
 144:../Libraries/XMCLib/src/xmc4_scu.c **** #define XMC_SCU_PLL_PLLSTAT_OSC_USABLE  (SCU_PLL_PLLSTAT_PLLHV_Msk | \
 145:../Libraries/XMCLib/src/xmc4_scu.c ****                                          SCU_PLL_PLLSTAT_PLLLV_Msk | \
 146:../Libraries/XMCLib/src/xmc4_scu.c ****                                          SCU_PLL_PLLSTAT_PLLSP_Msk)  /**< Used to verify the OSC fr
 147:../Libraries/XMCLib/src/xmc4_scu.c ****                                                                           usable or not.*/
 148:../Libraries/XMCLib/src/xmc4_scu.c **** 
 149:../Libraries/XMCLib/src/xmc4_scu.c **** #define XMC_SCU_ORC_ADC_START_GROUP    (0UL)    /**< The ADC group whose channel input is compared 
 150:../Libraries/XMCLib/src/xmc4_scu.c ****                                                      Comparator (ORC) to serves the purpose of over
 151:../Libraries/XMCLib/src/xmc4_scu.c ****                                                      for analog input pins of the chip and ORC star
 152:../Libraries/XMCLib/src/xmc4_scu.c ****                                                      this group number. */
 153:../Libraries/XMCLib/src/xmc4_scu.c **** #define XMC_SCU_ORC_ADC_END_GROUP      (1UL)    /**< The ADC group whose channel input is compared 
 154:../Libraries/XMCLib/src/xmc4_scu.c ****                                                      Comparator (ORC) to serves the purpose of over
 155:../Libraries/XMCLib/src/xmc4_scu.c ****                                                      for analog input pins of the chip and ORC end 
 156:../Libraries/XMCLib/src/xmc4_scu.c ****                                                      this group number. */
 157:../Libraries/XMCLib/src/xmc4_scu.c **** #define XMC_SCU_ORC_START_ADC_CHANNEL  (6UL)    /**< The ADC channel whose channel input is compare
 158:../Libraries/XMCLib/src/xmc4_scu.c ****                                                      Comparator (ORC) to serves the purpose of over
 159:../Libraries/XMCLib/src/xmc4_scu.c ****                                                      for analog input pins of the chip and ORC star
 160:../Libraries/XMCLib/src/xmc4_scu.c ****                                                      this channel number. */
 161:../Libraries/XMCLib/src/xmc4_scu.c **** #define XMC_SCU_ORC_END_ADC_CHANNEL    (7UL)    /**< The ADC channel whose channel input is compare
 162:../Libraries/XMCLib/src/xmc4_scu.c ****                                                      Comparator (ORC) to serves the purpose of over
 163:../Libraries/XMCLib/src/xmc4_scu.c ****                                                      for analog input pins of the chip and ORC ends
 164:../Libraries/XMCLib/src/xmc4_scu.c ****                                                      this channel number. */
 165:../Libraries/XMCLib/src/xmc4_scu.c **** 
 166:../Libraries/XMCLib/src/xmc4_scu.c **** #define XMC_SCU_CHECK_GRPNUM(GROUP_NUM)   (((GROUP_NUM) == XMC_SCU_ORC_ADC_START_GROUP) || \
 167:../Libraries/XMCLib/src/xmc4_scu.c ****                                         ((GROUP_NUM) == XMC_SCU_ORC_ADC_END_GROUP) ) /**< Used to v
 168:../Libraries/XMCLib/src/xmc4_scu.c ****                                                                                       provided ADC 
 169:../Libraries/XMCLib/src/xmc4_scu.c ****                                                                                       within specif
 170:../Libraries/XMCLib/src/xmc4_scu.c ****                                                                                       end group num
 171:../Libraries/XMCLib/src/xmc4_scu.c ****                                         
 172:../Libraries/XMCLib/src/xmc4_scu.c **** #define XMC_SCU_CHECK_CHNUM(CH_NUM)       (((CH_NUM) == XMC_SCU_ORC_START_ADC_CHANNEL) || \
 173:../Libraries/XMCLib/src/xmc4_scu.c ****                                         ((CH_NUM) == XMC_SCU_ORC_END_ADC_CHANNEL) )  /**< Used to v
 174:../Libraries/XMCLib/src/xmc4_scu.c ****                                                                                       provided ADC 
 175:../Libraries/XMCLib/src/xmc4_scu.c ****                                                                                       within specif
 176:../Libraries/XMCLib/src/xmc4_scu.c ****                                                                                       end channel n
 177:../Libraries/XMCLib/src/xmc4_scu.c **** 
 178:../Libraries/XMCLib/src/xmc4_scu.c **** #define XMC_SCU_INTERRUPT_EVENT_MAX            (32U)      /**< Maximum supported SCU events. */
 179:../Libraries/XMCLib/src/xmc4_scu.c **** 
 180:../Libraries/XMCLib/src/xmc4_scu.c **** #define SCU_HIBERNATE_HDCR_HIBIOSEL_Size (4U)
 181:../Libraries/XMCLib/src/xmc4_scu.c **** 
 182:../Libraries/XMCLib/src/xmc4_scu.c **** #define SCU_HIBERNATE_OSCULCTRL_MODE_OSC_POWER_DOWN (0x2U)
 183:../Libraries/XMCLib/src/xmc4_scu.c **** 
 184:../Libraries/XMCLib/src/xmc4_scu.c **** #define XMC_SCU_POWER_LSB13V (0.0058F)
 185:../Libraries/XMCLib/src/xmc4_scu.c **** #define XMC_SCU_POWER_LSB33V (0.0225F)
 186:../Libraries/XMCLib/src/xmc4_scu.c **** 
 187:../Libraries/XMCLib/src/xmc4_scu.c **** /**************************************************************************************************
 188:../Libraries/XMCLib/src/xmc4_scu.c ****  * LOCAL DATA
 189:../Libraries/XMCLib/src/xmc4_scu.c ****  **************************************************************************************************
 190:../Libraries/XMCLib/src/xmc4_scu.c **** XMC_SCU_INTERRUPT_EVENT_HANDLER_t event_handler_list[XMC_SCU_INTERRUPT_EVENT_MAX]; /**< For registe
 191:../Libraries/XMCLib/src/xmc4_scu.c ****                                                                                         functions o
 192:../Libraries/XMCLib/src/xmc4_scu.c ****                                                                                         occurrence.
 193:../Libraries/XMCLib/src/xmc4_scu.c **** 
 194:../Libraries/XMCLib/src/xmc4_scu.c **** /**************************************************************************************************
 195:../Libraries/XMCLib/src/xmc4_scu.c ****  * LOCAL ROUTINES
 196:../Libraries/XMCLib/src/xmc4_scu.c ****  **************************************************************************************************
 197:../Libraries/XMCLib/src/xmc4_scu.c ****  #if defined(UC_ID)
 198:../Libraries/XMCLib/src/xmc4_scu.c **** /* This is a non-weak function, which retrieves high precision external oscillator frequency. */
 199:../Libraries/XMCLib/src/xmc4_scu.c **** __WEAK uint32_t OSCHP_GetFrequency(void)
 200:../Libraries/XMCLib/src/xmc4_scu.c **** {
 201:../Libraries/XMCLib/src/xmc4_scu.c ****   return (OSCHP_FREQUENCY);
 202:../Libraries/XMCLib/src/xmc4_scu.c **** }
 203:../Libraries/XMCLib/src/xmc4_scu.c **** #endif
 204:../Libraries/XMCLib/src/xmc4_scu.c **** 
 205:../Libraries/XMCLib/src/xmc4_scu.c **** /* This is a local function used to generate the delay until register get updated with new configur
 206:../Libraries/XMCLib/src/xmc4_scu.c **** static void XMC_SCU_lDelay(uint32_t cycles);
 207:../Libraries/XMCLib/src/xmc4_scu.c **** 
 208:../Libraries/XMCLib/src/xmc4_scu.c **** /**************************************************************************************************
 209:../Libraries/XMCLib/src/xmc4_scu.c ****  * API IMPLEMENTATION
 210:../Libraries/XMCLib/src/xmc4_scu.c ****  **************************************************************************************************
 211:../Libraries/XMCLib/src/xmc4_scu.c **** /* This is a local function used to generate the delay until register get updated with new configur
 212:../Libraries/XMCLib/src/xmc4_scu.c **** void XMC_SCU_lDelay(uint32_t delay)
 213:../Libraries/XMCLib/src/xmc4_scu.c **** {
  27              	 .loc 1 213 0
  28              	 .cfi_startproc
  29              	 
  30              	 
  31              	.LVL0:
  32 0000 10B5     	 push {r4,lr}
  33              	.LCFI0:
  34              	 .cfi_def_cfa_offset 8
  35              	 .cfi_offset 4,-8
  36              	 .cfi_offset 14,-4
  37              	 .loc 1 213 0
  38 0002 0446     	 mov r4,r0
 214:../Libraries/XMCLib/src/xmc4_scu.c ****   uint32_t i;
 215:../Libraries/XMCLib/src/xmc4_scu.c **** 
 216:../Libraries/XMCLib/src/xmc4_scu.c ****   SystemCoreClockUpdate();
  39              	 .loc 1 216 0
  40 0004 FFF7FEFF 	 bl SystemCoreClockUpdate
  41              	.LVL1:
 217:../Libraries/XMCLib/src/xmc4_scu.c ****   delay =  delay * (uint32_t)(SystemCoreClock / FREQ_1MHZ);
  42              	 .loc 1 217 0
  43 0008 064B     	 ldr r3,.L6
  44 000a 0748     	 ldr r0,.L6+4
  45 000c 1B68     	 ldr r3,[r3]
  46 000e B3FBF0F3 	 udiv r3,r3,r0
  47 0012 03FB04F0 	 mul r0,r3,r4
  48              	.LVL2:
 218:../Libraries/XMCLib/src/xmc4_scu.c **** 
 219:../Libraries/XMCLib/src/xmc4_scu.c ****   for (i = 0U; i < delay; ++i)
  49              	 .loc 1 219 0
  50 0016 0023     	 movs r3,#0
  51              	.LVL3:
  52              	.L2:
  53              	 .loc 1 219 0 is_stmt 0 discriminator 1
  54 0018 8342     	 cmp r3,r0
  55 001a 02D0     	 beq .L5
 220:../Libraries/XMCLib/src/xmc4_scu.c ****   {
 221:../Libraries/XMCLib/src/xmc4_scu.c ****     __NOP();
  56              	 .loc 1 221 0 is_stmt 1 discriminator 3
  57              	
  58 001c 00BF     	 nop
  59              	
 219:../Libraries/XMCLib/src/xmc4_scu.c ****   {
  60              	 .loc 1 219 0 discriminator 3
  61              	 .thumb
  62 001e 0133     	 adds r3,r3,#1
  63              	.LVL4:
  64 0020 FAE7     	 b .L2
  65              	.L5:
 222:../Libraries/XMCLib/src/xmc4_scu.c ****   }
 223:../Libraries/XMCLib/src/xmc4_scu.c **** }
  66              	 .loc 1 223 0
  67 0022 10BD     	 pop {r4,pc}
  68              	.L7:
  69              	 .align 2
  70              	.L6:
  71 0024 00000000 	 .word SystemCoreClock
  72 0028 40420F00 	 .word 1000000
  73              	 .cfi_endproc
  74              	.LFE174:
  76              	 .section .text.XMC_SCU_INTERRUPT_EnableEvent,"ax",%progbits
  77              	 .align 1
  78              	 .global XMC_SCU_INTERRUPT_EnableEvent
  79              	 .thumb
  80              	 .thumb_func
  82              	XMC_SCU_INTERRUPT_EnableEvent:
  83              	.LFB175:
 224:../Libraries/XMCLib/src/xmc4_scu.c **** 
 225:../Libraries/XMCLib/src/xmc4_scu.c **** /* API to enable the SCU event */
 226:../Libraries/XMCLib/src/xmc4_scu.c **** void XMC_SCU_INTERRUPT_EnableEvent(const XMC_SCU_INTERRUPT_EVENT_t event)
 227:../Libraries/XMCLib/src/xmc4_scu.c **** {
  84              	 .loc 1 227 0
  85              	 .cfi_startproc
  86              	 
  87              	 
  88              	 
  89              	.LVL5:
 228:../Libraries/XMCLib/src/xmc4_scu.c ****   SCU_INTERRUPT->SRMSK |= (uint32_t)event;
  90              	 .loc 1 228 0
  91 0000 024A     	 ldr r2,.L9
  92 0002 9368     	 ldr r3,[r2,#8]
  93 0004 1843     	 orrs r0,r0,r3
  94              	.LVL6:
  95 0006 9060     	 str r0,[r2,#8]
  96 0008 7047     	 bx lr
  97              	.L10:
  98 000a 00BF     	 .align 2
  99              	.L9:
 100 000c 74400050 	 .word 1342193780
 101              	 .cfi_endproc
 102              	.LFE175:
 104              	 .section .text.XMC_SCU_INTERRUPT_DisableEvent,"ax",%progbits
 105              	 .align 1
 106              	 .global XMC_SCU_INTERRUPT_DisableEvent
 107              	 .thumb
 108              	 .thumb_func
 110              	XMC_SCU_INTERRUPT_DisableEvent:
 111              	.LFB176:
 229:../Libraries/XMCLib/src/xmc4_scu.c **** }
 230:../Libraries/XMCLib/src/xmc4_scu.c **** 
 231:../Libraries/XMCLib/src/xmc4_scu.c **** /* API to disable the SCU event */
 232:../Libraries/XMCLib/src/xmc4_scu.c **** void XMC_SCU_INTERRUPT_DisableEvent(const XMC_SCU_INTERRUPT_EVENT_t event)
 233:../Libraries/XMCLib/src/xmc4_scu.c **** {
 112              	 .loc 1 233 0
 113              	 .cfi_startproc
 114              	 
 115              	 
 116              	 
 117              	.LVL7:
 234:../Libraries/XMCLib/src/xmc4_scu.c ****   SCU_INTERRUPT->SRMSK &= (uint32_t)~event;
 118              	 .loc 1 234 0
 119 0000 024A     	 ldr r2,.L12
 120 0002 9368     	 ldr r3,[r2,#8]
 121 0004 23EA0000 	 bic r0,r3,r0
 122              	.LVL8:
 123 0008 9060     	 str r0,[r2,#8]
 124 000a 7047     	 bx lr
 125              	.L13:
 126              	 .align 2
 127              	.L12:
 128 000c 74400050 	 .word 1342193780
 129              	 .cfi_endproc
 130              	.LFE176:
 132              	 .section .text.XMC_SCU_INTERRUPT_TriggerEvent,"ax",%progbits
 133              	 .align 1
 134              	 .global XMC_SCU_INTERRUPT_TriggerEvent
 135              	 .thumb
 136              	 .thumb_func
 138              	XMC_SCU_INTERRUPT_TriggerEvent:
 139              	.LFB177:
 235:../Libraries/XMCLib/src/xmc4_scu.c **** }
 236:../Libraries/XMCLib/src/xmc4_scu.c **** 
 237:../Libraries/XMCLib/src/xmc4_scu.c **** /* API to trigger the SCU event */
 238:../Libraries/XMCLib/src/xmc4_scu.c **** void XMC_SCU_INTERRUPT_TriggerEvent(const XMC_SCU_INTERRUPT_EVENT_t event)
 239:../Libraries/XMCLib/src/xmc4_scu.c **** {
 140              	 .loc 1 239 0
 141              	 .cfi_startproc
 142              	 
 143              	 
 144              	 
 145              	.LVL9:
 240:../Libraries/XMCLib/src/xmc4_scu.c ****   SCU_INTERRUPT->SRSET |= (uint32_t)event;
 146              	 .loc 1 240 0
 147 0000 024A     	 ldr r2,.L15
 148 0002 1369     	 ldr r3,[r2,#16]
 149 0004 1843     	 orrs r0,r0,r3
 150              	.LVL10:
 151 0006 1061     	 str r0,[r2,#16]
 152 0008 7047     	 bx lr
 153              	.L16:
 154 000a 00BF     	 .align 2
 155              	.L15:
 156 000c 74400050 	 .word 1342193780
 157              	 .cfi_endproc
 158              	.LFE177:
 160              	 .section .text.XMC_SCU_INTERUPT_GetEventStatus,"ax",%progbits
 161              	 .align 1
 162              	 .global XMC_SCU_INTERUPT_GetEventStatus
 163              	 .thumb
 164              	 .thumb_func
 166              	XMC_SCU_INTERUPT_GetEventStatus:
 167              	.LFB178:
 241:../Libraries/XMCLib/src/xmc4_scu.c **** }
 242:../Libraries/XMCLib/src/xmc4_scu.c **** 
 243:../Libraries/XMCLib/src/xmc4_scu.c **** /* API to retrieve the SCU event status */
 244:../Libraries/XMCLib/src/xmc4_scu.c **** XMC_SCU_INTERRUPT_EVENT_t XMC_SCU_INTERUPT_GetEventStatus(void)
 245:../Libraries/XMCLib/src/xmc4_scu.c **** {
 168              	 .loc 1 245 0
 169              	 .cfi_startproc
 170              	 
 171              	 
 172              	 
 246:../Libraries/XMCLib/src/xmc4_scu.c ****   return (SCU_INTERRUPT->SRRAW);
 173              	 .loc 1 246 0
 174 0000 014B     	 ldr r3,.L18
 175 0002 5868     	 ldr r0,[r3,#4]
 247:../Libraries/XMCLib/src/xmc4_scu.c **** }
 176              	 .loc 1 247 0
 177 0004 7047     	 bx lr
 178              	.L19:
 179 0006 00BF     	 .align 2
 180              	.L18:
 181 0008 74400050 	 .word 1342193780
 182              	 .cfi_endproc
 183              	.LFE178:
 185              	 .section .text.XMC_SCU_INTERRUPT_ClearEventStatus,"ax",%progbits
 186              	 .align 1
 187              	 .global XMC_SCU_INTERRUPT_ClearEventStatus
 188              	 .thumb
 189              	 .thumb_func
 191              	XMC_SCU_INTERRUPT_ClearEventStatus:
 192              	.LFB179:
 248:../Libraries/XMCLib/src/xmc4_scu.c **** 
 249:../Libraries/XMCLib/src/xmc4_scu.c **** /* API to clear the SCU event status */
 250:../Libraries/XMCLib/src/xmc4_scu.c **** void XMC_SCU_INTERRUPT_ClearEventStatus(const XMC_SCU_INTERRUPT_EVENT_t event)
 251:../Libraries/XMCLib/src/xmc4_scu.c **** {
 193              	 .loc 1 251 0
 194              	 .cfi_startproc
 195              	 
 196              	 
 197              	 
 198              	.LVL11:
 252:../Libraries/XMCLib/src/xmc4_scu.c ****   SCU_INTERRUPT->SRCLR = (uint32_t)event;
 199              	 .loc 1 252 0
 200 0000 014B     	 ldr r3,.L21
 201 0002 D860     	 str r0,[r3,#12]
 202 0004 7047     	 bx lr
 203              	.L22:
 204 0006 00BF     	 .align 2
 205              	.L21:
 206 0008 74400050 	 .word 1342193780
 207              	 .cfi_endproc
 208              	.LFE179:
 210              	 .section .text.XMC_SCU_GetBootMode,"ax",%progbits
 211              	 .align 1
 212              	 .global XMC_SCU_GetBootMode
 213              	 .thumb
 214              	 .thumb_func
 216              	XMC_SCU_GetBootMode:
 217              	.LFB180:
 253:../Libraries/XMCLib/src/xmc4_scu.c **** }
 254:../Libraries/XMCLib/src/xmc4_scu.c **** 
 255:../Libraries/XMCLib/src/xmc4_scu.c **** 
 256:../Libraries/XMCLib/src/xmc4_scu.c **** /* API to retrieve the currently deployed device bootmode */
 257:../Libraries/XMCLib/src/xmc4_scu.c **** uint32_t XMC_SCU_GetBootMode(void)
 258:../Libraries/XMCLib/src/xmc4_scu.c **** {
 218              	 .loc 1 258 0
 219              	 .cfi_startproc
 220              	 
 221              	 
 222              	 
 259:../Libraries/XMCLib/src/xmc4_scu.c ****   return (uint32_t)(SCU_GENERAL->STCON & SCU_GENERAL_STCON_SWCON_Msk);
 223              	 .loc 1 259 0
 224 0000 024B     	 ldr r3,.L24
 225 0002 1869     	 ldr r0,[r3,#16]
 260:../Libraries/XMCLib/src/xmc4_scu.c **** }
 226              	 .loc 1 260 0
 227 0004 00F47060 	 and r0,r0,#3840
 228 0008 7047     	 bx lr
 229              	.L25:
 230 000a 00BF     	 .align 2
 231              	.L24:
 232 000c 00400050 	 .word 1342193664
 233              	 .cfi_endproc
 234              	.LFE180:
 236              	 .section .text.XMC_SCU_SetBootMode,"ax",%progbits
 237              	 .align 1
 238              	 .global XMC_SCU_SetBootMode
 239              	 .thumb
 240              	 .thumb_func
 242              	XMC_SCU_SetBootMode:
 243              	.LFB181:
 261:../Libraries/XMCLib/src/xmc4_scu.c **** 
 262:../Libraries/XMCLib/src/xmc4_scu.c **** /* API to program a new device bootmode */
 263:../Libraries/XMCLib/src/xmc4_scu.c **** void XMC_SCU_SetBootMode(const XMC_SCU_BOOTMODE_t bootmode)
 264:../Libraries/XMCLib/src/xmc4_scu.c **** {
 244              	 .loc 1 264 0
 245              	 .cfi_startproc
 246              	 
 247              	 
 248              	 
 249              	.LVL12:
 265:../Libraries/XMCLib/src/xmc4_scu.c ****   SCU_GENERAL->STCON = (uint32_t)bootmode;
 250              	 .loc 1 265 0
 251 0000 014B     	 ldr r3,.L27
 252 0002 1861     	 str r0,[r3,#16]
 253 0004 7047     	 bx lr
 254              	.L28:
 255 0006 00BF     	 .align 2
 256              	.L27:
 257 0008 00400050 	 .word 1342193664
 258              	 .cfi_endproc
 259              	.LFE181:
 261              	 .section .text.XMC_SCU_ReadGPR,"ax",%progbits
 262              	 .align 1
 263              	 .global XMC_SCU_ReadGPR
 264              	 .thumb
 265              	 .thumb_func
 267              	XMC_SCU_ReadGPR:
 268              	.LFB182:
 266:../Libraries/XMCLib/src/xmc4_scu.c **** }
 267:../Libraries/XMCLib/src/xmc4_scu.c **** 
 268:../Libraries/XMCLib/src/xmc4_scu.c **** /* API to read from General purpose register */
 269:../Libraries/XMCLib/src/xmc4_scu.c **** uint32_t XMC_SCU_ReadGPR(const uint32_t index)
 270:../Libraries/XMCLib/src/xmc4_scu.c **** {
 269              	 .loc 1 270 0
 270              	 .cfi_startproc
 271              	 
 272              	 
 273              	 
 274              	.LVL13:
 271:../Libraries/XMCLib/src/xmc4_scu.c ****   return (SCU_GENERAL->GPR[index]);
 275              	 .loc 1 271 0
 276 0000 014B     	 ldr r3,.L30
 277 0002 8000     	 lsls r0,r0,#2
 278              	.LVL14:
 279 0004 1858     	 ldr r0,[r3,r0]
 272:../Libraries/XMCLib/src/xmc4_scu.c **** }
 280              	 .loc 1 272 0
 281 0006 7047     	 bx lr
 282              	.L31:
 283              	 .align 2
 284              	.L30:
 285 0008 2C400050 	 .word 1342193708
 286              	 .cfi_endproc
 287              	.LFE182:
 289              	 .section .text.XMC_SCU_WriteGPR,"ax",%progbits
 290              	 .align 1
 291              	 .global XMC_SCU_WriteGPR
 292              	 .thumb
 293              	 .thumb_func
 295              	XMC_SCU_WriteGPR:
 296              	.LFB183:
 273:../Libraries/XMCLib/src/xmc4_scu.c **** 
 274:../Libraries/XMCLib/src/xmc4_scu.c **** /* API to write to GPR */
 275:../Libraries/XMCLib/src/xmc4_scu.c **** void XMC_SCU_WriteGPR(const uint32_t index, const uint32_t data)
 276:../Libraries/XMCLib/src/xmc4_scu.c **** {
 297              	 .loc 1 276 0
 298              	 .cfi_startproc
 299              	 
 300              	 
 301              	 
 302              	.LVL15:
 277:../Libraries/XMCLib/src/xmc4_scu.c ****   SCU_GENERAL->GPR[index] = data;
 303              	 .loc 1 277 0
 304 0000 8000     	 lsls r0,r0,#2
 305              	.LVL16:
 306 0002 014B     	 ldr r3,.L33
 307 0004 1950     	 str r1,[r3,r0]
 308 0006 7047     	 bx lr
 309              	.L34:
 310              	 .align 2
 311              	.L33:
 312 0008 2C400050 	 .word 1342193708
 313              	 .cfi_endproc
 314              	.LFE183:
 316              	 .section .text.XMC_SCU_EnableOutOfRangeComparator,"ax",%progbits
 317              	 .align 1
 318              	 .global XMC_SCU_EnableOutOfRangeComparator
 319              	 .thumb
 320              	 .thumb_func
 322              	XMC_SCU_EnableOutOfRangeComparator:
 323              	.LFB184:
 278:../Libraries/XMCLib/src/xmc4_scu.c **** }
 279:../Libraries/XMCLib/src/xmc4_scu.c **** 
 280:../Libraries/XMCLib/src/xmc4_scu.c **** /* API to enable Out of Range Comparator(ORC) for a desired group and a desired channel input */
 281:../Libraries/XMCLib/src/xmc4_scu.c **** void XMC_SCU_EnableOutOfRangeComparator(const uint32_t group, const uint32_t channel)
 282:../Libraries/XMCLib/src/xmc4_scu.c **** {
 324              	 .loc 1 282 0
 325              	 .cfi_startproc
 326              	 
 327              	 
 328              	 
 329              	.LVL17:
 330 0000 8000     	 lsls r0,r0,#2
 331              	.LVL18:
 332 0002 00F1A040 	 add r0,r0,#1342177280
 333 0006 00F58040 	 add r0,r0,#16384
 283:../Libraries/XMCLib/src/xmc4_scu.c ****   XMC_ASSERT("XMC_SCU_EnableOutOfangeComparator:Wrong Group Number",XMC_SCU_CHECK_GRPNUM(group));
 284:../Libraries/XMCLib/src/xmc4_scu.c ****   XMC_ASSERT("XMC_SCU_EnableOutOfangeComparator:Wrong Channel Number",XMC_SCU_CHECK_CHNUM(channel))
 285:../Libraries/XMCLib/src/xmc4_scu.c ****    
 286:../Libraries/XMCLib/src/xmc4_scu.c ****   SCU_GENERAL->GORCEN[group] |= (uint32_t)(1UL << channel);
 334              	 .loc 1 286 0
 335 000a 0122     	 movs r2,#1
 336 000c D0F8A030 	 ldr r3,[r0,#160]
 337 0010 8A40     	 lsls r2,r2,r1
 338 0012 1343     	 orrs r3,r3,r2
 339 0014 C0F8A030 	 str r3,[r0,#160]
 340 0018 7047     	 bx lr
 341              	 .cfi_endproc
 342              	.LFE184:
 344              	 .section .text.XMC_SCU_DisableOutOfRangeComparator,"ax",%progbits
 345              	 .align 1
 346              	 .global XMC_SCU_DisableOutOfRangeComparator
 347              	 .thumb
 348              	 .thumb_func
 350              	XMC_SCU_DisableOutOfRangeComparator:
 351              	.LFB185:
 287:../Libraries/XMCLib/src/xmc4_scu.c **** }
 288:../Libraries/XMCLib/src/xmc4_scu.c **** 
 289:../Libraries/XMCLib/src/xmc4_scu.c **** /* API to enable Out of Range Comparator(ORC) for a desired group and a desired channel input */
 290:../Libraries/XMCLib/src/xmc4_scu.c **** void XMC_SCU_DisableOutOfRangeComparator(const uint32_t group, const uint32_t channel)
 291:../Libraries/XMCLib/src/xmc4_scu.c **** {
 352              	 .loc 1 291 0
 353              	 .cfi_startproc
 354              	 
 355              	 
 356              	 
 357              	.LVL19:
 358 0000 8000     	 lsls r0,r0,#2
 359              	.LVL20:
 360 0002 00F1A040 	 add r0,r0,#1342177280
 361 0006 00F58040 	 add r0,r0,#16384
 292:../Libraries/XMCLib/src/xmc4_scu.c ****   XMC_ASSERT("XMC_SCU_DisableOutOfRangeComparator:Wrong Group Number",XMC_SCU_CHECK_GRPNUM(group));
 293:../Libraries/XMCLib/src/xmc4_scu.c ****   XMC_ASSERT("XMC_SCU_DisableOutOfRangeComparator:Wrong Channel Number",XMC_SCU_CHECK_CHNUM(channel
 294:../Libraries/XMCLib/src/xmc4_scu.c ****    
 295:../Libraries/XMCLib/src/xmc4_scu.c ****   SCU_GENERAL->GORCEN[group] &= (uint32_t)~(1UL << channel);
 362              	 .loc 1 295 0
 363 000a 0122     	 movs r2,#1
 364 000c D0F8A030 	 ldr r3,[r0,#160]
 365 0010 8A40     	 lsls r2,r2,r1
 366 0012 23EA0203 	 bic r3,r3,r2
 367 0016 C0F8A030 	 str r3,[r0,#160]
 368 001a 7047     	 bx lr
 369              	 .cfi_endproc
 370              	.LFE185:
 372              	 .section .text.XMC_SCU_CalibrateTemperatureSensor,"ax",%progbits
 373              	 .align 1
 374              	 .global XMC_SCU_CalibrateTemperatureSensor
 375              	 .thumb
 376              	 .thumb_func
 378              	XMC_SCU_CalibrateTemperatureSensor:
 379              	.LFB186:
 296:../Libraries/XMCLib/src/xmc4_scu.c **** }
 297:../Libraries/XMCLib/src/xmc4_scu.c **** 
 298:../Libraries/XMCLib/src/xmc4_scu.c **** /* API to calibrate temperature sensor */
 299:../Libraries/XMCLib/src/xmc4_scu.c **** void XMC_SCU_CalibrateTemperatureSensor(uint32_t offset, uint32_t gain)
 300:../Libraries/XMCLib/src/xmc4_scu.c **** {
 380              	 .loc 1 300 0
 381              	 .cfi_startproc
 382              	 
 383              	 
 384              	 
 385              	.LVL21:
 301:../Libraries/XMCLib/src/xmc4_scu.c ****   SCU_GENERAL->DTSCON = ((uint32_t)(offset << SCU_GENERAL_DTSCON_OFFSET_Pos) |
 302:../Libraries/XMCLib/src/xmc4_scu.c ****                         (uint32_t)(gain << SCU_GENERAL_DTSCON_GAIN_Pos) |
 386              	 .loc 1 302 0
 387 0000 C902     	 lsls r1,r1,#11
 388              	.LVL22:
 389 0002 41F40801 	 orr r1,r1,#8912896
 301:../Libraries/XMCLib/src/xmc4_scu.c ****   SCU_GENERAL->DTSCON = ((uint32_t)(offset << SCU_GENERAL_DTSCON_OFFSET_Pos) |
 390              	 .loc 1 301 0
 391 0006 034B     	 ldr r3,.L38
 303:../Libraries/XMCLib/src/xmc4_scu.c ****                         (uint32_t)(0x4UL << SCU_GENERAL_DTSCON_REFTRIM_Pos) |
 392              	 .loc 1 303 0
 393 0008 41EA0010 	 orr r0,r1,r0,lsl#4
 394              	.LVL23:
 301:../Libraries/XMCLib/src/xmc4_scu.c ****   SCU_GENERAL->DTSCON = ((uint32_t)(offset << SCU_GENERAL_DTSCON_OFFSET_Pos) |
 395              	 .loc 1 301 0
 396 000c C3F88C00 	 str r0,[r3,#140]
 397 0010 7047     	 bx lr
 398              	.L39:
 399 0012 00BF     	 .align 2
 400              	.L38:
 401 0014 00400050 	 .word 1342193664
 402              	 .cfi_endproc
 403              	.LFE186:
 405              	 .section .text.XMC_SCU_EnableTemperatureSensor,"ax",%progbits
 406              	 .align 1
 407              	 .global XMC_SCU_EnableTemperatureSensor
 408              	 .thumb
 409              	 .thumb_func
 411              	XMC_SCU_EnableTemperatureSensor:
 412              	.LFB187:
 304:../Libraries/XMCLib/src/xmc4_scu.c ****                         (uint32_t)(0x8UL << SCU_GENERAL_DTSCON_BGTRIM_Pos));
 305:../Libraries/XMCLib/src/xmc4_scu.c **** }
 306:../Libraries/XMCLib/src/xmc4_scu.c **** /* API to enable die temperature measurement by powering the DTS module. */
 307:../Libraries/XMCLib/src/xmc4_scu.c **** void XMC_SCU_EnableTemperatureSensor(void)
 308:../Libraries/XMCLib/src/xmc4_scu.c **** {
 413              	 .loc 1 308 0
 414              	 .cfi_startproc
 415              	 
 416              	 
 417              	 
 309:../Libraries/XMCLib/src/xmc4_scu.c ****   SCU_GENERAL->DTSCON &= (uint32_t)~(SCU_GENERAL_DTSCON_PWD_Msk);
 418              	 .loc 1 309 0
 419 0000 034A     	 ldr r2,.L41
 420 0002 D2F88C30 	 ldr r3,[r2,#140]
 421 0006 23F00103 	 bic r3,r3,#1
 422 000a C2F88C30 	 str r3,[r2,#140]
 423 000e 7047     	 bx lr
 424              	.L42:
 425              	 .align 2
 426              	.L41:
 427 0010 00400050 	 .word 1342193664
 428              	 .cfi_endproc
 429              	.LFE187:
 431              	 .section .text.XMC_SCU_DisableTemperatureSensor,"ax",%progbits
 432              	 .align 1
 433              	 .global XMC_SCU_DisableTemperatureSensor
 434              	 .thumb
 435              	 .thumb_func
 437              	XMC_SCU_DisableTemperatureSensor:
 438              	.LFB188:
 310:../Libraries/XMCLib/src/xmc4_scu.c **** }
 311:../Libraries/XMCLib/src/xmc4_scu.c **** 
 312:../Libraries/XMCLib/src/xmc4_scu.c **** /* API to disable die temperature measurement by powering the DTS module off. */
 313:../Libraries/XMCLib/src/xmc4_scu.c **** void XMC_SCU_DisableTemperatureSensor(void)
 314:../Libraries/XMCLib/src/xmc4_scu.c **** {
 439              	 .loc 1 314 0
 440              	 .cfi_startproc
 441              	 
 442              	 
 443              	 
 315:../Libraries/XMCLib/src/xmc4_scu.c ****   SCU_GENERAL->DTSCON |= (uint32_t)SCU_GENERAL_DTSCON_PWD_Msk;
 444              	 .loc 1 315 0
 445 0000 034A     	 ldr r2,.L44
 446 0002 D2F88C30 	 ldr r3,[r2,#140]
 447 0006 43F00103 	 orr r3,r3,#1
 448 000a C2F88C30 	 str r3,[r2,#140]
 449 000e 7047     	 bx lr
 450              	.L45:
 451              	 .align 2
 452              	.L44:
 453 0010 00400050 	 .word 1342193664
 454              	 .cfi_endproc
 455              	.LFE188:
 457              	 .section .text.XMC_SCU_IsTemperatureSensorEnabled,"ax",%progbits
 458              	 .align 1
 459              	 .global XMC_SCU_IsTemperatureSensorEnabled
 460              	 .thumb
 461              	 .thumb_func
 463              	XMC_SCU_IsTemperatureSensorEnabled:
 464              	.LFB189:
 316:../Libraries/XMCLib/src/xmc4_scu.c **** }
 317:../Libraries/XMCLib/src/xmc4_scu.c **** 
 318:../Libraries/XMCLib/src/xmc4_scu.c **** /* API to provide the die temperature sensor power status. */
 319:../Libraries/XMCLib/src/xmc4_scu.c **** bool XMC_SCU_IsTemperatureSensorEnabled(void)
 320:../Libraries/XMCLib/src/xmc4_scu.c **** {
 465              	 .loc 1 320 0
 466              	 .cfi_startproc
 467              	 
 468              	 
 469              	 
 321:../Libraries/XMCLib/src/xmc4_scu.c ****   return ((SCU_GENERAL->DTSCON & SCU_GENERAL_DTSCON_PWD_Msk) == 0U);
 470              	 .loc 1 321 0
 471 0000 034B     	 ldr r3,.L47
 472 0002 D3F88C00 	 ldr r0,[r3,#140]
 473 0006 00F00100 	 and r0,r0,#1
 322:../Libraries/XMCLib/src/xmc4_scu.c **** }
 474              	 .loc 1 322 0
 475 000a 80F00100 	 eor r0,r0,#1
 476 000e 7047     	 bx lr
 477              	.L48:
 478              	 .align 2
 479              	.L47:
 480 0010 00400050 	 .word 1342193664
 481              	 .cfi_endproc
 482              	.LFE189:
 484              	 .section .text.XMC_SCU_IsTemperatureSensorReady,"ax",%progbits
 485              	 .align 1
 486              	 .global XMC_SCU_IsTemperatureSensorReady
 487              	 .thumb
 488              	 .thumb_func
 490              	XMC_SCU_IsTemperatureSensorReady:
 491              	.LFB190:
 323:../Libraries/XMCLib/src/xmc4_scu.c **** 
 324:../Libraries/XMCLib/src/xmc4_scu.c **** /* API to check if the die temperature sensor is ready to start a measurement. */
 325:../Libraries/XMCLib/src/xmc4_scu.c **** bool XMC_SCU_IsTemperatureSensorReady(void)
 326:../Libraries/XMCLib/src/xmc4_scu.c **** {
 492              	 .loc 1 326 0
 493              	 .cfi_startproc
 494              	 
 495              	 
 496              	 
 327:../Libraries/XMCLib/src/xmc4_scu.c ****   return ((SCU_GENERAL->DTSSTAT & SCU_GENERAL_DTSSTAT_RDY_Msk) != 0U);
 497              	 .loc 1 327 0
 498 0000 024B     	 ldr r3,.L50
 499 0002 D3F89000 	 ldr r0,[r3,#144]
 328:../Libraries/XMCLib/src/xmc4_scu.c **** }
 500              	 .loc 1 328 0
 501 0006 C0F38030 	 ubfx r0,r0,#14,#1
 502 000a 7047     	 bx lr
 503              	.L51:
 504              	 .align 2
 505              	.L50:
 506 000c 00400050 	 .word 1342193664
 507              	 .cfi_endproc
 508              	.LFE190:
 510              	 .section .text.XMC_SCU_GetTemperatureMeasurement,"ax",%progbits
 511              	 .align 1
 512              	 .global XMC_SCU_GetTemperatureMeasurement
 513              	 .thumb
 514              	 .thumb_func
 516              	XMC_SCU_GetTemperatureMeasurement:
 517              	.LFB192:
 329:../Libraries/XMCLib/src/xmc4_scu.c **** /* API to start device temperature measurements */
 330:../Libraries/XMCLib/src/xmc4_scu.c **** XMC_SCU_STATUS_t XMC_SCU_StartTemperatureMeasurement(void)
 331:../Libraries/XMCLib/src/xmc4_scu.c **** {
 332:../Libraries/XMCLib/src/xmc4_scu.c ****   XMC_SCU_STATUS_t status = XMC_SCU_STATUS_OK;
 333:../Libraries/XMCLib/src/xmc4_scu.c **** 
 334:../Libraries/XMCLib/src/xmc4_scu.c ****   if (XMC_SCU_IsTemperatureSensorEnabled() == false)
 335:../Libraries/XMCLib/src/xmc4_scu.c ****   {
 336:../Libraries/XMCLib/src/xmc4_scu.c ****     status = XMC_SCU_STATUS_ERROR;
 337:../Libraries/XMCLib/src/xmc4_scu.c ****   }
 338:../Libraries/XMCLib/src/xmc4_scu.c ****    
 339:../Libraries/XMCLib/src/xmc4_scu.c ****   if (XMC_SCU_IsTemperatureSensorBusy() == true)
 340:../Libraries/XMCLib/src/xmc4_scu.c ****   {
 341:../Libraries/XMCLib/src/xmc4_scu.c ****     status = XMC_SCU_STATUS_BUSY;
 342:../Libraries/XMCLib/src/xmc4_scu.c ****   }
 343:../Libraries/XMCLib/src/xmc4_scu.c **** 
 344:../Libraries/XMCLib/src/xmc4_scu.c ****   /* And start the measurement */
 345:../Libraries/XMCLib/src/xmc4_scu.c ****   SCU_GENERAL->DTSCON |= (uint32_t)SCU_GENERAL_DTSCON_START_Msk;
 346:../Libraries/XMCLib/src/xmc4_scu.c ****   
 347:../Libraries/XMCLib/src/xmc4_scu.c ****   return (status);
 348:../Libraries/XMCLib/src/xmc4_scu.c **** }
 349:../Libraries/XMCLib/src/xmc4_scu.c **** 
 350:../Libraries/XMCLib/src/xmc4_scu.c **** /* API to retrieve the temperature measured */
 351:../Libraries/XMCLib/src/xmc4_scu.c **** uint32_t XMC_SCU_GetTemperatureMeasurement(void)
 352:../Libraries/XMCLib/src/xmc4_scu.c **** {
 518              	 .loc 1 352 0
 519              	 .cfi_startproc
 520              	 
 521              	 
 522 0000 08B5     	 push {r3,lr}
 523              	.LCFI1:
 524              	 .cfi_def_cfa_offset 8
 525              	 .cfi_offset 3,-8
 526              	 .cfi_offset 14,-4
 353:../Libraries/XMCLib/src/xmc4_scu.c ****   uint32_t temperature;
 354:../Libraries/XMCLib/src/xmc4_scu.c **** 
 355:../Libraries/XMCLib/src/xmc4_scu.c ****   if (XMC_SCU_IsTemperatureSensorEnabled() == false)
 527              	 .loc 1 355 0
 528 0002 FFF7FEFF 	 bl XMC_SCU_IsTemperatureSensorEnabled
 529              	.LVL24:
 530 0006 28B1     	 cbz r0,.L54
 356:../Libraries/XMCLib/src/xmc4_scu.c ****   {
 357:../Libraries/XMCLib/src/xmc4_scu.c ****     temperature = 0x7FFFFFFFUL;
 358:../Libraries/XMCLib/src/xmc4_scu.c ****   }
 359:../Libraries/XMCLib/src/xmc4_scu.c ****   else
 360:../Libraries/XMCLib/src/xmc4_scu.c ****   {
 361:../Libraries/XMCLib/src/xmc4_scu.c ****     temperature = (uint32_t)((SCU_GENERAL->DTSSTAT & SCU_GENERAL_DTSSTAT_RESULT_Msk) >> SCU_GENERAL
 531              	 .loc 1 361 0
 532 0008 044B     	 ldr r3,.L55
 533 000a D3F89000 	 ldr r0,[r3,#144]
 534 000e C0F30900 	 ubfx r0,r0,#0,#10
 535              	.LVL25:
 536 0012 08BD     	 pop {r3,pc}
 537              	.LVL26:
 538              	.L54:
 357:../Libraries/XMCLib/src/xmc4_scu.c ****   }
 539              	 .loc 1 357 0
 540 0014 6FF00040 	 mvn r0,#-2147483648
 541              	.LVL27:
 362:../Libraries/XMCLib/src/xmc4_scu.c ****   }
 363:../Libraries/XMCLib/src/xmc4_scu.c ****   
 364:../Libraries/XMCLib/src/xmc4_scu.c ****   return ((uint32_t)temperature);
 365:../Libraries/XMCLib/src/xmc4_scu.c **** }
 542              	 .loc 1 365 0
 543 0018 08BD     	 pop {r3,pc}
 544              	.L56:
 545 001a 00BF     	 .align 2
 546              	.L55:
 547 001c 00400050 	 .word 1342193664
 548              	 .cfi_endproc
 549              	.LFE192:
 551              	 .section .text.XMC_SCU_IsTemperatureSensorBusy,"ax",%progbits
 552              	 .align 1
 553              	 .global XMC_SCU_IsTemperatureSensorBusy
 554              	 .thumb
 555              	 .thumb_func
 557              	XMC_SCU_IsTemperatureSensorBusy:
 558              	.LFB193:
 366:../Libraries/XMCLib/src/xmc4_scu.c **** 
 367:../Libraries/XMCLib/src/xmc4_scu.c **** /* API to know whether Die temperature sensor is busy */
 368:../Libraries/XMCLib/src/xmc4_scu.c **** bool XMC_SCU_IsTemperatureSensorBusy(void)
 369:../Libraries/XMCLib/src/xmc4_scu.c **** {
 559              	 .loc 1 369 0
 560              	 .cfi_startproc
 561              	 
 562              	 
 563              	 
 370:../Libraries/XMCLib/src/xmc4_scu.c ****   return ((SCU_GENERAL->DTSSTAT & SCU_GENERAL_DTSSTAT_BUSY_Msk) != 0U);
 564              	 .loc 1 370 0
 565 0000 024B     	 ldr r3,.L58
 566 0002 D3F89000 	 ldr r0,[r3,#144]
 371:../Libraries/XMCLib/src/xmc4_scu.c **** }
 567              	 .loc 1 371 0
 568 0006 C0F3C030 	 ubfx r0,r0,#15,#1
 569 000a 7047     	 bx lr
 570              	.L59:
 571              	 .align 2
 572              	.L58:
 573 000c 00400050 	 .word 1342193664
 574              	 .cfi_endproc
 575              	.LFE193:
 577              	 .section .text.XMC_SCU_StartTemperatureMeasurement,"ax",%progbits
 578              	 .align 1
 579              	 .global XMC_SCU_StartTemperatureMeasurement
 580              	 .thumb
 581              	 .thumb_func
 583              	XMC_SCU_StartTemperatureMeasurement:
 584              	.LFB191:
 331:../Libraries/XMCLib/src/xmc4_scu.c ****   XMC_SCU_STATUS_t status = XMC_SCU_STATUS_OK;
 585              	 .loc 1 331 0
 586              	 .cfi_startproc
 587              	 
 588              	 
 589              	.LVL28:
 590 0000 10B5     	 push {r4,lr}
 591              	.LCFI2:
 592              	 .cfi_def_cfa_offset 8
 593              	 .cfi_offset 4,-8
 594              	 .cfi_offset 14,-4
 334:../Libraries/XMCLib/src/xmc4_scu.c ****   {
 595              	 .loc 1 334 0
 596 0002 FFF7FEFF 	 bl XMC_SCU_IsTemperatureSensorEnabled
 597              	.LVL29:
 598 0006 0446     	 mov r4,r0
 599              	.LVL30:
 339:../Libraries/XMCLib/src/xmc4_scu.c ****   {
 600              	 .loc 1 339 0
 601 0008 FFF7FEFF 	 bl XMC_SCU_IsTemperatureSensorBusy
 602              	.LVL31:
 603 000c 18B9     	 cbnz r0,.L62
 334:../Libraries/XMCLib/src/xmc4_scu.c ****   {
 604              	 .loc 1 334 0
 605 000e 84F00100 	 eor r0,r4,#1
 332:../Libraries/XMCLib/src/xmc4_scu.c **** 
 606              	 .loc 1 332 0
 607 0012 C0B2     	 uxtb r0,r0
 608 0014 00E0     	 b .L61
 609              	.L62:
 341:../Libraries/XMCLib/src/xmc4_scu.c ****   }
 610              	 .loc 1 341 0
 611 0016 0220     	 movs r0,#2
 612              	.L61:
 613              	.LVL32:
 345:../Libraries/XMCLib/src/xmc4_scu.c ****   
 614              	 .loc 1 345 0
 615 0018 034A     	 ldr r2,.L63
 616 001a D2F88C30 	 ldr r3,[r2,#140]
 617 001e 43F00203 	 orr r3,r3,#2
 618 0022 C2F88C30 	 str r3,[r2,#140]
 348:../Libraries/XMCLib/src/xmc4_scu.c **** 
 619              	 .loc 1 348 0
 620 0026 10BD     	 pop {r4,pc}
 621              	.L64:
 622              	 .align 2
 623              	.L63:
 624 0028 00400050 	 .word 1342193664
 625              	 .cfi_endproc
 626              	.LFE191:
 628              	 .section .text.XMC_SCU_WriteToRetentionMemory,"ax",%progbits
 629              	 .align 1
 630              	 .global XMC_SCU_WriteToRetentionMemory
 631              	 .thumb
 632              	 .thumb_func
 634              	XMC_SCU_WriteToRetentionMemory:
 635              	.LFB194:
 372:../Libraries/XMCLib/src/xmc4_scu.c **** 
 373:../Libraries/XMCLib/src/xmc4_scu.c **** 
 374:../Libraries/XMCLib/src/xmc4_scu.c **** #if defined(SCU_GENERAL_DTEMPLIM_LOWER_Msk) && defined(SCU_GENERAL_DTEMPLIM_UPPER_Msk)
 375:../Libraries/XMCLib/src/xmc4_scu.c **** /* API to determine if device temperature has gone past the ceiling */
 376:../Libraries/XMCLib/src/xmc4_scu.c **** bool XMC_SCU_HighTemperature(void)
 377:../Libraries/XMCLib/src/xmc4_scu.c **** {
 378:../Libraries/XMCLib/src/xmc4_scu.c ****   bool ret_val;
 379:../Libraries/XMCLib/src/xmc4_scu.c ****   uint32_t   dtscon;
 380:../Libraries/XMCLib/src/xmc4_scu.c ****   uint32_t   dtempalarm;
 381:../Libraries/XMCLib/src/xmc4_scu.c ****   dtscon = SCU_GENERAL->DTSCON;
 382:../Libraries/XMCLib/src/xmc4_scu.c ****   dtscon = dtscon & SCU_GENERAL_DTSCON_PWD_Msk;
 383:../Libraries/XMCLib/src/xmc4_scu.c **** 
 384:../Libraries/XMCLib/src/xmc4_scu.c ****   ret_val = false;
 385:../Libraries/XMCLib/src/xmc4_scu.c **** 
 386:../Libraries/XMCLib/src/xmc4_scu.c ****   /* Any audit makes sense only if the DTS were powered up */  
 387:../Libraries/XMCLib/src/xmc4_scu.c ****   if(dtscon)
 388:../Libraries/XMCLib/src/xmc4_scu.c ****   {
 389:../Libraries/XMCLib/src/xmc4_scu.c ****     /* Powered down - return false */
 390:../Libraries/XMCLib/src/xmc4_scu.c ****     ret_val = false;
 391:../Libraries/XMCLib/src/xmc4_scu.c ****   }
 392:../Libraries/XMCLib/src/xmc4_scu.c ****   else
 393:../Libraries/XMCLib/src/xmc4_scu.c ****   {
 394:../Libraries/XMCLib/src/xmc4_scu.c ****     /* Powered up - Read the overflow bit and decide accordingly*/
 395:../Libraries/XMCLib/src/xmc4_scu.c ****     dtempalarm = SCU_GENERAL->DTEMPALARM;
 396:../Libraries/XMCLib/src/xmc4_scu.c ****     dtempalarm = dtempalarm & SCU_GENERAL_DTEMPALARM_OVERFL_Msk;
 397:../Libraries/XMCLib/src/xmc4_scu.c ****     
 398:../Libraries/XMCLib/src/xmc4_scu.c ****     if(dtempalarm)
 399:../Libraries/XMCLib/src/xmc4_scu.c ****     {
 400:../Libraries/XMCLib/src/xmc4_scu.c ****       ret_val = true;
 401:../Libraries/XMCLib/src/xmc4_scu.c ****     }
 402:../Libraries/XMCLib/src/xmc4_scu.c ****     else
 403:../Libraries/XMCLib/src/xmc4_scu.c ****     {
 404:../Libraries/XMCLib/src/xmc4_scu.c ****       ret_val = false;
 405:../Libraries/XMCLib/src/xmc4_scu.c ****     }
 406:../Libraries/XMCLib/src/xmc4_scu.c ****   }
 407:../Libraries/XMCLib/src/xmc4_scu.c ****   return (ret_val);
 408:../Libraries/XMCLib/src/xmc4_scu.c **** }
 409:../Libraries/XMCLib/src/xmc4_scu.c **** 
 410:../Libraries/XMCLib/src/xmc4_scu.c **** /* API to program raw values of temperature limits into the DTS */
 411:../Libraries/XMCLib/src/xmc4_scu.c **** void XMC_SCU_SetRawTempLimits(const uint32_t lower_temp, const uint32_t upper_temp)
 412:../Libraries/XMCLib/src/xmc4_scu.c **** {
 413:../Libraries/XMCLib/src/xmc4_scu.c ****   /* Power up the DTS module */
 414:../Libraries/XMCLib/src/xmc4_scu.c ****   SCU_GENERAL->DTSCON &= (uint32_t)~SCU_GENERAL_DTSCON_PWD_Msk;
 415:../Libraries/XMCLib/src/xmc4_scu.c ****   SCU_GENERAL->DTEMPLIM = 0;
 416:../Libraries/XMCLib/src/xmc4_scu.c ****   SCU_GENERAL->DTEMPLIM = (lower_temp & SCU_GENERAL_DTEMPLIM_LOWER_Msk);
 417:../Libraries/XMCLib/src/xmc4_scu.c ****   SCU_GENERAL->DTEMPLIM |= (uint32_t)((upper_temp & SCU_GENERAL_DTEMPLIM_LOWER_Msk) << SCU_GENERAL_
 418:../Libraries/XMCLib/src/xmc4_scu.c **** }
 419:../Libraries/XMCLib/src/xmc4_scu.c **** 
 420:../Libraries/XMCLib/src/xmc4_scu.c **** /* API to determine if device temperature has gone below the stipulated limit */
 421:../Libraries/XMCLib/src/xmc4_scu.c **** bool XMC_SCU_LowTemperature(void)
 422:../Libraries/XMCLib/src/xmc4_scu.c **** {
 423:../Libraries/XMCLib/src/xmc4_scu.c ****   bool ret_val;
 424:../Libraries/XMCLib/src/xmc4_scu.c ****   uint32_t   dtscon;
 425:../Libraries/XMCLib/src/xmc4_scu.c ****   uint32_t   dtempalarm;
 426:../Libraries/XMCLib/src/xmc4_scu.c ****   dtscon = SCU_GENERAL->DTSCON;
 427:../Libraries/XMCLib/src/xmc4_scu.c ****   dtscon = dtscon & SCU_GENERAL_DTSCON_PWD_Msk;
 428:../Libraries/XMCLib/src/xmc4_scu.c **** 
 429:../Libraries/XMCLib/src/xmc4_scu.c ****   ret_val = false;
 430:../Libraries/XMCLib/src/xmc4_scu.c **** 
 431:../Libraries/XMCLib/src/xmc4_scu.c ****   /* Any audit makes sense only if the DTS were powered up */  
 432:../Libraries/XMCLib/src/xmc4_scu.c ****   if(dtscon)
 433:../Libraries/XMCLib/src/xmc4_scu.c ****   {
 434:../Libraries/XMCLib/src/xmc4_scu.c ****     /* Powered down - return false */
 435:../Libraries/XMCLib/src/xmc4_scu.c ****     ret_val = false;
 436:../Libraries/XMCLib/src/xmc4_scu.c ****   }
 437:../Libraries/XMCLib/src/xmc4_scu.c ****   else
 438:../Libraries/XMCLib/src/xmc4_scu.c ****   {
 439:../Libraries/XMCLib/src/xmc4_scu.c ****     /* Powered up - Read the overflow bit and decide accordingly*/
 440:../Libraries/XMCLib/src/xmc4_scu.c ****     dtempalarm = SCU_GENERAL->DTEMPALARM;
 441:../Libraries/XMCLib/src/xmc4_scu.c ****     dtempalarm = dtempalarm & SCU_GENERAL_DTEMPALARM_UNDERFL_Msk;
 442:../Libraries/XMCLib/src/xmc4_scu.c ****     
 443:../Libraries/XMCLib/src/xmc4_scu.c ****     if(dtempalarm)
 444:../Libraries/XMCLib/src/xmc4_scu.c ****     {
 445:../Libraries/XMCLib/src/xmc4_scu.c ****       ret_val = true;
 446:../Libraries/XMCLib/src/xmc4_scu.c ****     }
 447:../Libraries/XMCLib/src/xmc4_scu.c ****     else
 448:../Libraries/XMCLib/src/xmc4_scu.c ****     {
 449:../Libraries/XMCLib/src/xmc4_scu.c ****       ret_val = false;
 450:../Libraries/XMCLib/src/xmc4_scu.c ****     }
 451:../Libraries/XMCLib/src/xmc4_scu.c ****   }
 452:../Libraries/XMCLib/src/xmc4_scu.c ****   
 453:../Libraries/XMCLib/src/xmc4_scu.c ****   return (ret_val);
 454:../Libraries/XMCLib/src/xmc4_scu.c **** }
 455:../Libraries/XMCLib/src/xmc4_scu.c **** #endif  
 456:../Libraries/XMCLib/src/xmc4_scu.c **** 
 457:../Libraries/XMCLib/src/xmc4_scu.c **** /* API to write into Retention memory in hibernate domain */
 458:../Libraries/XMCLib/src/xmc4_scu.c **** void XMC_SCU_WriteToRetentionMemory(uint32_t address, uint32_t data)
 459:../Libraries/XMCLib/src/xmc4_scu.c **** {
 636              	 .loc 1 459 0
 637              	 .cfi_startproc
 638              	 
 639              	 
 640              	 
 641              	.LVL33:
 460:../Libraries/XMCLib/src/xmc4_scu.c ****   uint32_t rmacr;
 461:../Libraries/XMCLib/src/xmc4_scu.c ****   
 462:../Libraries/XMCLib/src/xmc4_scu.c ****   /* Get the address right */  
 463:../Libraries/XMCLib/src/xmc4_scu.c ****   rmacr = (uint32_t)((address << SCU_GENERAL_RMACR_ADDR_Pos) & (uint32_t)SCU_GENERAL_RMACR_ADDR_Msk
 642              	 .loc 1 463 0
 643 0000 0004     	 lsls r0,r0,#16
 644              	.LVL34:
 464:../Libraries/XMCLib/src/xmc4_scu.c ****   
 465:../Libraries/XMCLib/src/xmc4_scu.c ****   /* Transfer from RMDATA to Retention memory */
 466:../Libraries/XMCLib/src/xmc4_scu.c ****   rmacr |= (uint32_t)(SCU_GENERAL_RMACR_RDWR_Msk);
 467:../Libraries/XMCLib/src/xmc4_scu.c ****   
 468:../Libraries/XMCLib/src/xmc4_scu.c ****   /* Write desired data into RMDATA register */  
 469:../Libraries/XMCLib/src/xmc4_scu.c ****   SCU_GENERAL->RMDATA = data;
 645              	 .loc 1 469 0
 646 0002 074B     	 ldr r3,.L68
 463:../Libraries/XMCLib/src/xmc4_scu.c ****   
 647              	 .loc 1 463 0
 648 0004 00F47020 	 and r0,r0,#983040
 649              	.LVL35:
 466:../Libraries/XMCLib/src/xmc4_scu.c ****   
 650              	 .loc 1 466 0
 651 0008 40F00100 	 orr r0,r0,#1
 652              	.LVL36:
 653              	 .loc 1 469 0
 654 000c C3F8CC10 	 str r1,[r3,#204]
 470:../Libraries/XMCLib/src/xmc4_scu.c ****   
 471:../Libraries/XMCLib/src/xmc4_scu.c ****   /* Write address & direction of transfer into RMACR register */  
 472:../Libraries/XMCLib/src/xmc4_scu.c ****   SCU_GENERAL->RMACR = rmacr;
 655              	 .loc 1 472 0
 656 0010 C3F8C800 	 str r0,[r3,#200]
 657              	.L66:
 473:../Libraries/XMCLib/src/xmc4_scu.c ****   
 474:../Libraries/XMCLib/src/xmc4_scu.c ****   /* Wait until the update of RMX register in hibernate domain is completed */
 475:../Libraries/XMCLib/src/xmc4_scu.c ****   while((SCU_GENERAL->MIRRSTS) & SCU_GENERAL_MIRRSTS_RMX_Msk)
 658              	 .loc 1 475 0 discriminator 1
 659 0014 D3F8C420 	 ldr r2,[r3,#196]
 660 0018 9204     	 lsls r2,r2,#18
 661 001a FBD4     	 bmi .L66
 476:../Libraries/XMCLib/src/xmc4_scu.c ****   {
 477:../Libraries/XMCLib/src/xmc4_scu.c ****   }
 478:../Libraries/XMCLib/src/xmc4_scu.c **** }
 662              	 .loc 1 478 0
 663 001c 7047     	 bx lr
 664              	.L69:
 665 001e 00BF     	 .align 2
 666              	.L68:
 667 0020 00400050 	 .word 1342193664
 668              	 .cfi_endproc
 669              	.LFE194:
 671              	 .section .text.XMC_SCU_ReadFromRetentionMemory,"ax",%progbits
 672              	 .align 1
 673              	 .global XMC_SCU_ReadFromRetentionMemory
 674              	 .thumb
 675              	 .thumb_func
 677              	XMC_SCU_ReadFromRetentionMemory:
 678              	.LFB195:
 479:../Libraries/XMCLib/src/xmc4_scu.c **** 
 480:../Libraries/XMCLib/src/xmc4_scu.c **** /* API to read from Retention memory in hibernate domain */
 481:../Libraries/XMCLib/src/xmc4_scu.c **** uint32_t XMC_SCU_ReadFromRetentionMemory(uint32_t address)
 482:../Libraries/XMCLib/src/xmc4_scu.c **** {
 679              	 .loc 1 482 0
 680              	 .cfi_startproc
 681              	 
 682              	 
 683              	 
 684              	.LVL37:
 483:../Libraries/XMCLib/src/xmc4_scu.c ****   uint32_t rmacr;
 484:../Libraries/XMCLib/src/xmc4_scu.c **** 
 485:../Libraries/XMCLib/src/xmc4_scu.c ****   /* Get the address right */  
 486:../Libraries/XMCLib/src/xmc4_scu.c ****   rmacr = ((uint32_t)(address << SCU_GENERAL_RMACR_ADDR_Pos) & (uint32_t)SCU_GENERAL_RMACR_ADDR_Msk
 685              	 .loc 1 486 0
 686 0000 0004     	 lsls r0,r0,#16
 687              	.LVL38:
 487:../Libraries/XMCLib/src/xmc4_scu.c ****   
 488:../Libraries/XMCLib/src/xmc4_scu.c ****   /* Transfer from RMDATA to Retention memory */
 489:../Libraries/XMCLib/src/xmc4_scu.c ****   rmacr &= ~((uint32_t)(SCU_GENERAL_RMACR_RDWR_Msk));
 490:../Libraries/XMCLib/src/xmc4_scu.c ****   
 491:../Libraries/XMCLib/src/xmc4_scu.c ****   /* Writing an adress & direction of transfer into RMACR register */  
 492:../Libraries/XMCLib/src/xmc4_scu.c ****   SCU_GENERAL->RMACR = rmacr;
 688              	 .loc 1 492 0
 689 0002 064B     	 ldr r3,.L73
 489:../Libraries/XMCLib/src/xmc4_scu.c ****   
 690              	 .loc 1 489 0
 691 0004 00F47020 	 and r0,r0,#983040
 692              	.LVL39:
 693              	 .loc 1 492 0
 694 0008 C3F8C800 	 str r0,[r3,#200]
 695              	.L71:
 493:../Libraries/XMCLib/src/xmc4_scu.c ****   
 494:../Libraries/XMCLib/src/xmc4_scu.c ****   /* Wait until the update of RMX register in hibernate domain is completed */
 495:../Libraries/XMCLib/src/xmc4_scu.c ****   while((SCU_GENERAL->MIRRSTS) & SCU_GENERAL_MIRRSTS_RMX_Msk)
 696              	 .loc 1 495 0 discriminator 1
 697 000c D3F8C420 	 ldr r2,[r3,#196]
 698 0010 9204     	 lsls r2,r2,#18
 699 0012 FBD4     	 bmi .L71
 496:../Libraries/XMCLib/src/xmc4_scu.c ****   {
 497:../Libraries/XMCLib/src/xmc4_scu.c ****   }
 498:../Libraries/XMCLib/src/xmc4_scu.c **** 
 499:../Libraries/XMCLib/src/xmc4_scu.c ****   return (SCU_GENERAL->RMDATA);
 700              	 .loc 1 499 0
 701 0014 014B     	 ldr r3,.L73
 702 0016 D3F8CC00 	 ldr r0,[r3,#204]
 703              	.LVL40:
 500:../Libraries/XMCLib/src/xmc4_scu.c **** }
 704              	 .loc 1 500 0
 705 001a 7047     	 bx lr
 706              	.L74:
 707              	 .align 2
 708              	.L73:
 709 001c 00400050 	 .word 1342193664
 710              	 .cfi_endproc
 711              	.LFE195:
 713              	 .section .text.XMC_SCU_TRAP_Enable,"ax",%progbits
 714              	 .align 1
 715              	 .global XMC_SCU_TRAP_Enable
 716              	 .thumb
 717              	 .thumb_func
 719              	XMC_SCU_TRAP_Enable:
 720              	.LFB197:
 501:../Libraries/XMCLib/src/xmc4_scu.c **** 
 502:../Libraries/XMCLib/src/xmc4_scu.c **** /* API to initialize the clock tree */
 503:../Libraries/XMCLib/src/xmc4_scu.c **** void XMC_SCU_CLOCK_Init(const XMC_SCU_CLOCK_CONFIG_t *const config)
 504:../Libraries/XMCLib/src/xmc4_scu.c **** {
 505:../Libraries/XMCLib/src/xmc4_scu.c ****   XMC_ASSERT("", config->fsys_clkdiv != 0);
 506:../Libraries/XMCLib/src/xmc4_scu.c ****   XMC_ASSERT("", config->fcpu_clkdiv != 0);
 507:../Libraries/XMCLib/src/xmc4_scu.c ****   XMC_ASSERT("", config->fccu_clkdiv != 0);
 508:../Libraries/XMCLib/src/xmc4_scu.c ****   XMC_ASSERT("", config->fperipheral_clkdiv != 0);
 509:../Libraries/XMCLib/src/xmc4_scu.c ****   XMC_ASSERT("", ((config->syspll_config.p_div != 0) &&
 510:../Libraries/XMCLib/src/xmc4_scu.c ****                   (config->syspll_config.mode == XMC_SCU_CLOCK_SYSPLL_MODE_NORMAL)) ||
 511:../Libraries/XMCLib/src/xmc4_scu.c ****                   (config->syspll_config.mode == XMC_SCU_CLOCK_SYSPLL_MODE_PRESCALAR));
 512:../Libraries/XMCLib/src/xmc4_scu.c ****   XMC_ASSERT("", ((config->syspll_config.n_div != 0) &&
 513:../Libraries/XMCLib/src/xmc4_scu.c ****                   (config->syspll_config.mode == XMC_SCU_CLOCK_SYSPLL_MODE_NORMAL)) ||
 514:../Libraries/XMCLib/src/xmc4_scu.c ****                   (config->syspll_config.mode == XMC_SCU_CLOCK_SYSPLL_MODE_PRESCALAR));
 515:../Libraries/XMCLib/src/xmc4_scu.c ****   XMC_ASSERT("", (config->syspll_config.k_div != 0) &&
 516:../Libraries/XMCLib/src/xmc4_scu.c ****                  ((config->syspll_config.mode == XMC_SCU_CLOCK_SYSPLL_MODE_NORMAL) ||
 517:../Libraries/XMCLib/src/xmc4_scu.c ****                   (config->syspll_config.mode == XMC_SCU_CLOCK_SYSPLL_MODE_PRESCALAR)));
 518:../Libraries/XMCLib/src/xmc4_scu.c ****   XMC_ASSERT("", ((config->fsys_clksrc == XMC_SCU_CLOCK_SYSCLKSRC_PLL) ||
 519:../Libraries/XMCLib/src/xmc4_scu.c ****                  (config->fsys_clksrc == XMC_SCU_CLOCK_SYSCLKSRC_OFI)) &&
 520:../Libraries/XMCLib/src/xmc4_scu.c ****                  ((config->syspll_config.mode == XMC_SCU_CLOCK_SYSPLL_MODE_NORMAL) ||
 521:../Libraries/XMCLib/src/xmc4_scu.c ****                   (config->syspll_config.mode == XMC_SCU_CLOCK_SYSPLL_MODE_PRESCALAR)));
 522:../Libraries/XMCLib/src/xmc4_scu.c ****   XMC_ASSERT("", ((config->fstdby_clksrc == XMC_SCU_HIB_STDBYCLKSRC_OSCULP) && (config->enable_oscu
 523:../Libraries/XMCLib/src/xmc4_scu.c ****                  (config->fstdby_clksrc != XMC_SCU_HIB_STDBYCLKSRC_OSCULP));
 524:../Libraries/XMCLib/src/xmc4_scu.c ****   XMC_ASSERT("", ((config->syspll_config.clksrc == XMC_SCU_CLOCK_SYSPLLCLKSRC_OSCHP) &&
 525:../Libraries/XMCLib/src/xmc4_scu.c ****                  (config->enable_oschp == true)) || (config->syspll_config.clksrc != XMC_SCU_CLOCK_
 526:../Libraries/XMCLib/src/xmc4_scu.c **** 
 527:../Libraries/XMCLib/src/xmc4_scu.c ****   XMC_SCU_CLOCK_SetSystemClockSource(XMC_SCU_CLOCK_SYSCLKSRC_OFI);
 528:../Libraries/XMCLib/src/xmc4_scu.c **** 
 529:../Libraries/XMCLib/src/xmc4_scu.c ****   XMC_SCU_HIB_EnableHibernateDomain();
 530:../Libraries/XMCLib/src/xmc4_scu.c **** 
 531:../Libraries/XMCLib/src/xmc4_scu.c ****   if (config->enable_osculp == true)
 532:../Libraries/XMCLib/src/xmc4_scu.c ****   {
 533:../Libraries/XMCLib/src/xmc4_scu.c ****     XMC_SCU_CLOCK_EnableLowPowerOscillator();
 534:../Libraries/XMCLib/src/xmc4_scu.c ****     while (XMC_SCU_CLOCK_IsLowPowerOscillatorStable() == false);
 535:../Libraries/XMCLib/src/xmc4_scu.c ****   }
 536:../Libraries/XMCLib/src/xmc4_scu.c ****   
 537:../Libraries/XMCLib/src/xmc4_scu.c ****   XMC_SCU_HIB_SetStandbyClockSource(config->fstdby_clksrc);  
 538:../Libraries/XMCLib/src/xmc4_scu.c ****   while (XMC_SCU_GetMirrorStatus() != 0)
 539:../Libraries/XMCLib/src/xmc4_scu.c ****   {
 540:../Libraries/XMCLib/src/xmc4_scu.c ****     /* Wait until update of the stanby clock source is done in the HIB domain */    
 541:../Libraries/XMCLib/src/xmc4_scu.c ****   }
 542:../Libraries/XMCLib/src/xmc4_scu.c **** 
 543:../Libraries/XMCLib/src/xmc4_scu.c ****   XMC_SCU_CLOCK_SetBackupClockCalibrationMode(config->calibration_mode);
 544:../Libraries/XMCLib/src/xmc4_scu.c **** 
 545:../Libraries/XMCLib/src/xmc4_scu.c ****   XMC_SCU_CLOCK_SetSystemClockDivider((uint32_t)config->fsys_clkdiv);
 546:../Libraries/XMCLib/src/xmc4_scu.c ****   XMC_SCU_CLOCK_SetCpuClockDivider((uint32_t)config->fcpu_clkdiv);
 547:../Libraries/XMCLib/src/xmc4_scu.c ****   XMC_SCU_CLOCK_SetCcuClockDivider((uint32_t)config->fccu_clkdiv);
 548:../Libraries/XMCLib/src/xmc4_scu.c ****   XMC_SCU_CLOCK_SetPeripheralClockDivider((uint32_t)config->fperipheral_clkdiv);
 549:../Libraries/XMCLib/src/xmc4_scu.c **** 
 550:../Libraries/XMCLib/src/xmc4_scu.c ****   if (config->enable_oschp == true)
 551:../Libraries/XMCLib/src/xmc4_scu.c ****   {
 552:../Libraries/XMCLib/src/xmc4_scu.c ****     XMC_SCU_CLOCK_EnableHighPerformanceOscillator();
 553:../Libraries/XMCLib/src/xmc4_scu.c ****     while(XMC_SCU_CLOCK_IsHighPerformanceOscillatorStable() == false);
 554:../Libraries/XMCLib/src/xmc4_scu.c ****   }
 555:../Libraries/XMCLib/src/xmc4_scu.c **** 
 556:../Libraries/XMCLib/src/xmc4_scu.c ****   if (config->syspll_config.mode == XMC_SCU_CLOCK_SYSPLL_MODE_DISABLED)
 557:../Libraries/XMCLib/src/xmc4_scu.c ****   {
 558:../Libraries/XMCLib/src/xmc4_scu.c ****     XMC_SCU_CLOCK_DisableSystemPll();
 559:../Libraries/XMCLib/src/xmc4_scu.c ****   }
 560:../Libraries/XMCLib/src/xmc4_scu.c ****   else
 561:../Libraries/XMCLib/src/xmc4_scu.c ****   {
 562:../Libraries/XMCLib/src/xmc4_scu.c **** 
 563:../Libraries/XMCLib/src/xmc4_scu.c ****     XMC_SCU_CLOCK_EnableSystemPll();
 564:../Libraries/XMCLib/src/xmc4_scu.c ****     XMC_SCU_CLOCK_StartSystemPll(config->syspll_config.clksrc,
 565:../Libraries/XMCLib/src/xmc4_scu.c ****                                  config->syspll_config.mode,
 566:../Libraries/XMCLib/src/xmc4_scu.c ****                                  (uint32_t)config->syspll_config.p_div,
 567:../Libraries/XMCLib/src/xmc4_scu.c ****                                  (uint32_t)config->syspll_config.n_div,
 568:../Libraries/XMCLib/src/xmc4_scu.c ****                                  (uint32_t)config->syspll_config.k_div);
 569:../Libraries/XMCLib/src/xmc4_scu.c ****   }
 570:../Libraries/XMCLib/src/xmc4_scu.c **** 
 571:../Libraries/XMCLib/src/xmc4_scu.c ****   /* use SYSPLL? */
 572:../Libraries/XMCLib/src/xmc4_scu.c ****   if (config->fsys_clksrc == XMC_SCU_CLOCK_SYSCLKSRC_PLL)
 573:../Libraries/XMCLib/src/xmc4_scu.c ****   {
 574:../Libraries/XMCLib/src/xmc4_scu.c ****     XMC_SCU_CLOCK_SetSystemClockSource(XMC_SCU_CLOCK_SYSCLKSRC_PLL);    
 575:../Libraries/XMCLib/src/xmc4_scu.c ****   }
 576:../Libraries/XMCLib/src/xmc4_scu.c ****   SystemCoreClockUpdate();
 577:../Libraries/XMCLib/src/xmc4_scu.c **** }
 578:../Libraries/XMCLib/src/xmc4_scu.c **** 
 579:../Libraries/XMCLib/src/xmc4_scu.c **** /* API to enable a trap source */
 580:../Libraries/XMCLib/src/xmc4_scu.c **** void XMC_SCU_TRAP_Enable(const uint32_t trap)
 581:../Libraries/XMCLib/src/xmc4_scu.c **** {
 721              	 .loc 1 581 0
 722              	 .cfi_startproc
 723              	 
 724              	 
 725              	 
 726              	.LVL41:
 582:../Libraries/XMCLib/src/xmc4_scu.c ****   SCU_TRAP->TRAPDIS &= (uint32_t)~trap;
 727              	 .loc 1 582 0
 728 0000 024A     	 ldr r2,.L76
 729 0002 9368     	 ldr r3,[r2,#8]
 730 0004 23EA0000 	 bic r0,r3,r0
 731              	.LVL42:
 732 0008 9060     	 str r0,[r2,#8]
 733 000a 7047     	 bx lr
 734              	.L77:
 735              	 .align 2
 736              	.L76:
 737 000c 60410050 	 .word 1342194016
 738              	 .cfi_endproc
 739              	.LFE197:
 741              	 .section .text.XMC_SCU_TRAP_Disable,"ax",%progbits
 742              	 .align 1
 743              	 .global XMC_SCU_TRAP_Disable
 744              	 .thumb
 745              	 .thumb_func
 747              	XMC_SCU_TRAP_Disable:
 748              	.LFB198:
 583:../Libraries/XMCLib/src/xmc4_scu.c **** }
 584:../Libraries/XMCLib/src/xmc4_scu.c **** 
 585:../Libraries/XMCLib/src/xmc4_scu.c **** /* API to disable a trap source */
 586:../Libraries/XMCLib/src/xmc4_scu.c **** void XMC_SCU_TRAP_Disable(const uint32_t trap)
 587:../Libraries/XMCLib/src/xmc4_scu.c **** {
 749              	 .loc 1 587 0
 750              	 .cfi_startproc
 751              	 
 752              	 
 753              	 
 754              	.LVL43:
 588:../Libraries/XMCLib/src/xmc4_scu.c ****   SCU_TRAP->TRAPDIS |= (uint32_t)trap;
 755              	 .loc 1 588 0
 756 0000 024A     	 ldr r2,.L79
 757 0002 9368     	 ldr r3,[r2,#8]
 758 0004 1843     	 orrs r0,r0,r3
 759              	.LVL44:
 760 0006 9060     	 str r0,[r2,#8]
 761 0008 7047     	 bx lr
 762              	.L80:
 763 000a 00BF     	 .align 2
 764              	.L79:
 765 000c 60410050 	 .word 1342194016
 766              	 .cfi_endproc
 767              	.LFE198:
 769              	 .section .text.XMC_SCU_TRAP_GetStatus,"ax",%progbits
 770              	 .align 1
 771              	 .global XMC_SCU_TRAP_GetStatus
 772              	 .thumb
 773              	 .thumb_func
 775              	XMC_SCU_TRAP_GetStatus:
 776              	.LFB199:
 589:../Libraries/XMCLib/src/xmc4_scu.c **** }
 590:../Libraries/XMCLib/src/xmc4_scu.c **** 
 591:../Libraries/XMCLib/src/xmc4_scu.c **** /* API to determine if a trap source has generated event */
 592:../Libraries/XMCLib/src/xmc4_scu.c **** uint32_t XMC_SCU_TRAP_GetStatus(void)
 593:../Libraries/XMCLib/src/xmc4_scu.c **** {
 777              	 .loc 1 593 0
 778              	 .cfi_startproc
 779              	 
 780              	 
 781              	 
 594:../Libraries/XMCLib/src/xmc4_scu.c ****   return (SCU_TRAP->TRAPRAW);
 782              	 .loc 1 594 0
 783 0000 014B     	 ldr r3,.L82
 784 0002 5868     	 ldr r0,[r3,#4]
 595:../Libraries/XMCLib/src/xmc4_scu.c **** }
 785              	 .loc 1 595 0
 786 0004 7047     	 bx lr
 787              	.L83:
 788 0006 00BF     	 .align 2
 789              	.L82:
 790 0008 60410050 	 .word 1342194016
 791              	 .cfi_endproc
 792              	.LFE199:
 794              	 .section .text.XMC_SCU_TRAP_Trigger,"ax",%progbits
 795              	 .align 1
 796              	 .global XMC_SCU_TRAP_Trigger
 797              	 .thumb
 798              	 .thumb_func
 800              	XMC_SCU_TRAP_Trigger:
 801              	.LFB200:
 596:../Libraries/XMCLib/src/xmc4_scu.c **** 
 597:../Libraries/XMCLib/src/xmc4_scu.c **** /* API to manually trigger a trap event */
 598:../Libraries/XMCLib/src/xmc4_scu.c **** void XMC_SCU_TRAP_Trigger(const uint32_t trap)
 599:../Libraries/XMCLib/src/xmc4_scu.c **** {
 802              	 .loc 1 599 0
 803              	 .cfi_startproc
 804              	 
 805              	 
 806              	 
 807              	.LVL45:
 600:../Libraries/XMCLib/src/xmc4_scu.c ****   SCU_TRAP->TRAPSET = (uint32_t)trap;
 808              	 .loc 1 600 0
 809 0000 014B     	 ldr r3,.L85
 810 0002 1861     	 str r0,[r3,#16]
 811 0004 7047     	 bx lr
 812              	.L86:
 813 0006 00BF     	 .align 2
 814              	.L85:
 815 0008 60410050 	 .word 1342194016
 816              	 .cfi_endproc
 817              	.LFE200:
 819              	 .section .text.XMC_SCU_TRAP_ClearStatus,"ax",%progbits
 820              	 .align 1
 821              	 .global XMC_SCU_TRAP_ClearStatus
 822              	 .thumb
 823              	 .thumb_func
 825              	XMC_SCU_TRAP_ClearStatus:
 826              	.LFB201:
 601:../Libraries/XMCLib/src/xmc4_scu.c **** }
 602:../Libraries/XMCLib/src/xmc4_scu.c **** 
 603:../Libraries/XMCLib/src/xmc4_scu.c **** /* API to clear a trap event */
 604:../Libraries/XMCLib/src/xmc4_scu.c **** void XMC_SCU_TRAP_ClearStatus(const uint32_t trap)
 605:../Libraries/XMCLib/src/xmc4_scu.c **** {
 827              	 .loc 1 605 0
 828              	 .cfi_startproc
 829              	 
 830              	 
 831              	 
 832              	.LVL46:
 606:../Libraries/XMCLib/src/xmc4_scu.c ****   SCU_TRAP->TRAPCLR = (uint32_t)trap;
 833              	 .loc 1 606 0
 834 0000 014B     	 ldr r3,.L88
 835 0002 D860     	 str r0,[r3,#12]
 836 0004 7047     	 bx lr
 837              	.L89:
 838 0006 00BF     	 .align 2
 839              	.L88:
 840 0008 60410050 	 .word 1342194016
 841              	 .cfi_endproc
 842              	.LFE201:
 844              	 .section .text.XMC_SCU_PARITY_ClearStatus,"ax",%progbits
 845              	 .align 1
 846              	 .global XMC_SCU_PARITY_ClearStatus
 847              	 .thumb
 848              	 .thumb_func
 850              	XMC_SCU_PARITY_ClearStatus:
 851              	.LFB202:
 607:../Libraries/XMCLib/src/xmc4_scu.c **** }
 608:../Libraries/XMCLib/src/xmc4_scu.c **** 
 609:../Libraries/XMCLib/src/xmc4_scu.c **** /* API to clear parity error event */
 610:../Libraries/XMCLib/src/xmc4_scu.c **** void XMC_SCU_PARITY_ClearStatus(const uint32_t memory)
 611:../Libraries/XMCLib/src/xmc4_scu.c **** {
 852              	 .loc 1 611 0
 853              	 .cfi_startproc
 854              	 
 855              	 
 856              	 
 857              	.LVL47:
 612:../Libraries/XMCLib/src/xmc4_scu.c ****   SCU_PARITY->PEFLAG |= (uint32_t)memory; 
 858              	 .loc 1 612 0
 859 0000 024A     	 ldr r2,.L91
 860 0002 5369     	 ldr r3,[r2,#20]
 861 0004 1843     	 orrs r0,r0,r3
 862              	.LVL48:
 863 0006 5061     	 str r0,[r2,#20]
 864 0008 7047     	 bx lr
 865              	.L92:
 866 000a 00BF     	 .align 2
 867              	.L91:
 868 000c 3C410050 	 .word 1342193980
 869              	 .cfi_endproc
 870              	.LFE202:
 872              	 .section .text.XMC_SCU_PARITY_GetStatus,"ax",%progbits
 873              	 .align 1
 874              	 .global XMC_SCU_PARITY_GetStatus
 875              	 .thumb
 876              	 .thumb_func
 878              	XMC_SCU_PARITY_GetStatus:
 879              	.LFB203:
 613:../Libraries/XMCLib/src/xmc4_scu.c **** }
 614:../Libraries/XMCLib/src/xmc4_scu.c **** 
 615:../Libraries/XMCLib/src/xmc4_scu.c **** /* API to determine if the specified parity error has occured or not */
 616:../Libraries/XMCLib/src/xmc4_scu.c **** uint32_t XMC_SCU_PARITY_GetStatus(void)
 617:../Libraries/XMCLib/src/xmc4_scu.c **** {
 880              	 .loc 1 617 0
 881              	 .cfi_startproc
 882              	 
 883              	 
 884              	 
 618:../Libraries/XMCLib/src/xmc4_scu.c ****   return (SCU_PARITY->PEFLAG);
 885              	 .loc 1 618 0
 886 0000 014B     	 ldr r3,.L94
 887 0002 5869     	 ldr r0,[r3,#20]
 619:../Libraries/XMCLib/src/xmc4_scu.c **** } 
 888              	 .loc 1 619 0
 889 0004 7047     	 bx lr
 890              	.L95:
 891 0006 00BF     	 .align 2
 892              	.L94:
 893 0008 3C410050 	 .word 1342193980
 894              	 .cfi_endproc
 895              	.LFE203:
 897              	 .section .text.XMC_SCU_PARITY_Enable,"ax",%progbits
 898              	 .align 1
 899              	 .global XMC_SCU_PARITY_Enable
 900              	 .thumb
 901              	 .thumb_func
 903              	XMC_SCU_PARITY_Enable:
 904              	.LFB204:
 620:../Libraries/XMCLib/src/xmc4_scu.c **** 
 621:../Libraries/XMCLib/src/xmc4_scu.c **** /* API to enable parity error checking for the selected on-chip RAM type */
 622:../Libraries/XMCLib/src/xmc4_scu.c **** void XMC_SCU_PARITY_Enable(const uint32_t memory)
 623:../Libraries/XMCLib/src/xmc4_scu.c **** {
 905              	 .loc 1 623 0
 906              	 .cfi_startproc
 907              	 
 908              	 
 909              	 
 910              	.LVL49:
 624:../Libraries/XMCLib/src/xmc4_scu.c ****   SCU_PARITY->PEEN |= (uint32_t)memory; 
 911              	 .loc 1 624 0
 912 0000 024A     	 ldr r2,.L97
 913 0002 1368     	 ldr r3,[r2]
 914 0004 1843     	 orrs r0,r0,r3
 915              	.LVL50:
 916 0006 1060     	 str r0,[r2]
 917 0008 7047     	 bx lr
 918              	.L98:
 919 000a 00BF     	 .align 2
 920              	.L97:
 921 000c 3C410050 	 .word 1342193980
 922              	 .cfi_endproc
 923              	.LFE204:
 925              	 .section .text.XMC_SCU_PARITY_Disable,"ax",%progbits
 926              	 .align 1
 927              	 .global XMC_SCU_PARITY_Disable
 928              	 .thumb
 929              	 .thumb_func
 931              	XMC_SCU_PARITY_Disable:
 932              	.LFB205:
 625:../Libraries/XMCLib/src/xmc4_scu.c **** }
 626:../Libraries/XMCLib/src/xmc4_scu.c **** 
 627:../Libraries/XMCLib/src/xmc4_scu.c **** /* API to disable parity error checking for the selected on-chip RAM type */
 628:../Libraries/XMCLib/src/xmc4_scu.c **** void XMC_SCU_PARITY_Disable(const uint32_t memory)
 629:../Libraries/XMCLib/src/xmc4_scu.c **** {
 933              	 .loc 1 629 0
 934              	 .cfi_startproc
 935              	 
 936              	 
 937              	 
 938              	.LVL51:
 630:../Libraries/XMCLib/src/xmc4_scu.c ****   SCU_PARITY->PEEN &= (uint32_t)~memory; 
 939              	 .loc 1 630 0
 940 0000 024A     	 ldr r2,.L100
 941 0002 1368     	 ldr r3,[r2]
 942 0004 23EA0000 	 bic r0,r3,r0
 943              	.LVL52:
 944 0008 1060     	 str r0,[r2]
 945 000a 7047     	 bx lr
 946              	.L101:
 947              	 .align 2
 948              	.L100:
 949 000c 3C410050 	 .word 1342193980
 950              	 .cfi_endproc
 951              	.LFE205:
 953              	 .section .text.XMC_SCU_PARITY_EnableTrapGeneration,"ax",%progbits
 954              	 .align 1
 955              	 .global XMC_SCU_PARITY_EnableTrapGeneration
 956              	 .thumb
 957              	 .thumb_func
 959              	XMC_SCU_PARITY_EnableTrapGeneration:
 960              	.LFB206:
 631:../Libraries/XMCLib/src/xmc4_scu.c **** }
 632:../Libraries/XMCLib/src/xmc4_scu.c **** 
 633:../Libraries/XMCLib/src/xmc4_scu.c **** /* API to enable trap assertion for the parity error source */
 634:../Libraries/XMCLib/src/xmc4_scu.c **** void XMC_SCU_PARITY_EnableTrapGeneration(const uint32_t memory)
 635:../Libraries/XMCLib/src/xmc4_scu.c **** {
 961              	 .loc 1 635 0
 962              	 .cfi_startproc
 963              	 
 964              	 
 965              	 
 966              	.LVL53:
 636:../Libraries/XMCLib/src/xmc4_scu.c ****   SCU_PARITY->PETE |= (uint32_t)memory; 
 967              	 .loc 1 636 0
 968 0000 024A     	 ldr r2,.L103
 969 0002 9368     	 ldr r3,[r2,#8]
 970 0004 1843     	 orrs r0,r0,r3
 971              	.LVL54:
 972 0006 9060     	 str r0,[r2,#8]
 973 0008 7047     	 bx lr
 974              	.L104:
 975 000a 00BF     	 .align 2
 976              	.L103:
 977 000c 3C410050 	 .word 1342193980
 978              	 .cfi_endproc
 979              	.LFE206:
 981              	 .section .text.XMC_SCU_PARITY_DisableTrapGeneration,"ax",%progbits
 982              	 .align 1
 983              	 .global XMC_SCU_PARITY_DisableTrapGeneration
 984              	 .thumb
 985              	 .thumb_func
 987              	XMC_SCU_PARITY_DisableTrapGeneration:
 988              	.LFB207:
 637:../Libraries/XMCLib/src/xmc4_scu.c **** }
 638:../Libraries/XMCLib/src/xmc4_scu.c **** 
 639:../Libraries/XMCLib/src/xmc4_scu.c **** /* API to disable the assertion of trap for the parity error source */
 640:../Libraries/XMCLib/src/xmc4_scu.c **** void XMC_SCU_PARITY_DisableTrapGeneration(const uint32_t memory)
 641:../Libraries/XMCLib/src/xmc4_scu.c **** {
 989              	 .loc 1 641 0
 990              	 .cfi_startproc
 991              	 
 992              	 
 993              	 
 994              	.LVL55:
 642:../Libraries/XMCLib/src/xmc4_scu.c ****   SCU_PARITY->PETE &= (uint32_t)~memory; 
 995              	 .loc 1 642 0
 996 0000 024A     	 ldr r2,.L106
 997 0002 9368     	 ldr r3,[r2,#8]
 998 0004 23EA0000 	 bic r0,r3,r0
 999              	.LVL56:
 1000 0008 9060     	 str r0,[r2,#8]
 1001 000a 7047     	 bx lr
 1002              	.L107:
 1003              	 .align 2
 1004              	.L106:
 1005 000c 3C410050 	 .word 1342193980
 1006              	 .cfi_endproc
 1007              	.LFE207:
 1009              	 .section .text.XMC_SCU_INTERRUPT_EnableNmiRequest,"ax",%progbits
 1010              	 .align 1
 1011              	 .global XMC_SCU_INTERRUPT_EnableNmiRequest
 1012              	 .thumb
 1013              	 .thumb_func
 1015              	XMC_SCU_INTERRUPT_EnableNmiRequest:
 1016              	.LFB208:
 643:../Libraries/XMCLib/src/xmc4_scu.c **** }
 644:../Libraries/XMCLib/src/xmc4_scu.c **** 
 645:../Libraries/XMCLib/src/xmc4_scu.c **** /* Enables a NMI source */
 646:../Libraries/XMCLib/src/xmc4_scu.c **** void XMC_SCU_INTERRUPT_EnableNmiRequest(const uint32_t request)
 647:../Libraries/XMCLib/src/xmc4_scu.c **** {
 1017              	 .loc 1 647 0
 1018              	 .cfi_startproc
 1019              	 
 1020              	 
 1021              	 
 1022              	.LVL57:
 648:../Libraries/XMCLib/src/xmc4_scu.c ****   SCU_INTERRUPT->NMIREQEN |= (uint32_t)request;
 1023              	 .loc 1 648 0
 1024 0000 024A     	 ldr r2,.L109
 1025 0002 5369     	 ldr r3,[r2,#20]
 1026 0004 1843     	 orrs r0,r0,r3
 1027              	.LVL58:
 1028 0006 5061     	 str r0,[r2,#20]
 1029 0008 7047     	 bx lr
 1030              	.L110:
 1031 000a 00BF     	 .align 2
 1032              	.L109:
 1033 000c 74400050 	 .word 1342193780
 1034              	 .cfi_endproc
 1035              	.LFE208:
 1037              	 .section .text.XMC_SCU_INTERRUPT_DisableNmiRequest,"ax",%progbits
 1038              	 .align 1
 1039              	 .global XMC_SCU_INTERRUPT_DisableNmiRequest
 1040              	 .thumb
 1041              	 .thumb_func
 1043              	XMC_SCU_INTERRUPT_DisableNmiRequest:
 1044              	.LFB209:
 649:../Libraries/XMCLib/src/xmc4_scu.c **** }
 650:../Libraries/XMCLib/src/xmc4_scu.c **** 
 651:../Libraries/XMCLib/src/xmc4_scu.c **** /* Disables a NMI source */
 652:../Libraries/XMCLib/src/xmc4_scu.c **** void XMC_SCU_INTERRUPT_DisableNmiRequest(const uint32_t request)
 653:../Libraries/XMCLib/src/xmc4_scu.c **** {
 1045              	 .loc 1 653 0
 1046              	 .cfi_startproc
 1047              	 
 1048              	 
 1049              	 
 1050              	.LVL59:
 654:../Libraries/XMCLib/src/xmc4_scu.c ****   SCU_INTERRUPT->NMIREQEN &= (uint32_t)~request;
 1051              	 .loc 1 654 0
 1052 0000 024A     	 ldr r2,.L112
 1053 0002 5369     	 ldr r3,[r2,#20]
 1054 0004 23EA0000 	 bic r0,r3,r0
 1055              	.LVL60:
 1056 0008 5061     	 str r0,[r2,#20]
 1057 000a 7047     	 bx lr
 1058              	.L113:
 1059              	 .align 2
 1060              	.L112:
 1061 000c 74400050 	 .word 1342193780
 1062              	 .cfi_endproc
 1063              	.LFE209:
 1065              	 .section .text.XMC_SCU_RESET_AssertPeripheralReset,"ax",%progbits
 1066              	 .align 1
 1067              	 .global XMC_SCU_RESET_AssertPeripheralReset
 1068              	 .thumb
 1069              	 .thumb_func
 1071              	XMC_SCU_RESET_AssertPeripheralReset:
 1072              	.LFB210:
 655:../Libraries/XMCLib/src/xmc4_scu.c **** }
 656:../Libraries/XMCLib/src/xmc4_scu.c **** 
 657:../Libraries/XMCLib/src/xmc4_scu.c **** /* API to manually assert a reset request */
 658:../Libraries/XMCLib/src/xmc4_scu.c **** void XMC_SCU_RESET_AssertPeripheralReset(const XMC_SCU_PERIPHERAL_RESET_t peripheral)
 659:../Libraries/XMCLib/src/xmc4_scu.c **** {
 1073              	 .loc 1 659 0
 1074              	 .cfi_startproc
 1075              	 
 1076              	 
 1077              	 
 1078              	.LVL61:
 660:../Libraries/XMCLib/src/xmc4_scu.c ****   uint32_t index = (uint32_t)((((uint32_t)peripheral) & 0xf0000000UL) >> 28UL);
 1079              	 .loc 1 660 0
 1080 0000 020F     	 lsrs r2,r0,#28
 1081              	.LVL62:
 661:../Libraries/XMCLib/src/xmc4_scu.c ****   uint32_t mask = (((uint32_t)peripheral) & ((uint32_t)~0xf0000000UL));
 662:../Libraries/XMCLib/src/xmc4_scu.c **** 
 663:../Libraries/XMCLib/src/xmc4_scu.c ****   *(uint32_t *)(&(SCU_RESET->PRSET0) + (index * 3U)) = (uint32_t)mask;
 1082              	 .loc 1 663 0
 1083 0002 0C23     	 movs r3,#12
 1084 0004 5343     	 muls r3,r2,r3
 1085 0006 024A     	 ldr r2,.L115
 1086              	.LVL63:
 661:../Libraries/XMCLib/src/xmc4_scu.c ****   uint32_t mask = (((uint32_t)peripheral) & ((uint32_t)~0xf0000000UL));
 1087              	 .loc 1 661 0
 1088 0008 20F07040 	 bic r0,r0,#-268435456
 1089              	.LVL64:
 1090              	 .loc 1 663 0
 1091 000c 9850     	 str r0,[r3,r2]
 1092 000e 7047     	 bx lr
 1093              	.L116:
 1094              	 .align 2
 1095              	.L115:
 1096 0010 10440050 	 .word 1342194704
 1097              	 .cfi_endproc
 1098              	.LFE210:
 1100              	 .section .text.XMC_SCU_RESET_DeassertPeripheralReset,"ax",%progbits
 1101              	 .align 1
 1102              	 .global XMC_SCU_RESET_DeassertPeripheralReset
 1103              	 .thumb
 1104              	 .thumb_func
 1106              	XMC_SCU_RESET_DeassertPeripheralReset:
 1107              	.LFB211:
 664:../Libraries/XMCLib/src/xmc4_scu.c **** }
 665:../Libraries/XMCLib/src/xmc4_scu.c **** 
 666:../Libraries/XMCLib/src/xmc4_scu.c **** /* API to manually de-assert a reset request */
 667:../Libraries/XMCLib/src/xmc4_scu.c **** void XMC_SCU_RESET_DeassertPeripheralReset(const XMC_SCU_PERIPHERAL_RESET_t peripheral)
 668:../Libraries/XMCLib/src/xmc4_scu.c **** {
 1108              	 .loc 1 668 0
 1109              	 .cfi_startproc
 1110              	 
 1111              	 
 1112              	 
 1113              	.LVL65:
 669:../Libraries/XMCLib/src/xmc4_scu.c ****   uint32_t index = (uint32_t)((((uint32_t)peripheral) & 0xf0000000UL) >> 28UL);
 1114              	 .loc 1 669 0
 1115 0000 020F     	 lsrs r2,r0,#28
 1116              	.LVL66:
 670:../Libraries/XMCLib/src/xmc4_scu.c ****   uint32_t mask = (((uint32_t)peripheral) & ((uint32_t)~0xf0000000UL));
 671:../Libraries/XMCLib/src/xmc4_scu.c **** 
 672:../Libraries/XMCLib/src/xmc4_scu.c ****   *(uint32_t *)(&(SCU_RESET->PRCLR0) + (index * 3U)) = (uint32_t)mask;
 1117              	 .loc 1 672 0
 1118 0002 0C23     	 movs r3,#12
 1119 0004 5343     	 muls r3,r2,r3
 1120 0006 024A     	 ldr r2,.L118
 1121              	.LVL67:
 670:../Libraries/XMCLib/src/xmc4_scu.c ****   uint32_t mask = (((uint32_t)peripheral) & ((uint32_t)~0xf0000000UL));
 1122              	 .loc 1 670 0
 1123 0008 20F07040 	 bic r0,r0,#-268435456
 1124              	.LVL68:
 1125              	 .loc 1 672 0
 1126 000c 9850     	 str r0,[r3,r2]
 1127 000e 7047     	 bx lr
 1128              	.L119:
 1129              	 .align 2
 1130              	.L118:
 1131 0010 14440050 	 .word 1342194708
 1132              	 .cfi_endproc
 1133              	.LFE211:
 1135              	 .section .text.XMC_SCU_RESET_IsPeripheralResetAsserted,"ax",%progbits
 1136              	 .align 1
 1137              	 .global XMC_SCU_RESET_IsPeripheralResetAsserted
 1138              	 .thumb
 1139              	 .thumb_func
 1141              	XMC_SCU_RESET_IsPeripheralResetAsserted:
 1142              	.LFB212:
 673:../Libraries/XMCLib/src/xmc4_scu.c **** }
 674:../Libraries/XMCLib/src/xmc4_scu.c **** 
 675:../Libraries/XMCLib/src/xmc4_scu.c **** /* Find out if the peripheral reset is asserted */
 676:../Libraries/XMCLib/src/xmc4_scu.c **** bool XMC_SCU_RESET_IsPeripheralResetAsserted(const XMC_SCU_PERIPHERAL_RESET_t peripheral)
 677:../Libraries/XMCLib/src/xmc4_scu.c **** {
 1143              	 .loc 1 677 0
 1144              	 .cfi_startproc
 1145              	 
 1146              	 
 1147              	 
 1148              	.LVL69:
 678:../Libraries/XMCLib/src/xmc4_scu.c ****   uint32_t index = (uint32_t)((((uint32_t)peripheral) & 0xf0000000UL) >> 28UL);
 679:../Libraries/XMCLib/src/xmc4_scu.c ****   uint32_t mask = (((uint32_t)peripheral) & ((uint32_t)~0xf0000000UL));
 1149              	 .loc 1 679 0
 1150 0000 20F07042 	 bic r2,r0,#-268435456
 1151              	.LVL70:
 680:../Libraries/XMCLib/src/xmc4_scu.c **** 
 681:../Libraries/XMCLib/src/xmc4_scu.c ****   return ((*(uint32_t *)(&(SCU_RESET->PRSTAT0) + (index * 3U)) & mask) != 0U);
 1152              	 .loc 1 681 0
 1153 0004 0C23     	 movs r3,#12
 678:../Libraries/XMCLib/src/xmc4_scu.c ****   uint32_t index = (uint32_t)((((uint32_t)peripheral) & 0xf0000000UL) >> 28UL);
 1154              	 .loc 1 678 0
 1155 0006 000F     	 lsrs r0,r0,#28
 1156              	.LVL71:
 1157              	 .loc 1 681 0
 1158 0008 5843     	 muls r0,r3,r0
 1159              	.LVL72:
 1160 000a 03F1A043 	 add r3,r3,#1342177280
 1161 000e 03F58843 	 add r3,r3,#17408
 1162 0012 C358     	 ldr r3,[r0,r3]
 1163 0014 1A42     	 tst r2,r3
 682:../Libraries/XMCLib/src/xmc4_scu.c **** }
 1164              	 .loc 1 682 0
 1165 0016 14BF     	 ite ne
 1166 0018 0120     	 movne r0,#1
 1167 001a 0020     	 moveq r0,#0
 1168 001c 7047     	 bx lr
 1169              	 .cfi_endproc
 1170              	.LFE212:
 1172              	 .section .text.XMC_SCU_CLOCK_GetSystemPllClockSourceFrequency,"ax",%progbits
 1173              	 .align 1
 1174              	 .global XMC_SCU_CLOCK_GetSystemPllClockSourceFrequency
 1175              	 .thumb
 1176              	 .thumb_func
 1178              	XMC_SCU_CLOCK_GetSystemPllClockSourceFrequency:
 1179              	.LFB214:
 683:../Libraries/XMCLib/src/xmc4_scu.c **** 
 684:../Libraries/XMCLib/src/xmc4_scu.c **** /*
 685:../Libraries/XMCLib/src/xmc4_scu.c ****  * API to retrieve frequency of System PLL output clock
 686:../Libraries/XMCLib/src/xmc4_scu.c ****  */
 687:../Libraries/XMCLib/src/xmc4_scu.c **** uint32_t XMC_SCU_CLOCK_GetSystemPllClockFrequency(void)
 688:../Libraries/XMCLib/src/xmc4_scu.c **** {
 689:../Libraries/XMCLib/src/xmc4_scu.c ****   uint32_t clock_frequency;
 690:../Libraries/XMCLib/src/xmc4_scu.c ****   uint32_t p_div;
 691:../Libraries/XMCLib/src/xmc4_scu.c ****   uint32_t n_div;
 692:../Libraries/XMCLib/src/xmc4_scu.c ****   uint32_t k2_div;
 693:../Libraries/XMCLib/src/xmc4_scu.c **** 
 694:../Libraries/XMCLib/src/xmc4_scu.c ****   clock_frequency = XMC_SCU_CLOCK_GetSystemPllClockSourceFrequency();
 695:../Libraries/XMCLib/src/xmc4_scu.c ****   if(SCU_PLL->PLLSTAT & SCU_PLL_PLLSTAT_VCOBYST_Msk)
 696:../Libraries/XMCLib/src/xmc4_scu.c ****   {
 697:../Libraries/XMCLib/src/xmc4_scu.c ****     /* Prescalar mode - fOSC is the parent*/
 698:../Libraries/XMCLib/src/xmc4_scu.c ****     clock_frequency = (uint32_t)(clock_frequency / 
 699:../Libraries/XMCLib/src/xmc4_scu.c ****                       ((((SCU_PLL->PLLCON1) & SCU_PLL_PLLCON1_K1DIV_Msk) >> SCU_PLL_PLLCON1_K1DIV_P
 700:../Libraries/XMCLib/src/xmc4_scu.c ****   }
 701:../Libraries/XMCLib/src/xmc4_scu.c ****   else
 702:../Libraries/XMCLib/src/xmc4_scu.c ****   {
 703:../Libraries/XMCLib/src/xmc4_scu.c ****     p_div  = (uint32_t)((((SCU_PLL->PLLCON1) & SCU_PLL_PLLCON1_PDIV_Msk) >> SCU_PLL_PLLCON1_PDIV_Po
 704:../Libraries/XMCLib/src/xmc4_scu.c ****     n_div  = (uint32_t)((((SCU_PLL->PLLCON1) & SCU_PLL_PLLCON1_NDIV_Msk) >> SCU_PLL_PLLCON1_NDIV_Po
 705:../Libraries/XMCLib/src/xmc4_scu.c ****     k2_div = (uint32_t)((((SCU_PLL->PLLCON1) & SCU_PLL_PLLCON1_K2DIV_Msk) >> SCU_PLL_PLLCON1_K2DIV_
 706:../Libraries/XMCLib/src/xmc4_scu.c ****        
 707:../Libraries/XMCLib/src/xmc4_scu.c ****     clock_frequency = (clock_frequency * n_div) / (p_div * k2_div);
 708:../Libraries/XMCLib/src/xmc4_scu.c ****   }
 709:../Libraries/XMCLib/src/xmc4_scu.c **** 
 710:../Libraries/XMCLib/src/xmc4_scu.c ****   return (clock_frequency);
 711:../Libraries/XMCLib/src/xmc4_scu.c **** }
 712:../Libraries/XMCLib/src/xmc4_scu.c **** 
 713:../Libraries/XMCLib/src/xmc4_scu.c **** /**
 714:../Libraries/XMCLib/src/xmc4_scu.c ****  * API to retrieve frequency of System PLL VCO input clock
 715:../Libraries/XMCLib/src/xmc4_scu.c ****  */
 716:../Libraries/XMCLib/src/xmc4_scu.c **** uint32_t XMC_SCU_CLOCK_GetSystemPllClockSourceFrequency(void)
 717:../Libraries/XMCLib/src/xmc4_scu.c **** {
 1180              	 .loc 1 717 0
 1181              	 .cfi_startproc
 1182              	 
 1183              	 
 1184              	 
 718:../Libraries/XMCLib/src/xmc4_scu.c ****   uint32_t clock_frequency;
 719:../Libraries/XMCLib/src/xmc4_scu.c **** 
 720:../Libraries/XMCLib/src/xmc4_scu.c ****   /* Prescalar mode - fOSC is the parent*/
 721:../Libraries/XMCLib/src/xmc4_scu.c ****   if((SCU_PLL->PLLCON2 & SCU_PLL_PLLCON2_PINSEL_Msk) == (uint32_t)XMC_SCU_CLOCK_SYSPLLCLKSRC_OSCHP)
 1185              	 .loc 1 721 0
 1186 0000 034B     	 ldr r3,.L123
 1187 0002 DB68     	 ldr r3,[r3,#12]
 1188 0004 DB07     	 lsls r3,r3,#31
 1189 0006 01D4     	 bmi .L122
 722:../Libraries/XMCLib/src/xmc4_scu.c ****   {
 723:../Libraries/XMCLib/src/xmc4_scu.c ****     clock_frequency = OSCHP_GetFrequency();
 1190              	 .loc 1 723 0
 1191 0008 FFF7FEBF 	 b OSCHP_GetFrequency
 1192              	.LVL73:
 1193              	.L122:
 724:../Libraries/XMCLib/src/xmc4_scu.c ****   }
 725:../Libraries/XMCLib/src/xmc4_scu.c ****   else
 726:../Libraries/XMCLib/src/xmc4_scu.c ****   {
 727:../Libraries/XMCLib/src/xmc4_scu.c ****     clock_frequency = OFI_FREQUENCY;
 728:../Libraries/XMCLib/src/xmc4_scu.c ****   }
 729:../Libraries/XMCLib/src/xmc4_scu.c ****   
 730:../Libraries/XMCLib/src/xmc4_scu.c ****   return (clock_frequency);
 731:../Libraries/XMCLib/src/xmc4_scu.c **** }
 1194              	 .loc 1 731 0
 1195 000c 0148     	 ldr r0,.L123+4
 1196 000e 7047     	 bx lr
 1197              	.L124:
 1198              	 .align 2
 1199              	.L123:
 1200 0010 10470050 	 .word 1342195472
 1201 0014 00366E01 	 .word 24000000
 1202              	 .cfi_endproc
 1203              	.LFE214:
 1205              	 .section .text.XMC_SCU_CLOCK_GetSystemPllClockFrequency,"ax",%progbits
 1206              	 .align 1
 1207              	 .global XMC_SCU_CLOCK_GetSystemPllClockFrequency
 1208              	 .thumb
 1209              	 .thumb_func
 1211              	XMC_SCU_CLOCK_GetSystemPllClockFrequency:
 1212              	.LFB213:
 688:../Libraries/XMCLib/src/xmc4_scu.c ****   uint32_t clock_frequency;
 1213              	 .loc 1 688 0
 1214              	 .cfi_startproc
 1215              	 
 1216              	 
 1217 0000 08B5     	 push {r3,lr}
 1218              	.LCFI3:
 1219              	 .cfi_def_cfa_offset 8
 1220              	 .cfi_offset 3,-8
 1221              	 .cfi_offset 14,-4
 694:../Libraries/XMCLib/src/xmc4_scu.c ****   if(SCU_PLL->PLLSTAT & SCU_PLL_PLLSTAT_VCOBYST_Msk)
 1222              	 .loc 1 694 0
 1223 0002 FFF7FEFF 	 bl XMC_SCU_CLOCK_GetSystemPllClockSourceFrequency
 1224              	.LVL74:
 695:../Libraries/XMCLib/src/xmc4_scu.c ****   {
 1225              	 .loc 1 695 0
 1226 0006 0D4B     	 ldr r3,.L129
 1227 0008 1A68     	 ldr r2,[r3]
 1228 000a D207     	 lsls r2,r2,#31
 703:../Libraries/XMCLib/src/xmc4_scu.c ****     n_div  = (uint32_t)((((SCU_PLL->PLLCON1) & SCU_PLL_PLLCON1_NDIV_Msk) >> SCU_PLL_PLLCON1_NDIV_Po
 1229              	 .loc 1 703 0
 1230 000c 5BBF     	 ittet pl
 1231 000e 9A68     	 ldrpl r2,[r3,#8]
 1232              	.LVL75:
 704:../Libraries/XMCLib/src/xmc4_scu.c ****     k2_div = (uint32_t)((((SCU_PLL->PLLCON1) & SCU_PLL_PLLCON1_K2DIV_Msk) >> SCU_PLL_PLLCON1_K2DIV_
 1233              	 .loc 1 704 0
 1234 0010 9968     	 ldrpl r1,[r3,#8]
 1235              	.LVL76:
 699:../Libraries/XMCLib/src/xmc4_scu.c ****   }
 1236              	 .loc 1 699 0
 1237 0012 9B68     	 ldrmi r3,[r3,#8]
 705:../Libraries/XMCLib/src/xmc4_scu.c ****        
 1238              	 .loc 1 705 0
 1239 0014 9B68     	 ldrpl r3,[r3,#8]
 704:../Libraries/XMCLib/src/xmc4_scu.c ****     k2_div = (uint32_t)((((SCU_PLL->PLLCON1) & SCU_PLL_PLLCON1_K2DIV_Msk) >> SCU_PLL_PLLCON1_K2DIV_
 1240              	 .loc 1 704 0
 1241 0016 5BBF     	 ittet pl
 1242 0018 C1F30621 	 ubfxpl r1,r1,#8,#7
 1243              	.LVL77:
 703:../Libraries/XMCLib/src/xmc4_scu.c ****     n_div  = (uint32_t)((((SCU_PLL->PLLCON1) & SCU_PLL_PLLCON1_NDIV_Msk) >> SCU_PLL_PLLCON1_NDIV_Po
 1244              	 .loc 1 703 0
 1245 001c C2F30362 	 ubfxpl r2,r2,#24,#4
 1246              	.LVL78:
 699:../Libraries/XMCLib/src/xmc4_scu.c ****   }
 1247              	 .loc 1 699 0
 1248 0020 03F07F03 	 andmi r3,r3,#127
 707:../Libraries/XMCLib/src/xmc4_scu.c ****   }
 1249              	 .loc 1 707 0
 1250 0024 01FB0000 	 mlapl r0,r1,r0,r0
 1251              	.LVL79:
 705:../Libraries/XMCLib/src/xmc4_scu.c ****        
 1252              	 .loc 1 705 0
 1253 0028 5BBF     	 ittet pl
 1254 002a C3F30641 	 ubfxpl r1,r3,#16,#7
 703:../Libraries/XMCLib/src/xmc4_scu.c ****     n_div  = (uint32_t)((((SCU_PLL->PLLCON1) & SCU_PLL_PLLCON1_NDIV_Msk) >> SCU_PLL_PLLCON1_NDIV_Po
 1255              	 .loc 1 703 0
 1256 002e 531C     	 addpl r3,r2,#1
 699:../Libraries/XMCLib/src/xmc4_scu.c ****   }
 1257              	 .loc 1 699 0
 1258 0030 0133     	 addmi r3,r3,#1
 707:../Libraries/XMCLib/src/xmc4_scu.c ****   }
 1259              	 .loc 1 707 0
 1260 0032 01FB0333 	 mlapl r3,r1,r3,r3
 1261 0036 B0FBF3F0 	 udiv r0,r0,r3
 1262              	.LVL80:
 711:../Libraries/XMCLib/src/xmc4_scu.c **** 
 1263              	 .loc 1 711 0
 1264 003a 08BD     	 pop {r3,pc}
 1265              	.L130:
 1266              	 .align 2
 1267              	.L129:
 1268 003c 10470050 	 .word 1342195472
 1269              	 .cfi_endproc
 1270              	.LFE213:
 1272              	 .section .text.XMC_SCU_CLOCK_GetUsbPllClockFrequency,"ax",%progbits
 1273              	 .align 1
 1274              	 .global XMC_SCU_CLOCK_GetUsbPllClockFrequency
 1275              	 .thumb
 1276              	 .thumb_func
 1278              	XMC_SCU_CLOCK_GetUsbPllClockFrequency:
 1279              	.LFB215:
 732:../Libraries/XMCLib/src/xmc4_scu.c **** 
 733:../Libraries/XMCLib/src/xmc4_scu.c **** /*
 734:../Libraries/XMCLib/src/xmc4_scu.c ****  * API to retrieve frequency of USB PLL output clock
 735:../Libraries/XMCLib/src/xmc4_scu.c ****  */
 736:../Libraries/XMCLib/src/xmc4_scu.c **** uint32_t XMC_SCU_CLOCK_GetUsbPllClockFrequency(void)
 737:../Libraries/XMCLib/src/xmc4_scu.c **** {
 1280              	 .loc 1 737 0
 1281              	 .cfi_startproc
 1282              	 
 1283              	 
 1284 0000 08B5     	 push {r3,lr}
 1285              	.LCFI4:
 1286              	 .cfi_def_cfa_offset 8
 1287              	 .cfi_offset 3,-8
 1288              	 .cfi_offset 14,-4
 738:../Libraries/XMCLib/src/xmc4_scu.c ****   uint32_t clock_frequency;
 739:../Libraries/XMCLib/src/xmc4_scu.c ****   uint32_t n_div;
 740:../Libraries/XMCLib/src/xmc4_scu.c ****   uint32_t p_div;
 741:../Libraries/XMCLib/src/xmc4_scu.c ****   
 742:../Libraries/XMCLib/src/xmc4_scu.c ****   clock_frequency = OSCHP_GetFrequency();
 1289              	 .loc 1 742 0
 1290 0002 FFF7FEFF 	 bl OSCHP_GetFrequency
 1291              	.LVL81:
 743:../Libraries/XMCLib/src/xmc4_scu.c ****   if((SCU_PLL->USBPLLSTAT & SCU_PLL_USBPLLSTAT_VCOBYST_Msk) == 0U)
 1292              	 .loc 1 743 0
 1293 0006 084B     	 ldr r3,.L133
 1294 0008 1A69     	 ldr r2,[r3,#16]
 1295 000a D207     	 lsls r2,r2,#31
 1296 000c 0BD4     	 bmi .L132
 744:../Libraries/XMCLib/src/xmc4_scu.c ****   {
 745:../Libraries/XMCLib/src/xmc4_scu.c ****     /* Normal mode - fVCO is the parent*/
 746:../Libraries/XMCLib/src/xmc4_scu.c ****     n_div = (uint32_t)((((SCU_PLL->USBPLLCON) & SCU_PLL_USBPLLCON_NDIV_Msk) >> SCU_PLL_USBPLLCON_ND
 1297              	 .loc 1 746 0
 1298 000e 5A69     	 ldr r2,[r3,#20]
 1299              	.LVL82:
 747:../Libraries/XMCLib/src/xmc4_scu.c ****     p_div = (uint32_t)((((SCU_PLL->USBPLLCON) & SCU_PLL_USBPLLCON_PDIV_Msk) >> SCU_PLL_USBPLLCON_PD
 1300              	 .loc 1 747 0
 1301 0010 5B69     	 ldr r3,[r3,#20]
 1302              	.LVL83:
 1303 0012 C3F30363 	 ubfx r3,r3,#24,#4
 1304              	.LVL84:
 746:../Libraries/XMCLib/src/xmc4_scu.c ****     p_div = (uint32_t)((((SCU_PLL->USBPLLCON) & SCU_PLL_USBPLLCON_PDIV_Msk) >> SCU_PLL_USBPLLCON_PD
 1305              	 .loc 1 746 0
 1306 0016 C2F30622 	 ubfx r2,r2,#8,#7
 1307              	.LVL85:
 1308              	 .loc 1 747 0
 1309 001a 0133     	 adds r3,r3,#1
 748:../Libraries/XMCLib/src/xmc4_scu.c ****     clock_frequency = (uint32_t)((clock_frequency * n_div)/ (uint32_t)(p_div * 2UL));
 1310              	 .loc 1 748 0
 1311 001c 02FB0000 	 mla r0,r2,r0,r0
 1312              	.LVL86:
 1313 0020 5B00     	 lsls r3,r3,#1
 1314 0022 B0FBF3F0 	 udiv r0,r0,r3
 1315              	.LVL87:
 1316              	.L132:
 749:../Libraries/XMCLib/src/xmc4_scu.c ****   }
 750:../Libraries/XMCLib/src/xmc4_scu.c ****   return (clock_frequency);
 751:../Libraries/XMCLib/src/xmc4_scu.c **** }
 1317              	 .loc 1 751 0
 1318 0026 08BD     	 pop {r3,pc}
 1319              	.L134:
 1320              	 .align 2
 1321              	.L133:
 1322 0028 10470050 	 .word 1342195472
 1323              	 .cfi_endproc
 1324              	.LFE215:
 1326              	 .section .text.XMC_SCU_CLOCK_GetCcuClockFrequency,"ax",%progbits
 1327              	 .align 1
 1328              	 .global XMC_SCU_CLOCK_GetCcuClockFrequency
 1329              	 .thumb
 1330              	 .thumb_func
 1332              	XMC_SCU_CLOCK_GetCcuClockFrequency:
 1333              	.LFB216:
 752:../Libraries/XMCLib/src/xmc4_scu.c **** 
 753:../Libraries/XMCLib/src/xmc4_scu.c **** /*
 754:../Libraries/XMCLib/src/xmc4_scu.c ****  * API to retrieve frequency of CCU clock frequency
 755:../Libraries/XMCLib/src/xmc4_scu.c ****  */
 756:../Libraries/XMCLib/src/xmc4_scu.c **** uint32_t XMC_SCU_CLOCK_GetCcuClockFrequency(void)
 757:../Libraries/XMCLib/src/xmc4_scu.c **** {
 1334              	 .loc 1 757 0
 1335              	 .cfi_startproc
 1336              	 
 1337              	 
 1338              	 
 1339              	.LVL88:
 1340              	.LBB30:
 1341              	.LBB31:
 1342              	 .file 2 "G:/dt_g1_balancing_plate_wise20192020/XMC/Libraries/XMCLib/inc/xmc4_scu.h"
   1:G:/dt_g1_balancing_plate_wise20192020/XMC/Libraries/XMCLib/inc\xmc4_scu.h **** /**
   2:G:/dt_g1_balancing_plate_wise20192020/XMC/Libraries/XMCLib/inc\xmc4_scu.h ****  * @file xmc4_scu.h
   3:G:/dt_g1_balancing_plate_wise20192020/XMC/Libraries/XMCLib/inc\xmc4_scu.h ****  * @date 2019-02-18
   4:G:/dt_g1_balancing_plate_wise20192020/XMC/Libraries/XMCLib/inc\xmc4_scu.h ****  *
   5:G:/dt_g1_balancing_plate_wise20192020/XMC/Libraries/XMCLib/inc\xmc4_scu.h ****  * @cond
   6:G:/dt_g1_balancing_plate_wise20192020/XMC/Libraries/XMCLib/inc\xmc4_scu.h ****  **************************************************************************************************
   7:G:/dt_g1_balancing_plate_wise20192020/XMC/Libraries/XMCLib/inc\xmc4_scu.h ****  * XMClib v2.1.22 - XMC Peripheral Driver Library 
   8:G:/dt_g1_balancing_plate_wise20192020/XMC/Libraries/XMCLib/inc\xmc4_scu.h ****  *
   9:G:/dt_g1_balancing_plate_wise20192020/XMC/Libraries/XMCLib/inc\xmc4_scu.h ****  * Copyright (c) 2015-2019, Infineon Technologies AG
  10:G:/dt_g1_balancing_plate_wise20192020/XMC/Libraries/XMCLib/inc\xmc4_scu.h ****  * All rights reserved.                        
  11:G:/dt_g1_balancing_plate_wise20192020/XMC/Libraries/XMCLib/inc\xmc4_scu.h ****  *                                             
  12:G:/dt_g1_balancing_plate_wise20192020/XMC/Libraries/XMCLib/inc\xmc4_scu.h ****  * Redistribution and use in source and binary forms, with or without modification,are permitted pr
  13:G:/dt_g1_balancing_plate_wise20192020/XMC/Libraries/XMCLib/inc\xmc4_scu.h ****  * following conditions are met:   
  14:G:/dt_g1_balancing_plate_wise20192020/XMC/Libraries/XMCLib/inc\xmc4_scu.h ****  *                                                                              
  15:G:/dt_g1_balancing_plate_wise20192020/XMC/Libraries/XMCLib/inc\xmc4_scu.h ****  * Redistributions of source code must retain the above copyright notice, this list of conditions a
  16:G:/dt_g1_balancing_plate_wise20192020/XMC/Libraries/XMCLib/inc\xmc4_scu.h ****  * disclaimer.                        
  17:G:/dt_g1_balancing_plate_wise20192020/XMC/Libraries/XMCLib/inc\xmc4_scu.h ****  * 
  18:G:/dt_g1_balancing_plate_wise20192020/XMC/Libraries/XMCLib/inc\xmc4_scu.h ****  * Redistributions in binary form must reproduce the above copyright notice, this list of condition
  19:G:/dt_g1_balancing_plate_wise20192020/XMC/Libraries/XMCLib/inc\xmc4_scu.h ****  * disclaimer in the documentation and/or other materials provided with the distribution.          
  20:G:/dt_g1_balancing_plate_wise20192020/XMC/Libraries/XMCLib/inc\xmc4_scu.h ****  * 
  21:G:/dt_g1_balancing_plate_wise20192020/XMC/Libraries/XMCLib/inc\xmc4_scu.h ****  * Neither the name of the copyright holders nor the names of its contributors may be used to endor
  22:G:/dt_g1_balancing_plate_wise20192020/XMC/Libraries/XMCLib/inc\xmc4_scu.h ****  * products derived from this software without specific prior written permission.                  
  23:G:/dt_g1_balancing_plate_wise20192020/XMC/Libraries/XMCLib/inc\xmc4_scu.h ****  *                                                                              
  24:G:/dt_g1_balancing_plate_wise20192020/XMC/Libraries/XMCLib/inc\xmc4_scu.h ****  * THIS SOFTWARE IS PROVIDED BY THE COPYRIGHT HOLDERS AND CONTRIBUTORS "AS IS" AND ANY EXPRESS OR I
  25:G:/dt_g1_balancing_plate_wise20192020/XMC/Libraries/XMCLib/inc\xmc4_scu.h ****  * INCLUDING, BUT NOT LIMITED TO, THE IMPLIED WARRANTIES OF MERCHANTABILITY AND FITNESS FOR A PARTI
  26:G:/dt_g1_balancing_plate_wise20192020/XMC/Libraries/XMCLib/inc\xmc4_scu.h ****  * DISCLAIMED. IN NO EVENT SHALL THE COPYRIGHT HOLDER OR CONTRIBUTORS BE LIABLE  FOR ANY DIRECT, IN
  27:G:/dt_g1_balancing_plate_wise20192020/XMC/Libraries/XMCLib/inc\xmc4_scu.h ****  * SPECIAL, EXEMPLARY, OR CONSEQUENTIAL DAMAGES (INCLUDING, BUT NOT LIMITED TO, PROCUREMENT OF SUBS
  28:G:/dt_g1_balancing_plate_wise20192020/XMC/Libraries/XMCLib/inc\xmc4_scu.h ****  * SERVICES; LOSS OF USE, DATA, OR PROFITS; OR BUSINESS INTERRUPTION) HOWEVER CAUSED AND ON ANY THE
  29:G:/dt_g1_balancing_plate_wise20192020/XMC/Libraries/XMCLib/inc\xmc4_scu.h ****  * WHETHER IN CONTRACT, STRICT LIABILITY,OR TORT (INCLUDING NEGLIGENCE OR OTHERWISE) ARISING IN ANY
  30:G:/dt_g1_balancing_plate_wise20192020/XMC/Libraries/XMCLib/inc\xmc4_scu.h ****  * OF THIS SOFTWARE, EVEN IF ADVISED OF THE POSSIBILITY OF SUCH DAMAGE.                            
  31:G:/dt_g1_balancing_plate_wise20192020/XMC/Libraries/XMCLib/inc\xmc4_scu.h ****  *                                                                              
  32:G:/dt_g1_balancing_plate_wise20192020/XMC/Libraries/XMCLib/inc\xmc4_scu.h ****  * To improve the quality of the software, users are encouraged to share modifications, enhancement
  33:G:/dt_g1_balancing_plate_wise20192020/XMC/Libraries/XMCLib/inc\xmc4_scu.h ****  * Infineon Technologies AG dave@infineon.com).                                                    
  34:G:/dt_g1_balancing_plate_wise20192020/XMC/Libraries/XMCLib/inc\xmc4_scu.h ****  **************************************************************************************************
  35:G:/dt_g1_balancing_plate_wise20192020/XMC/Libraries/XMCLib/inc\xmc4_scu.h ****  *
  36:G:/dt_g1_balancing_plate_wise20192020/XMC/Libraries/XMCLib/inc\xmc4_scu.h ****  * Change History
  37:G:/dt_g1_balancing_plate_wise20192020/XMC/Libraries/XMCLib/inc\xmc4_scu.h ****  * --------------
  38:G:/dt_g1_balancing_plate_wise20192020/XMC/Libraries/XMCLib/inc\xmc4_scu.h ****  *
  39:G:/dt_g1_balancing_plate_wise20192020/XMC/Libraries/XMCLib/inc\xmc4_scu.h ****  * 2015-06-20:
  40:G:/dt_g1_balancing_plate_wise20192020/XMC/Libraries/XMCLib/inc\xmc4_scu.h ****  *     - Initial version
  41:G:/dt_g1_balancing_plate_wise20192020/XMC/Libraries/XMCLib/inc\xmc4_scu.h ****  *     - Documentation improved
  42:G:/dt_g1_balancing_plate_wise20192020/XMC/Libraries/XMCLib/inc\xmc4_scu.h ****  *
  43:G:/dt_g1_balancing_plate_wise20192020/XMC/Libraries/XMCLib/inc\xmc4_scu.h ****  * 2015-11-30:
  44:G:/dt_g1_balancing_plate_wise20192020/XMC/Libraries/XMCLib/inc\xmc4_scu.h ****  *     - Documentation improved
  45:G:/dt_g1_balancing_plate_wise20192020/XMC/Libraries/XMCLib/inc\xmc4_scu.h ****  *      
  46:G:/dt_g1_balancing_plate_wise20192020/XMC/Libraries/XMCLib/inc\xmc4_scu.h ****  * 2016-03-09:
  47:G:/dt_g1_balancing_plate_wise20192020/XMC/Libraries/XMCLib/inc\xmc4_scu.h ****  *     - Added XMC_SCU_POWER_EnableMonitor/XMC_SCU_POWER_DisableMonitor
  48:G:/dt_g1_balancing_plate_wise20192020/XMC/Libraries/XMCLib/inc\xmc4_scu.h ****  *             XMC_SCU_POWER_GetEVRStatus, XMC_SCU_POWER_GetEVR13Voltage, XMC_SCU_POWER_GetEVR33Vol
  49:G:/dt_g1_balancing_plate_wise20192020/XMC/Libraries/XMCLib/inc\xmc4_scu.h ****  *     - Added XMC_SCU_HIB_GetHibernateControlStatus,
  50:G:/dt_g1_balancing_plate_wise20192020/XMC/Libraries/XMCLib/inc\xmc4_scu.h ****  *             XMC_SCU_HIB_GetEventStatus, XMC_SCU_HIB_ClearEventStatus, XMC_SCU_HIB_TriggerEvent, 
  51:G:/dt_g1_balancing_plate_wise20192020/XMC/Libraries/XMCLib/inc\xmc4_scu.h ****  *             XMC_SCU_HIB_EnableEvent, XMC_SCU_HIB_DisableEvent
  52:G:/dt_g1_balancing_plate_wise20192020/XMC/Libraries/XMCLib/inc\xmc4_scu.h ****  *     - Added XMC_SCU_HIB_SetWakeupTriggerInput, XMC_SCU_HIB_SetPinMode, XMC_SCU_HIB_SetOutputPinL
  53:G:/dt_g1_balancing_plate_wise20192020/XMC/Libraries/XMCLib/inc\xmc4_scu.h ****  *             XMC_SCU_HIB_SetInput0, XMC_SCU_HIB_EnterHibernateState
  54:G:/dt_g1_balancing_plate_wise20192020/XMC/Libraries/XMCLib/inc\xmc4_scu.h ****  *
  55:G:/dt_g1_balancing_plate_wise20192020/XMC/Libraries/XMCLib/inc\xmc4_scu.h ****  * 2016-04-15:
  56:G:/dt_g1_balancing_plate_wise20192020/XMC/Libraries/XMCLib/inc\xmc4_scu.h ****  *     - Fixed naming of XMC_SCU_CLOCK_DEEPSLEEP_MODE_CONFIG peripheral clock.
  57:G:/dt_g1_balancing_plate_wise20192020/XMC/Libraries/XMCLib/inc\xmc4_scu.h ****  *       Added enable and disable for peripheral clocks       
  58:G:/dt_g1_balancing_plate_wise20192020/XMC/Libraries/XMCLib/inc\xmc4_scu.h ****  * 
  59:G:/dt_g1_balancing_plate_wise20192020/XMC/Libraries/XMCLib/inc\xmc4_scu.h ****  * 2016-05-19:
  60:G:/dt_g1_balancing_plate_wise20192020/XMC/Libraries/XMCLib/inc\xmc4_scu.h ****  *     - Added XMC_SCU_CLOCK_IsLowPowerOscillatorStable() and XMC_SCU_CLOCK_IsHighPerformanceOscill
  61:G:/dt_g1_balancing_plate_wise20192020/XMC/Libraries/XMCLib/inc\xmc4_scu.h ****  *     - Added XMC_SCU_POWER_WaitForInterrupt() and XMC_SCU_POWER_WaitForEvent()
  62:G:/dt_g1_balancing_plate_wise20192020/XMC/Libraries/XMCLib/inc\xmc4_scu.h ****  *     - Added XMC_SCU_CLOCK_EnableLowPowerOscillatorGeneralPurposeInput(), 
  63:G:/dt_g1_balancing_plate_wise20192020/XMC/Libraries/XMCLib/inc\xmc4_scu.h ****  *             XMC_SCU_CLOCK_DisableLowPowerOscillatorGeneralPurposeInput(),
  64:G:/dt_g1_balancing_plate_wise20192020/XMC/Libraries/XMCLib/inc\xmc4_scu.h ****  *             XMC_SCU_CLOCK_GetLowPowerOscillatorGeneralPurposeInputStatus()
  65:G:/dt_g1_balancing_plate_wise20192020/XMC/Libraries/XMCLib/inc\xmc4_scu.h ****  *     - Added XMC_SCU_CLOCK_EnableHighPerformanceOscillatorGeneralPurposeInput(), 
  66:G:/dt_g1_balancing_plate_wise20192020/XMC/Libraries/XMCLib/inc\xmc4_scu.h ****  *             XMC_SCU_CLOCK_DisableHighPerformanceOscillatorGeneralPurposeInput(),
  67:G:/dt_g1_balancing_plate_wise20192020/XMC/Libraries/XMCLib/inc\xmc4_scu.h ****  *             XMC_SCU_CLOCK_GetHighPerformanceOscillatorGeneralPurposeInputStatus()
  68:G:/dt_g1_balancing_plate_wise20192020/XMC/Libraries/XMCLib/inc\xmc4_scu.h ****  *     - Removed XMC_SCU_INTERRUPT_EVENT_OSCULSTAT_UPDATED, XMC_SCU_INTERRUPT_EVENT_HDSTAT_UPDATED
  69:G:/dt_g1_balancing_plate_wise20192020/XMC/Libraries/XMCLib/inc\xmc4_scu.h ****  *
  70:G:/dt_g1_balancing_plate_wise20192020/XMC/Libraries/XMCLib/inc\xmc4_scu.h ****  * 2016-06-14:
  71:G:/dt_g1_balancing_plate_wise20192020/XMC/Libraries/XMCLib/inc\xmc4_scu.h ****  *     - Added XMC_SCU_HIB_IsWakeupEventDetected() and XMC_SCU_HIB_ClearWakeupEventDetectionStatus(
  72:G:/dt_g1_balancing_plate_wise20192020/XMC/Libraries/XMCLib/inc\xmc4_scu.h ****  *
  73:G:/dt_g1_balancing_plate_wise20192020/XMC/Libraries/XMCLib/inc\xmc4_scu.h ****  * 2016-06-15:
  74:G:/dt_g1_balancing_plate_wise20192020/XMC/Libraries/XMCLib/inc\xmc4_scu.h ****  *     - Added XMC_SCU_HIB_EnterHibernateStateEx() which allows to select between external or inter
  75:G:/dt_g1_balancing_plate_wise20192020/XMC/Libraries/XMCLib/inc\xmc4_scu.h ****  *     - Extended wakeup hibernate events using LPAC wakeup on events. Only available in XMC44, XMC
  76:G:/dt_g1_balancing_plate_wise20192020/XMC/Libraries/XMCLib/inc\xmc4_scu.h ****  *     - Added LPAC APIs. Only available in XMC44, XMC42 and XMC41 series.
  77:G:/dt_g1_balancing_plate_wise20192020/XMC/Libraries/XMCLib/inc\xmc4_scu.h ****  *
  78:G:/dt_g1_balancing_plate_wise20192020/XMC/Libraries/XMCLib/inc\xmc4_scu.h ****  * 2019-02-18:
  79:G:/dt_g1_balancing_plate_wise20192020/XMC/Libraries/XMCLib/inc\xmc4_scu.h ****  *     - Fix conditional definition of XMC_SCU_PARITY_t elements
  80:G:/dt_g1_balancing_plate_wise20192020/XMC/Libraries/XMCLib/inc\xmc4_scu.h ****  *     - Added XMC_SCU_PARITY_OverrideParityBitLogic(uint32_t memory)
  81:G:/dt_g1_balancing_plate_wise20192020/XMC/Libraries/XMCLib/inc\xmc4_scu.h ****  *             XMC_SCU_PARITY_SelectMemoryTest(const XMC_SCU_PARITY_t memory)
  82:G:/dt_g1_balancing_plate_wise20192020/XMC/Libraries/XMCLib/inc\xmc4_scu.h ****  *             XMC_SCU_PARITY_SetParityWriteValue(uint8_t val)
  83:G:/dt_g1_balancing_plate_wise20192020/XMC/Libraries/XMCLib/inc\xmc4_scu.h ****  *             XMC_SCU_PARITY_GetParityReadValue(void)
  84:G:/dt_g1_balancing_plate_wise20192020/XMC/Libraries/XMCLib/inc\xmc4_scu.h ****  *
  85:G:/dt_g1_balancing_plate_wise20192020/XMC/Libraries/XMCLib/inc\xmc4_scu.h ****  * @endcond 
  86:G:/dt_g1_balancing_plate_wise20192020/XMC/Libraries/XMCLib/inc\xmc4_scu.h ****  *
  87:G:/dt_g1_balancing_plate_wise20192020/XMC/Libraries/XMCLib/inc\xmc4_scu.h ****  */
  88:G:/dt_g1_balancing_plate_wise20192020/XMC/Libraries/XMCLib/inc\xmc4_scu.h **** 
  89:G:/dt_g1_balancing_plate_wise20192020/XMC/Libraries/XMCLib/inc\xmc4_scu.h **** #ifndef XMC4_SCU_H
  90:G:/dt_g1_balancing_plate_wise20192020/XMC/Libraries/XMCLib/inc\xmc4_scu.h **** #define XMC4_SCU_H
  91:G:/dt_g1_balancing_plate_wise20192020/XMC/Libraries/XMCLib/inc\xmc4_scu.h **** 
  92:G:/dt_g1_balancing_plate_wise20192020/XMC/Libraries/XMCLib/inc\xmc4_scu.h **** /**************************************************************************************************
  93:G:/dt_g1_balancing_plate_wise20192020/XMC/Libraries/XMCLib/inc\xmc4_scu.h ****  * HEADER FILES
  94:G:/dt_g1_balancing_plate_wise20192020/XMC/Libraries/XMCLib/inc\xmc4_scu.h ****  **************************************************************************************************
  95:G:/dt_g1_balancing_plate_wise20192020/XMC/Libraries/XMCLib/inc\xmc4_scu.h **** 
  96:G:/dt_g1_balancing_plate_wise20192020/XMC/Libraries/XMCLib/inc\xmc4_scu.h **** #include "xmc_common.h"
  97:G:/dt_g1_balancing_plate_wise20192020/XMC/Libraries/XMCLib/inc\xmc4_scu.h **** 
  98:G:/dt_g1_balancing_plate_wise20192020/XMC/Libraries/XMCLib/inc\xmc4_scu.h **** #if UC_FAMILY == XMC4
  99:G:/dt_g1_balancing_plate_wise20192020/XMC/Libraries/XMCLib/inc\xmc4_scu.h **** 
 100:G:/dt_g1_balancing_plate_wise20192020/XMC/Libraries/XMCLib/inc\xmc4_scu.h **** /**
 101:G:/dt_g1_balancing_plate_wise20192020/XMC/Libraries/XMCLib/inc\xmc4_scu.h ****  * @addtogroup XMClib XMC Peripheral Library
 102:G:/dt_g1_balancing_plate_wise20192020/XMC/Libraries/XMCLib/inc\xmc4_scu.h ****  * @{
 103:G:/dt_g1_balancing_plate_wise20192020/XMC/Libraries/XMCLib/inc\xmc4_scu.h ****  */
 104:G:/dt_g1_balancing_plate_wise20192020/XMC/Libraries/XMCLib/inc\xmc4_scu.h ****  
 105:G:/dt_g1_balancing_plate_wise20192020/XMC/Libraries/XMCLib/inc\xmc4_scu.h **** /**
 106:G:/dt_g1_balancing_plate_wise20192020/XMC/Libraries/XMCLib/inc\xmc4_scu.h ****  * @addtogroup SCU
 107:G:/dt_g1_balancing_plate_wise20192020/XMC/Libraries/XMCLib/inc\xmc4_scu.h ****  * @{
 108:G:/dt_g1_balancing_plate_wise20192020/XMC/Libraries/XMCLib/inc\xmc4_scu.h ****  */
 109:G:/dt_g1_balancing_plate_wise20192020/XMC/Libraries/XMCLib/inc\xmc4_scu.h **** 
 110:G:/dt_g1_balancing_plate_wise20192020/XMC/Libraries/XMCLib/inc\xmc4_scu.h **** /**************************************************************************************************
 111:G:/dt_g1_balancing_plate_wise20192020/XMC/Libraries/XMCLib/inc\xmc4_scu.h ****  * MACROS
 112:G:/dt_g1_balancing_plate_wise20192020/XMC/Libraries/XMCLib/inc\xmc4_scu.h ****  **************************************************************************************************
 113:G:/dt_g1_balancing_plate_wise20192020/XMC/Libraries/XMCLib/inc\xmc4_scu.h **** #define PLL_PDIV_XTAL_8MHZ (1U)  /* PDIV value for main PLL settings, fPLL = 120MHz with fOSC = 8MH
 114:G:/dt_g1_balancing_plate_wise20192020/XMC/Libraries/XMCLib/inc\xmc4_scu.h **** #define PLL_NDIV_XTAL_8MHZ (89U)  /* NDIV value for main PLL settings, fPLL = 120MHz with fOSC = 8M
 115:G:/dt_g1_balancing_plate_wise20192020/XMC/Libraries/XMCLib/inc\xmc4_scu.h **** #define PLL_K2DIV_XTAL_8MHZ (2U)  /* K2DIV value for main PLL settings, fPLL = 120MHz with fOSC = 8
 116:G:/dt_g1_balancing_plate_wise20192020/XMC/Libraries/XMCLib/inc\xmc4_scu.h **** 
 117:G:/dt_g1_balancing_plate_wise20192020/XMC/Libraries/XMCLib/inc\xmc4_scu.h **** #define PLL_PDIV_XTAL_12MHZ (1U)  /* PDIV value for main PLL settings, fPLL = 120MHz with fOSC = 12
 118:G:/dt_g1_balancing_plate_wise20192020/XMC/Libraries/XMCLib/inc\xmc4_scu.h **** #define PLL_NDIV_XTAL_12MHZ (79U)  /* NDIV value for main PLL settings, fPLL = 120MHz with fOSC = 1
 119:G:/dt_g1_balancing_plate_wise20192020/XMC/Libraries/XMCLib/inc\xmc4_scu.h **** #define PLL_K2DIV_XTAL_12MHZ (3U)  /* K2DIV value for main PLL settings, fPLL = 120MHz with fOSC = 
 120:G:/dt_g1_balancing_plate_wise20192020/XMC/Libraries/XMCLib/inc\xmc4_scu.h **** 
 121:G:/dt_g1_balancing_plate_wise20192020/XMC/Libraries/XMCLib/inc\xmc4_scu.h **** #define PLL_PDIV_XTAL_16MHZ (1U)  /* PDIV value for main PLL settings, fPLL = 120MHz with fOSC = 16
 122:G:/dt_g1_balancing_plate_wise20192020/XMC/Libraries/XMCLib/inc\xmc4_scu.h **** #define PLL_NDIV_XTAL_16MHZ (59U)  /* NDIV value for main PLL settings, fPLL = 120MHz with fOSC = 1
 123:G:/dt_g1_balancing_plate_wise20192020/XMC/Libraries/XMCLib/inc\xmc4_scu.h **** #define PLL_K2DIV_XTAL_16MHZ (3U)  /* K2DIV value for main PLL settings, fPLL = 120MHz with fOSC = 
 124:G:/dt_g1_balancing_plate_wise20192020/XMC/Libraries/XMCLib/inc\xmc4_scu.h **** 
 125:G:/dt_g1_balancing_plate_wise20192020/XMC/Libraries/XMCLib/inc\xmc4_scu.h **** #define XMC_SCU_INTERRUPT_EVENT_WDT_WARN           SCU_INTERRUPT_SRSTAT_PRWARN_Msk /**< Watchdog pr
 126:G:/dt_g1_balancing_plate_wise20192020/XMC/Libraries/XMCLib/inc\xmc4_scu.h **** #define XMC_SCU_INTERRUPT_EVENT_RTC_PERIODIC       SCU_INTERRUPT_SRSTAT_PI_Msk     /**< RTC periodi
 127:G:/dt_g1_balancing_plate_wise20192020/XMC/Libraries/XMCLib/inc\xmc4_scu.h **** #define XMC_SCU_INTERRUPT_EVENT_RTC_ALARM          SCU_INTERRUPT_SRSTAT_AI_Msk     /**< RTC alarm e
 128:G:/dt_g1_balancing_plate_wise20192020/XMC/Libraries/XMCLib/inc\xmc4_scu.h **** #define XMC_SCU_INTERRUPT_EVENT_DLR_OVERRUN        SCU_INTERRUPT_SRSTAT_DLROVR_Msk /**< DLR overrun
 129:G:/dt_g1_balancing_plate_wise20192020/XMC/Libraries/XMCLib/inc\xmc4_scu.h **** #if defined(SCU_INTERRUPT_SRSTAT_LPACCR_Msk)
 130:G:/dt_g1_balancing_plate_wise20192020/XMC/Libraries/XMCLib/inc\xmc4_scu.h **** #define XMC_SCU_INTERRUPT_EVENT_LPACCR_UPDATED     SCU_INTERRUPT_SRSTAT_LPACCR_Msk /**< LPAC Contro
 131:G:/dt_g1_balancing_plate_wise20192020/XMC/Libraries/XMCLib/inc\xmc4_scu.h **** #endif
 132:G:/dt_g1_balancing_plate_wise20192020/XMC/Libraries/XMCLib/inc\xmc4_scu.h **** #if defined(SCU_INTERRUPT_SRSTAT_LPACTH0_Msk)
 133:G:/dt_g1_balancing_plate_wise20192020/XMC/Libraries/XMCLib/inc\xmc4_scu.h **** #define XMC_SCU_INTERRUPT_EVENT_LPACTH0_UPDATED    SCU_INTERRUPT_SRSTAT_LPACTH0_Msk /**< LPAC Thres
 134:G:/dt_g1_balancing_plate_wise20192020/XMC/Libraries/XMCLib/inc\xmc4_scu.h **** #endif
 135:G:/dt_g1_balancing_plate_wise20192020/XMC/Libraries/XMCLib/inc\xmc4_scu.h **** #if defined(SCU_INTERRUPT_SRSTAT_LPACTH1_Msk)
 136:G:/dt_g1_balancing_plate_wise20192020/XMC/Libraries/XMCLib/inc\xmc4_scu.h **** #define XMC_SCU_INTERRUPT_EVENT_LPACTH1_UPDATED    SCU_INTERRUPT_SRSTAT_LPACTH1_Msk  /**< LPAC Thre
 137:G:/dt_g1_balancing_plate_wise20192020/XMC/Libraries/XMCLib/inc\xmc4_scu.h **** #endif
 138:G:/dt_g1_balancing_plate_wise20192020/XMC/Libraries/XMCLib/inc\xmc4_scu.h **** #if defined(SCU_INTERRUPT_SRSTAT_LPACST_Msk)
 139:G:/dt_g1_balancing_plate_wise20192020/XMC/Libraries/XMCLib/inc\xmc4_scu.h **** #define XMC_SCU_INTERRUPT_EVENT_LPACST_UPDATED     SCU_INTERRUPT_SRSTAT_LPACST_Msk  /**< LPAC Statu
 140:G:/dt_g1_balancing_plate_wise20192020/XMC/Libraries/XMCLib/inc\xmc4_scu.h **** #endif
 141:G:/dt_g1_balancing_plate_wise20192020/XMC/Libraries/XMCLib/inc\xmc4_scu.h **** #if defined(SCU_INTERRUPT_SRSTAT_LPACCLR_Msk)
 142:G:/dt_g1_balancing_plate_wise20192020/XMC/Libraries/XMCLib/inc\xmc4_scu.h **** #define XMC_SCU_INTERRUPT_EVENT_LPACCLR_UPDATED    SCU_INTERRUPT_SRSTAT_LPACCLR_Msk /**< LPAC event
 143:G:/dt_g1_balancing_plate_wise20192020/XMC/Libraries/XMCLib/inc\xmc4_scu.h **** #endif
 144:G:/dt_g1_balancing_plate_wise20192020/XMC/Libraries/XMCLib/inc\xmc4_scu.h **** #if defined(SCU_INTERRUPT_SRSTAT_LPACSET_Msk)
 145:G:/dt_g1_balancing_plate_wise20192020/XMC/Libraries/XMCLib/inc\xmc4_scu.h **** #define XMC_SCU_INTERRUPT_EVENT_LPACSET_UPDATED    SCU_INTERRUPT_SRSTAT_LPACSET_Msk /**< LPAC event
 146:G:/dt_g1_balancing_plate_wise20192020/XMC/Libraries/XMCLib/inc\xmc4_scu.h **** #endif
 147:G:/dt_g1_balancing_plate_wise20192020/XMC/Libraries/XMCLib/inc\xmc4_scu.h **** #if defined(SCU_INTERRUPT_SRSTAT_HINTST_Msk)
 148:G:/dt_g1_balancing_plate_wise20192020/XMC/Libraries/XMCLib/inc\xmc4_scu.h **** #define XMC_SCU_INTERRUPT_EVENT_HINTST_UPDATED     SCU_INTERRUPT_SRSTAT_HINTST_Msk /**< HIB HINTST 
 149:G:/dt_g1_balancing_plate_wise20192020/XMC/Libraries/XMCLib/inc\xmc4_scu.h **** #endif
 150:G:/dt_g1_balancing_plate_wise20192020/XMC/Libraries/XMCLib/inc\xmc4_scu.h **** #if defined(SCU_INTERRUPT_SRSTAT_HINTCLR_Msk)
 151:G:/dt_g1_balancing_plate_wise20192020/XMC/Libraries/XMCLib/inc\xmc4_scu.h **** #define XMC_SCU_INTERRUPT_EVENT_HINTCLR_UPDATED    SCU_INTERRUPT_SRSTAT_HINTCLR_Msk /**< HIB HINTCL
 152:G:/dt_g1_balancing_plate_wise20192020/XMC/Libraries/XMCLib/inc\xmc4_scu.h **** #endif
 153:G:/dt_g1_balancing_plate_wise20192020/XMC/Libraries/XMCLib/inc\xmc4_scu.h **** #if defined(SCU_INTERRUPT_SRSTAT_HINTSET_Msk)
 154:G:/dt_g1_balancing_plate_wise20192020/XMC/Libraries/XMCLib/inc\xmc4_scu.h **** #define XMC_SCU_INTERRUPT_EVENT_HINTSET_UPDATED    SCU_INTERRUPT_SRSTAT_HINTSET_Msk /**< HIB HINTSE
 155:G:/dt_g1_balancing_plate_wise20192020/XMC/Libraries/XMCLib/inc\xmc4_scu.h **** #endif
 156:G:/dt_g1_balancing_plate_wise20192020/XMC/Libraries/XMCLib/inc\xmc4_scu.h **** #define XMC_SCU_INTERRUPT_EVENT_HDCLR_UPDATED      SCU_INTERRUPT_SRSTAT_HDCLR_Msk /**< HIB HDCLR re
 157:G:/dt_g1_balancing_plate_wise20192020/XMC/Libraries/XMCLib/inc\xmc4_scu.h **** #define XMC_SCU_INTERRUPT_EVENT_HDSET_UPDATED      SCU_INTERRUPT_SRSTAT_HDSET_Msk /**< HIB HDSET re
 158:G:/dt_g1_balancing_plate_wise20192020/XMC/Libraries/XMCLib/inc\xmc4_scu.h **** #define XMC_SCU_INTERRUPT_EVENT_HDCR_UPDATED       SCU_INTERRUPT_SRSTAT_HDCR_Msk /**< HIB HDCR regi
 159:G:/dt_g1_balancing_plate_wise20192020/XMC/Libraries/XMCLib/inc\xmc4_scu.h **** #define XMC_SCU_INTERRUPT_EVENT_OSCSICTRL_UPDATED  SCU_INTERRUPT_SRSTAT_OSCSICTRL_Msk /**< HIB OSCS
 160:G:/dt_g1_balancing_plate_wise20192020/XMC/Libraries/XMCLib/inc\xmc4_scu.h **** #define XMC_SCU_INTERRUPT_EVENT_OSCULCTRL_UPDATED  SCU_INTERRUPT_SRSTAT_OSCULCTRL_Msk /**< HIB OSCU
 161:G:/dt_g1_balancing_plate_wise20192020/XMC/Libraries/XMCLib/inc\xmc4_scu.h **** #define XMC_SCU_INTERRUPT_EVENT_RTCCTR_UPDATED     SCU_INTERRUPT_SRSTAT_RTC_CTR_Msk /**< HIB RTCCTR
 162:G:/dt_g1_balancing_plate_wise20192020/XMC/Libraries/XMCLib/inc\xmc4_scu.h **** #define XMC_SCU_INTERRUPT_EVENT_RTCATIM0_UPDATED   SCU_INTERRUPT_SRSTAT_RTC_ATIM0_Msk /**< HIB RTCA
 163:G:/dt_g1_balancing_plate_wise20192020/XMC/Libraries/XMCLib/inc\xmc4_scu.h **** #define XMC_SCU_INTERRUPT_EVENT_RTCATIM1_UPDATED   SCU_INTERRUPT_SRSTAT_RTC_ATIM1_Msk /**< HIB RTCA
 164:G:/dt_g1_balancing_plate_wise20192020/XMC/Libraries/XMCLib/inc\xmc4_scu.h **** #define XMC_SCU_INTERRUPT_EVENT_RTCTIM0_UPDATED    SCU_INTERRUPT_SRSTAT_RTC_TIM0_Msk /**< HIB TIM0 
 165:G:/dt_g1_balancing_plate_wise20192020/XMC/Libraries/XMCLib/inc\xmc4_scu.h **** #define XMC_SCU_INTERRUPT_EVENT_RTCTIM1_UPDATED    SCU_INTERRUPT_SRSTAT_RTC_TIM1_Msk /**< HIB TIM1 
 166:G:/dt_g1_balancing_plate_wise20192020/XMC/Libraries/XMCLib/inc\xmc4_scu.h **** #define XMC_SCU_INTERRUPT_EVENT_RMX_UPDATED        SCU_INTERRUPT_SRSTAT_RMX_Msk /**< HIB RMX regist
 167:G:/dt_g1_balancing_plate_wise20192020/XMC/Libraries/XMCLib/inc\xmc4_scu.h **** 
 168:G:/dt_g1_balancing_plate_wise20192020/XMC/Libraries/XMCLib/inc\xmc4_scu.h **** /**************************************************************************************************
 169:G:/dt_g1_balancing_plate_wise20192020/XMC/Libraries/XMCLib/inc\xmc4_scu.h ****  * ENUMS
 170:G:/dt_g1_balancing_plate_wise20192020/XMC/Libraries/XMCLib/inc\xmc4_scu.h ****  **************************************************************************************************
 171:G:/dt_g1_balancing_plate_wise20192020/XMC/Libraries/XMCLib/inc\xmc4_scu.h **** /**
 172:G:/dt_g1_balancing_plate_wise20192020/XMC/Libraries/XMCLib/inc\xmc4_scu.h ****  *  Defines Capture/Compare unit timer slice trigger, that enables synchronous start function avail
 173:G:/dt_g1_balancing_plate_wise20192020/XMC/Libraries/XMCLib/inc\xmc4_scu.h ****  *  CCUCON register. Use type \a XMC_SCU_CCU_TRIGGER_t for accessing these enum parameters.
 174:G:/dt_g1_balancing_plate_wise20192020/XMC/Libraries/XMCLib/inc\xmc4_scu.h ****  */
 175:G:/dt_g1_balancing_plate_wise20192020/XMC/Libraries/XMCLib/inc\xmc4_scu.h **** typedef enum XMC_SCU_CCU_TRIGGER
 176:G:/dt_g1_balancing_plate_wise20192020/XMC/Libraries/XMCLib/inc\xmc4_scu.h **** {
 177:G:/dt_g1_balancing_plate_wise20192020/XMC/Libraries/XMCLib/inc\xmc4_scu.h **** #if defined(CCU40)
 178:G:/dt_g1_balancing_plate_wise20192020/XMC/Libraries/XMCLib/inc\xmc4_scu.h ****   XMC_SCU_CCU_TRIGGER_CCU40 = SCU_GENERAL_CCUCON_GSC40_Msk, /**< Trigger mask used for Global Start
 179:G:/dt_g1_balancing_plate_wise20192020/XMC/Libraries/XMCLib/inc\xmc4_scu.h ****                                                                  CCU40 peripheral. */
 180:G:/dt_g1_balancing_plate_wise20192020/XMC/Libraries/XMCLib/inc\xmc4_scu.h **** #endif
 181:G:/dt_g1_balancing_plate_wise20192020/XMC/Libraries/XMCLib/inc\xmc4_scu.h **** #if defined(CCU41)
 182:G:/dt_g1_balancing_plate_wise20192020/XMC/Libraries/XMCLib/inc\xmc4_scu.h ****   XMC_SCU_CCU_TRIGGER_CCU41 = SCU_GENERAL_CCUCON_GSC41_Msk, /**< Trigger mask used for Global Start
 183:G:/dt_g1_balancing_plate_wise20192020/XMC/Libraries/XMCLib/inc\xmc4_scu.h ****                                                                  CCU41 peripheral. */
 184:G:/dt_g1_balancing_plate_wise20192020/XMC/Libraries/XMCLib/inc\xmc4_scu.h **** #endif
 185:G:/dt_g1_balancing_plate_wise20192020/XMC/Libraries/XMCLib/inc\xmc4_scu.h **** #if defined(CCU42)
 186:G:/dt_g1_balancing_plate_wise20192020/XMC/Libraries/XMCLib/inc\xmc4_scu.h ****   XMC_SCU_CCU_TRIGGER_CCU42 = SCU_GENERAL_CCUCON_GSC42_Msk, /**< Trigger mask used for Global Start
 187:G:/dt_g1_balancing_plate_wise20192020/XMC/Libraries/XMCLib/inc\xmc4_scu.h ****                                                                  CCU42 peripheral. */
 188:G:/dt_g1_balancing_plate_wise20192020/XMC/Libraries/XMCLib/inc\xmc4_scu.h **** #endif
 189:G:/dt_g1_balancing_plate_wise20192020/XMC/Libraries/XMCLib/inc\xmc4_scu.h **** #if defined(CCU43)
 190:G:/dt_g1_balancing_plate_wise20192020/XMC/Libraries/XMCLib/inc\xmc4_scu.h ****   XMC_SCU_CCU_TRIGGER_CCU43 = SCU_GENERAL_CCUCON_GSC43_Msk, /**< Trigger mask used for Global Start
 191:G:/dt_g1_balancing_plate_wise20192020/XMC/Libraries/XMCLib/inc\xmc4_scu.h ****                                                                  CCU43 peripheral. */
 192:G:/dt_g1_balancing_plate_wise20192020/XMC/Libraries/XMCLib/inc\xmc4_scu.h **** #endif
 193:G:/dt_g1_balancing_plate_wise20192020/XMC/Libraries/XMCLib/inc\xmc4_scu.h **** #if defined(CCU80)
 194:G:/dt_g1_balancing_plate_wise20192020/XMC/Libraries/XMCLib/inc\xmc4_scu.h ****   XMC_SCU_CCU_TRIGGER_CCU80 = SCU_GENERAL_CCUCON_GSC80_Msk, /**< Trigger mask used for Global Start
 195:G:/dt_g1_balancing_plate_wise20192020/XMC/Libraries/XMCLib/inc\xmc4_scu.h ****                                                                  CCU80 peripheral. */
 196:G:/dt_g1_balancing_plate_wise20192020/XMC/Libraries/XMCLib/inc\xmc4_scu.h **** #endif
 197:G:/dt_g1_balancing_plate_wise20192020/XMC/Libraries/XMCLib/inc\xmc4_scu.h **** #if defined(CCU81)
 198:G:/dt_g1_balancing_plate_wise20192020/XMC/Libraries/XMCLib/inc\xmc4_scu.h ****   XMC_SCU_CCU_TRIGGER_CCU81 = SCU_GENERAL_CCUCON_GSC81_Msk /**< Trigger mask used for Global Start 
 199:G:/dt_g1_balancing_plate_wise20192020/XMC/Libraries/XMCLib/inc\xmc4_scu.h ****                                                                  CCU81 peripheral. */
 200:G:/dt_g1_balancing_plate_wise20192020/XMC/Libraries/XMCLib/inc\xmc4_scu.h **** #endif
 201:G:/dt_g1_balancing_plate_wise20192020/XMC/Libraries/XMCLib/inc\xmc4_scu.h **** } XMC_SCU_CCU_TRIGGER_t;
 202:G:/dt_g1_balancing_plate_wise20192020/XMC/Libraries/XMCLib/inc\xmc4_scu.h **** 
 203:G:/dt_g1_balancing_plate_wise20192020/XMC/Libraries/XMCLib/inc\xmc4_scu.h **** /**
 204:G:/dt_g1_balancing_plate_wise20192020/XMC/Libraries/XMCLib/inc\xmc4_scu.h ****  *  Defines enumerations representing the status of trap cause. The cause of the trap gets automati
 205:G:/dt_g1_balancing_plate_wise20192020/XMC/Libraries/XMCLib/inc\xmc4_scu.h ****  *  the \a TRAPSTAT register and can be checked by user software to determine the state of the syst
 206:G:/dt_g1_balancing_plate_wise20192020/XMC/Libraries/XMCLib/inc\xmc4_scu.h ****  *  purpose. 
 207:G:/dt_g1_balancing_plate_wise20192020/XMC/Libraries/XMCLib/inc\xmc4_scu.h ****  *  Use type \a XMC_SCU_TRAP_t for accessing these enum parameters.
 208:G:/dt_g1_balancing_plate_wise20192020/XMC/Libraries/XMCLib/inc\xmc4_scu.h ****  */
 209:G:/dt_g1_balancing_plate_wise20192020/XMC/Libraries/XMCLib/inc\xmc4_scu.h **** typedef enum XMC_SCU_TRAP 
 210:G:/dt_g1_balancing_plate_wise20192020/XMC/Libraries/XMCLib/inc\xmc4_scu.h **** {
 211:G:/dt_g1_balancing_plate_wise20192020/XMC/Libraries/XMCLib/inc\xmc4_scu.h ****   XMC_SCU_TRAP_OSC_WDG      = SCU_TRAP_TRAPSTAT_SOSCWDGT_Msk, /**< OSC_HP Oscillator Watchdog trap.
 212:G:/dt_g1_balancing_plate_wise20192020/XMC/Libraries/XMCLib/inc\xmc4_scu.h ****   XMC_SCU_TRAP_VCO_LOCK     = SCU_TRAP_TRAPSTAT_SVCOLCKT_Msk, /**< PLL loss of lock trap. */
 213:G:/dt_g1_balancing_plate_wise20192020/XMC/Libraries/XMCLib/inc\xmc4_scu.h ****   XMC_SCU_TRAP_USB_VCO_LOCK = SCU_TRAP_TRAPSTAT_UVCOLCKT_Msk, /**< USB PLL loss of lock trap. */ 
 214:G:/dt_g1_balancing_plate_wise20192020/XMC/Libraries/XMCLib/inc\xmc4_scu.h ****   XMC_SCU_TRAP_PARITY_ERROR = SCU_TRAP_TRAPSTAT_PET_Msk,      /**< Memory Parity error trap. */  
 215:G:/dt_g1_balancing_plate_wise20192020/XMC/Libraries/XMCLib/inc\xmc4_scu.h ****   XMC_SCU_TRAP_BROWNOUT     = SCU_TRAP_TRAPSTAT_BRWNT_Msk,    /**< Brownout trap. */ 
 216:G:/dt_g1_balancing_plate_wise20192020/XMC/Libraries/XMCLib/inc\xmc4_scu.h ****   XMC_SCU_TRAP_ULP_WDG      = SCU_TRAP_TRAPSTAT_ULPWDGT_Msk,  /**< Unstable 32KHz clock trap. */ 
 217:G:/dt_g1_balancing_plate_wise20192020/XMC/Libraries/XMCLib/inc\xmc4_scu.h ****   XMC_SCU_TRAP_PER_BRIDGE0  = SCU_TRAP_TRAPSTAT_BWERR0T_Msk,  /**< Bad memory access of peripherals
 218:G:/dt_g1_balancing_plate_wise20192020/XMC/Libraries/XMCLib/inc\xmc4_scu.h ****   XMC_SCU_TRAP_PER_BRIDGE1  = SCU_TRAP_TRAPSTAT_BWERR1T_Msk,  /**< Bad memory access of peripherals
 219:G:/dt_g1_balancing_plate_wise20192020/XMC/Libraries/XMCLib/inc\xmc4_scu.h **** #if defined(SCU_TRAP_TRAPSTAT_TEMPHIT_Msk)
 220:G:/dt_g1_balancing_plate_wise20192020/XMC/Libraries/XMCLib/inc\xmc4_scu.h ****   XMC_SCU_TRAP_DIETEMP_HIGH = SCU_TRAP_TRAPSTAT_TEMPHIT_Msk,  /**< Die temperature higher than expe
 221:G:/dt_g1_balancing_plate_wise20192020/XMC/Libraries/XMCLib/inc\xmc4_scu.h **** #endif
 222:G:/dt_g1_balancing_plate_wise20192020/XMC/Libraries/XMCLib/inc\xmc4_scu.h **** #if defined(SCU_TRAP_TRAPSTAT_TEMPLOT_Msk)
 223:G:/dt_g1_balancing_plate_wise20192020/XMC/Libraries/XMCLib/inc\xmc4_scu.h ****   XMC_SCU_TRAP_DIETEMP_LOW  = SCU_TRAP_TRAPSTAT_TEMPLOT_Msk,  /**< Die temperature lower than expec
 224:G:/dt_g1_balancing_plate_wise20192020/XMC/Libraries/XMCLib/inc\xmc4_scu.h **** #endif
 225:G:/dt_g1_balancing_plate_wise20192020/XMC/Libraries/XMCLib/inc\xmc4_scu.h **** #if defined(ECAT0)
 226:G:/dt_g1_balancing_plate_wise20192020/XMC/Libraries/XMCLib/inc\xmc4_scu.h ****   XMC_SCU_TRAP_ECAT_RESET = SCU_TRAP_TRAPSTAT_ECAT0RST_Msk, /**< EtherCat Reset */ 
 227:G:/dt_g1_balancing_plate_wise20192020/XMC/Libraries/XMCLib/inc\xmc4_scu.h **** #endif
 228:G:/dt_g1_balancing_plate_wise20192020/XMC/Libraries/XMCLib/inc\xmc4_scu.h **** } XMC_SCU_TRAP_t;
 229:G:/dt_g1_balancing_plate_wise20192020/XMC/Libraries/XMCLib/inc\xmc4_scu.h **** 
 230:G:/dt_g1_balancing_plate_wise20192020/XMC/Libraries/XMCLib/inc\xmc4_scu.h **** /**
 231:G:/dt_g1_balancing_plate_wise20192020/XMC/Libraries/XMCLib/inc\xmc4_scu.h ****  *  Defines enumerations for different parity event generating modules that in turn generate a trap
 232:G:/dt_g1_balancing_plate_wise20192020/XMC/Libraries/XMCLib/inc\xmc4_scu.h ****  *  Parity can be enabled with \a PETE register in order to get the trap flag reflected in \a TRAPR
 233:G:/dt_g1_balancing_plate_wise20192020/XMC/Libraries/XMCLib/inc\xmc4_scu.h ****  *  configure parity error trap generation mechanism bits of \a PETE register.
 234:G:/dt_g1_balancing_plate_wise20192020/XMC/Libraries/XMCLib/inc\xmc4_scu.h ****  *  All the enum items are tabulated as per bits present in \a PETE register.
 235:G:/dt_g1_balancing_plate_wise20192020/XMC/Libraries/XMCLib/inc\xmc4_scu.h ****  *  Use type \a XMC_SCU_PARITY_t for accessing these enum parameters.
 236:G:/dt_g1_balancing_plate_wise20192020/XMC/Libraries/XMCLib/inc\xmc4_scu.h ****  */
 237:G:/dt_g1_balancing_plate_wise20192020/XMC/Libraries/XMCLib/inc\xmc4_scu.h **** typedef enum XMC_SCU_PARITY
 238:G:/dt_g1_balancing_plate_wise20192020/XMC/Libraries/XMCLib/inc\xmc4_scu.h **** {
 239:G:/dt_g1_balancing_plate_wise20192020/XMC/Libraries/XMCLib/inc\xmc4_scu.h ****   XMC_SCU_PARITY_PSRAM_MEM  = SCU_PARITY_PEEN_PEENPS_Msk,   /**< Program SRAM parity error trap. */
 240:G:/dt_g1_balancing_plate_wise20192020/XMC/Libraries/XMCLib/inc\xmc4_scu.h ****   XMC_SCU_PARITY_DSRAM1_MEM = SCU_PARITY_PEEN_PEENDS1_Msk,  /**< Data SRAM-1 parity error trap. */ 
 241:G:/dt_g1_balancing_plate_wise20192020/XMC/Libraries/XMCLib/inc\xmc4_scu.h **** #if defined(SCU_PARITY_PEEN_PEENDS2_Msk)
 242:G:/dt_g1_balancing_plate_wise20192020/XMC/Libraries/XMCLib/inc\xmc4_scu.h ****   XMC_SCU_PARITY_DSRAM2_MEM = SCU_PARITY_PEEN_PEENDS2_Msk,  /**< Data SRAM-2 parity error trap. */ 
 243:G:/dt_g1_balancing_plate_wise20192020/XMC/Libraries/XMCLib/inc\xmc4_scu.h **** #endif
 244:G:/dt_g1_balancing_plate_wise20192020/XMC/Libraries/XMCLib/inc\xmc4_scu.h ****   XMC_SCU_PARITY_USIC0_MEM  = SCU_PARITY_PEEN_PEENU0_Msk,   /**< USIC0 memory parity error trap. */
 245:G:/dt_g1_balancing_plate_wise20192020/XMC/Libraries/XMCLib/inc\xmc4_scu.h **** #if defined(SCU_PARITY_PEEN_PEENU1_Msk)
 246:G:/dt_g1_balancing_plate_wise20192020/XMC/Libraries/XMCLib/inc\xmc4_scu.h ****   XMC_SCU_PARITY_USIC1_MEM  = SCU_PARITY_PEEN_PEENU1_Msk,   /**< USIC1 memory parity error trap. */
 247:G:/dt_g1_balancing_plate_wise20192020/XMC/Libraries/XMCLib/inc\xmc4_scu.h **** #endif
 248:G:/dt_g1_balancing_plate_wise20192020/XMC/Libraries/XMCLib/inc\xmc4_scu.h **** #if defined(SCU_PARITY_PEEN_PEENU2_Msk)
 249:G:/dt_g1_balancing_plate_wise20192020/XMC/Libraries/XMCLib/inc\xmc4_scu.h ****   XMC_SCU_PARITY_USIC2_MEM  = SCU_PARITY_PEEN_PEENU2_Msk,   /**< USIC2 memory parity error trap. */
 250:G:/dt_g1_balancing_plate_wise20192020/XMC/Libraries/XMCLib/inc\xmc4_scu.h **** #endif
 251:G:/dt_g1_balancing_plate_wise20192020/XMC/Libraries/XMCLib/inc\xmc4_scu.h ****   XMC_SCU_PARITY_MCAN_MEM   = SCU_PARITY_PEEN_PEENMC_Msk,   /**< CAN memory parity error trap. */
 252:G:/dt_g1_balancing_plate_wise20192020/XMC/Libraries/XMCLib/inc\xmc4_scu.h ****   XMC_SCU_PARITY_PMU_MEM    = SCU_PARITY_PEEN_PEENPPRF_Msk, /**< PMU Prefetch memory parity error t
 253:G:/dt_g1_balancing_plate_wise20192020/XMC/Libraries/XMCLib/inc\xmc4_scu.h ****   XMC_SCU_PARITY_USB_MEM    = SCU_PARITY_PEEN_PEENUSB_Msk,  /**< USB memory parity error trap. */ 
 254:G:/dt_g1_balancing_plate_wise20192020/XMC/Libraries/XMCLib/inc\xmc4_scu.h **** #if defined(SCU_PARITY_PEEN_PEENETH0TX_Msk)
 255:G:/dt_g1_balancing_plate_wise20192020/XMC/Libraries/XMCLib/inc\xmc4_scu.h ****   XMC_SCU_PARITY_ETH_TXMEM  = SCU_PARITY_PEEN_PEENETH0TX_Msk, /**< Ethernet transmit memory parity 
 256:G:/dt_g1_balancing_plate_wise20192020/XMC/Libraries/XMCLib/inc\xmc4_scu.h **** #endif
 257:G:/dt_g1_balancing_plate_wise20192020/XMC/Libraries/XMCLib/inc\xmc4_scu.h **** #if defined(SCU_PARITY_PEEN_PEENETH0RX_Msk)
 258:G:/dt_g1_balancing_plate_wise20192020/XMC/Libraries/XMCLib/inc\xmc4_scu.h ****   XMC_SCU_PARITY_ETH_RXMEM  = SCU_PARITY_PEEN_PEENETH0RX_Msk, /**< Ethernet receive memory parity e
 259:G:/dt_g1_balancing_plate_wise20192020/XMC/Libraries/XMCLib/inc\xmc4_scu.h **** #endif
 260:G:/dt_g1_balancing_plate_wise20192020/XMC/Libraries/XMCLib/inc\xmc4_scu.h **** #if defined(SCU_PARITY_PEEN_PEENSD0_Msk)
 261:G:/dt_g1_balancing_plate_wise20192020/XMC/Libraries/XMCLib/inc\xmc4_scu.h ****   XMC_SCU_PARITY_SDMMC_MEM0 = SCU_PARITY_PEEN_PEENSD0_Msk, /**< SDMMC Memory-0 parity error trap. *
 262:G:/dt_g1_balancing_plate_wise20192020/XMC/Libraries/XMCLib/inc\xmc4_scu.h **** #endif
 263:G:/dt_g1_balancing_plate_wise20192020/XMC/Libraries/XMCLib/inc\xmc4_scu.h **** #if defined(SCU_PARITY_PEEN_PEENSD1_Msk)
 264:G:/dt_g1_balancing_plate_wise20192020/XMC/Libraries/XMCLib/inc\xmc4_scu.h ****   XMC_SCU_PARITY_SDMMC_MEM1 = SCU_PARITY_PEEN_PEENSD1_Msk, /**< SDMMC Memory-1 parity error trap. *
 265:G:/dt_g1_balancing_plate_wise20192020/XMC/Libraries/XMCLib/inc\xmc4_scu.h **** #endif
 266:G:/dt_g1_balancing_plate_wise20192020/XMC/Libraries/XMCLib/inc\xmc4_scu.h **** #if defined(SCU_PARITY_PEEN_PEENECAT0_Msk)
 267:G:/dt_g1_balancing_plate_wise20192020/XMC/Libraries/XMCLib/inc\xmc4_scu.h ****   XMC_SCU_PARITY_ECAT_MEM = SCU_PARITY_PEEN_PEENECAT0_Msk, /**< ECAT0 SRAM parity error trap. */ 
 268:G:/dt_g1_balancing_plate_wise20192020/XMC/Libraries/XMCLib/inc\xmc4_scu.h **** #endif
 269:G:/dt_g1_balancing_plate_wise20192020/XMC/Libraries/XMCLib/inc\xmc4_scu.h **** } XMC_SCU_PARITY_t;
 270:G:/dt_g1_balancing_plate_wise20192020/XMC/Libraries/XMCLib/inc\xmc4_scu.h **** 
 271:G:/dt_g1_balancing_plate_wise20192020/XMC/Libraries/XMCLib/inc\xmc4_scu.h **** /**
 272:G:/dt_g1_balancing_plate_wise20192020/XMC/Libraries/XMCLib/inc\xmc4_scu.h ****  *  Defines the different causes for last reset. The cause of the last reset gets automatically sto
 273:G:/dt_g1_balancing_plate_wise20192020/XMC/Libraries/XMCLib/inc\xmc4_scu.h ****  *  the \a SCU_RSTSTAT register and can be checked by user software to determine the state of the s
 274:G:/dt_g1_balancing_plate_wise20192020/XMC/Libraries/XMCLib/inc\xmc4_scu.h ****  *  purpose. All the enum items are tabulated as per bits present in \a SCU_RSTSTAT register.
 275:G:/dt_g1_balancing_plate_wise20192020/XMC/Libraries/XMCLib/inc\xmc4_scu.h ****  *  Use type \a XMC_SCU_RESET_REASON_t for accessing these enum parameters.
 276:G:/dt_g1_balancing_plate_wise20192020/XMC/Libraries/XMCLib/inc\xmc4_scu.h ****  */
 277:G:/dt_g1_balancing_plate_wise20192020/XMC/Libraries/XMCLib/inc\xmc4_scu.h **** typedef enum XMC_SCU_RESET_REASON
 278:G:/dt_g1_balancing_plate_wise20192020/XMC/Libraries/XMCLib/inc\xmc4_scu.h **** {
 279:G:/dt_g1_balancing_plate_wise20192020/XMC/Libraries/XMCLib/inc\xmc4_scu.h ****   XMC_SCU_RESET_REASON_PORST        = (1UL << SCU_RESET_RSTSTAT_RSTSTAT_Pos), /**< Reset due to Pow
 280:G:/dt_g1_balancing_plate_wise20192020/XMC/Libraries/XMCLib/inc\xmc4_scu.h ****   XMC_SCU_RESET_REASON_SWD          = (2UL << SCU_RESET_RSTSTAT_RSTSTAT_Pos), /**< Reset due to Sup
 281:G:/dt_g1_balancing_plate_wise20192020/XMC/Libraries/XMCLib/inc\xmc4_scu.h ****   XMC_SCU_RESET_REASON_PV           = (4UL << SCU_RESET_RSTSTAT_RSTSTAT_Pos), /**< Reset due to Pow
 282:G:/dt_g1_balancing_plate_wise20192020/XMC/Libraries/XMCLib/inc\xmc4_scu.h ****   XMC_SCU_RESET_REASON_SW           = (8UL << SCU_RESET_RSTSTAT_RSTSTAT_Pos), /**< Reset due to Sof
 283:G:/dt_g1_balancing_plate_wise20192020/XMC/Libraries/XMCLib/inc\xmc4_scu.h ****   XMC_SCU_RESET_REASON_LOCKUP       = (16UL << SCU_RESET_RSTSTAT_RSTSTAT_Pos), /**< Reset due to re
 284:G:/dt_g1_balancing_plate_wise20192020/XMC/Libraries/XMCLib/inc\xmc4_scu.h ****   XMC_SCU_RESET_REASON_WATCHDOG     = (32UL << SCU_RESET_RSTSTAT_RSTSTAT_Pos), /**< Reset due to Wa
 285:G:/dt_g1_balancing_plate_wise20192020/XMC/Libraries/XMCLib/inc\xmc4_scu.h ****   XMC_SCU_RESET_REASON_PARITY_ERROR = (128UL << SCU_RESET_RSTSTAT_RSTSTAT_Pos), /**< Reset due to r
 286:G:/dt_g1_balancing_plate_wise20192020/XMC/Libraries/XMCLib/inc\xmc4_scu.h **** } XMC_SCU_RESET_REASON_t;
 287:G:/dt_g1_balancing_plate_wise20192020/XMC/Libraries/XMCLib/inc\xmc4_scu.h **** 
 288:G:/dt_g1_balancing_plate_wise20192020/XMC/Libraries/XMCLib/inc\xmc4_scu.h **** /**
 289:G:/dt_g1_balancing_plate_wise20192020/XMC/Libraries/XMCLib/inc\xmc4_scu.h ****  *  Defines enumerations for events which can lead to interrupt. These enumeration values represent
 290:G:/dt_g1_balancing_plate_wise20192020/XMC/Libraries/XMCLib/inc\xmc4_scu.h ****  * status of one of the bits in \a SRSTAT register. 
 291:G:/dt_g1_balancing_plate_wise20192020/XMC/Libraries/XMCLib/inc\xmc4_scu.h ****  *  Use type \a XMC_SCU_INTERRUPT_EVENT_t for accessing these enum parameters.
 292:G:/dt_g1_balancing_plate_wise20192020/XMC/Libraries/XMCLib/inc\xmc4_scu.h ****  */
 293:G:/dt_g1_balancing_plate_wise20192020/XMC/Libraries/XMCLib/inc\xmc4_scu.h **** typedef uint32_t XMC_SCU_INTERRUPT_EVENT_t;
 294:G:/dt_g1_balancing_plate_wise20192020/XMC/Libraries/XMCLib/inc\xmc4_scu.h **** 
 295:G:/dt_g1_balancing_plate_wise20192020/XMC/Libraries/XMCLib/inc\xmc4_scu.h ****  
 296:G:/dt_g1_balancing_plate_wise20192020/XMC/Libraries/XMCLib/inc\xmc4_scu.h **** /**
 297:G:/dt_g1_balancing_plate_wise20192020/XMC/Libraries/XMCLib/inc\xmc4_scu.h ****  *  Defines enumeration for the events that can generate non maskable interrupt(NMI).
 298:G:/dt_g1_balancing_plate_wise20192020/XMC/Libraries/XMCLib/inc\xmc4_scu.h ****  *  The NMI generation can be enabled with \a NMIREQEN register. The event will be reflected in \a 
 299:G:/dt_g1_balancing_plate_wise20192020/XMC/Libraries/XMCLib/inc\xmc4_scu.h ****  *  mirrored in the TRAPSTAT register. These enums can be used to configure NMI request generation 
 300:G:/dt_g1_balancing_plate_wise20192020/XMC/Libraries/XMCLib/inc\xmc4_scu.h ****  *  NMIREQEN register.  Once configured, these events can generate non maskable interrupt.
 301:G:/dt_g1_balancing_plate_wise20192020/XMC/Libraries/XMCLib/inc\xmc4_scu.h ****  *  All the enum items are tabulated as per bits present in \a NMIREQEN register.
 302:G:/dt_g1_balancing_plate_wise20192020/XMC/Libraries/XMCLib/inc\xmc4_scu.h ****  *  Use type \a XMC_SCU_NMIREQ_t for accessing these enum parameters.
 303:G:/dt_g1_balancing_plate_wise20192020/XMC/Libraries/XMCLib/inc\xmc4_scu.h ****  */
 304:G:/dt_g1_balancing_plate_wise20192020/XMC/Libraries/XMCLib/inc\xmc4_scu.h **** typedef enum XMC_SCU_NMIREQ
 305:G:/dt_g1_balancing_plate_wise20192020/XMC/Libraries/XMCLib/inc\xmc4_scu.h **** {
 306:G:/dt_g1_balancing_plate_wise20192020/XMC/Libraries/XMCLib/inc\xmc4_scu.h ****   XMC_SCU_NMIREQ_WDT_WARN = SCU_INTERRUPT_NMIREQEN_PRWARN_Msk, /**< Watchdog timer Pre-Warning even
 307:G:/dt_g1_balancing_plate_wise20192020/XMC/Libraries/XMCLib/inc\xmc4_scu.h ****   XMC_SCU_NMIREQ_RTC_PI   = SCU_INTERRUPT_NMIREQEN_PI_Msk,     /**< RTC Periodic event */ 
 308:G:/dt_g1_balancing_plate_wise20192020/XMC/Libraries/XMCLib/inc\xmc4_scu.h ****   XMC_SCU_NMIREQ_RTC_AI   = SCU_INTERRUPT_NMIREQEN_AI_Msk,     /**< RTC Alarm event */ 
 309:G:/dt_g1_balancing_plate_wise20192020/XMC/Libraries/XMCLib/inc\xmc4_scu.h ****   XMC_SCU_NMIREQ_ERU0_0   = SCU_INTERRUPT_NMIREQEN_ERU00_Msk,  /**< Channel 0 event of ERU0 */  
 310:G:/dt_g1_balancing_plate_wise20192020/XMC/Libraries/XMCLib/inc\xmc4_scu.h ****   XMC_SCU_NMIREQ_ERU0_1   = SCU_INTERRUPT_NMIREQEN_ERU01_Msk,  /**< Channel 1 event of ERU0 */ 
 311:G:/dt_g1_balancing_plate_wise20192020/XMC/Libraries/XMCLib/inc\xmc4_scu.h ****   XMC_SCU_NMIREQ_ERU0_2   = SCU_INTERRUPT_NMIREQEN_ERU02_Msk,  /**< Channel 2 event of ERU0 */ 
 312:G:/dt_g1_balancing_plate_wise20192020/XMC/Libraries/XMCLib/inc\xmc4_scu.h ****   XMC_SCU_NMIREQ_ERU0_3   = SCU_INTERRUPT_NMIREQEN_ERU03_Msk   /**< Channel 3 event of ERU0 */ 
 313:G:/dt_g1_balancing_plate_wise20192020/XMC/Libraries/XMCLib/inc\xmc4_scu.h **** } XMC_SCU_NMIREQ_t;
 314:G:/dt_g1_balancing_plate_wise20192020/XMC/Libraries/XMCLib/inc\xmc4_scu.h ****   
 315:G:/dt_g1_balancing_plate_wise20192020/XMC/Libraries/XMCLib/inc\xmc4_scu.h **** 
 316:G:/dt_g1_balancing_plate_wise20192020/XMC/Libraries/XMCLib/inc\xmc4_scu.h **** /**
 317:G:/dt_g1_balancing_plate_wise20192020/XMC/Libraries/XMCLib/inc\xmc4_scu.h ****  *  Defines enumeration representing different peripheral reset bits in the \a PRSTAT registers.
 318:G:/dt_g1_balancing_plate_wise20192020/XMC/Libraries/XMCLib/inc\xmc4_scu.h ****  *  All the enum items are tabulated as per bits present in \a PRSTAT0,  \a PRSTAT1,  \a PRSTAT2,
 319:G:/dt_g1_balancing_plate_wise20192020/XMC/Libraries/XMCLib/inc\xmc4_scu.h ****  *  \a PRSTAT3 registers. Use type \a XMC_SCU_PERIPHERAL_RESET_t for accessing these enum parameter
 320:G:/dt_g1_balancing_plate_wise20192020/XMC/Libraries/XMCLib/inc\xmc4_scu.h ****  *  Note: Release of reset should be prevented when the peripheral clock is gated in cases where ke
 321:G:/dt_g1_balancing_plate_wise20192020/XMC/Libraries/XMCLib/inc\xmc4_scu.h ****  *  clock and bus interface clocks are shared, in order to avoid system hang-up.
 322:G:/dt_g1_balancing_plate_wise20192020/XMC/Libraries/XMCLib/inc\xmc4_scu.h ****  */
 323:G:/dt_g1_balancing_plate_wise20192020/XMC/Libraries/XMCLib/inc\xmc4_scu.h **** typedef enum XMC_SCU_PERIPHERAL_RESET
 324:G:/dt_g1_balancing_plate_wise20192020/XMC/Libraries/XMCLib/inc\xmc4_scu.h **** {
 325:G:/dt_g1_balancing_plate_wise20192020/XMC/Libraries/XMCLib/inc\xmc4_scu.h ****   XMC_SCU_PERIPHERAL_RESET_VADC   = SCU_RESET_PRSTAT0_VADCRS_Msk,   /**< VADC reset. */ 
 326:G:/dt_g1_balancing_plate_wise20192020/XMC/Libraries/XMCLib/inc\xmc4_scu.h **** #if defined(DSD)
 327:G:/dt_g1_balancing_plate_wise20192020/XMC/Libraries/XMCLib/inc\xmc4_scu.h ****   XMC_SCU_PERIPHERAL_RESET_DSD    = SCU_RESET_PRSTAT0_DSDRS_Msk,    /**< DSD reset. */
 328:G:/dt_g1_balancing_plate_wise20192020/XMC/Libraries/XMCLib/inc\xmc4_scu.h **** #endif
 329:G:/dt_g1_balancing_plate_wise20192020/XMC/Libraries/XMCLib/inc\xmc4_scu.h ****   XMC_SCU_PERIPHERAL_RESET_CCU40  = SCU_RESET_PRSTAT0_CCU40RS_Msk,  /**< CCU40 reset. */
 330:G:/dt_g1_balancing_plate_wise20192020/XMC/Libraries/XMCLib/inc\xmc4_scu.h **** #if defined(CCU41)
 331:G:/dt_g1_balancing_plate_wise20192020/XMC/Libraries/XMCLib/inc\xmc4_scu.h ****   XMC_SCU_PERIPHERAL_RESET_CCU41  = SCU_RESET_PRSTAT0_CCU41RS_Msk,  /**< CCU41 reset. */
 332:G:/dt_g1_balancing_plate_wise20192020/XMC/Libraries/XMCLib/inc\xmc4_scu.h **** #endif  
 333:G:/dt_g1_balancing_plate_wise20192020/XMC/Libraries/XMCLib/inc\xmc4_scu.h **** #if defined(CCU42)
 334:G:/dt_g1_balancing_plate_wise20192020/XMC/Libraries/XMCLib/inc\xmc4_scu.h ****   XMC_SCU_PERIPHERAL_RESET_CCU42  = SCU_RESET_PRSTAT0_CCU42RS_Msk,  /**< CCU42 reset. */
 335:G:/dt_g1_balancing_plate_wise20192020/XMC/Libraries/XMCLib/inc\xmc4_scu.h **** #endif
 336:G:/dt_g1_balancing_plate_wise20192020/XMC/Libraries/XMCLib/inc\xmc4_scu.h **** #if defined(CCU80)
 337:G:/dt_g1_balancing_plate_wise20192020/XMC/Libraries/XMCLib/inc\xmc4_scu.h ****   XMC_SCU_PERIPHERAL_RESET_CCU80  = SCU_RESET_PRSTAT0_CCU80RS_Msk,  /**< CCU80 reset. */
 338:G:/dt_g1_balancing_plate_wise20192020/XMC/Libraries/XMCLib/inc\xmc4_scu.h **** #endif  
 339:G:/dt_g1_balancing_plate_wise20192020/XMC/Libraries/XMCLib/inc\xmc4_scu.h **** #if defined(CCU81)
 340:G:/dt_g1_balancing_plate_wise20192020/XMC/Libraries/XMCLib/inc\xmc4_scu.h ****   XMC_SCU_PERIPHERAL_RESET_CCU81  = SCU_RESET_PRSTAT0_CCU81RS_Msk,  /**< CCU81 reset. */
 341:G:/dt_g1_balancing_plate_wise20192020/XMC/Libraries/XMCLib/inc\xmc4_scu.h **** #endif
 342:G:/dt_g1_balancing_plate_wise20192020/XMC/Libraries/XMCLib/inc\xmc4_scu.h **** #if defined(POSIF0)
 343:G:/dt_g1_balancing_plate_wise20192020/XMC/Libraries/XMCLib/inc\xmc4_scu.h ****   XMC_SCU_PERIPHERAL_RESET_POSIF0 = SCU_RESET_PRSTAT0_POSIF0RS_Msk, /**< POSIF0 reset. */
 344:G:/dt_g1_balancing_plate_wise20192020/XMC/Libraries/XMCLib/inc\xmc4_scu.h **** #endif  
 345:G:/dt_g1_balancing_plate_wise20192020/XMC/Libraries/XMCLib/inc\xmc4_scu.h **** #if defined(POSIF1)
 346:G:/dt_g1_balancing_plate_wise20192020/XMC/Libraries/XMCLib/inc\xmc4_scu.h ****   XMC_SCU_PERIPHERAL_RESET_POSIF1 = SCU_RESET_PRSTAT0_POSIF1RS_Msk, /**< POSIF1 reset.*/
 347:G:/dt_g1_balancing_plate_wise20192020/XMC/Libraries/XMCLib/inc\xmc4_scu.h **** #endif
 348:G:/dt_g1_balancing_plate_wise20192020/XMC/Libraries/XMCLib/inc\xmc4_scu.h ****   XMC_SCU_PERIPHERAL_RESET_USIC0  = SCU_RESET_PRSTAT0_USIC0RS_Msk,  /**< USIC0 reset. */
 349:G:/dt_g1_balancing_plate_wise20192020/XMC/Libraries/XMCLib/inc\xmc4_scu.h ****   XMC_SCU_PERIPHERAL_RESET_ERU1   = SCU_RESET_PRSTAT0_ERU1RS_Msk,   /**< ERU1 reset. */
 350:G:/dt_g1_balancing_plate_wise20192020/XMC/Libraries/XMCLib/inc\xmc4_scu.h **** #if defined(HRPWM0)
 351:G:/dt_g1_balancing_plate_wise20192020/XMC/Libraries/XMCLib/inc\xmc4_scu.h ****   XMC_SCU_PERIPHERAL_RESET_HRPWM0 = SCU_RESET_PRSTAT0_HRPWM0RS_Msk,  /**< HRPWM0 reset. */
 352:G:/dt_g1_balancing_plate_wise20192020/XMC/Libraries/XMCLib/inc\xmc4_scu.h **** #endif
 353:G:/dt_g1_balancing_plate_wise20192020/XMC/Libraries/XMCLib/inc\xmc4_scu.h **** #if defined(CCU43)
 354:G:/dt_g1_balancing_plate_wise20192020/XMC/Libraries/XMCLib/inc\xmc4_scu.h ****   XMC_SCU_PERIPHERAL_RESET_CCU43  = (SCU_RESET_PRSTAT1_CCU43RS_Msk | 0x10000000UL),   /**< CCU43 re
 355:G:/dt_g1_balancing_plate_wise20192020/XMC/Libraries/XMCLib/inc\xmc4_scu.h **** #endif
 356:G:/dt_g1_balancing_plate_wise20192020/XMC/Libraries/XMCLib/inc\xmc4_scu.h **** #if defined(LEDTS0)
 357:G:/dt_g1_balancing_plate_wise20192020/XMC/Libraries/XMCLib/inc\xmc4_scu.h ****   XMC_SCU_PERIPHERAL_RESET_LEDTS0 = (SCU_RESET_PRSTAT1_LEDTSCU0RS_Msk | 0x10000000UL), /**< LEDTS0 
 358:G:/dt_g1_balancing_plate_wise20192020/XMC/Libraries/XMCLib/inc\xmc4_scu.h **** #endif  
 359:G:/dt_g1_balancing_plate_wise20192020/XMC/Libraries/XMCLib/inc\xmc4_scu.h **** #if defined(CAN)
 360:G:/dt_g1_balancing_plate_wise20192020/XMC/Libraries/XMCLib/inc\xmc4_scu.h ****   XMC_SCU_PERIPHERAL_RESET_MCAN   = (SCU_RESET_PRSTAT1_MCAN0RS_Msk | 0x10000000UL), /**< MCAN reset
 361:G:/dt_g1_balancing_plate_wise20192020/XMC/Libraries/XMCLib/inc\xmc4_scu.h **** #endif  
 362:G:/dt_g1_balancing_plate_wise20192020/XMC/Libraries/XMCLib/inc\xmc4_scu.h **** #if defined(DAC)  
 363:G:/dt_g1_balancing_plate_wise20192020/XMC/Libraries/XMCLib/inc\xmc4_scu.h ****   XMC_SCU_PERIPHERAL_RESET_DAC    = (SCU_RESET_PRSTAT1_DACRS_Msk | 0x10000000UL),    /**< DAC reset
 364:G:/dt_g1_balancing_plate_wise20192020/XMC/Libraries/XMCLib/inc\xmc4_scu.h **** #endif  
 365:G:/dt_g1_balancing_plate_wise20192020/XMC/Libraries/XMCLib/inc\xmc4_scu.h **** #if defined(SDMMC)
 366:G:/dt_g1_balancing_plate_wise20192020/XMC/Libraries/XMCLib/inc\xmc4_scu.h ****   XMC_SCU_PERIPHERAL_RESET_SDMMC  = (SCU_RESET_PRSTAT1_MMCIRS_Msk | 0x10000000UL),     /**< SDMMC r
 367:G:/dt_g1_balancing_plate_wise20192020/XMC/Libraries/XMCLib/inc\xmc4_scu.h **** #endif
 368:G:/dt_g1_balancing_plate_wise20192020/XMC/Libraries/XMCLib/inc\xmc4_scu.h **** #if defined(USIC1)
 369:G:/dt_g1_balancing_plate_wise20192020/XMC/Libraries/XMCLib/inc\xmc4_scu.h ****   XMC_SCU_PERIPHERAL_RESET_USIC1  = (SCU_RESET_PRSTAT1_USIC1RS_Msk | 0x10000000UL),    /**< USIC1 r
 370:G:/dt_g1_balancing_plate_wise20192020/XMC/Libraries/XMCLib/inc\xmc4_scu.h **** #endif  
 371:G:/dt_g1_balancing_plate_wise20192020/XMC/Libraries/XMCLib/inc\xmc4_scu.h **** #if defined(USIC2)
 372:G:/dt_g1_balancing_plate_wise20192020/XMC/Libraries/XMCLib/inc\xmc4_scu.h ****   XMC_SCU_PERIPHERAL_RESET_USIC2  = (SCU_RESET_PRSTAT1_USIC2RS_Msk | 0x10000000UL),    /**< USIC2 r
 373:G:/dt_g1_balancing_plate_wise20192020/XMC/Libraries/XMCLib/inc\xmc4_scu.h **** #endif
 374:G:/dt_g1_balancing_plate_wise20192020/XMC/Libraries/XMCLib/inc\xmc4_scu.h ****   XMC_SCU_PERIPHERAL_RESET_PORTS  = (SCU_RESET_PRSTAT1_PPORTSRS_Msk | 0x10000000UL),   /**< PORTS r
 375:G:/dt_g1_balancing_plate_wise20192020/XMC/Libraries/XMCLib/inc\xmc4_scu.h ****   XMC_SCU_PERIPHERAL_RESET_WDT    = (SCU_RESET_PRSTAT2_WDTRS_Msk | 0x20000000UL),      /**< WDT res
 376:G:/dt_g1_balancing_plate_wise20192020/XMC/Libraries/XMCLib/inc\xmc4_scu.h **** #if defined(ETH0)
 377:G:/dt_g1_balancing_plate_wise20192020/XMC/Libraries/XMCLib/inc\xmc4_scu.h ****   XMC_SCU_PERIPHERAL_RESET_ETH0   = (SCU_RESET_PRSTAT2_ETH0RS_Msk | 0x20000000UL),     /**< ETH0 re
 378:G:/dt_g1_balancing_plate_wise20192020/XMC/Libraries/XMCLib/inc\xmc4_scu.h **** #endif
 379:G:/dt_g1_balancing_plate_wise20192020/XMC/Libraries/XMCLib/inc\xmc4_scu.h ****   XMC_SCU_PERIPHERAL_RESET_GPDMA0 = (SCU_RESET_PRSTAT2_DMA0RS_Msk | 0x20000000UL),     /**< DMA0 re
 380:G:/dt_g1_balancing_plate_wise20192020/XMC/Libraries/XMCLib/inc\xmc4_scu.h **** #if defined(GPDMA1)
 381:G:/dt_g1_balancing_plate_wise20192020/XMC/Libraries/XMCLib/inc\xmc4_scu.h ****   XMC_SCU_PERIPHERAL_RESET_GPDMA1 = (SCU_RESET_PRSTAT2_DMA1RS_Msk | 0x20000000UL),     /**< DMA1 re
 382:G:/dt_g1_balancing_plate_wise20192020/XMC/Libraries/XMCLib/inc\xmc4_scu.h **** #endif
 383:G:/dt_g1_balancing_plate_wise20192020/XMC/Libraries/XMCLib/inc\xmc4_scu.h **** #if defined(FCE)
 384:G:/dt_g1_balancing_plate_wise20192020/XMC/Libraries/XMCLib/inc\xmc4_scu.h ****   XMC_SCU_PERIPHERAL_RESET_FCE    = (SCU_RESET_PRSTAT2_FCERS_Msk | 0x20000000UL),      /**< FCE res
 385:G:/dt_g1_balancing_plate_wise20192020/XMC/Libraries/XMCLib/inc\xmc4_scu.h **** #endif
 386:G:/dt_g1_balancing_plate_wise20192020/XMC/Libraries/XMCLib/inc\xmc4_scu.h **** #if defined(USB0)  
 387:G:/dt_g1_balancing_plate_wise20192020/XMC/Libraries/XMCLib/inc\xmc4_scu.h ****   XMC_SCU_PERIPHERAL_RESET_USB0   = (SCU_RESET_PRSTAT2_USBRS_Msk | 0x20000000UL),      /**< USB0 re
 388:G:/dt_g1_balancing_plate_wise20192020/XMC/Libraries/XMCLib/inc\xmc4_scu.h **** #endif  
 389:G:/dt_g1_balancing_plate_wise20192020/XMC/Libraries/XMCLib/inc\xmc4_scu.h **** #if defined(ECAT0)  
 390:G:/dt_g1_balancing_plate_wise20192020/XMC/Libraries/XMCLib/inc\xmc4_scu.h ****   XMC_SCU_PERIPHERAL_RESET_ECAT0  = (SCU_RESET_PRSTAT2_ECAT0RS_Msk | 0x20000000UL),      /**< ECAT0
 391:G:/dt_g1_balancing_plate_wise20192020/XMC/Libraries/XMCLib/inc\xmc4_scu.h **** #endif  
 392:G:/dt_g1_balancing_plate_wise20192020/XMC/Libraries/XMCLib/inc\xmc4_scu.h **** #if defined(EBU)
 393:G:/dt_g1_balancing_plate_wise20192020/XMC/Libraries/XMCLib/inc\xmc4_scu.h ****   XMC_SCU_PERIPHERAL_RESET_EBU    = (SCU_RESET_PRSTAT3_EBURS_Msk | 0x30000000UL)       /**< EBU res
 394:G:/dt_g1_balancing_plate_wise20192020/XMC/Libraries/XMCLib/inc\xmc4_scu.h **** #endif
 395:G:/dt_g1_balancing_plate_wise20192020/XMC/Libraries/XMCLib/inc\xmc4_scu.h **** } XMC_SCU_PERIPHERAL_RESET_t;
 396:G:/dt_g1_balancing_plate_wise20192020/XMC/Libraries/XMCLib/inc\xmc4_scu.h **** 
 397:G:/dt_g1_balancing_plate_wise20192020/XMC/Libraries/XMCLib/inc\xmc4_scu.h **** /**
 398:G:/dt_g1_balancing_plate_wise20192020/XMC/Libraries/XMCLib/inc\xmc4_scu.h ****  *  Defines enumerations for disabling the clocks sources of peripherals. Disabling of the peripher
 399:G:/dt_g1_balancing_plate_wise20192020/XMC/Libraries/XMCLib/inc\xmc4_scu.h ****  *  clock is configured via the \a CLKCLR registers.
 400:G:/dt_g1_balancing_plate_wise20192020/XMC/Libraries/XMCLib/inc\xmc4_scu.h ****  *  Use type \a XMC_SCU_PERIPHERAL_CLOCK_t for accessing these enum parameters.
 401:G:/dt_g1_balancing_plate_wise20192020/XMC/Libraries/XMCLib/inc\xmc4_scu.h ****  */
 402:G:/dt_g1_balancing_plate_wise20192020/XMC/Libraries/XMCLib/inc\xmc4_scu.h **** typedef enum XMC_SCU_CLOCK
 403:G:/dt_g1_balancing_plate_wise20192020/XMC/Libraries/XMCLib/inc\xmc4_scu.h **** {
 404:G:/dt_g1_balancing_plate_wise20192020/XMC/Libraries/XMCLib/inc\xmc4_scu.h ****   XMC_SCU_CLOCK_USB = SCU_CLK_CLKCLR_USBCDI_Msk, /**< USB module clock. */
 405:G:/dt_g1_balancing_plate_wise20192020/XMC/Libraries/XMCLib/inc\xmc4_scu.h **** #if defined(SDMMC)
 406:G:/dt_g1_balancing_plate_wise20192020/XMC/Libraries/XMCLib/inc\xmc4_scu.h ****   XMC_SCU_CLOCK_MMC = SCU_CLK_CLKCLR_MMCCDI_Msk, /**< MMC module clock. */
 407:G:/dt_g1_balancing_plate_wise20192020/XMC/Libraries/XMCLib/inc\xmc4_scu.h **** #endif
 408:G:/dt_g1_balancing_plate_wise20192020/XMC/Libraries/XMCLib/inc\xmc4_scu.h **** #if defined(ETH0)
 409:G:/dt_g1_balancing_plate_wise20192020/XMC/Libraries/XMCLib/inc\xmc4_scu.h ****   XMC_SCU_CLOCK_ETH = SCU_CLK_CLKCLR_ETH0CDI_Msk, /**< Ethernet module clock. */
 410:G:/dt_g1_balancing_plate_wise20192020/XMC/Libraries/XMCLib/inc\xmc4_scu.h **** #endif
 411:G:/dt_g1_balancing_plate_wise20192020/XMC/Libraries/XMCLib/inc\xmc4_scu.h **** #if defined(EBU)
 412:G:/dt_g1_balancing_plate_wise20192020/XMC/Libraries/XMCLib/inc\xmc4_scu.h ****   XMC_SCU_CLOCK_EBU = SCU_CLK_CLKCLR_EBUCDI_Msk, /**< EBU module clock. */
 413:G:/dt_g1_balancing_plate_wise20192020/XMC/Libraries/XMCLib/inc\xmc4_scu.h **** #endif
 414:G:/dt_g1_balancing_plate_wise20192020/XMC/Libraries/XMCLib/inc\xmc4_scu.h ****   XMC_SCU_CLOCK_CCU = SCU_CLK_CLKCLR_CCUCDI_Msk, /**< CCU module clock. */
 415:G:/dt_g1_balancing_plate_wise20192020/XMC/Libraries/XMCLib/inc\xmc4_scu.h ****   XMC_SCU_CLOCK_WDT = SCU_CLK_CLKCLR_WDTCDI_Msk  /**< WDT module clock. */
 416:G:/dt_g1_balancing_plate_wise20192020/XMC/Libraries/XMCLib/inc\xmc4_scu.h **** } XMC_SCU_CLOCK_t;
 417:G:/dt_g1_balancing_plate_wise20192020/XMC/Libraries/XMCLib/inc\xmc4_scu.h **** 
 418:G:/dt_g1_balancing_plate_wise20192020/XMC/Libraries/XMCLib/inc\xmc4_scu.h **** #if(UC_SERIES != XMC45)
 419:G:/dt_g1_balancing_plate_wise20192020/XMC/Libraries/XMCLib/inc\xmc4_scu.h **** /**
 420:G:/dt_g1_balancing_plate_wise20192020/XMC/Libraries/XMCLib/inc\xmc4_scu.h ****  * Defines enumeration for peripherals that support clock gating. 
 421:G:/dt_g1_balancing_plate_wise20192020/XMC/Libraries/XMCLib/inc\xmc4_scu.h ****  * The enumerations can be used for gating or ungating the peripheral clocks.
 422:G:/dt_g1_balancing_plate_wise20192020/XMC/Libraries/XMCLib/inc\xmc4_scu.h ****  * All the enum items are tabulated as per bits present in \a CGATSTAT0 register.
 423:G:/dt_g1_balancing_plate_wise20192020/XMC/Libraries/XMCLib/inc\xmc4_scu.h ****  * Use type \a XMC_SCU_PERIPHERAL_CLOCK_t for accessing these enum parameters.
 424:G:/dt_g1_balancing_plate_wise20192020/XMC/Libraries/XMCLib/inc\xmc4_scu.h ****  */
 425:G:/dt_g1_balancing_plate_wise20192020/XMC/Libraries/XMCLib/inc\xmc4_scu.h **** typedef enum XMC_SCU_PERIPHERAL_CLOCK
 426:G:/dt_g1_balancing_plate_wise20192020/XMC/Libraries/XMCLib/inc\xmc4_scu.h **** {
 427:G:/dt_g1_balancing_plate_wise20192020/XMC/Libraries/XMCLib/inc\xmc4_scu.h ****   XMC_SCU_PERIPHERAL_CLOCK_VADC   = SCU_CLK_CGATSTAT0_VADC_Msk,  /**< VADC peripheral gating. */
 428:G:/dt_g1_balancing_plate_wise20192020/XMC/Libraries/XMCLib/inc\xmc4_scu.h **** #if defined(DSD)
 429:G:/dt_g1_balancing_plate_wise20192020/XMC/Libraries/XMCLib/inc\xmc4_scu.h ****   XMC_SCU_PERIPHERAL_CLOCK_DSD    = SCU_CLK_CGATSTAT0_DSD_Msk,   /**< DSD peripheral gating. */
 430:G:/dt_g1_balancing_plate_wise20192020/XMC/Libraries/XMCLib/inc\xmc4_scu.h **** #endif
 431:G:/dt_g1_balancing_plate_wise20192020/XMC/Libraries/XMCLib/inc\xmc4_scu.h ****   XMC_SCU_PERIPHERAL_CLOCK_CCU40  = SCU_CLK_CGATSTAT0_CCU40_Msk,  /**< CCU40 peripheral gating. */
 432:G:/dt_g1_balancing_plate_wise20192020/XMC/Libraries/XMCLib/inc\xmc4_scu.h **** #if defined(CCU41)
 433:G:/dt_g1_balancing_plate_wise20192020/XMC/Libraries/XMCLib/inc\xmc4_scu.h ****   XMC_SCU_PERIPHERAL_CLOCK_CCU41  = SCU_CLK_CGATSTAT0_CCU41_Msk,  /**< CCU41 peripheral gating. */
 434:G:/dt_g1_balancing_plate_wise20192020/XMC/Libraries/XMCLib/inc\xmc4_scu.h **** #endif  
 435:G:/dt_g1_balancing_plate_wise20192020/XMC/Libraries/XMCLib/inc\xmc4_scu.h **** #if defined(CCU42)
 436:G:/dt_g1_balancing_plate_wise20192020/XMC/Libraries/XMCLib/inc\xmc4_scu.h ****   XMC_SCU_PERIPHERAL_CLOCK_CCU42  = SCU_CLK_CGATSTAT0_CCU42_Msk,  /**< CCU42 peripheral gating. */
 437:G:/dt_g1_balancing_plate_wise20192020/XMC/Libraries/XMCLib/inc\xmc4_scu.h **** #endif
 438:G:/dt_g1_balancing_plate_wise20192020/XMC/Libraries/XMCLib/inc\xmc4_scu.h **** #if defined(CCU80)
 439:G:/dt_g1_balancing_plate_wise20192020/XMC/Libraries/XMCLib/inc\xmc4_scu.h ****   XMC_SCU_PERIPHERAL_CLOCK_CCU80  = SCU_CLK_CGATSTAT0_CCU80_Msk,  /**< CCU80 peripheral gating. */
 440:G:/dt_g1_balancing_plate_wise20192020/XMC/Libraries/XMCLib/inc\xmc4_scu.h **** #endif  
 441:G:/dt_g1_balancing_plate_wise20192020/XMC/Libraries/XMCLib/inc\xmc4_scu.h **** #if defined(CCU81)
 442:G:/dt_g1_balancing_plate_wise20192020/XMC/Libraries/XMCLib/inc\xmc4_scu.h ****   XMC_SCU_PERIPHERAL_CLOCK_CCU81  = SCU_CLK_CGATSTAT0_CCU81_Msk,  /**< CCU81 peripheral gating. */
 443:G:/dt_g1_balancing_plate_wise20192020/XMC/Libraries/XMCLib/inc\xmc4_scu.h **** #endif
 444:G:/dt_g1_balancing_plate_wise20192020/XMC/Libraries/XMCLib/inc\xmc4_scu.h **** #if defined(POSIF0)
 445:G:/dt_g1_balancing_plate_wise20192020/XMC/Libraries/XMCLib/inc\xmc4_scu.h ****   XMC_SCU_PERIPHERAL_CLOCK_POSIF0 = SCU_CLK_CGATSTAT0_POSIF0_Msk,  /**< POSIF0 peripheral gating. *
 446:G:/dt_g1_balancing_plate_wise20192020/XMC/Libraries/XMCLib/inc\xmc4_scu.h **** #endif  
 447:G:/dt_g1_balancing_plate_wise20192020/XMC/Libraries/XMCLib/inc\xmc4_scu.h **** #if defined(POSIF1)
 448:G:/dt_g1_balancing_plate_wise20192020/XMC/Libraries/XMCLib/inc\xmc4_scu.h ****   XMC_SCU_PERIPHERAL_CLOCK_POSIF1 = SCU_CLK_CGATSTAT0_POSIF1_Msk,   /**< POSIF1 peripheral gating. 
 449:G:/dt_g1_balancing_plate_wise20192020/XMC/Libraries/XMCLib/inc\xmc4_scu.h **** #endif
 450:G:/dt_g1_balancing_plate_wise20192020/XMC/Libraries/XMCLib/inc\xmc4_scu.h ****   XMC_SCU_PERIPHERAL_CLOCK_USIC0  = SCU_CLK_CGATSTAT0_USIC0_Msk,   /**< USIC0 peripheral gating. */
 451:G:/dt_g1_balancing_plate_wise20192020/XMC/Libraries/XMCLib/inc\xmc4_scu.h ****   XMC_SCU_PERIPHERAL_CLOCK_ERU1   = SCU_CLK_CGATSTAT0_ERU1_Msk,    /**< ERU1 peripheral gating. */
 452:G:/dt_g1_balancing_plate_wise20192020/XMC/Libraries/XMCLib/inc\xmc4_scu.h **** #if defined(HRPWM0)
 453:G:/dt_g1_balancing_plate_wise20192020/XMC/Libraries/XMCLib/inc\xmc4_scu.h ****   XMC_SCU_PERIPHERAL_CLOCK_HRPWM0 = SCU_CLK_CGATSTAT0_HRPWM0_Msk,  /**< HRPWM0 peripheral gating. *
 454:G:/dt_g1_balancing_plate_wise20192020/XMC/Libraries/XMCLib/inc\xmc4_scu.h **** #endif
 455:G:/dt_g1_balancing_plate_wise20192020/XMC/Libraries/XMCLib/inc\xmc4_scu.h **** #if defined(CCU43)
 456:G:/dt_g1_balancing_plate_wise20192020/XMC/Libraries/XMCLib/inc\xmc4_scu.h ****   XMC_SCU_PERIPHERAL_CLOCK_CCU43  = (SCU_CLK_CGATSTAT1_CCU43_Msk | 0x10000000UL),   /**< CCU43 peri
 457:G:/dt_g1_balancing_plate_wise20192020/XMC/Libraries/XMCLib/inc\xmc4_scu.h **** #endif
 458:G:/dt_g1_balancing_plate_wise20192020/XMC/Libraries/XMCLib/inc\xmc4_scu.h **** #if defined(LEDTS0)
 459:G:/dt_g1_balancing_plate_wise20192020/XMC/Libraries/XMCLib/inc\xmc4_scu.h ****   XMC_SCU_PERIPHERAL_CLOCK_LEDTS0 = (SCU_CLK_CGATSTAT1_LEDTSCU0_Msk | 0x10000000UL), /**< LEDTS0 pe
 460:G:/dt_g1_balancing_plate_wise20192020/XMC/Libraries/XMCLib/inc\xmc4_scu.h **** #endif  
 461:G:/dt_g1_balancing_plate_wise20192020/XMC/Libraries/XMCLib/inc\xmc4_scu.h **** #if defined(CAN)
 462:G:/dt_g1_balancing_plate_wise20192020/XMC/Libraries/XMCLib/inc\xmc4_scu.h ****   XMC_SCU_PERIPHERAL_CLOCK_MCAN   = (SCU_CLK_CGATSTAT1_MCAN0_Msk | 0x10000000UL),   /**< MCAN perip
 463:G:/dt_g1_balancing_plate_wise20192020/XMC/Libraries/XMCLib/inc\xmc4_scu.h **** #endif
 464:G:/dt_g1_balancing_plate_wise20192020/XMC/Libraries/XMCLib/inc\xmc4_scu.h **** #if defined(DAC)  
 465:G:/dt_g1_balancing_plate_wise20192020/XMC/Libraries/XMCLib/inc\xmc4_scu.h ****   XMC_SCU_PERIPHERAL_CLOCK_DAC    = (SCU_CLK_CGATSTAT1_DAC_Msk | 0x10000000UL),     /**< DAC periph
 466:G:/dt_g1_balancing_plate_wise20192020/XMC/Libraries/XMCLib/inc\xmc4_scu.h **** #endif  
 467:G:/dt_g1_balancing_plate_wise20192020/XMC/Libraries/XMCLib/inc\xmc4_scu.h **** #if defined(SDMMC)
 468:G:/dt_g1_balancing_plate_wise20192020/XMC/Libraries/XMCLib/inc\xmc4_scu.h ****   XMC_SCU_PERIPHERAL_CLOCK_SDMMC  = (SCU_CLK_CGATSTAT1_MMCI_Msk | 0x10000000UL),    /**< SDMMC peri
 469:G:/dt_g1_balancing_plate_wise20192020/XMC/Libraries/XMCLib/inc\xmc4_scu.h **** #endif
 470:G:/dt_g1_balancing_plate_wise20192020/XMC/Libraries/XMCLib/inc\xmc4_scu.h **** #if defined(USIC1)
 471:G:/dt_g1_balancing_plate_wise20192020/XMC/Libraries/XMCLib/inc\xmc4_scu.h ****   XMC_SCU_PERIPHERAL_CLOCK_USIC1  = (SCU_CLK_CGATSTAT1_USIC1_Msk | 0x10000000UL),   /**< USIC1 peri
 472:G:/dt_g1_balancing_plate_wise20192020/XMC/Libraries/XMCLib/inc\xmc4_scu.h **** #endif  
 473:G:/dt_g1_balancing_plate_wise20192020/XMC/Libraries/XMCLib/inc\xmc4_scu.h **** #if defined(USIC2)
 474:G:/dt_g1_balancing_plate_wise20192020/XMC/Libraries/XMCLib/inc\xmc4_scu.h ****   XMC_SCU_PERIPHERAL_CLOCK_USIC2  = (SCU_CLK_CGATSTAT1_USIC2_Msk | 0x10000000UL),    /**< USIC2 per
 475:G:/dt_g1_balancing_plate_wise20192020/XMC/Libraries/XMCLib/inc\xmc4_scu.h **** #endif
 476:G:/dt_g1_balancing_plate_wise20192020/XMC/Libraries/XMCLib/inc\xmc4_scu.h ****   XMC_SCU_PERIPHERAL_CLOCK_PORTS  = (SCU_CLK_CGATSTAT1_PPORTS_Msk | 0x10000000UL),   /**< PORTS per
 477:G:/dt_g1_balancing_plate_wise20192020/XMC/Libraries/XMCLib/inc\xmc4_scu.h ****   XMC_SCU_PERIPHERAL_CLOCK_WDT    = (SCU_CLK_CGATSTAT2_WDT_Msk | 0x20000000UL),      /**< WDT perip
 478:G:/dt_g1_balancing_plate_wise20192020/XMC/Libraries/XMCLib/inc\xmc4_scu.h **** #if defined(ETH0)
 479:G:/dt_g1_balancing_plate_wise20192020/XMC/Libraries/XMCLib/inc\xmc4_scu.h ****   XMC_SCU_PERIPHERAL_CLOCK_ETH0   = (SCU_CLK_CGATSTAT2_ETH0_Msk | 0x20000000UL),     /**< ETH0 peri
 480:G:/dt_g1_balancing_plate_wise20192020/XMC/Libraries/XMCLib/inc\xmc4_scu.h **** #endif
 481:G:/dt_g1_balancing_plate_wise20192020/XMC/Libraries/XMCLib/inc\xmc4_scu.h ****   XMC_SCU_PERIPHERAL_CLOCK_GPDMA0 = (SCU_CLK_CGATSTAT2_DMA0_Msk | 0x20000000UL),     /**< DMA0 peri
 482:G:/dt_g1_balancing_plate_wise20192020/XMC/Libraries/XMCLib/inc\xmc4_scu.h **** #if defined(GPDMA1)
 483:G:/dt_g1_balancing_plate_wise20192020/XMC/Libraries/XMCLib/inc\xmc4_scu.h ****   XMC_SCU_PERIPHERAL_CLOCK_GPDMA1 = (SCU_CLK_CGATSTAT2_DMA1_Msk | 0x20000000UL),     /**< DMA1 peri
 484:G:/dt_g1_balancing_plate_wise20192020/XMC/Libraries/XMCLib/inc\xmc4_scu.h **** #endif
 485:G:/dt_g1_balancing_plate_wise20192020/XMC/Libraries/XMCLib/inc\xmc4_scu.h **** #if defined(FCE)
 486:G:/dt_g1_balancing_plate_wise20192020/XMC/Libraries/XMCLib/inc\xmc4_scu.h ****   XMC_SCU_PERIPHERAL_CLOCK_FCE    = (SCU_CLK_CGATSTAT2_FCE_Msk | 0x20000000UL),      /**< FCE perip
 487:G:/dt_g1_balancing_plate_wise20192020/XMC/Libraries/XMCLib/inc\xmc4_scu.h **** #endif  
 488:G:/dt_g1_balancing_plate_wise20192020/XMC/Libraries/XMCLib/inc\xmc4_scu.h **** #if defined(USB0)
 489:G:/dt_g1_balancing_plate_wise20192020/XMC/Libraries/XMCLib/inc\xmc4_scu.h ****   XMC_SCU_PERIPHERAL_CLOCK_USB0   = (SCU_CLK_CGATSTAT2_USB_Msk | 0x20000000UL),      /**< USB0 peri
 490:G:/dt_g1_balancing_plate_wise20192020/XMC/Libraries/XMCLib/inc\xmc4_scu.h **** #endif  
 491:G:/dt_g1_balancing_plate_wise20192020/XMC/Libraries/XMCLib/inc\xmc4_scu.h **** #if defined(ECAT0)
 492:G:/dt_g1_balancing_plate_wise20192020/XMC/Libraries/XMCLib/inc\xmc4_scu.h ****   XMC_SCU_PERIPHERAL_CLOCK_ECAT0   = (SCU_CLK_CGATSTAT2_ECAT0_Msk | 0x20000000UL),      /**< ECAT0 
 493:G:/dt_g1_balancing_plate_wise20192020/XMC/Libraries/XMCLib/inc\xmc4_scu.h **** #endif  
 494:G:/dt_g1_balancing_plate_wise20192020/XMC/Libraries/XMCLib/inc\xmc4_scu.h **** #if defined(EBU)
 495:G:/dt_g1_balancing_plate_wise20192020/XMC/Libraries/XMCLib/inc\xmc4_scu.h ****   XMC_SCU_PERIPHERAL_CLOCK_EBU    = (SCU_CLK_CGATSTAT3_EBU_Msk | 0x30000000UL)       /**< EBU perip
 496:G:/dt_g1_balancing_plate_wise20192020/XMC/Libraries/XMCLib/inc\xmc4_scu.h **** #endif
 497:G:/dt_g1_balancing_plate_wise20192020/XMC/Libraries/XMCLib/inc\xmc4_scu.h **** } XMC_SCU_PERIPHERAL_CLOCK_t;
 498:G:/dt_g1_balancing_plate_wise20192020/XMC/Libraries/XMCLib/inc\xmc4_scu.h **** #endif
 499:G:/dt_g1_balancing_plate_wise20192020/XMC/Libraries/XMCLib/inc\xmc4_scu.h **** 
 500:G:/dt_g1_balancing_plate_wise20192020/XMC/Libraries/XMCLib/inc\xmc4_scu.h **** /**
 501:G:/dt_g1_balancing_plate_wise20192020/XMC/Libraries/XMCLib/inc\xmc4_scu.h ****  *  Defines options for system clock (fSYS) source. These enums are used to configure \a SYSSEL bit
 502:G:/dt_g1_balancing_plate_wise20192020/XMC/Libraries/XMCLib/inc\xmc4_scu.h ****  *  Clock Control Register. 
 503:G:/dt_g1_balancing_plate_wise20192020/XMC/Libraries/XMCLib/inc\xmc4_scu.h ****  *  Use type \a XMC_SCU_CLOCK_SYSCLKSRC_t for accessing these enum parameters.
 504:G:/dt_g1_balancing_plate_wise20192020/XMC/Libraries/XMCLib/inc\xmc4_scu.h ****  */ 
 505:G:/dt_g1_balancing_plate_wise20192020/XMC/Libraries/XMCLib/inc\xmc4_scu.h **** typedef enum XMC_SCU_CLOCK_SYSCLKSRC
 506:G:/dt_g1_balancing_plate_wise20192020/XMC/Libraries/XMCLib/inc\xmc4_scu.h **** {
 507:G:/dt_g1_balancing_plate_wise20192020/XMC/Libraries/XMCLib/inc\xmc4_scu.h ****   XMC_SCU_CLOCK_SYSCLKSRC_OFI = (0UL << SCU_CLK_SYSCLKCR_SYSSEL_Pos), /**< Internal Fast Clock (fOF
 508:G:/dt_g1_balancing_plate_wise20192020/XMC/Libraries/XMCLib/inc\xmc4_scu.h ****                                                                            source for system clock 
 509:G:/dt_g1_balancing_plate_wise20192020/XMC/Libraries/XMCLib/inc\xmc4_scu.h ****   XMC_SCU_CLOCK_SYSCLKSRC_PLL = (1UL << SCU_CLK_SYSCLKCR_SYSSEL_Pos)  /**< PLL output (fPLL) as a
 510:G:/dt_g1_balancing_plate_wise20192020/XMC/Libraries/XMCLib/inc\xmc4_scu.h ****                                                                            source for system clock 
 511:G:/dt_g1_balancing_plate_wise20192020/XMC/Libraries/XMCLib/inc\xmc4_scu.h **** } XMC_SCU_CLOCK_SYSCLKSRC_t;
 512:G:/dt_g1_balancing_plate_wise20192020/XMC/Libraries/XMCLib/inc\xmc4_scu.h **** 
 513:G:/dt_g1_balancing_plate_wise20192020/XMC/Libraries/XMCLib/inc\xmc4_scu.h **** /**
 514:G:/dt_g1_balancing_plate_wise20192020/XMC/Libraries/XMCLib/inc\xmc4_scu.h ****  *  Defines options for selecting the P-Divider input frequency. These enums are used to configure 
 515:G:/dt_g1_balancing_plate_wise20192020/XMC/Libraries/XMCLib/inc\xmc4_scu.h ****  *  register. 
 516:G:/dt_g1_balancing_plate_wise20192020/XMC/Libraries/XMCLib/inc\xmc4_scu.h ****  *  Use type \a XMC_SCU_CLOCK_OSCCLKSRC_t for accessing these enum parameters.
 517:G:/dt_g1_balancing_plate_wise20192020/XMC/Libraries/XMCLib/inc\xmc4_scu.h ****  */ 
 518:G:/dt_g1_balancing_plate_wise20192020/XMC/Libraries/XMCLib/inc\xmc4_scu.h **** typedef enum XMC_SCU_CLOCK_SYSPLLCLKSRC
 519:G:/dt_g1_balancing_plate_wise20192020/XMC/Libraries/XMCLib/inc\xmc4_scu.h **** {
 520:G:/dt_g1_balancing_plate_wise20192020/XMC/Libraries/XMCLib/inc\xmc4_scu.h ****   XMC_SCU_CLOCK_SYSPLLCLKSRC_OSCHP = 0UL,  /**< External crystal oscillator
 521:G:/dt_g1_balancing_plate_wise20192020/XMC/Libraries/XMCLib/inc\xmc4_scu.h ****                                                 (fOHP) as the source for P-Divider. */
 522:G:/dt_g1_balancing_plate_wise20192020/XMC/Libraries/XMCLib/inc\xmc4_scu.h ****   XMC_SCU_CLOCK_SYSPLLCLKSRC_OFI = SCU_PLL_PLLCON2_PINSEL_Msk | SCU_PLL_PLLCON2_K1INSEL_Msk /**< Ba
 523:G:/dt_g1_balancing_plate_wise20192020/XMC/Libraries/XMCLib/inc\xmc4_scu.h ****                                                                              as the source for P-Di
 524:G:/dt_g1_balancing_plate_wise20192020/XMC/Libraries/XMCLib/inc\xmc4_scu.h **** } XMC_SCU_CLOCK_SYSPLLCLKSRC_t;
 525:G:/dt_g1_balancing_plate_wise20192020/XMC/Libraries/XMCLib/inc\xmc4_scu.h **** 
 526:G:/dt_g1_balancing_plate_wise20192020/XMC/Libraries/XMCLib/inc\xmc4_scu.h **** /**
 527:G:/dt_g1_balancing_plate_wise20192020/XMC/Libraries/XMCLib/inc\xmc4_scu.h ****  * Defines options for selecting the USB clock source(fUSB/fSDMMC).
 528:G:/dt_g1_balancing_plate_wise20192020/XMC/Libraries/XMCLib/inc\xmc4_scu.h ****  * These enums are used to configure \a USBSEL bits of \a USBCLKCR
 529:G:/dt_g1_balancing_plate_wise20192020/XMC/Libraries/XMCLib/inc\xmc4_scu.h ****  * register. User can choose either fPLL or fUSBPLL clock as a source for USB clock. 
 530:G:/dt_g1_balancing_plate_wise20192020/XMC/Libraries/XMCLib/inc\xmc4_scu.h ****  * Use type \a XMC_SCU_CLOCK_USBCLKSRC_t for accessing these enum parameters.
 531:G:/dt_g1_balancing_plate_wise20192020/XMC/Libraries/XMCLib/inc\xmc4_scu.h ****  */ 
 532:G:/dt_g1_balancing_plate_wise20192020/XMC/Libraries/XMCLib/inc\xmc4_scu.h **** typedef enum XMC_SCU_CLOCK_USBCLKSRC
 533:G:/dt_g1_balancing_plate_wise20192020/XMC/Libraries/XMCLib/inc\xmc4_scu.h **** {
 534:G:/dt_g1_balancing_plate_wise20192020/XMC/Libraries/XMCLib/inc\xmc4_scu.h ****   XMC_SCU_CLOCK_USBCLKSRC_USBPLL = (0UL << SCU_CLK_USBCLKCR_USBSEL_Pos), /**< USB PLL(fUSB PLL) as 
 535:G:/dt_g1_balancing_plate_wise20192020/XMC/Libraries/XMCLib/inc\xmc4_scu.h ****                                                                            source for USB clock (fU
 536:G:/dt_g1_balancing_plate_wise20192020/XMC/Libraries/XMCLib/inc\xmc4_scu.h ****   XMC_SCU_CLOCK_USBCLKSRC_SYSPLL = (1UL << SCU_CLK_USBCLKCR_USBSEL_Pos)  /**< Main PLL output (fPLL
 537:G:/dt_g1_balancing_plate_wise20192020/XMC/Libraries/XMCLib/inc\xmc4_scu.h ****                                                                            source for USB clock (fU
 538:G:/dt_g1_balancing_plate_wise20192020/XMC/Libraries/XMCLib/inc\xmc4_scu.h **** } XMC_SCU_CLOCK_USBCLKSRC_t;
 539:G:/dt_g1_balancing_plate_wise20192020/XMC/Libraries/XMCLib/inc\xmc4_scu.h **** 
 540:G:/dt_g1_balancing_plate_wise20192020/XMC/Libraries/XMCLib/inc\xmc4_scu.h **** #if defined(ECAT0) 
 541:G:/dt_g1_balancing_plate_wise20192020/XMC/Libraries/XMCLib/inc\xmc4_scu.h **** /**
 542:G:/dt_g1_balancing_plate_wise20192020/XMC/Libraries/XMCLib/inc\xmc4_scu.h ****  * Defines options for selecting the ECAT clock source.
 543:G:/dt_g1_balancing_plate_wise20192020/XMC/Libraries/XMCLib/inc\xmc4_scu.h ****  */ 
 544:G:/dt_g1_balancing_plate_wise20192020/XMC/Libraries/XMCLib/inc\xmc4_scu.h **** typedef enum XMC_SCU_CLOCK_ECATCLKSRC
 545:G:/dt_g1_balancing_plate_wise20192020/XMC/Libraries/XMCLib/inc\xmc4_scu.h **** {
 546:G:/dt_g1_balancing_plate_wise20192020/XMC/Libraries/XMCLib/inc\xmc4_scu.h ****   XMC_SCU_CLOCK_ECATCLKSRC_USBPLL = (0UL << SCU_CLK_ECATCLKCR_ECATSEL_Pos), /**< USB PLL (fUSBPLL) 
 547:G:/dt_g1_balancing_plate_wise20192020/XMC/Libraries/XMCLib/inc\xmc4_scu.h ****   XMC_SCU_CLOCK_ECATCLKSRC_SYSPLL = (1UL << SCU_CLK_ECATCLKCR_ECATSEL_Pos)  /**< Main PLL output (f
 548:G:/dt_g1_balancing_plate_wise20192020/XMC/Libraries/XMCLib/inc\xmc4_scu.h **** } XMC_SCU_CLOCK_ECATCLKSRC_t;
 549:G:/dt_g1_balancing_plate_wise20192020/XMC/Libraries/XMCLib/inc\xmc4_scu.h **** #endif
 550:G:/dt_g1_balancing_plate_wise20192020/XMC/Libraries/XMCLib/inc\xmc4_scu.h **** 
 551:G:/dt_g1_balancing_plate_wise20192020/XMC/Libraries/XMCLib/inc\xmc4_scu.h **** /**
 552:G:/dt_g1_balancing_plate_wise20192020/XMC/Libraries/XMCLib/inc\xmc4_scu.h ****  *  Defines options for selecting the source of WDT clock(fWDT). These enums are used to configure 
 553:G:/dt_g1_balancing_plate_wise20192020/XMC/Libraries/XMCLib/inc\xmc4_scu.h ****  *  register. User can choose either fOFI or fPLL or fSTDBY clock as a source for WDT clock. 
 554:G:/dt_g1_balancing_plate_wise20192020/XMC/Libraries/XMCLib/inc\xmc4_scu.h ****  *  Use type \a XMC_SCU_CLOCK_USBCLKSRC_t for accessing these enum parameters.
 555:G:/dt_g1_balancing_plate_wise20192020/XMC/Libraries/XMCLib/inc\xmc4_scu.h ****  */ 
 556:G:/dt_g1_balancing_plate_wise20192020/XMC/Libraries/XMCLib/inc\xmc4_scu.h **** typedef enum XMC_SCU_CLOCK_WDTCLKSRC
 557:G:/dt_g1_balancing_plate_wise20192020/XMC/Libraries/XMCLib/inc\xmc4_scu.h **** {
 558:G:/dt_g1_balancing_plate_wise20192020/XMC/Libraries/XMCLib/inc\xmc4_scu.h ****   XMC_SCU_CLOCK_WDTCLKSRC_OFI = (0UL << SCU_CLK_WDTCLKCR_WDTSEL_Pos),  /**< Internal Fast Clock 
 559:G:/dt_g1_balancing_plate_wise20192020/XMC/Libraries/XMCLib/inc\xmc4_scu.h ****                                                                            (fOFI) as the source for
 560:G:/dt_g1_balancing_plate_wise20192020/XMC/Libraries/XMCLib/inc\xmc4_scu.h ****   XMC_SCU_CLOCK_WDTCLKSRC_STDBY = (1UL << SCU_CLK_WDTCLKCR_WDTSEL_Pos), /**< Standby clock 
 561:G:/dt_g1_balancing_plate_wise20192020/XMC/Libraries/XMCLib/inc\xmc4_scu.h ****                                                                            (fSTDBY) as the source f
 562:G:/dt_g1_balancing_plate_wise20192020/XMC/Libraries/XMCLib/inc\xmc4_scu.h ****   XMC_SCU_CLOCK_WDTCLKSRC_PLL = (2UL << SCU_CLK_WDTCLKCR_WDTSEL_Pos)   /**< PLL output (fPLL) as th
 563:G:/dt_g1_balancing_plate_wise20192020/XMC/Libraries/XMCLib/inc\xmc4_scu.h ****                                                                            source for WDT clock (fW
 564:G:/dt_g1_balancing_plate_wise20192020/XMC/Libraries/XMCLib/inc\xmc4_scu.h **** } XMC_SCU_CLOCK_WDTCLKSRC_t;
 565:G:/dt_g1_balancing_plate_wise20192020/XMC/Libraries/XMCLib/inc\xmc4_scu.h **** 
 566:G:/dt_g1_balancing_plate_wise20192020/XMC/Libraries/XMCLib/inc\xmc4_scu.h **** /**
 567:G:/dt_g1_balancing_plate_wise20192020/XMC/Libraries/XMCLib/inc\xmc4_scu.h ****  *  Defines options for selecting the source of external clock out (fEXT). These enums are used to 
 568:G:/dt_g1_balancing_plate_wise20192020/XMC/Libraries/XMCLib/inc\xmc4_scu.h ****  *  register. User can choose either fSYS or fPLL or fUSBPLL clock as a source for external clock o
 569:G:/dt_g1_balancing_plate_wise20192020/XMC/Libraries/XMCLib/inc\xmc4_scu.h ****  *  Use type \a XMC_SCU_CLOCK_EXTOUTCLKSRC_t for accessing these enum parameters.
 570:G:/dt_g1_balancing_plate_wise20192020/XMC/Libraries/XMCLib/inc\xmc4_scu.h ****  */ 
 571:G:/dt_g1_balancing_plate_wise20192020/XMC/Libraries/XMCLib/inc\xmc4_scu.h **** typedef enum XMC_SCU_CLOCK_EXTOUTCLKSRC
 572:G:/dt_g1_balancing_plate_wise20192020/XMC/Libraries/XMCLib/inc\xmc4_scu.h **** {
 573:G:/dt_g1_balancing_plate_wise20192020/XMC/Libraries/XMCLib/inc\xmc4_scu.h ****   XMC_SCU_CLOCK_EXTOUTCLKSRC_SYS = (0UL << SCU_CLK_EXTCLKCR_ECKSEL_Pos),  /**< System clock (fSYS) 
 574:G:/dt_g1_balancing_plate_wise20192020/XMC/Libraries/XMCLib/inc\xmc4_scu.h ****                                                                             the source for external
 575:G:/dt_g1_balancing_plate_wise20192020/XMC/Libraries/XMCLib/inc\xmc4_scu.h ****   XMC_SCU_CLOCK_EXTOUTCLKSRC_USB = (2UL << SCU_CLK_EXTCLKCR_ECKSEL_Pos), /**< USB PLL output(fUSB P
 576:G:/dt_g1_balancing_plate_wise20192020/XMC/Libraries/XMCLib/inc\xmc4_scu.h ****                                                                            source for external cloc
 577:G:/dt_g1_balancing_plate_wise20192020/XMC/Libraries/XMCLib/inc\xmc4_scu.h ****   XMC_SCU_CLOCK_EXTOUTCLKSRC_PLL = (3UL << SCU_CLK_EXTCLKCR_ECKSEL_Pos), /**< Main PLL output(fPLL)
 578:G:/dt_g1_balancing_plate_wise20192020/XMC/Libraries/XMCLib/inc\xmc4_scu.h ****                                                                            source for external cloc
 579:G:/dt_g1_balancing_plate_wise20192020/XMC/Libraries/XMCLib/inc\xmc4_scu.h **** #if ((UC_SERIES == XMC42) || (UC_SERIES == XMC41))
 580:G:/dt_g1_balancing_plate_wise20192020/XMC/Libraries/XMCLib/inc\xmc4_scu.h ****   XMC_SCU_CLOCK_EXTOUTCLKSRC_STDBY = (4UL << SCU_CLK_EXTCLKCR_ECKSEL_Pos), /**< Standby clock(fSTDB
 581:G:/dt_g1_balancing_plate_wise20192020/XMC/Libraries/XMCLib/inc\xmc4_scu.h ****                                                                            source for external cloc
 582:G:/dt_g1_balancing_plate_wise20192020/XMC/Libraries/XMCLib/inc\xmc4_scu.h **** #endif
 583:G:/dt_g1_balancing_plate_wise20192020/XMC/Libraries/XMCLib/inc\xmc4_scu.h **** } XMC_SCU_CLOCK_EXTOUTCLKSRC_t;
 584:G:/dt_g1_balancing_plate_wise20192020/XMC/Libraries/XMCLib/inc\xmc4_scu.h **** 
 585:G:/dt_g1_balancing_plate_wise20192020/XMC/Libraries/XMCLib/inc\xmc4_scu.h **** /**
 586:G:/dt_g1_balancing_plate_wise20192020/XMC/Libraries/XMCLib/inc\xmc4_scu.h ****  *  Defines options for selecting the source of RTC Clock (fRTC). These enums are used to configure
 587:G:/dt_g1_balancing_plate_wise20192020/XMC/Libraries/XMCLib/inc\xmc4_scu.h ****  *  User can choose either fOSI or fULP clock as a source for RTC Clock (fRTC).
 588:G:/dt_g1_balancing_plate_wise20192020/XMC/Libraries/XMCLib/inc\xmc4_scu.h ****  *  Use type \a XMC_SCU_HIB_RTCCLKSRC_t for accessing these enum parameters.
 589:G:/dt_g1_balancing_plate_wise20192020/XMC/Libraries/XMCLib/inc\xmc4_scu.h ****  */
 590:G:/dt_g1_balancing_plate_wise20192020/XMC/Libraries/XMCLib/inc\xmc4_scu.h **** typedef enum XMC_SCU_HIB_RTCCLKSRC
 591:G:/dt_g1_balancing_plate_wise20192020/XMC/Libraries/XMCLib/inc\xmc4_scu.h **** {
 592:G:/dt_g1_balancing_plate_wise20192020/XMC/Libraries/XMCLib/inc\xmc4_scu.h ****   XMC_SCU_HIB_RTCCLKSRC_OSI = (0UL << SCU_HIBERNATE_HDCR_RCS_Pos), /**< Internal Slow Clock
 593:G:/dt_g1_balancing_plate_wise20192020/XMC/Libraries/XMCLib/inc\xmc4_scu.h ****                                                                          (fOSI) as the source for R
 594:G:/dt_g1_balancing_plate_wise20192020/XMC/Libraries/XMCLib/inc\xmc4_scu.h ****   XMC_SCU_HIB_RTCCLKSRC_ULP = (1UL << SCU_HIBERNATE_HDCR_RCS_Pos) /**< Ultra Low Power Clock (fULP)
 595:G:/dt_g1_balancing_plate_wise20192020/XMC/Libraries/XMCLib/inc\xmc4_scu.h ****                                                                         as the source for RTC Clock
 596:G:/dt_g1_balancing_plate_wise20192020/XMC/Libraries/XMCLib/inc\xmc4_scu.h **** } XMC_SCU_HIB_RTCCLKSRC_t;
 597:G:/dt_g1_balancing_plate_wise20192020/XMC/Libraries/XMCLib/inc\xmc4_scu.h **** 
 598:G:/dt_g1_balancing_plate_wise20192020/XMC/Libraries/XMCLib/inc\xmc4_scu.h **** /**
 599:G:/dt_g1_balancing_plate_wise20192020/XMC/Libraries/XMCLib/inc\xmc4_scu.h ****  *  Defines options for selecting the source of Standby Clock (fSTDBY). These enums are used to con
 600:G:/dt_g1_balancing_plate_wise20192020/XMC/Libraries/XMCLib/inc\xmc4_scu.h ****  *  register. User can choose either fOSI or fULP clock as a source for Standby Clock (fSTDBY).
 601:G:/dt_g1_balancing_plate_wise20192020/XMC/Libraries/XMCLib/inc\xmc4_scu.h ****  *  Use type \a XMC_SCU_HIB_STDBYCLKSRC_t for accessing these enum parameters.
 602:G:/dt_g1_balancing_plate_wise20192020/XMC/Libraries/XMCLib/inc\xmc4_scu.h ****  */
 603:G:/dt_g1_balancing_plate_wise20192020/XMC/Libraries/XMCLib/inc\xmc4_scu.h **** typedef enum XMC_SCU_HIB_STDBYCLKSRC
 604:G:/dt_g1_balancing_plate_wise20192020/XMC/Libraries/XMCLib/inc\xmc4_scu.h **** {
 605:G:/dt_g1_balancing_plate_wise20192020/XMC/Libraries/XMCLib/inc\xmc4_scu.h ****   XMC_SCU_HIB_STDBYCLKSRC_OSI = (0UL << SCU_HIBERNATE_HDCR_STDBYSEL_Pos), /**< Internal Slow Clock 
 606:G:/dt_g1_balancing_plate_wise20192020/XMC/Libraries/XMCLib/inc\xmc4_scu.h ****                                                                           (fOSI) as the source for 
 607:G:/dt_g1_balancing_plate_wise20192020/XMC/Libraries/XMCLib/inc\xmc4_scu.h ****                                                                           (fSTDBY). */
 608:G:/dt_g1_balancing_plate_wise20192020/XMC/Libraries/XMCLib/inc\xmc4_scu.h ****   XMC_SCU_HIB_STDBYCLKSRC_OSCULP = (1UL << SCU_HIBERNATE_HDCR_STDBYSEL_Pos) /**< Ultra Low Power Cl
 609:G:/dt_g1_balancing_plate_wise20192020/XMC/Libraries/XMCLib/inc\xmc4_scu.h ****                                                                           (fULP) as the source for 
 610:G:/dt_g1_balancing_plate_wise20192020/XMC/Libraries/XMCLib/inc\xmc4_scu.h ****                                                                           (fSTDBY). */
 611:G:/dt_g1_balancing_plate_wise20192020/XMC/Libraries/XMCLib/inc\xmc4_scu.h **** } XMC_SCU_HIB_STDBYCLKSRC_t;
 612:G:/dt_g1_balancing_plate_wise20192020/XMC/Libraries/XMCLib/inc\xmc4_scu.h **** 
 613:G:/dt_g1_balancing_plate_wise20192020/XMC/Libraries/XMCLib/inc\xmc4_scu.h **** /**
 614:G:/dt_g1_balancing_plate_wise20192020/XMC/Libraries/XMCLib/inc\xmc4_scu.h ****  *  Defines options for backup clock trimming. These enums are used to configure \a AOTREN  \a FOTR
 615:G:/dt_g1_balancing_plate_wise20192020/XMC/Libraries/XMCLib/inc\xmc4_scu.h ****  *  PLLCON0 register. Use type \a XMC_SCU_CLOCK_BACKUP_TRIM_t for accessing these enum parameters.
 616:G:/dt_g1_balancing_plate_wise20192020/XMC/Libraries/XMCLib/inc\xmc4_scu.h ****  */
 617:G:/dt_g1_balancing_plate_wise20192020/XMC/Libraries/XMCLib/inc\xmc4_scu.h **** typedef enum XMC_SCU_CLOCK_FOFI_CALIBRATION_MODE
 618:G:/dt_g1_balancing_plate_wise20192020/XMC/Libraries/XMCLib/inc\xmc4_scu.h **** {
 619:G:/dt_g1_balancing_plate_wise20192020/XMC/Libraries/XMCLib/inc\xmc4_scu.h ****   XMC_SCU_CLOCK_FOFI_CALIBRATION_MODE_FACTORY   = 0UL,  /**< Factory Oscillator Calibration: 
 620:G:/dt_g1_balancing_plate_wise20192020/XMC/Libraries/XMCLib/inc\xmc4_scu.h ****                                                         Force adjustment of the internal oscillator
 621:G:/dt_g1_balancing_plate_wise20192020/XMC/Libraries/XMCLib/inc\xmc4_scu.h ****   XMC_SCU_CLOCK_FOFI_CALIBRATION_MODE_AUTOMATIC = 1UL   /**<  Automatic Oscillator Calibration adju
 622:G:/dt_g1_balancing_plate_wise20192020/XMC/Libraries/XMCLib/inc\xmc4_scu.h **** } XMC_SCU_CLOCK_FOFI_CALIBRATION_MODE_t;
 623:G:/dt_g1_balancing_plate_wise20192020/XMC/Libraries/XMCLib/inc\xmc4_scu.h **** 
 624:G:/dt_g1_balancing_plate_wise20192020/XMC/Libraries/XMCLib/inc\xmc4_scu.h **** 
 625:G:/dt_g1_balancing_plate_wise20192020/XMC/Libraries/XMCLib/inc\xmc4_scu.h **** /**
 626:G:/dt_g1_balancing_plate_wise20192020/XMC/Libraries/XMCLib/inc\xmc4_scu.h ****  *  Defines options for selecting device boot mode. These enums are used to configure \a SWCON bits
 627:G:/dt_g1_balancing_plate_wise20192020/XMC/Libraries/XMCLib/inc\xmc4_scu.h ****  *  User can choose among various boot modes by configuring SWCON bits.
 628:G:/dt_g1_balancing_plate_wise20192020/XMC/Libraries/XMCLib/inc\xmc4_scu.h ****  *  Use type \a XMC_SCU_BOOTMODE_t for accessing these enum parameters.
 629:G:/dt_g1_balancing_plate_wise20192020/XMC/Libraries/XMCLib/inc\xmc4_scu.h ****  */
 630:G:/dt_g1_balancing_plate_wise20192020/XMC/Libraries/XMCLib/inc\xmc4_scu.h **** typedef enum XMC_SCU_BOOTMODE 
 631:G:/dt_g1_balancing_plate_wise20192020/XMC/Libraries/XMCLib/inc\xmc4_scu.h **** {
 632:G:/dt_g1_balancing_plate_wise20192020/XMC/Libraries/XMCLib/inc\xmc4_scu.h ****   XMC_SCU_BOOTMODE_NORMAL     = (0UL << SCU_GENERAL_STCON_SWCON_Pos), /**< Boot from start of flash
 633:G:/dt_g1_balancing_plate_wise20192020/XMC/Libraries/XMCLib/inc\xmc4_scu.h ****   XMC_SCU_BOOTMODE_ASC_BSL    = (1UL << SCU_GENERAL_STCON_SWCON_Pos), /**< UART bootstrap. */
 634:G:/dt_g1_balancing_plate_wise20192020/XMC/Libraries/XMCLib/inc\xmc4_scu.h ****   XMC_SCU_BOOTMODE_BMI        = (2UL << SCU_GENERAL_STCON_SWCON_Pos), /**< Boot Mode Index - Custom
 635:G:/dt_g1_balancing_plate_wise20192020/XMC/Libraries/XMCLib/inc\xmc4_scu.h ****                                                                            sequence. */
 636:G:/dt_g1_balancing_plate_wise20192020/XMC/Libraries/XMCLib/inc\xmc4_scu.h ****   XMC_SCU_BOOTMODE_CAN_BSL    = (3UL << SCU_GENERAL_STCON_SWCON_Pos), /**< CAN bootstrap. */
 637:G:/dt_g1_balancing_plate_wise20192020/XMC/Libraries/XMCLib/inc\xmc4_scu.h ****   XMC_SCU_BOOTMODE_PSRAM_BOOT = (4UL << SCU_GENERAL_STCON_SWCON_Pos), /**< Boot from PSRAM. */
 638:G:/dt_g1_balancing_plate_wise20192020/XMC/Libraries/XMCLib/inc\xmc4_scu.h ****   XMC_SCU_BOOTMODE_ABM0       = (8UL << SCU_GENERAL_STCON_SWCON_Pos), /**< Boot from flash - fixed 
 639:G:/dt_g1_balancing_plate_wise20192020/XMC/Libraries/XMCLib/inc\xmc4_scu.h ****                                                                            address 0. */
 640:G:/dt_g1_balancing_plate_wise20192020/XMC/Libraries/XMCLib/inc\xmc4_scu.h ****   XMC_SCU_BOOTMODE_ABM1       = (12UL << SCU_GENERAL_STCON_SWCON_Pos), /**< Boot from flash - fixed
 641:G:/dt_g1_balancing_plate_wise20192020/XMC/Libraries/XMCLib/inc\xmc4_scu.h ****                                                                             address 1. */
 642:G:/dt_g1_balancing_plate_wise20192020/XMC/Libraries/XMCLib/inc\xmc4_scu.h ****   XMC_SCU_BOOTMODE_FABM       = (14UL << SCU_GENERAL_STCON_SWCON_Pos), /**< fallback Alternate Boot
 643:G:/dt_g1_balancing_plate_wise20192020/XMC/Libraries/XMCLib/inc\xmc4_scu.h ****                                                                             Try ABM-0 then try ABM-
 644:G:/dt_g1_balancing_plate_wise20192020/XMC/Libraries/XMCLib/inc\xmc4_scu.h **** } XMC_SCU_BOOTMODE_t;
 645:G:/dt_g1_balancing_plate_wise20192020/XMC/Libraries/XMCLib/inc\xmc4_scu.h **** 
 646:G:/dt_g1_balancing_plate_wise20192020/XMC/Libraries/XMCLib/inc\xmc4_scu.h **** 
 647:G:/dt_g1_balancing_plate_wise20192020/XMC/Libraries/XMCLib/inc\xmc4_scu.h **** /**
 648:G:/dt_g1_balancing_plate_wise20192020/XMC/Libraries/XMCLib/inc\xmc4_scu.h ****  *  Defines various PLL modes of operation. These enums are used to configure \a VCOBYP bit of \a P
 649:G:/dt_g1_balancing_plate_wise20192020/XMC/Libraries/XMCLib/inc\xmc4_scu.h ****  *  User can choose either normal or prescalar mode by configuring VCOBYP bit.
 650:G:/dt_g1_balancing_plate_wise20192020/XMC/Libraries/XMCLib/inc\xmc4_scu.h ****  *  Use type \a XMC_SCU_PLL_MODE_t for accessing these enum parameters.
 651:G:/dt_g1_balancing_plate_wise20192020/XMC/Libraries/XMCLib/inc\xmc4_scu.h ****  */
 652:G:/dt_g1_balancing_plate_wise20192020/XMC/Libraries/XMCLib/inc\xmc4_scu.h **** typedef enum XMC_SCU_CLOCK_SYSPLL_MODE
 653:G:/dt_g1_balancing_plate_wise20192020/XMC/Libraries/XMCLib/inc\xmc4_scu.h **** {
 654:G:/dt_g1_balancing_plate_wise20192020/XMC/Libraries/XMCLib/inc\xmc4_scu.h ****   XMC_SCU_CLOCK_SYSPLL_MODE_DISABLED, /**< fPLL derived from fOSC and PLL operating in prescalar mo
 655:G:/dt_g1_balancing_plate_wise20192020/XMC/Libraries/XMCLib/inc\xmc4_scu.h ****   XMC_SCU_CLOCK_SYSPLL_MODE_NORMAL,  /**< fPLL derived from fVCO and PLL operating in normal mode. 
 656:G:/dt_g1_balancing_plate_wise20192020/XMC/Libraries/XMCLib/inc\xmc4_scu.h ****   XMC_SCU_CLOCK_SYSPLL_MODE_PRESCALAR /**< fPLL derived from fOSC and PLL operating in prescalar mo
 657:G:/dt_g1_balancing_plate_wise20192020/XMC/Libraries/XMCLib/inc\xmc4_scu.h **** } XMC_SCU_CLOCK_SYSPLL_MODE_t;
 658:G:/dt_g1_balancing_plate_wise20192020/XMC/Libraries/XMCLib/inc\xmc4_scu.h **** 
 659:G:/dt_g1_balancing_plate_wise20192020/XMC/Libraries/XMCLib/inc\xmc4_scu.h **** /** 
 660:G:/dt_g1_balancing_plate_wise20192020/XMC/Libraries/XMCLib/inc\xmc4_scu.h ****  *  Defines the source of the system clock and peripherals clock gating in SLEEP state.
 661:G:/dt_g1_balancing_plate_wise20192020/XMC/Libraries/XMCLib/inc\xmc4_scu.h ****  *  Use this enum as parameter of XMC_SCU_CLOCK_SetSleepConfig before going to SLEEP state.
 662:G:/dt_g1_balancing_plate_wise20192020/XMC/Libraries/XMCLib/inc\xmc4_scu.h ****  *
 663:G:/dt_g1_balancing_plate_wise20192020/XMC/Libraries/XMCLib/inc\xmc4_scu.h ****  *  The SLEEP state of the system corresponds to the SLEEP state of the CPU. The state is
 664:G:/dt_g1_balancing_plate_wise20192020/XMC/Libraries/XMCLib/inc\xmc4_scu.h ****  *  entered via WFI or WFE instruction of the CPU. In this state the clock to the CPU is
 665:G:/dt_g1_balancing_plate_wise20192020/XMC/Libraries/XMCLib/inc\xmc4_scu.h ****  *  stopped. Peripherals are only clocked when configured to stay enabled. 
 666:G:/dt_g1_balancing_plate_wise20192020/XMC/Libraries/XMCLib/inc\xmc4_scu.h ****  *
 667:G:/dt_g1_balancing_plate_wise20192020/XMC/Libraries/XMCLib/inc\xmc4_scu.h ****  *  Peripherals can continue to operate unaffected and eventually generate an event to
 668:G:/dt_g1_balancing_plate_wise20192020/XMC/Libraries/XMCLib/inc\xmc4_scu.h ****  *  wake-up the CPU. Any interrupt to the NVIC will bring the CPU back to operation. The
 669:G:/dt_g1_balancing_plate_wise20192020/XMC/Libraries/XMCLib/inc\xmc4_scu.h ****  *  clock tree upon exit from SLEEP state is restored to what it was before entry into SLEEP
 670:G:/dt_g1_balancing_plate_wise20192020/XMC/Libraries/XMCLib/inc\xmc4_scu.h ****  *  state.
 671:G:/dt_g1_balancing_plate_wise20192020/XMC/Libraries/XMCLib/inc\xmc4_scu.h ****  *  
 672:G:/dt_g1_balancing_plate_wise20192020/XMC/Libraries/XMCLib/inc\xmc4_scu.h ****  */
 673:G:/dt_g1_balancing_plate_wise20192020/XMC/Libraries/XMCLib/inc\xmc4_scu.h **** typedef enum XMC_SCU_CLOCK_SLEEP_MODE_CONFIG
 674:G:/dt_g1_balancing_plate_wise20192020/XMC/Libraries/XMCLib/inc\xmc4_scu.h **** {
 675:G:/dt_g1_balancing_plate_wise20192020/XMC/Libraries/XMCLib/inc\xmc4_scu.h ****   XMC_SCU_CLOCK_SLEEP_MODE_CONFIG_SYSCLK_FOFI = 0,  /**< fOFI used as system clock source in SLEEP 
 676:G:/dt_g1_balancing_plate_wise20192020/XMC/Libraries/XMCLib/inc\xmc4_scu.h ****   XMC_SCU_CLOCK_SLEEP_MODE_CONFIG_SYSCLK_FPLL = SCU_CLK_SLEEPCR_SYSSEL_Msk,  /**< fPLL used as syst
 677:G:/dt_g1_balancing_plate_wise20192020/XMC/Libraries/XMCLib/inc\xmc4_scu.h **** #if defined(USB0)
 678:G:/dt_g1_balancing_plate_wise20192020/XMC/Libraries/XMCLib/inc\xmc4_scu.h ****   XMC_SCU_CLOCK_SLEEP_MODE_CONFIG_DISABLE_USB = 0,  /**< USB clock disabled in SLEEP state */
 679:G:/dt_g1_balancing_plate_wise20192020/XMC/Libraries/XMCLib/inc\xmc4_scu.h ****   XMC_SCU_CLOCK_SLEEP_MODE_CONFIG_ENABLE_USB = SCU_CLK_SLEEPCR_USBCR_Msk,  /**< USB clock enabled i
 680:G:/dt_g1_balancing_plate_wise20192020/XMC/Libraries/XMCLib/inc\xmc4_scu.h **** #endif  
 681:G:/dt_g1_balancing_plate_wise20192020/XMC/Libraries/XMCLib/inc\xmc4_scu.h **** #if defined(SDMMC)
 682:G:/dt_g1_balancing_plate_wise20192020/XMC/Libraries/XMCLib/inc\xmc4_scu.h ****   XMC_SCU_CLOCK_SLEEP_MODE_CONFIG_DISABLE_SDMMC = 0,/**< SDMMC clock disabled in SLEEP state */
 683:G:/dt_g1_balancing_plate_wise20192020/XMC/Libraries/XMCLib/inc\xmc4_scu.h ****   XMC_SCU_CLOCK_SLEEP_MODE_CONFIG_ENABLE_SDMMC = SCU_CLK_SLEEPCR_MMCCR_Msk,/**< SDMMC clock enabled
 684:G:/dt_g1_balancing_plate_wise20192020/XMC/Libraries/XMCLib/inc\xmc4_scu.h **** #endif  
 685:G:/dt_g1_balancing_plate_wise20192020/XMC/Libraries/XMCLib/inc\xmc4_scu.h **** #if defined(ETH0)
 686:G:/dt_g1_balancing_plate_wise20192020/XMC/Libraries/XMCLib/inc\xmc4_scu.h ****   XMC_SCU_CLOCK_SLEEP_MODE_CONFIG_DISABLE_ETH = 0,  /**< ETH clock disabled in SLEEP state */
 687:G:/dt_g1_balancing_plate_wise20192020/XMC/Libraries/XMCLib/inc\xmc4_scu.h ****   XMC_SCU_CLOCK_SLEEP_MODE_CONFIG_ENABLE_ETH = SCU_CLK_SLEEPCR_ETH0CR_Msk,  /**< ETH clock enabled 
 688:G:/dt_g1_balancing_plate_wise20192020/XMC/Libraries/XMCLib/inc\xmc4_scu.h **** #endif  
 689:G:/dt_g1_balancing_plate_wise20192020/XMC/Libraries/XMCLib/inc\xmc4_scu.h **** #if defined(EBU)
 690:G:/dt_g1_balancing_plate_wise20192020/XMC/Libraries/XMCLib/inc\xmc4_scu.h ****   XMC_SCU_CLOCK_SLEEP_MODE_CONFIG_DISABLE_EBU = 0,  /**< EBU clock disabled in SLEEP state */
 691:G:/dt_g1_balancing_plate_wise20192020/XMC/Libraries/XMCLib/inc\xmc4_scu.h ****   XMC_SCU_CLOCK_SLEEP_MODE_CONFIG_ENABLE_EBU = SCU_CLK_SLEEPCR_EBUCR_Msk,  /**< EBU clock enabled i
 692:G:/dt_g1_balancing_plate_wise20192020/XMC/Libraries/XMCLib/inc\xmc4_scu.h **** #endif  
 693:G:/dt_g1_balancing_plate_wise20192020/XMC/Libraries/XMCLib/inc\xmc4_scu.h ****   XMC_SCU_CLOCK_SLEEP_MODE_CONFIG_DISABLED_CCU = 0,  /**< CCU clock disabled in SLEEP state */
 694:G:/dt_g1_balancing_plate_wise20192020/XMC/Libraries/XMCLib/inc\xmc4_scu.h ****   XMC_SCU_CLOCK_SLEEP_MODE_CONFIG_ENABLE_CCU = SCU_CLK_SLEEPCR_CCUCR_Msk,  /**< CCU clock enabled i
 695:G:/dt_g1_balancing_plate_wise20192020/XMC/Libraries/XMCLib/inc\xmc4_scu.h ****   XMC_SCU_CLOCK_SLEEP_MODE_CONFIG_DISABLED_WDT = 0,  /**< WDT clock disabled in SLEEP state */
 696:G:/dt_g1_balancing_plate_wise20192020/XMC/Libraries/XMCLib/inc\xmc4_scu.h ****   XMC_SCU_CLOCK_SLEEP_MODE_CONFIG_ENABLE_WDT = SCU_CLK_SLEEPCR_WDTCR_Msk,  /**< WDT clock enabled i
 697:G:/dt_g1_balancing_plate_wise20192020/XMC/Libraries/XMCLib/inc\xmc4_scu.h **** } XMC_SCU_CLOCK_SLEEP_MODE_CONFIG_t;
 698:G:/dt_g1_balancing_plate_wise20192020/XMC/Libraries/XMCLib/inc\xmc4_scu.h **** 
 699:G:/dt_g1_balancing_plate_wise20192020/XMC/Libraries/XMCLib/inc\xmc4_scu.h **** /** 
 700:G:/dt_g1_balancing_plate_wise20192020/XMC/Libraries/XMCLib/inc\xmc4_scu.h ****  *  Defines the source of the system clock and peripherals clock gating in DEEPSLEEP state.
 701:G:/dt_g1_balancing_plate_wise20192020/XMC/Libraries/XMCLib/inc\xmc4_scu.h ****  *  In addition the state of FLASH, PLL and PLLVCO during DEEPSLEEP state.
 702:G:/dt_g1_balancing_plate_wise20192020/XMC/Libraries/XMCLib/inc\xmc4_scu.h ****  *  Use this enum as parameter of XMC_SCU_CLOCK_SetDeepSleepConfig before going to DEEPSLEEP state.
 703:G:/dt_g1_balancing_plate_wise20192020/XMC/Libraries/XMCLib/inc\xmc4_scu.h ****  *
 704:G:/dt_g1_balancing_plate_wise20192020/XMC/Libraries/XMCLib/inc\xmc4_scu.h ****  *  The DEEPSLEEP state of the system corresponds to the DEEPSLEEP state of the CPU. The state is
 705:G:/dt_g1_balancing_plate_wise20192020/XMC/Libraries/XMCLib/inc\xmc4_scu.h ****  *  entered via WFI or WFE instruction of the CPU. In this state the clock to the CPU is
 706:G:/dt_g1_balancing_plate_wise20192020/XMC/Libraries/XMCLib/inc\xmc4_scu.h ****  *  stopped. 
 707:G:/dt_g1_balancing_plate_wise20192020/XMC/Libraries/XMCLib/inc\xmc4_scu.h ****  *
 708:G:/dt_g1_balancing_plate_wise20192020/XMC/Libraries/XMCLib/inc\xmc4_scu.h ****  *  In Deep Sleep state the OSC_HP and the PLL may be switched off. The wake-up logic in the NVIC i
 709:G:/dt_g1_balancing_plate_wise20192020/XMC/Libraries/XMCLib/inc\xmc4_scu.h ****  *  by a free-running clock. Peripherals are only clocked when configured to stay enabled. 
 710:G:/dt_g1_balancing_plate_wise20192020/XMC/Libraries/XMCLib/inc\xmc4_scu.h ****  *  Configuration of peripherals and any SRAM content is preserved.
 711:G:/dt_g1_balancing_plate_wise20192020/XMC/Libraries/XMCLib/inc\xmc4_scu.h ****  *  The Flash module can be put into low-power mode to achieve a further power reduction.
 712:G:/dt_g1_balancing_plate_wise20192020/XMC/Libraries/XMCLib/inc\xmc4_scu.h ****  *  On wake-up Flash module will be restarted again before instructions or data access is possible.
 713:G:/dt_g1_balancing_plate_wise20192020/XMC/Libraries/XMCLib/inc\xmc4_scu.h ****  *  Any interrupt will bring the system back to operation via the NVIC.The clock setup before
 714:G:/dt_g1_balancing_plate_wise20192020/XMC/Libraries/XMCLib/inc\xmc4_scu.h ****  *  entering Deep Sleep state is restored upon wake-up.
 715:G:/dt_g1_balancing_plate_wise20192020/XMC/Libraries/XMCLib/inc\xmc4_scu.h ****  */
 716:G:/dt_g1_balancing_plate_wise20192020/XMC/Libraries/XMCLib/inc\xmc4_scu.h **** typedef enum XMC_SCU_CLOCK_DEEPSLEEP_MODE_CONFIG
 717:G:/dt_g1_balancing_plate_wise20192020/XMC/Libraries/XMCLib/inc\xmc4_scu.h **** {
 718:G:/dt_g1_balancing_plate_wise20192020/XMC/Libraries/XMCLib/inc\xmc4_scu.h ****   XMC_SCU_CLOCK_DEEPSLEEP_MODE_CONFIG_SYSCLK_FOFI = 0,  /**< fOFI used as system clock source in DE
 719:G:/dt_g1_balancing_plate_wise20192020/XMC/Libraries/XMCLib/inc\xmc4_scu.h ****   XMC_SCU_CLOCK_DEEPSLEEP_MODE_CONFIG_SYSCLK_FPLL = SCU_CLK_DSLEEPCR_SYSSEL_Msk,  /**< fPLL used as
 720:G:/dt_g1_balancing_plate_wise20192020/XMC/Libraries/XMCLib/inc\xmc4_scu.h ****   XMC_SCU_CLOCK_DEEPSLEEP_MODE_CONFIG_FLASH_POWERDOWN = SCU_CLK_DSLEEPCR_FPDN_Msk,/**< Flash power 
 721:G:/dt_g1_balancing_plate_wise20192020/XMC/Libraries/XMCLib/inc\xmc4_scu.h ****   XMC_SCU_CLOCK_DEEPSLEEP_MODE_CONFIG_PLL_POWERDOWN = SCU_CLK_DSLEEPCR_PLLPDN_Msk,  /**<  Switch of
 722:G:/dt_g1_balancing_plate_wise20192020/XMC/Libraries/XMCLib/inc\xmc4_scu.h ****   XMC_SCU_CLOCK_DEEPSLEEP_MODE_CONFIG_VCO_POWERDOWN = SCU_CLK_DSLEEPCR_VCOPDN_Msk,  /**<  Switch of
 723:G:/dt_g1_balancing_plate_wise20192020/XMC/Libraries/XMCLib/inc\xmc4_scu.h **** #if defined(USB0)
 724:G:/dt_g1_balancing_plate_wise20192020/XMC/Libraries/XMCLib/inc\xmc4_scu.h ****   XMC_SCU_CLOCK_DEEPSLEEP_MODE_CONFIG_DISABLE_USB = 0,  /**< USB clock disabled in DEEPSLEEP state 
 725:G:/dt_g1_balancing_plate_wise20192020/XMC/Libraries/XMCLib/inc\xmc4_scu.h ****   XMC_SCU_CLOCK_DEEPSLEEP_MODE_CONFIG_ENABLE_USB = SCU_CLK_DSLEEPCR_USBCR_Msk,  /**< USB clock enab
 726:G:/dt_g1_balancing_plate_wise20192020/XMC/Libraries/XMCLib/inc\xmc4_scu.h **** #endif  
 727:G:/dt_g1_balancing_plate_wise20192020/XMC/Libraries/XMCLib/inc\xmc4_scu.h **** #if defined(SDMMC)
 728:G:/dt_g1_balancing_plate_wise20192020/XMC/Libraries/XMCLib/inc\xmc4_scu.h ****   XMC_SCU_CLOCK_DEEPSLEEP_MODE_CONFIG_DISABLE_SDMMC = 0,/**< SDMMC clock disabled in DEEPSLEEP stat
 729:G:/dt_g1_balancing_plate_wise20192020/XMC/Libraries/XMCLib/inc\xmc4_scu.h ****   XMC_SCU_CLOCK_DEEPSLEEP_MODE_CONFIG_ENABLE_SDMMC = SCU_CLK_DSLEEPCR_MMCCR_Msk,/**< SDMMC clock en
 730:G:/dt_g1_balancing_plate_wise20192020/XMC/Libraries/XMCLib/inc\xmc4_scu.h **** #endif  
 731:G:/dt_g1_balancing_plate_wise20192020/XMC/Libraries/XMCLib/inc\xmc4_scu.h **** #if defined(ETH0)
 732:G:/dt_g1_balancing_plate_wise20192020/XMC/Libraries/XMCLib/inc\xmc4_scu.h ****   XMC_SCU_CLOCK_DEEPSLEEP_MODE_CONFIG_DISABLE_ETH = 0,  /**< ETH clock disabled in DEEPSLEEP state 
 733:G:/dt_g1_balancing_plate_wise20192020/XMC/Libraries/XMCLib/inc\xmc4_scu.h ****   XMC_SCU_CLOCK_DEEPSLEEP_MODE_CONFIG_ENABLE_ETH = SCU_CLK_DSLEEPCR_ETH0CR_Msk,  /**< ETH clock ena
 734:G:/dt_g1_balancing_plate_wise20192020/XMC/Libraries/XMCLib/inc\xmc4_scu.h **** #endif  
 735:G:/dt_g1_balancing_plate_wise20192020/XMC/Libraries/XMCLib/inc\xmc4_scu.h **** #if defined(EBU)
 736:G:/dt_g1_balancing_plate_wise20192020/XMC/Libraries/XMCLib/inc\xmc4_scu.h ****   XMC_SCU_CLOCK_DEEPSLEEP_MODE_CONFIG_DISABLE_EBU = 0,  /**< EBU clock disabled in DEEPSLEEP state 
 737:G:/dt_g1_balancing_plate_wise20192020/XMC/Libraries/XMCLib/inc\xmc4_scu.h ****   XMC_SCU_CLOCK_DEEPSLEEP_MODE_CONFIG_ENABLE_EBU = SCU_CLK_DSLEEPCR_EBUCR_Msk,  /**< EBU clock enab
 738:G:/dt_g1_balancing_plate_wise20192020/XMC/Libraries/XMCLib/inc\xmc4_scu.h **** #endif  
 739:G:/dt_g1_balancing_plate_wise20192020/XMC/Libraries/XMCLib/inc\xmc4_scu.h ****   XMC_SCU_CLOCK_DEEPSLEEP_MODE_CONFIG_DISABLE_CCU = 0,  /**< CCU clock disabled in DEEPSLEEP state 
 740:G:/dt_g1_balancing_plate_wise20192020/XMC/Libraries/XMCLib/inc\xmc4_scu.h ****   XMC_SCU_CLOCK_DEEPSLEEP_MODE_CONFIG_ENABLE_CCU = SCU_CLK_DSLEEPCR_CCUCR_Msk,  /**< CCU clock enab
 741:G:/dt_g1_balancing_plate_wise20192020/XMC/Libraries/XMCLib/inc\xmc4_scu.h ****   XMC_SCU_CLOCK_DEEPSLEEP_MODE_CONFIG_DISABLE_WDT = 0,  /**< WDT clock disabled in DEEPSLEEP state 
 742:G:/dt_g1_balancing_plate_wise20192020/XMC/Libraries/XMCLib/inc\xmc4_scu.h ****   XMC_SCU_CLOCK_DEEPSLEEP_MODE_CONFIG_ENABLE_WDT = SCU_CLK_DSLEEPCR_WDTCR_Msk,  /**< WDT clock enab
 743:G:/dt_g1_balancing_plate_wise20192020/XMC/Libraries/XMCLib/inc\xmc4_scu.h **** } XMC_SCU_CLOCK_DEEPSLEEP_MODE_CONFIG_t;
 744:G:/dt_g1_balancing_plate_wise20192020/XMC/Libraries/XMCLib/inc\xmc4_scu.h **** 
 745:G:/dt_g1_balancing_plate_wise20192020/XMC/Libraries/XMCLib/inc\xmc4_scu.h **** /** 
 746:G:/dt_g1_balancing_plate_wise20192020/XMC/Libraries/XMCLib/inc\xmc4_scu.h ****  * Defines status of EVR13 regulator
 747:G:/dt_g1_balancing_plate_wise20192020/XMC/Libraries/XMCLib/inc\xmc4_scu.h ****  */
 748:G:/dt_g1_balancing_plate_wise20192020/XMC/Libraries/XMCLib/inc\xmc4_scu.h **** typedef enum XMC_SCU_POWER_EVR_STATUS
 749:G:/dt_g1_balancing_plate_wise20192020/XMC/Libraries/XMCLib/inc\xmc4_scu.h **** {
 750:G:/dt_g1_balancing_plate_wise20192020/XMC/Libraries/XMCLib/inc\xmc4_scu.h ****   XMC_SCU_POWER_EVR_STATUS_OK = 0, /**< EVR13 regulator No overvoltage condition */
 751:G:/dt_g1_balancing_plate_wise20192020/XMC/Libraries/XMCLib/inc\xmc4_scu.h ****   XMC_SCU_POWER_EVR_STATUS_EVR13_OVERVOLTAGE = SCU_POWER_EVRSTAT_OV13_Msk /**< EVR13 regulator is i
 752:G:/dt_g1_balancing_plate_wise20192020/XMC/Libraries/XMCLib/inc\xmc4_scu.h **** } XMC_SCU_POWER_EVR_STATUS_t;
 753:G:/dt_g1_balancing_plate_wise20192020/XMC/Libraries/XMCLib/inc\xmc4_scu.h **** 
 754:G:/dt_g1_balancing_plate_wise20192020/XMC/Libraries/XMCLib/inc\xmc4_scu.h **** /**
 755:G:/dt_g1_balancing_plate_wise20192020/XMC/Libraries/XMCLib/inc\xmc4_scu.h ****  * Define status of external hibernate control  
 756:G:/dt_g1_balancing_plate_wise20192020/XMC/Libraries/XMCLib/inc\xmc4_scu.h ****  */
 757:G:/dt_g1_balancing_plate_wise20192020/XMC/Libraries/XMCLib/inc\xmc4_scu.h **** typedef enum XMC_SCU_HIB_CTRL_STATUS
 758:G:/dt_g1_balancing_plate_wise20192020/XMC/Libraries/XMCLib/inc\xmc4_scu.h **** {
 759:G:/dt_g1_balancing_plate_wise20192020/XMC/Libraries/XMCLib/inc\xmc4_scu.h ****   XMC_SCU_HIB_CTRL_STATUS_NO_ACTIVE = 0, /**< Hibernate not driven active to pads */
 760:G:/dt_g1_balancing_plate_wise20192020/XMC/Libraries/XMCLib/inc\xmc4_scu.h ****   XMC_SCU_HIB_CTRL_STATUS_ACTIVE = SCU_HIBERNATE_HDSTAT_HIBNOUT_Msk, /**< Hibernate driven active t
 761:G:/dt_g1_balancing_plate_wise20192020/XMC/Libraries/XMCLib/inc\xmc4_scu.h **** } XMC_SCU_HIB_CTRL_STATUS_t;
 762:G:/dt_g1_balancing_plate_wise20192020/XMC/Libraries/XMCLib/inc\xmc4_scu.h **** 
 763:G:/dt_g1_balancing_plate_wise20192020/XMC/Libraries/XMCLib/inc\xmc4_scu.h **** /** 
 764:G:/dt_g1_balancing_plate_wise20192020/XMC/Libraries/XMCLib/inc\xmc4_scu.h ****  *  Hibernate domain event status
 765:G:/dt_g1_balancing_plate_wise20192020/XMC/Libraries/XMCLib/inc\xmc4_scu.h ****  */
 766:G:/dt_g1_balancing_plate_wise20192020/XMC/Libraries/XMCLib/inc\xmc4_scu.h **** typedef enum XMC_SCU_HIB_EVENT
 767:G:/dt_g1_balancing_plate_wise20192020/XMC/Libraries/XMCLib/inc\xmc4_scu.h **** {
 768:G:/dt_g1_balancing_plate_wise20192020/XMC/Libraries/XMCLib/inc\xmc4_scu.h ****   XMC_SCU_HIB_EVENT_WAKEUP_ON_POS_EDGE = SCU_HIBERNATE_HDCR_WKPEP_Msk, /**< Wake-up on positive edg
 769:G:/dt_g1_balancing_plate_wise20192020/XMC/Libraries/XMCLib/inc\xmc4_scu.h ****   XMC_SCU_HIB_EVENT_WAKEUP_ON_NEG_EDGE = SCU_HIBERNATE_HDCR_WKPEN_Msk, /**< Wake-up on negative edg
 770:G:/dt_g1_balancing_plate_wise20192020/XMC/Libraries/XMCLib/inc\xmc4_scu.h ****   XMC_SCU_HIB_EVENT_WAKEUP_ON_RTC = SCU_HIBERNATE_HDCR_RTCE_Msk, /**< Wake-up on RTC event */
 771:G:/dt_g1_balancing_plate_wise20192020/XMC/Libraries/XMCLib/inc\xmc4_scu.h ****   XMC_SCU_HIB_EVENT_ULPWDG = SCU_HIBERNATE_HDCR_ULPWDGEN_Msk, /**< ULP watchdog alarm status */
 772:G:/dt_g1_balancing_plate_wise20192020/XMC/Libraries/XMCLib/inc\xmc4_scu.h **** #if (defined(DOXYGEN) || (UC_SERIES == XMC44) || (UC_SERIES == XMC42) || (UC_SERIES == XMC41))
 773:G:/dt_g1_balancing_plate_wise20192020/XMC/Libraries/XMCLib/inc\xmc4_scu.h ****   XMC_SCU_HIB_EVENT_LPAC_VBAT_POSEDGE = SCU_HIBERNATE_HDSTAT_VBATPEV_Msk, /**< Wake-up on LPAC posi
 774:G:/dt_g1_balancing_plate_wise20192020/XMC/Libraries/XMCLib/inc\xmc4_scu.h ****   XMC_SCU_HIB_EVENT_LPAC_VBAT_NEGEDGE = SCU_HIBERNATE_HDSTAT_VBATNEV_Msk, /**< Wake-up on LPAC nega
 775:G:/dt_g1_balancing_plate_wise20192020/XMC/Libraries/XMCLib/inc\xmc4_scu.h ****   XMC_SCU_HIB_EVENT_LPAC_HIB_IO_0_POSEDGE = SCU_HIBERNATE_HDSTAT_AHIBIO0PEV_Msk, /**< Wake-up on LP
 776:G:/dt_g1_balancing_plate_wise20192020/XMC/Libraries/XMCLib/inc\xmc4_scu.h ****   XMC_SCU_HIB_EVENT_LPAC_HIB_IO_0_NEGEDGE = SCU_HIBERNATE_HDSTAT_AHIBIO0NEV_Msk, /**< Wake-up on LP
 777:G:/dt_g1_balancing_plate_wise20192020/XMC/Libraries/XMCLib/inc\xmc4_scu.h **** #if (defined(DOXYGEN) || ((UC_SERIES == XMC44) && (UC_PACKAGE == LQFP100)))
 778:G:/dt_g1_balancing_plate_wise20192020/XMC/Libraries/XMCLib/inc\xmc4_scu.h ****   XMC_SCU_HIB_EVENT_LPAC_HIB_IO_1_POSEDGE = SCU_HIBERNATE_HDSTAT_AHIBIO1PEV_Msk, /**< Wake-up on LP
 779:G:/dt_g1_balancing_plate_wise20192020/XMC/Libraries/XMCLib/inc\xmc4_scu.h ****   XMC_SCU_HIB_EVENT_LPAC_HIB_IO_1_NEGEDGE = SCU_HIBERNATE_HDSTAT_AHIBIO1NEV_Msk, /**< Wake-up on LP
 780:G:/dt_g1_balancing_plate_wise20192020/XMC/Libraries/XMCLib/inc\xmc4_scu.h **** #endif
 781:G:/dt_g1_balancing_plate_wise20192020/XMC/Libraries/XMCLib/inc\xmc4_scu.h **** #endif  
 782:G:/dt_g1_balancing_plate_wise20192020/XMC/Libraries/XMCLib/inc\xmc4_scu.h **** } XMC_SCU_HIB_EVENT_t;
 783:G:/dt_g1_balancing_plate_wise20192020/XMC/Libraries/XMCLib/inc\xmc4_scu.h **** 
 784:G:/dt_g1_balancing_plate_wise20192020/XMC/Libraries/XMCLib/inc\xmc4_scu.h **** /** 
 785:G:/dt_g1_balancing_plate_wise20192020/XMC/Libraries/XMCLib/inc\xmc4_scu.h ****   * Hibernate domain dedicated pins
 786:G:/dt_g1_balancing_plate_wise20192020/XMC/Libraries/XMCLib/inc\xmc4_scu.h ****   */
 787:G:/dt_g1_balancing_plate_wise20192020/XMC/Libraries/XMCLib/inc\xmc4_scu.h **** typedef enum XMC_SCU_HIB_IO
 788:G:/dt_g1_balancing_plate_wise20192020/XMC/Libraries/XMCLib/inc\xmc4_scu.h **** {
 789:G:/dt_g1_balancing_plate_wise20192020/XMC/Libraries/XMCLib/inc\xmc4_scu.h ****   XMC_SCU_HIB_IO_0 = 0, /**< HIB_IO_0 pin. 
 790:G:/dt_g1_balancing_plate_wise20192020/XMC/Libraries/XMCLib/inc\xmc4_scu.h ****                              At the first power-up and with every reset of the hibernate domain thi
 791:G:/dt_g1_balancing_plate_wise20192020/XMC/Libraries/XMCLib/inc\xmc4_scu.h **** #if (defined(DOXYGEN) || (UC_PACKAGE == BGA196) || (UC_PACKAGE == BGA144) || (UC_PACKAGE == LQFP144
 792:G:/dt_g1_balancing_plate_wise20192020/XMC/Libraries/XMCLib/inc\xmc4_scu.h ****   XMC_SCU_HIB_IO_1 = 1 /**< HIB_IO_1 pin. 
 793:G:/dt_g1_balancing_plate_wise20192020/XMC/Libraries/XMCLib/inc\xmc4_scu.h ****                             At the first power-up and with every reset of the hibernate domain this
 794:G:/dt_g1_balancing_plate_wise20192020/XMC/Libraries/XMCLib/inc\xmc4_scu.h ****                             @note : Only available in certain packages*/
 795:G:/dt_g1_balancing_plate_wise20192020/XMC/Libraries/XMCLib/inc\xmc4_scu.h **** #endif  
 796:G:/dt_g1_balancing_plate_wise20192020/XMC/Libraries/XMCLib/inc\xmc4_scu.h **** } XMC_SCU_HIB_IO_t;
 797:G:/dt_g1_balancing_plate_wise20192020/XMC/Libraries/XMCLib/inc\xmc4_scu.h **** 
 798:G:/dt_g1_balancing_plate_wise20192020/XMC/Libraries/XMCLib/inc\xmc4_scu.h **** /**
 799:G:/dt_g1_balancing_plate_wise20192020/XMC/Libraries/XMCLib/inc\xmc4_scu.h ****  * HIB_IOx pin I/O control
 800:G:/dt_g1_balancing_plate_wise20192020/XMC/Libraries/XMCLib/inc\xmc4_scu.h ****  */
 801:G:/dt_g1_balancing_plate_wise20192020/XMC/Libraries/XMCLib/inc\xmc4_scu.h **** typedef enum XMC_SCU_HIB_PIN_MODE
 802:G:/dt_g1_balancing_plate_wise20192020/XMC/Libraries/XMCLib/inc\xmc4_scu.h **** {
 803:G:/dt_g1_balancing_plate_wise20192020/XMC/Libraries/XMCLib/inc\xmc4_scu.h ****   XMC_SCU_HIB_PIN_MODE_INPUT_PULL_NONE = 0 << SCU_HIBERNATE_HDCR_HIBIO0SEL_Pos, /**< Direct input, 
 804:G:/dt_g1_balancing_plate_wise20192020/XMC/Libraries/XMCLib/inc\xmc4_scu.h ****   XMC_SCU_HIB_PIN_MODE_INPUT_PULL_DOWN = 1 << SCU_HIBERNATE_HDCR_HIBIO0SEL_Pos, /**< Direct input, 
 805:G:/dt_g1_balancing_plate_wise20192020/XMC/Libraries/XMCLib/inc\xmc4_scu.h ****   XMC_SCU_HIB_PIN_MODE_INPUT_PULL_UP = 2 << SCU_HIBERNATE_HDCR_HIBIO0SEL_Pos, /**< Direct input, in
 806:G:/dt_g1_balancing_plate_wise20192020/XMC/Libraries/XMCLib/inc\xmc4_scu.h ****   XMC_SCU_HIB_PIN_MODE_OUTPUT_PUSH_PULL_HIBCTRL = 8 << SCU_HIBERNATE_HDCR_HIBIO0SEL_Pos, /**< Push-
 807:G:/dt_g1_balancing_plate_wise20192020/XMC/Libraries/XMCLib/inc\xmc4_scu.h ****   XMC_SCU_HIB_PIN_MODE_OUTPUT_PUSH_PULL_WDTSRV = 9 << SCU_HIBERNATE_HDCR_HIBIO0SEL_Pos, /**< Push-p
 808:G:/dt_g1_balancing_plate_wise20192020/XMC/Libraries/XMCLib/inc\xmc4_scu.h ****   XMC_SCU_HIB_PIN_MODE_OUTPUT_PUSH_PULL_GPIO = 10 << SCU_HIBERNATE_HDCR_HIBIO0SEL_Pos, /**< Push-pu
 809:G:/dt_g1_balancing_plate_wise20192020/XMC/Libraries/XMCLib/inc\xmc4_scu.h ****   XMC_SCU_HIB_PIN_MODE_OUTPUT_OPEN_DRAIN_HIBCTRL = 12 << SCU_HIBERNATE_HDCR_HIBIO0SEL_Pos, /**< Ope
 810:G:/dt_g1_balancing_plate_wise20192020/XMC/Libraries/XMCLib/inc\xmc4_scu.h ****   XMC_SCU_HIB_PIN_MODE_OUTPUT_OPEN_DRAIN_WDTSRV = 13 << SCU_HIBERNATE_HDCR_HIBIO0SEL_Pos, /**< Open
 811:G:/dt_g1_balancing_plate_wise20192020/XMC/Libraries/XMCLib/inc\xmc4_scu.h ****   XMC_SCU_HIB_PIN_MODE_OUTPUT_OPEN_DRAIN_GPIO = 14 << SCU_HIBERNATE_HDCR_HIBIO0SEL_Pos, /**< Open d
 812:G:/dt_g1_balancing_plate_wise20192020/XMC/Libraries/XMCLib/inc\xmc4_scu.h **** } XMC_SCU_HIB_PIN_MODE_t;
 813:G:/dt_g1_balancing_plate_wise20192020/XMC/Libraries/XMCLib/inc\xmc4_scu.h **** 
 814:G:/dt_g1_balancing_plate_wise20192020/XMC/Libraries/XMCLib/inc\xmc4_scu.h **** /**
 815:G:/dt_g1_balancing_plate_wise20192020/XMC/Libraries/XMCLib/inc\xmc4_scu.h ****  * Selects the output polarity of the HIB_IOx
 816:G:/dt_g1_balancing_plate_wise20192020/XMC/Libraries/XMCLib/inc\xmc4_scu.h ****  */
 817:G:/dt_g1_balancing_plate_wise20192020/XMC/Libraries/XMCLib/inc\xmc4_scu.h **** typedef enum XMC_SCU_HIB_IO_OUTPUT_LEVEL
 818:G:/dt_g1_balancing_plate_wise20192020/XMC/Libraries/XMCLib/inc\xmc4_scu.h **** {
 819:G:/dt_g1_balancing_plate_wise20192020/XMC/Libraries/XMCLib/inc\xmc4_scu.h ****   XMC_SCU_HIB_IO_OUTPUT_LEVEL_LOW = 0 << SCU_HIBERNATE_HDCR_HIBIO0POL_Pos, /**< Direct value */
 820:G:/dt_g1_balancing_plate_wise20192020/XMC/Libraries/XMCLib/inc\xmc4_scu.h ****   XMC_SCU_HIB_IO_OUTPUT_LEVEL_HIGH = 1 << SCU_HIBERNATE_HDCR_HIBIO0POL_Pos /**< Inverted value */
 821:G:/dt_g1_balancing_plate_wise20192020/XMC/Libraries/XMCLib/inc\xmc4_scu.h **** } XMC_SCU_HIB_IO_OUTPUT_LEVEL_t;
 822:G:/dt_g1_balancing_plate_wise20192020/XMC/Libraries/XMCLib/inc\xmc4_scu.h **** 
 823:G:/dt_g1_balancing_plate_wise20192020/XMC/Libraries/XMCLib/inc\xmc4_scu.h **** /**
 824:G:/dt_g1_balancing_plate_wise20192020/XMC/Libraries/XMCLib/inc\xmc4_scu.h ****  * Selects hibernate mode
 825:G:/dt_g1_balancing_plate_wise20192020/XMC/Libraries/XMCLib/inc\xmc4_scu.h ****  */
 826:G:/dt_g1_balancing_plate_wise20192020/XMC/Libraries/XMCLib/inc\xmc4_scu.h **** typedef enum XMC_SCU_HIB_HIBERNATE_MODE
 827:G:/dt_g1_balancing_plate_wise20192020/XMC/Libraries/XMCLib/inc\xmc4_scu.h **** {
 828:G:/dt_g1_balancing_plate_wise20192020/XMC/Libraries/XMCLib/inc\xmc4_scu.h ****   XMC_SCU_HIB_HIBERNATE_MODE_EXTERNAL = 0, /**< Request external hibernate mode */
 829:G:/dt_g1_balancing_plate_wise20192020/XMC/Libraries/XMCLib/inc\xmc4_scu.h **** #if (defined(DOXYGEN) || (UC_SERIES == XMC44) || (UC_SERIES == XMC42) || (UC_SERIES == XMC41))
 830:G:/dt_g1_balancing_plate_wise20192020/XMC/Libraries/XMCLib/inc\xmc4_scu.h ****   XMC_SCU_HIB_HIBERNATE_MODE_INTERNAL = 1, /**< Request internal hibernate mode. @note Only availab
 831:G:/dt_g1_balancing_plate_wise20192020/XMC/Libraries/XMCLib/inc\xmc4_scu.h **** #endif
 832:G:/dt_g1_balancing_plate_wise20192020/XMC/Libraries/XMCLib/inc\xmc4_scu.h **** } XMC_SCU_HIB_HIBERNATE_MODE_t;
 833:G:/dt_g1_balancing_plate_wise20192020/XMC/Libraries/XMCLib/inc\xmc4_scu.h **** 
 834:G:/dt_g1_balancing_plate_wise20192020/XMC/Libraries/XMCLib/inc\xmc4_scu.h **** /**
 835:G:/dt_g1_balancing_plate_wise20192020/XMC/Libraries/XMCLib/inc\xmc4_scu.h ****  * Selects input signal HIB_SR0 of ERU0
 836:G:/dt_g1_balancing_plate_wise20192020/XMC/Libraries/XMCLib/inc\xmc4_scu.h ****  */
 837:G:/dt_g1_balancing_plate_wise20192020/XMC/Libraries/XMCLib/inc\xmc4_scu.h **** typedef enum XMC_SCU_HIB_SR0_INPUT
 838:G:/dt_g1_balancing_plate_wise20192020/XMC/Libraries/XMCLib/inc\xmc4_scu.h **** {
 839:G:/dt_g1_balancing_plate_wise20192020/XMC/Libraries/XMCLib/inc\xmc4_scu.h ****   XMC_SCU_HIB_SR0_INPUT_HIB_IO_0 = SCU_HIBERNATE_HDCR_GPI0SEL_Msk, /**< Set HIB_SR0 to HIB_IO_0 dig
 840:G:/dt_g1_balancing_plate_wise20192020/XMC/Libraries/XMCLib/inc\xmc4_scu.h **** #if (defined(DOXYGEN) || (UC_PACKAGE == BGA196) || (UC_PACKAGE == BGA144) || (UC_PACKAGE == LQFP144
 841:G:/dt_g1_balancing_plate_wise20192020/XMC/Libraries/XMCLib/inc\xmc4_scu.h ****   XMC_SCU_HIB_SR0_INPUT_HIB_IO_1 = 0, /**< Set HIB_SR0 to HIB_IO_1 digital input. @note Only availa
 842:G:/dt_g1_balancing_plate_wise20192020/XMC/Libraries/XMCLib/inc\xmc4_scu.h **** #endif  
 843:G:/dt_g1_balancing_plate_wise20192020/XMC/Libraries/XMCLib/inc\xmc4_scu.h **** #if (defined(DOXYGEN) || (UC_SERIES == XMC44) || (UC_SERIES == XMC42) || (UC_SERIES == XMC41))
 844:G:/dt_g1_balancing_plate_wise20192020/XMC/Libraries/XMCLib/inc\xmc4_scu.h ****   XMC_SCU_HIB_SR0_INPUT_ACMP0 = SCU_HIBERNATE_HDCR_ADIG0SEL_Msk,  /**< Set HIB_SR0 to LPAC CMP0. @n
 845:G:/dt_g1_balancing_plate_wise20192020/XMC/Libraries/XMCLib/inc\xmc4_scu.h **** #endif
 846:G:/dt_g1_balancing_plate_wise20192020/XMC/Libraries/XMCLib/inc\xmc4_scu.h **** } XMC_SCU_HIB_SR0_INPUT_t;
 847:G:/dt_g1_balancing_plate_wise20192020/XMC/Libraries/XMCLib/inc\xmc4_scu.h **** 
 848:G:/dt_g1_balancing_plate_wise20192020/XMC/Libraries/XMCLib/inc\xmc4_scu.h **** #if (defined(DOXYGEN) || (UC_SERIES == XMC44) || (UC_SERIES == XMC42) || (UC_SERIES == XMC41))
 849:G:/dt_g1_balancing_plate_wise20192020/XMC/Libraries/XMCLib/inc\xmc4_scu.h **** 
 850:G:/dt_g1_balancing_plate_wise20192020/XMC/Libraries/XMCLib/inc\xmc4_scu.h **** #if ((UC_SERIES == XMC44) && (UC_PACKAGE == LQFP100))
 851:G:/dt_g1_balancing_plate_wise20192020/XMC/Libraries/XMCLib/inc\xmc4_scu.h **** /**
 852:G:/dt_g1_balancing_plate_wise20192020/XMC/Libraries/XMCLib/inc\xmc4_scu.h ****  * Selects input signal HIB_SR1 of ERU0. @note Only available in XMC44 in certain packages.
 853:G:/dt_g1_balancing_plate_wise20192020/XMC/Libraries/XMCLib/inc\xmc4_scu.h ****  */
 854:G:/dt_g1_balancing_plate_wise20192020/XMC/Libraries/XMCLib/inc\xmc4_scu.h **** typedef enum XMC_SCU_HIB_SR1_INPUT
 855:G:/dt_g1_balancing_plate_wise20192020/XMC/Libraries/XMCLib/inc\xmc4_scu.h **** {
 856:G:/dt_g1_balancing_plate_wise20192020/XMC/Libraries/XMCLib/inc\xmc4_scu.h ****   XMC_SCU_HIB_SR1_INPUT_HIB_IO_0 = SCU_HIBERNATE_HDCR_GPI1SEL_Msk, /**< Set HIB_SR1 to HIB_IO_0 dig
 857:G:/dt_g1_balancing_plate_wise20192020/XMC/Libraries/XMCLib/inc\xmc4_scu.h ****   XMC_SCU_HIB_SR1_INPUT_HIB_IO_1 = 0, /**< Set HIB_SR1 to HIB_IO_1 digital input.  */
 858:G:/dt_g1_balancing_plate_wise20192020/XMC/Libraries/XMCLib/inc\xmc4_scu.h ****   XMC_SCU_HIB_SR1_INPUT_ACMP1 = SCU_HIBERNATE_HDCR_ADIG1SEL_Msk,  /**< Set HIB_SR0 to LPAC CMP1. */
 859:G:/dt_g1_balancing_plate_wise20192020/XMC/Libraries/XMCLib/inc\xmc4_scu.h ****   XMC_SCU_HIB_SR1_INPUT_XTAL_GPI = SCU_HIBERNATE_HDCR_XTALGPI1SEL_Msk,  /**< Set HIB_SR0 to RTC_XTA
 860:G:/dt_g1_balancing_plate_wise20192020/XMC/Libraries/XMCLib/inc\xmc4_scu.h **** } XMC_SCU_HIB_SR1_INPUT_t;
 861:G:/dt_g1_balancing_plate_wise20192020/XMC/Libraries/XMCLib/inc\xmc4_scu.h **** #endif
 862:G:/dt_g1_balancing_plate_wise20192020/XMC/Libraries/XMCLib/inc\xmc4_scu.h **** 
 863:G:/dt_g1_balancing_plate_wise20192020/XMC/Libraries/XMCLib/inc\xmc4_scu.h **** /**
 864:G:/dt_g1_balancing_plate_wise20192020/XMC/Libraries/XMCLib/inc\xmc4_scu.h ****  * HIB LPAC input selection
 865:G:/dt_g1_balancing_plate_wise20192020/XMC/Libraries/XMCLib/inc\xmc4_scu.h ****  */
 866:G:/dt_g1_balancing_plate_wise20192020/XMC/Libraries/XMCLib/inc\xmc4_scu.h **** typedef enum XMC_SCU_HIB_LPAC_INPUT
 867:G:/dt_g1_balancing_plate_wise20192020/XMC/Libraries/XMCLib/inc\xmc4_scu.h **** {
 868:G:/dt_g1_balancing_plate_wise20192020/XMC/Libraries/XMCLib/inc\xmc4_scu.h ****   XMC_SCU_HIB_LPAC_INPUT_DISABLED = 0 << SCU_HIBERNATE_LPACCONF_CMPEN_Pos, /**< Comparator permanen
 869:G:/dt_g1_balancing_plate_wise20192020/XMC/Libraries/XMCLib/inc\xmc4_scu.h ****   XMC_SCU_HIB_LPAC_INPUT_VBAT = 0x1 << SCU_HIBERNATE_LPACCONF_CMPEN_Pos, /**< Comparator activated 
 870:G:/dt_g1_balancing_plate_wise20192020/XMC/Libraries/XMCLib/inc\xmc4_scu.h ****   XMC_SCU_HIB_LPAC_INPUT_HIB_IO_0 = 0x2 << SCU_HIBERNATE_LPACCONF_CMPEN_Pos, /**< Comparator activa
 871:G:/dt_g1_balancing_plate_wise20192020/XMC/Libraries/XMCLib/inc\xmc4_scu.h **** #if (defined(DOXYGEN) || ((UC_SERIES == XMC44) && (UC_PACKAGE == LQFP100)))      
 872:G:/dt_g1_balancing_plate_wise20192020/XMC/Libraries/XMCLib/inc\xmc4_scu.h ****   XMC_SCU_HIB_LPAC_INPUT_HIB_IO_1 = 0x4 << SCU_HIBERNATE_LPACCONF_CMPEN_Pos, /**< Comparator activa
 873:G:/dt_g1_balancing_plate_wise20192020/XMC/Libraries/XMCLib/inc\xmc4_scu.h **** #endif  
 874:G:/dt_g1_balancing_plate_wise20192020/XMC/Libraries/XMCLib/inc\xmc4_scu.h **** } XMC_SCU_HIB_LPAC_INPUT_t;
 875:G:/dt_g1_balancing_plate_wise20192020/XMC/Libraries/XMCLib/inc\xmc4_scu.h **** 
 876:G:/dt_g1_balancing_plate_wise20192020/XMC/Libraries/XMCLib/inc\xmc4_scu.h **** /**
 877:G:/dt_g1_balancing_plate_wise20192020/XMC/Libraries/XMCLib/inc\xmc4_scu.h ****  * HIB LPAC start trigger selection for selected inputs
 878:G:/dt_g1_balancing_plate_wise20192020/XMC/Libraries/XMCLib/inc\xmc4_scu.h ****  */
 879:G:/dt_g1_balancing_plate_wise20192020/XMC/Libraries/XMCLib/inc\xmc4_scu.h **** typedef enum XMC_SCU_HIB_LPAC_TRIGGER
 880:G:/dt_g1_balancing_plate_wise20192020/XMC/Libraries/XMCLib/inc\xmc4_scu.h **** {
 881:G:/dt_g1_balancing_plate_wise20192020/XMC/Libraries/XMCLib/inc\xmc4_scu.h ****   XMC_SCU_HIB_LPAC_TRIGGER_SUBSECOND_INTERVAL_COUNTER = 0 << SCU_HIBERNATE_LPACCONF_TRIGSEL_Pos, /*
 882:G:/dt_g1_balancing_plate_wise20192020/XMC/Libraries/XMCLib/inc\xmc4_scu.h ****   XMC_SCU_HIB_LPAC_TRIGGER_RTC_ALARM_EVENT = 0x1 << SCU_HIBERNATE_LPACCONF_TRIGSEL_Pos, /**< RTC al
 883:G:/dt_g1_balancing_plate_wise20192020/XMC/Libraries/XMCLib/inc\xmc4_scu.h ****   XMC_SCU_HIB_LPAC_TRIGGER_RTC_PERIODIC_EVENT = 0x2 << SCU_HIBERNATE_LPACCONF_TRIGSEL_Pos, /**< RTC
 884:G:/dt_g1_balancing_plate_wise20192020/XMC/Libraries/XMCLib/inc\xmc4_scu.h ****   XMC_SCU_HIB_LPAC_TRIGGER_ON_WAKEUP_POSITIVE_EDGE_EVENT = 0x3 << SCU_HIBERNATE_LPACCONF_TRIGSEL_Po
 885:G:/dt_g1_balancing_plate_wise20192020/XMC/Libraries/XMCLib/inc\xmc4_scu.h ****   XMC_SCU_HIB_LPAC_TRIGGER_ON_WAKEUP_NEGATIVE_EDGE_EVENT = 0x5 << SCU_HIBERNATE_LPACCONF_TRIGSEL_Po
 886:G:/dt_g1_balancing_plate_wise20192020/XMC/Libraries/XMCLib/inc\xmc4_scu.h ****   XMC_SCU_HIB_LPAC_TRIGGER_CONTINOUS = 0x6 << SCU_HIBERNATE_LPACCONF_TRIGSEL_Pos, /**< Continuous m
 887:G:/dt_g1_balancing_plate_wise20192020/XMC/Libraries/XMCLib/inc\xmc4_scu.h ****   XMC_SCU_HIB_LPAC_TRIGGER_SINGLE_SHOT = 0x7 << SCU_HIBERNATE_LPACCONF_TRIGSEL_Pos, /**< Single sho
 888:G:/dt_g1_balancing_plate_wise20192020/XMC/Libraries/XMCLib/inc\xmc4_scu.h **** } XMC_SCU_HIB_LPAC_TRIGGER_t;
 889:G:/dt_g1_balancing_plate_wise20192020/XMC/Libraries/XMCLib/inc\xmc4_scu.h **** 
 890:G:/dt_g1_balancing_plate_wise20192020/XMC/Libraries/XMCLib/inc\xmc4_scu.h **** /**
 891:G:/dt_g1_balancing_plate_wise20192020/XMC/Libraries/XMCLib/inc\xmc4_scu.h ****  * HIB LPAC status
 892:G:/dt_g1_balancing_plate_wise20192020/XMC/Libraries/XMCLib/inc\xmc4_scu.h ****  */
 893:G:/dt_g1_balancing_plate_wise20192020/XMC/Libraries/XMCLib/inc\xmc4_scu.h **** typedef enum XMC_SCU_HIB_LPAC_STATUS
 894:G:/dt_g1_balancing_plate_wise20192020/XMC/Libraries/XMCLib/inc\xmc4_scu.h **** {
 895:G:/dt_g1_balancing_plate_wise20192020/XMC/Libraries/XMCLib/inc\xmc4_scu.h ****   XMC_SCU_HIB_LPAC_STATUS_VBAT_COMPARE_DONE = SCU_HIBERNATE_LPACST_VBATSCMP_Msk, /**< VBAT compare 
 896:G:/dt_g1_balancing_plate_wise20192020/XMC/Libraries/XMCLib/inc\xmc4_scu.h ****   XMC_SCU_HIB_LPAC_STATUS_HIB_IO_0_COMPARE_DONE = SCU_HIBERNATE_LPACST_AHIBIO0SCMP_Msk, /**< HBI_IO
 897:G:/dt_g1_balancing_plate_wise20192020/XMC/Libraries/XMCLib/inc\xmc4_scu.h **** #if (defined(DOXYGEN) || ((UC_SERIES == XMC44) && (UC_PACKAGE == LQFP100)))        
 898:G:/dt_g1_balancing_plate_wise20192020/XMC/Libraries/XMCLib/inc\xmc4_scu.h ****   XMC_SCU_HIB_LPAC_STATUS_HIB_IO_1_COMPARE_DONE = SCU_HIBERNATE_LPACST_AHIBIO1SCMP_Msk, /**< HBI_IO
 899:G:/dt_g1_balancing_plate_wise20192020/XMC/Libraries/XMCLib/inc\xmc4_scu.h **** #endif  
 900:G:/dt_g1_balancing_plate_wise20192020/XMC/Libraries/XMCLib/inc\xmc4_scu.h ****   XMC_SCU_HIB_LPAC_STATUS_VBAT_ABOVE_THRESHOLD = SCU_HIBERNATE_LPACST_VBATVAL_Msk, /**< VBAT compar
 901:G:/dt_g1_balancing_plate_wise20192020/XMC/Libraries/XMCLib/inc\xmc4_scu.h ****   XMC_SCU_HIB_LPAC_STATUS_HIB_IO_0_ABOVE_THRESHOLD = SCU_HIBERNATE_LPACST_AHIBIO0VAL_Msk, /**< HBI_
 902:G:/dt_g1_balancing_plate_wise20192020/XMC/Libraries/XMCLib/inc\xmc4_scu.h **** #if (defined(DOXYGEN) || ((UC_SERIES == XMC44) && (UC_PACKAGE == LQFP100)))        
 903:G:/dt_g1_balancing_plate_wise20192020/XMC/Libraries/XMCLib/inc\xmc4_scu.h ****   XMC_SCU_HIB_LPAC_STATUS_HIB_IO_1_ABOVE_THRESHOLD = SCU_HIBERNATE_LPACST_AHIBIO1VAL_Msk, /**< HBI_
 904:G:/dt_g1_balancing_plate_wise20192020/XMC/Libraries/XMCLib/inc\xmc4_scu.h **** #endif  
 905:G:/dt_g1_balancing_plate_wise20192020/XMC/Libraries/XMCLib/inc\xmc4_scu.h **** } XMC_SCU_HIB_LPAC_STATUS_t;
 906:G:/dt_g1_balancing_plate_wise20192020/XMC/Libraries/XMCLib/inc\xmc4_scu.h **** 
 907:G:/dt_g1_balancing_plate_wise20192020/XMC/Libraries/XMCLib/inc\xmc4_scu.h **** #endif /* (defined(DOXYGEN) || (UC_SERIES == XMC44) || (UC_SERIES == XMC42) || (UC_SERIES == XMC41)
 908:G:/dt_g1_balancing_plate_wise20192020/XMC/Libraries/XMCLib/inc\xmc4_scu.h **** 
 909:G:/dt_g1_balancing_plate_wise20192020/XMC/Libraries/XMCLib/inc\xmc4_scu.h **** /**************************************************************************************************
 910:G:/dt_g1_balancing_plate_wise20192020/XMC/Libraries/XMCLib/inc\xmc4_scu.h ****  * DATA STRUCTURES
 911:G:/dt_g1_balancing_plate_wise20192020/XMC/Libraries/XMCLib/inc\xmc4_scu.h ****  **************************************************************************************************
 912:G:/dt_g1_balancing_plate_wise20192020/XMC/Libraries/XMCLib/inc\xmc4_scu.h **** 
 913:G:/dt_g1_balancing_plate_wise20192020/XMC/Libraries/XMCLib/inc\xmc4_scu.h **** /**
 914:G:/dt_g1_balancing_plate_wise20192020/XMC/Libraries/XMCLib/inc\xmc4_scu.h ****  *  Defines a data structure for initializing the PLL functional block.
 915:G:/dt_g1_balancing_plate_wise20192020/XMC/Libraries/XMCLib/inc\xmc4_scu.h ****  *  Structure holds divider values for N-DIV, P-DIV, K1-DIV, K2-DIV in order to generate desired 
 916:G:/dt_g1_balancing_plate_wise20192020/XMC/Libraries/XMCLib/inc\xmc4_scu.h ****  *  frequency using VCO. It holds the PLL mode of operation either normal or prescaler (VCO bypasse
 917:G:/dt_g1_balancing_plate_wise20192020/XMC/Libraries/XMCLib/inc\xmc4_scu.h ****  *  Use type \a XMC_SCU_CLOCK_PLL_CONFIG_t for accessing these structure parameters.
 918:G:/dt_g1_balancing_plate_wise20192020/XMC/Libraries/XMCLib/inc\xmc4_scu.h ****  */
 919:G:/dt_g1_balancing_plate_wise20192020/XMC/Libraries/XMCLib/inc\xmc4_scu.h **** typedef struct XMC_SCU_CLOCK_SYSPLL_CONFIG
 920:G:/dt_g1_balancing_plate_wise20192020/XMC/Libraries/XMCLib/inc\xmc4_scu.h **** {
 921:G:/dt_g1_balancing_plate_wise20192020/XMC/Libraries/XMCLib/inc\xmc4_scu.h ****   uint8_t n_div;                       /**<  PLL N-Divider value. */
 922:G:/dt_g1_balancing_plate_wise20192020/XMC/Libraries/XMCLib/inc\xmc4_scu.h ****   uint8_t p_div;                       /**<  PLL P-Divider value. */
 923:G:/dt_g1_balancing_plate_wise20192020/XMC/Libraries/XMCLib/inc\xmc4_scu.h ****   uint8_t k_div;                       /**<  K1-Divider(Prescalar mode) or K2-Divider (Normal mode)
 924:G:/dt_g1_balancing_plate_wise20192020/XMC/Libraries/XMCLib/inc\xmc4_scu.h ****   XMC_SCU_CLOCK_SYSPLL_MODE_t mode;    /**<  PLL mode of operation. */
 925:G:/dt_g1_balancing_plate_wise20192020/XMC/Libraries/XMCLib/inc\xmc4_scu.h ****   XMC_SCU_CLOCK_SYSPLLCLKSRC_t clksrc; /**<  PLL divider input frequency. */
 926:G:/dt_g1_balancing_plate_wise20192020/XMC/Libraries/XMCLib/inc\xmc4_scu.h **** } XMC_SCU_CLOCK_SYSPLL_CONFIG_t;
 927:G:/dt_g1_balancing_plate_wise20192020/XMC/Libraries/XMCLib/inc\xmc4_scu.h **** 
 928:G:/dt_g1_balancing_plate_wise20192020/XMC/Libraries/XMCLib/inc\xmc4_scu.h **** /**
 929:G:/dt_g1_balancing_plate_wise20192020/XMC/Libraries/XMCLib/inc\xmc4_scu.h ****  *  Defines a data structure used for initializing the clock functional block.
 930:G:/dt_g1_balancing_plate_wise20192020/XMC/Libraries/XMCLib/inc\xmc4_scu.h ****  *  Clock functional block configures clock source needed for various peripheral and its divider va
 931:G:/dt_g1_balancing_plate_wise20192020/XMC/Libraries/XMCLib/inc\xmc4_scu.h ****  *  Use type \a XMC_SCU_CLOCK_CONFIG_t for accessing these structure parameters.
 932:G:/dt_g1_balancing_plate_wise20192020/XMC/Libraries/XMCLib/inc\xmc4_scu.h ****  */
 933:G:/dt_g1_balancing_plate_wise20192020/XMC/Libraries/XMCLib/inc\xmc4_scu.h **** typedef struct XMC_SCU_CLOCK_CONFIG
 934:G:/dt_g1_balancing_plate_wise20192020/XMC/Libraries/XMCLib/inc\xmc4_scu.h **** {
 935:G:/dt_g1_balancing_plate_wise20192020/XMC/Libraries/XMCLib/inc\xmc4_scu.h ****   XMC_SCU_CLOCK_SYSPLL_CONFIG_t         syspll_config;      /**< PLL configuration */
 936:G:/dt_g1_balancing_plate_wise20192020/XMC/Libraries/XMCLib/inc\xmc4_scu.h ****   bool                                  enable_oschp;       /**< Enable external high precision osc
 937:G:/dt_g1_balancing_plate_wise20192020/XMC/Libraries/XMCLib/inc\xmc4_scu.h ****                                                                  Should be enabled when fOHP has to
 938:G:/dt_g1_balancing_plate_wise20192020/XMC/Libraries/XMCLib/inc\xmc4_scu.h ****   bool                                  enable_osculp;      /**< Enable external ultra low power os
 939:G:/dt_g1_balancing_plate_wise20192020/XMC/Libraries/XMCLib/inc\xmc4_scu.h ****                                                                  Should be enabled when fULP has to
 940:G:/dt_g1_balancing_plate_wise20192020/XMC/Libraries/XMCLib/inc\xmc4_scu.h ****   XMC_SCU_CLOCK_FOFI_CALIBRATION_MODE_t calibration_mode;   /**< Backup clock trimming mode. */
 941:G:/dt_g1_balancing_plate_wise20192020/XMC/Libraries/XMCLib/inc\xmc4_scu.h ****   XMC_SCU_HIB_STDBYCLKSRC_t             fstdby_clksrc;      /**< Standby clock source. */
 942:G:/dt_g1_balancing_plate_wise20192020/XMC/Libraries/XMCLib/inc\xmc4_scu.h ****   XMC_SCU_CLOCK_SYSCLKSRC_t             fsys_clksrc;        /**< Choice of system clock. */
 943:G:/dt_g1_balancing_plate_wise20192020/XMC/Libraries/XMCLib/inc\xmc4_scu.h ****   uint8_t                               fsys_clkdiv;        /**< Ratio of fPLL to fSYS. */
 944:G:/dt_g1_balancing_plate_wise20192020/XMC/Libraries/XMCLib/inc\xmc4_scu.h ****   uint8_t                               fcpu_clkdiv;        /**< Ratio of fSys to fCPU. */
 945:G:/dt_g1_balancing_plate_wise20192020/XMC/Libraries/XMCLib/inc\xmc4_scu.h ****   uint8_t                               fccu_clkdiv;        /**< Ratio of fSys to fCCU. */
 946:G:/dt_g1_balancing_plate_wise20192020/XMC/Libraries/XMCLib/inc\xmc4_scu.h ****   uint8_t                               fperipheral_clkdiv; /**< Ratio of fSYS to fPERI. */
 947:G:/dt_g1_balancing_plate_wise20192020/XMC/Libraries/XMCLib/inc\xmc4_scu.h **** } const XMC_SCU_CLOCK_CONFIG_t;
 948:G:/dt_g1_balancing_plate_wise20192020/XMC/Libraries/XMCLib/inc\xmc4_scu.h **** 
 949:G:/dt_g1_balancing_plate_wise20192020/XMC/Libraries/XMCLib/inc\xmc4_scu.h **** /**
 950:G:/dt_g1_balancing_plate_wise20192020/XMC/Libraries/XMCLib/inc\xmc4_scu.h ****  * Low power modes
 951:G:/dt_g1_balancing_plate_wise20192020/XMC/Libraries/XMCLib/inc\xmc4_scu.h ****  */
 952:G:/dt_g1_balancing_plate_wise20192020/XMC/Libraries/XMCLib/inc\xmc4_scu.h **** typedef enum XMC_SCU_POWER_MODE_t
 953:G:/dt_g1_balancing_plate_wise20192020/XMC/Libraries/XMCLib/inc\xmc4_scu.h **** {
 954:G:/dt_g1_balancing_plate_wise20192020/XMC/Libraries/XMCLib/inc\xmc4_scu.h ****   XMC_SCU_POWER_MODE_SLEEP = 0, /**< sleep mode stops the processor clock */
 955:G:/dt_g1_balancing_plate_wise20192020/XMC/Libraries/XMCLib/inc\xmc4_scu.h ****   XMC_SCU_POWER_MODE_DEEPSLEEP = SCB_SCR_SLEEPDEEP_Msk /**< deep sleep mode stops the system clock 
 956:G:/dt_g1_balancing_plate_wise20192020/XMC/Libraries/XMCLib/inc\xmc4_scu.h **** } XMC_SCU_POWER_MODE_t;
 957:G:/dt_g1_balancing_plate_wise20192020/XMC/Libraries/XMCLib/inc\xmc4_scu.h **** 
 958:G:/dt_g1_balancing_plate_wise20192020/XMC/Libraries/XMCLib/inc\xmc4_scu.h **** /**************************************************************************************************
 959:G:/dt_g1_balancing_plate_wise20192020/XMC/Libraries/XMCLib/inc\xmc4_scu.h ****  * API PROTOTYPES
 960:G:/dt_g1_balancing_plate_wise20192020/XMC/Libraries/XMCLib/inc\xmc4_scu.h ****  **************************************************************************************************
 961:G:/dt_g1_balancing_plate_wise20192020/XMC/Libraries/XMCLib/inc\xmc4_scu.h **** 
 962:G:/dt_g1_balancing_plate_wise20192020/XMC/Libraries/XMCLib/inc\xmc4_scu.h **** #ifdef __cplusplus
 963:G:/dt_g1_balancing_plate_wise20192020/XMC/Libraries/XMCLib/inc\xmc4_scu.h **** extern "C" {
 964:G:/dt_g1_balancing_plate_wise20192020/XMC/Libraries/XMCLib/inc\xmc4_scu.h **** #endif
 965:G:/dt_g1_balancing_plate_wise20192020/XMC/Libraries/XMCLib/inc\xmc4_scu.h **** 
 966:G:/dt_g1_balancing_plate_wise20192020/XMC/Libraries/XMCLib/inc\xmc4_scu.h **** /**
 967:G:/dt_g1_balancing_plate_wise20192020/XMC/Libraries/XMCLib/inc\xmc4_scu.h ****  * 
 968:G:/dt_g1_balancing_plate_wise20192020/XMC/Libraries/XMCLib/inc\xmc4_scu.h ****  * @param group   ADC Group to which the channel being monitored belongs to.\n
 969:G:/dt_g1_balancing_plate_wise20192020/XMC/Libraries/XMCLib/inc\xmc4_scu.h ****  *                 \b Range: 0 or 1.
 970:G:/dt_g1_balancing_plate_wise20192020/XMC/Libraries/XMCLib/inc\xmc4_scu.h ****  * @param channel  The channel whose voltage range has to be monitored.\n
 971:G:/dt_g1_balancing_plate_wise20192020/XMC/Libraries/XMCLib/inc\xmc4_scu.h ****  *                 \b Range: 6 or 7. Value identifies the channel in the selected ADC group.
 972:G:/dt_g1_balancing_plate_wise20192020/XMC/Libraries/XMCLib/inc\xmc4_scu.h ****  *
 973:G:/dt_g1_balancing_plate_wise20192020/XMC/Libraries/XMCLib/inc\xmc4_scu.h ****  * @return None
 974:G:/dt_g1_balancing_plate_wise20192020/XMC/Libraries/XMCLib/inc\xmc4_scu.h ****  *
 975:G:/dt_g1_balancing_plate_wise20192020/XMC/Libraries/XMCLib/inc\xmc4_scu.h ****  * \par<b>Description</b><br>
 976:G:/dt_g1_balancing_plate_wise20192020/XMC/Libraries/XMCLib/inc\xmc4_scu.h ****  * Enables out of range comparator for the selected ADC group and channel. \n\n
 977:G:/dt_g1_balancing_plate_wise20192020/XMC/Libraries/XMCLib/inc\xmc4_scu.h ****  * The ADC channel input is compared by Out of Range Comparator (ORC) for overvoltage monitoring
 978:G:/dt_g1_balancing_plate_wise20192020/XMC/Libraries/XMCLib/inc\xmc4_scu.h ****  * or for detection of out of range analog inputs. ORC must be turned on explicitly
 979:G:/dt_g1_balancing_plate_wise20192020/XMC/Libraries/XMCLib/inc\xmc4_scu.h ****  * to leverage the auditing feature. ORC is enabled by setting the enable bit in the GORCEN registe
 980:G:/dt_g1_balancing_plate_wise20192020/XMC/Libraries/XMCLib/inc\xmc4_scu.h ****  * \par<b>Related APIs:</b><BR>
 981:G:/dt_g1_balancing_plate_wise20192020/XMC/Libraries/XMCLib/inc\xmc4_scu.h ****  * XMC_SCU_DisableOutOfRangeComparator()\n\n\n
 982:G:/dt_g1_balancing_plate_wise20192020/XMC/Libraries/XMCLib/inc\xmc4_scu.h ****  */
 983:G:/dt_g1_balancing_plate_wise20192020/XMC/Libraries/XMCLib/inc\xmc4_scu.h **** void XMC_SCU_EnableOutOfRangeComparator(const uint32_t group, const uint32_t channel);
 984:G:/dt_g1_balancing_plate_wise20192020/XMC/Libraries/XMCLib/inc\xmc4_scu.h **** 
 985:G:/dt_g1_balancing_plate_wise20192020/XMC/Libraries/XMCLib/inc\xmc4_scu.h **** /**
 986:G:/dt_g1_balancing_plate_wise20192020/XMC/Libraries/XMCLib/inc\xmc4_scu.h ****  * 
 987:G:/dt_g1_balancing_plate_wise20192020/XMC/Libraries/XMCLib/inc\xmc4_scu.h ****  * @param group   ADC Group to which the channel being monitored belongs to.\n
 988:G:/dt_g1_balancing_plate_wise20192020/XMC/Libraries/XMCLib/inc\xmc4_scu.h ****  *                 \b Range: 0 or 1.
 989:G:/dt_g1_balancing_plate_wise20192020/XMC/Libraries/XMCLib/inc\xmc4_scu.h ****  * @param channel  The channel whose voltage range has to be monitored.\n
 990:G:/dt_g1_balancing_plate_wise20192020/XMC/Libraries/XMCLib/inc\xmc4_scu.h ****  *                 \b Range: 6 or 7. Value identifies the channel in the selected ADC group.
 991:G:/dt_g1_balancing_plate_wise20192020/XMC/Libraries/XMCLib/inc\xmc4_scu.h ****  *
 992:G:/dt_g1_balancing_plate_wise20192020/XMC/Libraries/XMCLib/inc\xmc4_scu.h ****  * @return None
 993:G:/dt_g1_balancing_plate_wise20192020/XMC/Libraries/XMCLib/inc\xmc4_scu.h ****  *
 994:G:/dt_g1_balancing_plate_wise20192020/XMC/Libraries/XMCLib/inc\xmc4_scu.h ****  * \par<b>Description</b><br>
 995:G:/dt_g1_balancing_plate_wise20192020/XMC/Libraries/XMCLib/inc\xmc4_scu.h ****  * Disables the out of range comparator for the selected ADC group and the channel. \n\n
 996:G:/dt_g1_balancing_plate_wise20192020/XMC/Libraries/XMCLib/inc\xmc4_scu.h ****  * Out of range comparator is disabled by clearing the enable bit in the GORCEN register.
 997:G:/dt_g1_balancing_plate_wise20192020/XMC/Libraries/XMCLib/inc\xmc4_scu.h ****  * \par<b>Related APIs:</b><BR>
 998:G:/dt_g1_balancing_plate_wise20192020/XMC/Libraries/XMCLib/inc\xmc4_scu.h ****  * XMC_SCU_EnableOutOfRangeComparator()\n\n\n
 999:G:/dt_g1_balancing_plate_wise20192020/XMC/Libraries/XMCLib/inc\xmc4_scu.h ****  */
1000:G:/dt_g1_balancing_plate_wise20192020/XMC/Libraries/XMCLib/inc\xmc4_scu.h **** void XMC_SCU_DisableOutOfRangeComparator(const uint32_t group, const uint32_t channel);
1001:G:/dt_g1_balancing_plate_wise20192020/XMC/Libraries/XMCLib/inc\xmc4_scu.h **** 
1002:G:/dt_g1_balancing_plate_wise20192020/XMC/Libraries/XMCLib/inc\xmc4_scu.h **** /**
1003:G:/dt_g1_balancing_plate_wise20192020/XMC/Libraries/XMCLib/inc\xmc4_scu.h ****  * @return None
1004:G:/dt_g1_balancing_plate_wise20192020/XMC/Libraries/XMCLib/inc\xmc4_scu.h ****  *
1005:G:/dt_g1_balancing_plate_wise20192020/XMC/Libraries/XMCLib/inc\xmc4_scu.h ****  * \par<b>Description</b><br>
1006:G:/dt_g1_balancing_plate_wise20192020/XMC/Libraries/XMCLib/inc\xmc4_scu.h ****  * Enables die temperature measurement by powering the DTS module.\n\n
1007:G:/dt_g1_balancing_plate_wise20192020/XMC/Libraries/XMCLib/inc\xmc4_scu.h ****  * Die temperature sensor is enabled by setting the PWD bit of DTSCON register.
1008:G:/dt_g1_balancing_plate_wise20192020/XMC/Libraries/XMCLib/inc\xmc4_scu.h ****  * \par<b>Related APIs:</b><BR>
1009:G:/dt_g1_balancing_plate_wise20192020/XMC/Libraries/XMCLib/inc\xmc4_scu.h ****  * XMC_SCU_DisableTemperatureSensor(), XMC_SCU_IsTemperatureSensorEnabled(), XMC_SCU_CalibrateTempe
1010:G:/dt_g1_balancing_plate_wise20192020/XMC/Libraries/XMCLib/inc\xmc4_scu.h ****  * XMC_SCU_StartTemperatureMeasurement(), XMC_SCU_GetTemperatureMeasurement() \n\n\n
1011:G:/dt_g1_balancing_plate_wise20192020/XMC/Libraries/XMCLib/inc\xmc4_scu.h ****  */
1012:G:/dt_g1_balancing_plate_wise20192020/XMC/Libraries/XMCLib/inc\xmc4_scu.h **** void XMC_SCU_EnableTemperatureSensor(void);
1013:G:/dt_g1_balancing_plate_wise20192020/XMC/Libraries/XMCLib/inc\xmc4_scu.h **** 
1014:G:/dt_g1_balancing_plate_wise20192020/XMC/Libraries/XMCLib/inc\xmc4_scu.h **** /**
1015:G:/dt_g1_balancing_plate_wise20192020/XMC/Libraries/XMCLib/inc\xmc4_scu.h ****  * @return None
1016:G:/dt_g1_balancing_plate_wise20192020/XMC/Libraries/XMCLib/inc\xmc4_scu.h ****  *
1017:G:/dt_g1_balancing_plate_wise20192020/XMC/Libraries/XMCLib/inc\xmc4_scu.h ****  * \par<b>Description</b><br>
1018:G:/dt_g1_balancing_plate_wise20192020/XMC/Libraries/XMCLib/inc\xmc4_scu.h ****  * Disables die temperature measurement by powering the DTS module off.\n\n
1019:G:/dt_g1_balancing_plate_wise20192020/XMC/Libraries/XMCLib/inc\xmc4_scu.h ****  * Die temperature sensor is disabled by clearing the PWD bit of DTSCON register.
1020:G:/dt_g1_balancing_plate_wise20192020/XMC/Libraries/XMCLib/inc\xmc4_scu.h ****  * \par<b>Related APIs:</b><BR>
1021:G:/dt_g1_balancing_plate_wise20192020/XMC/Libraries/XMCLib/inc\xmc4_scu.h ****  * XMC_SCU_EnableTemperatureSensor(), XMC_SCU_IsTemperatureSensorEnabled(), XMC_SCU_CalibrateTemper
1022:G:/dt_g1_balancing_plate_wise20192020/XMC/Libraries/XMCLib/inc\xmc4_scu.h ****  * XMC_SCU_StartTemperatureMeasurement(), XMC_SCU_GetTemperatureMeasurement() \n\n\n
1023:G:/dt_g1_balancing_plate_wise20192020/XMC/Libraries/XMCLib/inc\xmc4_scu.h ****  */
1024:G:/dt_g1_balancing_plate_wise20192020/XMC/Libraries/XMCLib/inc\xmc4_scu.h **** void XMC_SCU_DisableTemperatureSensor(void);
1025:G:/dt_g1_balancing_plate_wise20192020/XMC/Libraries/XMCLib/inc\xmc4_scu.h **** 
1026:G:/dt_g1_balancing_plate_wise20192020/XMC/Libraries/XMCLib/inc\xmc4_scu.h **** /**
1027:G:/dt_g1_balancing_plate_wise20192020/XMC/Libraries/XMCLib/inc\xmc4_scu.h ****  * @return Status of die temperature sensor. \n
1028:G:/dt_g1_balancing_plate_wise20192020/XMC/Libraries/XMCLib/inc\xmc4_scu.h ****  *          \b Range: true - if temperature sensor is enabled.\n
1029:G:/dt_g1_balancing_plate_wise20192020/XMC/Libraries/XMCLib/inc\xmc4_scu.h ****  *                    false - if temperature sensor is disabled.
1030:G:/dt_g1_balancing_plate_wise20192020/XMC/Libraries/XMCLib/inc\xmc4_scu.h ****  *
1031:G:/dt_g1_balancing_plate_wise20192020/XMC/Libraries/XMCLib/inc\xmc4_scu.h ****  * \par<b>Description</b><br>
1032:G:/dt_g1_balancing_plate_wise20192020/XMC/Libraries/XMCLib/inc\xmc4_scu.h ****  * Provides the die temperature sensor power status.\n\n
1033:G:/dt_g1_balancing_plate_wise20192020/XMC/Libraries/XMCLib/inc\xmc4_scu.h ****  * The status is obtained by reading the PWD bit of DTSCON register.
1034:G:/dt_g1_balancing_plate_wise20192020/XMC/Libraries/XMCLib/inc\xmc4_scu.h ****  * \par<b>Related APIs:</b><BR>
1035:G:/dt_g1_balancing_plate_wise20192020/XMC/Libraries/XMCLib/inc\xmc4_scu.h ****  * XMC_SCU_EnableTemperatureSensor(), XMC_SCU_CalibrateTemperatureSensor(),
1036:G:/dt_g1_balancing_plate_wise20192020/XMC/Libraries/XMCLib/inc\xmc4_scu.h ****  * XMC_SCU_StartTemperatureMeasurement(), XMC_SCU_GetTemperatureMeasurement() \n\n\n
1037:G:/dt_g1_balancing_plate_wise20192020/XMC/Libraries/XMCLib/inc\xmc4_scu.h ****  */
1038:G:/dt_g1_balancing_plate_wise20192020/XMC/Libraries/XMCLib/inc\xmc4_scu.h **** bool XMC_SCU_IsTemperatureSensorEnabled(void);
1039:G:/dt_g1_balancing_plate_wise20192020/XMC/Libraries/XMCLib/inc\xmc4_scu.h **** 
1040:G:/dt_g1_balancing_plate_wise20192020/XMC/Libraries/XMCLib/inc\xmc4_scu.h **** /**
1041:G:/dt_g1_balancing_plate_wise20192020/XMC/Libraries/XMCLib/inc\xmc4_scu.h ****  *
1042:G:/dt_g1_balancing_plate_wise20192020/XMC/Libraries/XMCLib/inc\xmc4_scu.h ****  * @param offset  Offset value for calibrating the DTS result.\n
1043:G:/dt_g1_balancing_plate_wise20192020/XMC/Libraries/XMCLib/inc\xmc4_scu.h ****  *                \b Range: 0 to 127.
1044:G:/dt_g1_balancing_plate_wise20192020/XMC/Libraries/XMCLib/inc\xmc4_scu.h ****  * @param gain    Gain value for calibrating the DTS conversion result.\n
