   1              	 .syntax unified
   2              	 .cpu cortex-m4
   3              	 .eabi_attribute 27,3
   4              	 .fpu fpv4-sp-d16
   5              	 .eabi_attribute 20,1
   6              	 .eabi_attribute 21,1
   7              	 .eabi_attribute 23,3
   8              	 .eabi_attribute 24,1
   9              	 .eabi_attribute 25,1
  10              	 .eabi_attribute 26,1
  11              	 .eabi_attribute 30,4
  12              	 .eabi_attribute 34,1
  13              	 .eabi_attribute 18,4
  14              	 .thumb
  15              	 .file "xmc_ccu8.c"
  16              	 .text
  17              	.Ltext0:
  18              	 .cfi_sections .debug_frame
  19              	 .section .text.XMC_CCU8_EnableModule,"ax",%progbits
  20              	 .align 1
  21              	 .global XMC_CCU8_EnableModule
  22              	 .thumb
  23              	 .thumb_func
  25              	XMC_CCU8_EnableModule:
  26              	.LFB233:
  27              	 .file 1 "../Libraries/XMCLib/src/xmc_ccu8.c"
   1:../Libraries/XMCLib/src/xmc_ccu8.c **** /**
   2:../Libraries/XMCLib/src/xmc_ccu8.c ****  * @file xmc_ccu8.c
   3:../Libraries/XMCLib/src/xmc_ccu8.c ****  * @date 2017-04-27
   4:../Libraries/XMCLib/src/xmc_ccu8.c ****  *
   5:../Libraries/XMCLib/src/xmc_ccu8.c ****  * @cond
   6:../Libraries/XMCLib/src/xmc_ccu8.c ****  **************************************************************************************************
   7:../Libraries/XMCLib/src/xmc_ccu8.c ****  * XMClib v2.1.22 - XMC Peripheral Driver Library 
   8:../Libraries/XMCLib/src/xmc_ccu8.c ****  *
   9:../Libraries/XMCLib/src/xmc_ccu8.c ****  * Copyright (c) 2015-2019, Infineon Technologies AG
  10:../Libraries/XMCLib/src/xmc_ccu8.c ****  * All rights reserved.                        
  11:../Libraries/XMCLib/src/xmc_ccu8.c ****  *                                             
  12:../Libraries/XMCLib/src/xmc_ccu8.c ****  * Redistribution and use in source and binary forms, with or without modification,are permitted pr
  13:../Libraries/XMCLib/src/xmc_ccu8.c ****  * following conditions are met:   
  14:../Libraries/XMCLib/src/xmc_ccu8.c ****  *                                                                              
  15:../Libraries/XMCLib/src/xmc_ccu8.c ****  * Redistributions of source code must retain the above copyright notice, this list of conditions a
  16:../Libraries/XMCLib/src/xmc_ccu8.c ****  * disclaimer.                        
  17:../Libraries/XMCLib/src/xmc_ccu8.c ****  * 
  18:../Libraries/XMCLib/src/xmc_ccu8.c ****  * Redistributions in binary form must reproduce the above copyright notice, this list of condition
  19:../Libraries/XMCLib/src/xmc_ccu8.c ****  * disclaimer in the documentation and/or other materials provided with the distribution.          
  20:../Libraries/XMCLib/src/xmc_ccu8.c ****  * 
  21:../Libraries/XMCLib/src/xmc_ccu8.c ****  * Neither the name of the copyright holders nor the names of its contributors may be used to endor
  22:../Libraries/XMCLib/src/xmc_ccu8.c ****  * products derived from this software without specific prior written permission.                  
  23:../Libraries/XMCLib/src/xmc_ccu8.c ****  *                                                                              
  24:../Libraries/XMCLib/src/xmc_ccu8.c ****  * THIS SOFTWARE IS PROVIDED BY THE COPYRIGHT HOLDERS AND CONTRIBUTORS "AS IS" AND ANY EXPRESS OR I
  25:../Libraries/XMCLib/src/xmc_ccu8.c ****  * INCLUDING, BUT NOT LIMITED TO, THE IMPLIED WARRANTIES OF MERCHANTABILITY AND FITNESS FOR A PARTI
  26:../Libraries/XMCLib/src/xmc_ccu8.c ****  * DISCLAIMED. IN NO EVENT SHALL THE COPYRIGHT HOLDER OR CONTRIBUTORS BE LIABLE  FOR ANY DIRECT, IN
  27:../Libraries/XMCLib/src/xmc_ccu8.c ****  * SPECIAL, EXEMPLARY, OR CONSEQUENTIAL DAMAGES (INCLUDING, BUT NOT LIMITED TO, PROCUREMENT OF SUBS
  28:../Libraries/XMCLib/src/xmc_ccu8.c ****  * SERVICES; LOSS OF USE, DATA, OR PROFITS; OR BUSINESS INTERRUPTION) HOWEVER CAUSED AND ON ANY THE
  29:../Libraries/XMCLib/src/xmc_ccu8.c ****  * WHETHER IN CONTRACT, STRICT LIABILITY,OR TORT (INCLUDING NEGLIGENCE OR OTHERWISE) ARISING IN ANY
  30:../Libraries/XMCLib/src/xmc_ccu8.c ****  * OF THIS SOFTWARE, EVEN IF ADVISED OF THE POSSIBILITY OF SUCH DAMAGE.                            
  31:../Libraries/XMCLib/src/xmc_ccu8.c ****  *                                                                              
  32:../Libraries/XMCLib/src/xmc_ccu8.c ****  * To improve the quality of the software, users are encouraged to share modifications, enhancement
  33:../Libraries/XMCLib/src/xmc_ccu8.c ****  * Infineon Technologies AG dave@infineon.com).                                                    
  34:../Libraries/XMCLib/src/xmc_ccu8.c ****  **************************************************************************************************
  35:../Libraries/XMCLib/src/xmc_ccu8.c ****  *
  36:../Libraries/XMCLib/src/xmc_ccu8.c ****  * Change History
  37:../Libraries/XMCLib/src/xmc_ccu8.c ****  * --------------
  38:../Libraries/XMCLib/src/xmc_ccu8.c ****  *
  39:../Libraries/XMCLib/src/xmc_ccu8.c ****  * 2015-02-20:
  40:../Libraries/XMCLib/src/xmc_ccu8.c ****  *     - Initial <br>
  41:../Libraries/XMCLib/src/xmc_ccu8.c ****  *
  42:../Libraries/XMCLib/src/xmc_ccu8.c ****  * 2015-06-20:
  43:../Libraries/XMCLib/src/xmc_ccu8.c ****  *     - Removed definition of GetDriverVersion API <br>
  44:../Libraries/XMCLib/src/xmc_ccu8.c ****  *     - Added XMC_CCU8_SLICE_LoadSelector() API, to select which compare register value has to be 
  45:../Libraries/XMCLib/src/xmc_ccu8.c ****  *       during external load event. 
  46:../Libraries/XMCLib/src/xmc_ccu8.c ****  *
  47:../Libraries/XMCLib/src/xmc_ccu8.c ****  * 2015-07-24:
  48:../Libraries/XMCLib/src/xmc_ccu8.c ****  *     - XMC_CCU8_SLICE_ConfigureStatusBitOverrideEvent() is updated to support XMC14 device. <br>
  49:../Libraries/XMCLib/src/xmc_ccu8.c ****  *
  50:../Libraries/XMCLib/src/xmc_ccu8.c ****  * 2015-08-17:
  51:../Libraries/XMCLib/src/xmc_ccu8.c ****  *     - XMC_CCU8_SLICE_CHC_CONFIG_MASK is not applicable to XMC14 devices. <br>
  52:../Libraries/XMCLib/src/xmc_ccu8.c ****  *     - Start of prescaler XMC_CCU8_StartPrescaler() is invoked in XMC_CCU8_Init() API. <br>
  53:../Libraries/XMCLib/src/xmc_ccu8.c ****  *     - In XMC_CCU8_SLICE_CompareInit(), CHC register is updated according to the device. <br>
  54:../Libraries/XMCLib/src/xmc_ccu8.c ****  *     - Bug fix XMC_CCU8_SLICE_ConfigureEvent() during the level setting for XMC14 devices. <br>
  55:../Libraries/XMCLib/src/xmc_ccu8.c ****  *     - XMC_CCU8_EnableShadowTransfer() definition is removed, since the API is made as inline. <b
  56:../Libraries/XMCLib/src/xmc_ccu8.c ****  * 
  57:../Libraries/XMCLib/src/xmc_ccu8.c ****  * 2015-10-07:
  58:../Libraries/XMCLib/src/xmc_ccu8.c ****  *     - XMC_CCU8_SLICE_GetEvent() is made as inline.
  59:../Libraries/XMCLib/src/xmc_ccu8.c ****  *     - DOC updates for the newly added APIs.
  60:../Libraries/XMCLib/src/xmc_ccu8.c ****  *
  61:../Libraries/XMCLib/src/xmc_ccu8.c ****  * 2017-02-25:
  62:../Libraries/XMCLib/src/xmc_ccu8.c ****  *     - XMC_CCU8_lAssertReset(), XMC_CCU8_lDeassertReset(), XMC_CCU8_lGateClock() and XMC_CCU8_lUn
  63:../Libraries/XMCLib/src/xmc_ccu8.c ****  *
  64:../Libraries/XMCLib/src/xmc_ccu8.c ****  * 2017-04-27:
  65:../Libraries/XMCLib/src/xmc_ccu8.c ****  *     - XMC_CCU8_SLICE_SetPrescaler() changed div_val parameter to type XMC_CCU8_SLICE_PRESCALER_t
  66:../Libraries/XMCLib/src/xmc_ccu8.c ****  *
  67:../Libraries/XMCLib/src/xmc_ccu8.c ****  * @endcond
  68:../Libraries/XMCLib/src/xmc_ccu8.c ****  */
  69:../Libraries/XMCLib/src/xmc_ccu8.c **** /**************************************************************************************************
  70:../Libraries/XMCLib/src/xmc_ccu8.c ****  * HEADER FILES
  71:../Libraries/XMCLib/src/xmc_ccu8.c ****  **************************************************************************************************
  72:../Libraries/XMCLib/src/xmc_ccu8.c **** #include "xmc_ccu8.h"
  73:../Libraries/XMCLib/src/xmc_ccu8.c **** 
  74:../Libraries/XMCLib/src/xmc_ccu8.c **** #if defined(CCU80)
  75:../Libraries/XMCLib/src/xmc_ccu8.c **** #include "xmc_scu.h"
  76:../Libraries/XMCLib/src/xmc_ccu8.c **** 
  77:../Libraries/XMCLib/src/xmc_ccu8.c **** /**************************************************************************************************
  78:../Libraries/XMCLib/src/xmc_ccu8.c ****  * MACROS
  79:../Libraries/XMCLib/src/xmc_ccu8.c ****  **************************************************************************************************
  80:../Libraries/XMCLib/src/xmc_ccu8.c **** #define XMC_CCU8_NUM_SLICES_PER_MODULE          (4U)
  81:../Libraries/XMCLib/src/xmc_ccu8.c **** #define XMC_CCU8_SLICE_DITHER_PERIOD_MASK       (1U)
  82:../Libraries/XMCLib/src/xmc_ccu8.c **** #define XMC_CCU8_SLICE_DITHER_DUTYCYCLE_MASK    (2U)
  83:../Libraries/XMCLib/src/xmc_ccu8.c **** #define XMC_CCU8_SLICE_EVENT_EDGE_CONFIG_MASK   (3U)
  84:../Libraries/XMCLib/src/xmc_ccu8.c **** #define XMC_CCU8_SLICE_EVENT_LEVEL_CONFIG_MASK  (1U)
  85:../Libraries/XMCLib/src/xmc_ccu8.c **** #define XMC_CCU8_SLICE_EVENT_FILTER_CONFIG_MASK (3U)
  86:../Libraries/XMCLib/src/xmc_ccu8.c **** #if defined(CCU8V3) /* Defined for XMC1400 devices */
  87:../Libraries/XMCLib/src/xmc_ccu8.c **** #define XMC_CCU8_SLICE_EVENT_INPUT_CONFIG_MASK  CCU8_CC8_INS1_EV0IS_Msk
  88:../Libraries/XMCLib/src/xmc_ccu8.c **** #else
  89:../Libraries/XMCLib/src/xmc_ccu8.c **** #define XMC_CCU8_SLICE_EVENT_INPUT_CONFIG_MASK  CCU8_CC8_INS_EV0IS_Msk
  90:../Libraries/XMCLib/src/xmc_ccu8.c **** #endif
  91:../Libraries/XMCLib/src/xmc_ccu8.c **** #define XMC_CCU8_GIDLC_CLOCK_MASK               (15U)
  92:../Libraries/XMCLib/src/xmc_ccu8.c **** #define XMC_CCU8_GCSS_SLICE0_MASK               (1U)
  93:../Libraries/XMCLib/src/xmc_ccu8.c **** #define XMC_CCU8_GCSS_SLICE1_MASK               (16U)
  94:../Libraries/XMCLib/src/xmc_ccu8.c **** #define XMC_CCU8_GCSS_SLICE2_MASK               (256U)
  95:../Libraries/XMCLib/src/xmc_ccu8.c **** #define XMC_CCU8_GCSS_SLICE3_MASK               (4096U)
  96:../Libraries/XMCLib/src/xmc_ccu8.c **** #define XMC_CCU8_SLICE_DEAD_TIME_CONFIG_MASK    (63U)
  97:../Libraries/XMCLib/src/xmc_ccu8.c **** #if !defined(CCU8V3) /* Defined for all devices except XMC1400 */
  98:../Libraries/XMCLib/src/xmc_ccu8.c **** #define XMC_CCU8_SLICE_CHC_CONFIG_MASK          (20U)
  99:../Libraries/XMCLib/src/xmc_ccu8.c **** #endif
 100:../Libraries/XMCLib/src/xmc_ccu8.c **** 
 101:../Libraries/XMCLib/src/xmc_ccu8.c **** #define XMC_CCU8_SLICE_CHECK_DTC_DIV(div) \
 102:../Libraries/XMCLib/src/xmc_ccu8.c ****     ((div == XMC_CCU8_SLICE_DTC_DIV_1) || \
 103:../Libraries/XMCLib/src/xmc_ccu8.c ****      (div == XMC_CCU8_SLICE_DTC_DIV_2) || \
 104:../Libraries/XMCLib/src/xmc_ccu8.c ****      (div == XMC_CCU8_SLICE_DTC_DIV_4) || \
 105:../Libraries/XMCLib/src/xmc_ccu8.c ****      (div == XMC_CCU8_SLICE_DTC_DIV_8))
 106:../Libraries/XMCLib/src/xmc_ccu8.c **** 
 107:../Libraries/XMCLib/src/xmc_ccu8.c **** #define XMC_CCU8_SLICE_CHECK_CLOCK(clock) \
 108:../Libraries/XMCLib/src/xmc_ccu8.c ****     ((clock == XMC_CCU8_CLOCK_SCU)        || \
 109:../Libraries/XMCLib/src/xmc_ccu8.c ****      (clock == XMC_CCU8_CLOCK_EXTERNAL_A) || \
 110:../Libraries/XMCLib/src/xmc_ccu8.c ****      (clock == XMC_CCU8_CLOCK_EXTERNAL_B) || \
 111:../Libraries/XMCLib/src/xmc_ccu8.c ****      (clock == XMC_CCU8_CLOCK_EXTERNAL_C))
 112:../Libraries/XMCLib/src/xmc_ccu8.c **** 
 113:../Libraries/XMCLib/src/xmc_ccu8.c **** #define XMC_CCU8_SLICE_CHECK_OUTPUT(out) \
 114:../Libraries/XMCLib/src/xmc_ccu8.c ****     ((out == XMC_CCU8_SLICE_OUTPUT_0) || \
 115:../Libraries/XMCLib/src/xmc_ccu8.c ****      (out == XMC_CCU8_SLICE_OUTPUT_1) || \
 116:../Libraries/XMCLib/src/xmc_ccu8.c ****      (out == XMC_CCU8_SLICE_OUTPUT_2) || \
 117:../Libraries/XMCLib/src/xmc_ccu8.c ****      (out == XMC_CCU8_SLICE_OUTPUT_3))
 118:../Libraries/XMCLib/src/xmc_ccu8.c **** 
 119:../Libraries/XMCLib/src/xmc_ccu8.c **** #define XMC_CCU8_SLICE_CHECK_END_MODE(end_mode) \
 120:../Libraries/XMCLib/src/xmc_ccu8.c ****     ((end_mode == XMC_CCU8_SLICE_END_MODE_TIMER_STOP) || \
 121:../Libraries/XMCLib/src/xmc_ccu8.c ****      (end_mode == XMC_CCU8_SLICE_END_MODE_TIMER_CLEAR) || \
 122:../Libraries/XMCLib/src/xmc_ccu8.c ****      (end_mode == XMC_CCU8_SLICE_END_MODE_TIMER_STOP_CLEAR))
 123:../Libraries/XMCLib/src/xmc_ccu8.c **** 
 124:../Libraries/XMCLib/src/xmc_ccu8.c **** #define XMC_CCU8_SLICE_CHECK_EVENT_ID(event_id) \
 125:../Libraries/XMCLib/src/xmc_ccu8.c ****     ((event_id == XMC_CCU8_SLICE_EVENT_NONE)|| \
 126:../Libraries/XMCLib/src/xmc_ccu8.c ****      (event_id == XMC_CCU8_SLICE_EVENT_0)   || \
 127:../Libraries/XMCLib/src/xmc_ccu8.c ****      (event_id == XMC_CCU8_SLICE_EVENT_1)   || \
 128:../Libraries/XMCLib/src/xmc_ccu8.c ****      (event_id == XMC_CCU8_SLICE_EVENT_2))
 129:../Libraries/XMCLib/src/xmc_ccu8.c **** 
 130:../Libraries/XMCLib/src/xmc_ccu8.c **** #define XMC_CCU8_SLICE_CHECK_EDGE_SENSITIVITY(edge) \
 131:../Libraries/XMCLib/src/xmc_ccu8.c ****     ((edge == XMC_CCU8_SLICE_EVENT_EDGE_SENSITIVITY_NONE)        || \
 132:../Libraries/XMCLib/src/xmc_ccu8.c ****      (edge == XMC_CCU8_SLICE_EVENT_EDGE_SENSITIVITY_RISING_EDGE) || \
 133:../Libraries/XMCLib/src/xmc_ccu8.c ****      (edge == XMC_CCU8_SLICE_EVENT_EDGE_SENSITIVITY_FALLING_EDGE)|| \
 134:../Libraries/XMCLib/src/xmc_ccu8.c ****      (edge == XMC_CCU8_SLICE_EVENT_EDGE_SENSITIVITY_DUAL_EDGE))
 135:../Libraries/XMCLib/src/xmc_ccu8.c **** 
 136:../Libraries/XMCLib/src/xmc_ccu8.c **** #define XMC_CCU8_SLICE_CHECK_EVENT_FILTER(cycles) \
 137:../Libraries/XMCLib/src/xmc_ccu8.c ****     ((cycles == XMC_CCU8_SLICE_EVENT_FILTER_DISABLED) || \
 138:../Libraries/XMCLib/src/xmc_ccu8.c ****      (cycles == XMC_CCU8_SLICE_EVENT_FILTER_3_CYCLES) || \
 139:../Libraries/XMCLib/src/xmc_ccu8.c ****      (cycles == XMC_CCU8_SLICE_EVENT_FILTER_5_CYCLES) || \
 140:../Libraries/XMCLib/src/xmc_ccu8.c ****      (cycles == XMC_CCU8_SLICE_EVENT_FILTER_7_CYCLES))
 141:../Libraries/XMCLib/src/xmc_ccu8.c **** 
 142:../Libraries/XMCLib/src/xmc_ccu8.c **** #define XMC_CCU8_SLICE_CHECK_CAP_TIMER_CLEAR_MODE(mode) \
 143:../Libraries/XMCLib/src/xmc_ccu8.c ****     ((mode == XMC_CCU8_SLICE_TIMER_CLEAR_MODE_NEVER)   || \
 144:../Libraries/XMCLib/src/xmc_ccu8.c ****      (mode == XMC_CCU8_SLICE_TIMER_CLEAR_MODE_CAP_HIGH)|| \
 145:../Libraries/XMCLib/src/xmc_ccu8.c ****      (mode == XMC_CCU8_SLICE_TIMER_CLEAR_MODE_CAP_LOW) || \
 146:../Libraries/XMCLib/src/xmc_ccu8.c ****      (mode == XMC_CCU8_SLICE_TIMER_CLEAR_MODE_ALWAYS))
 147:../Libraries/XMCLib/src/xmc_ccu8.c **** 
 148:../Libraries/XMCLib/src/xmc_ccu8.c **** #define XMC_CCU8_SLICE_CHECK_MCS_ACTION(mcs_action) \
 149:../Libraries/XMCLib/src/xmc_ccu8.c ****     ((mcs_action == XMC_CCU8_SLICE_MCMS_ACTION_TRANSFER_PR_CR)      || \
 150:../Libraries/XMCLib/src/xmc_ccu8.c ****      (mcs_action == XMC_CCU8_SLICE_MCMS_ACTION_TRANSFER_PR_CR_PCMP) || \
 151:../Libraries/XMCLib/src/xmc_ccu8.c ****      (mcs_action == XMC_CCU8_SLICE_MCMS_ACTION_TRANSFER_PR_CR_PCMP_DIT))
 152:../Libraries/XMCLib/src/xmc_ccu8.c **** 
 153:../Libraries/XMCLib/src/xmc_ccu8.c **** #define XMC_CCU8_SLICE_CHECK_SR_ID(id) \
 154:../Libraries/XMCLib/src/xmc_ccu8.c ****     ((id == XMC_CCU8_SLICE_SR_ID_0) || \
 155:../Libraries/XMCLib/src/xmc_ccu8.c ****      (id == XMC_CCU8_SLICE_SR_ID_1) || \
 156:../Libraries/XMCLib/src/xmc_ccu8.c ****      (id == XMC_CCU8_SLICE_SR_ID_2) || \
 157:../Libraries/XMCLib/src/xmc_ccu8.c ****      (id == XMC_CCU8_SLICE_SR_ID_3))
 158:../Libraries/XMCLib/src/xmc_ccu8.c **** 
 159:../Libraries/XMCLib/src/xmc_ccu8.c **** #define XMC_CCU8_SLICE_CHECK_MODULATION_CHANNEL(channel) \
 160:../Libraries/XMCLib/src/xmc_ccu8.c ****     ((channel == XMC_CCU8_SLICE_MODULATION_CHANNEL_NONE) || \
 161:../Libraries/XMCLib/src/xmc_ccu8.c ****      (channel == XMC_CCU8_SLICE_MODULATION_CHANNEL_1)    || \
 162:../Libraries/XMCLib/src/xmc_ccu8.c ****      (channel == XMC_CCU8_SLICE_MODULATION_CHANNEL_2)    || \
 163:../Libraries/XMCLib/src/xmc_ccu8.c ****      (channel == XMC_CCU8_SLICE_MODULATION_CHANNEL_1_AND_2))
 164:../Libraries/XMCLib/src/xmc_ccu8.c **** 
 165:../Libraries/XMCLib/src/xmc_ccu8.c **** #if((UC_SERIES == XMC13) || (UC_SERIES == XMC14))
 166:../Libraries/XMCLib/src/xmc_ccu8.c **** #define XMC_CCU8_SLICE_CHECK_SLICE_STATUS(channel) \
 167:../Libraries/XMCLib/src/xmc_ccu8.c ****     ((channel == XMC_CCU8_SLICE_STATUS_CHANNEL_1)       || \
 168:../Libraries/XMCLib/src/xmc_ccu8.c ****      (channel == XMC_CCU8_SLICE_STATUS_CHANNEL_2)       || \
 169:../Libraries/XMCLib/src/xmc_ccu8.c ****      (channel == XMC_CCU8_SLICE_STATUS_CHANNEL_1_AND_2) || \
 170:../Libraries/XMCLib/src/xmc_ccu8.c ****      (channel == XMC_CCU8_SLICE_STATUS_CHANNEL_1_OR_2))
 171:../Libraries/XMCLib/src/xmc_ccu8.c **** #else
 172:../Libraries/XMCLib/src/xmc_ccu8.c **** #define XMC_CCU8_SLICE_CHECK_SLICE_STATUS(channel) \
 173:../Libraries/XMCLib/src/xmc_ccu8.c ****     ((channel == XMC_CCU8_SLICE_STATUS_CHANNEL_1)       || \
 174:../Libraries/XMCLib/src/xmc_ccu8.c ****      (channel == XMC_CCU8_SLICE_STATUS_CHANNEL_2)       || \
 175:../Libraries/XMCLib/src/xmc_ccu8.c ****      (channel == XMC_CCU8_SLICE_STATUS_CHANNEL_1_AND_2))
 176:../Libraries/XMCLib/src/xmc_ccu8.c **** #endif
 177:../Libraries/XMCLib/src/xmc_ccu8.c **** 
 178:../Libraries/XMCLib/src/xmc_ccu8.c **** /**************************************************************************************************
 179:../Libraries/XMCLib/src/xmc_ccu8.c ****  * LOCAL ROUTINES
 180:../Libraries/XMCLib/src/xmc_ccu8.c ****  **************************************************************************************************
 181:../Libraries/XMCLib/src/xmc_ccu8.c **** #if defined(PERIPHERAL_RESET_SUPPORTED)
 182:../Libraries/XMCLib/src/xmc_ccu8.c **** __STATIC_INLINE void XMC_CCU8_lAssertReset(const XMC_CCU8_MODULE_t *const module)
 183:../Libraries/XMCLib/src/xmc_ccu8.c **** {
 184:../Libraries/XMCLib/src/xmc_ccu8.c ****   if (module == CCU80)
 185:../Libraries/XMCLib/src/xmc_ccu8.c ****   {
 186:../Libraries/XMCLib/src/xmc_ccu8.c ****     XMC_SCU_RESET_AssertPeripheralReset(XMC_SCU_PERIPHERAL_RESET_CCU80);
 187:../Libraries/XMCLib/src/xmc_ccu8.c ****   }
 188:../Libraries/XMCLib/src/xmc_ccu8.c **** #if defined(CCU81)
 189:../Libraries/XMCLib/src/xmc_ccu8.c ****   else if (module == CCU81)
 190:../Libraries/XMCLib/src/xmc_ccu8.c ****   {
 191:../Libraries/XMCLib/src/xmc_ccu8.c ****     XMC_SCU_RESET_AssertPeripheralReset(XMC_SCU_PERIPHERAL_RESET_CCU81);
 192:../Libraries/XMCLib/src/xmc_ccu8.c ****   }
 193:../Libraries/XMCLib/src/xmc_ccu8.c **** #endif
 194:../Libraries/XMCLib/src/xmc_ccu8.c ****   else
 195:../Libraries/XMCLib/src/xmc_ccu8.c ****   {
 196:../Libraries/XMCLib/src/xmc_ccu8.c ****     XMC_ASSERT("XMC_CCU8_lAssertReset:Invalid Module Pointer", 0);
 197:../Libraries/XMCLib/src/xmc_ccu8.c ****   }
 198:../Libraries/XMCLib/src/xmc_ccu8.c **** }
 199:../Libraries/XMCLib/src/xmc_ccu8.c **** 
 200:../Libraries/XMCLib/src/xmc_ccu8.c **** __STATIC_INLINE void XMC_CCU8_lDeassertReset(const XMC_CCU8_MODULE_t *const module)
 201:../Libraries/XMCLib/src/xmc_ccu8.c **** {
 202:../Libraries/XMCLib/src/xmc_ccu8.c ****   if (module == CCU80)
 203:../Libraries/XMCLib/src/xmc_ccu8.c ****   {
 204:../Libraries/XMCLib/src/xmc_ccu8.c ****     XMC_SCU_RESET_DeassertPeripheralReset(XMC_SCU_PERIPHERAL_RESET_CCU80);
 205:../Libraries/XMCLib/src/xmc_ccu8.c ****   }
 206:../Libraries/XMCLib/src/xmc_ccu8.c **** #if defined(CCU81)
 207:../Libraries/XMCLib/src/xmc_ccu8.c ****   else if (module == CCU81)
 208:../Libraries/XMCLib/src/xmc_ccu8.c ****   {
 209:../Libraries/XMCLib/src/xmc_ccu8.c ****     XMC_SCU_RESET_DeassertPeripheralReset(XMC_SCU_PERIPHERAL_RESET_CCU81);
 210:../Libraries/XMCLib/src/xmc_ccu8.c ****   }
 211:../Libraries/XMCLib/src/xmc_ccu8.c **** #endif
 212:../Libraries/XMCLib/src/xmc_ccu8.c ****   else
 213:../Libraries/XMCLib/src/xmc_ccu8.c ****   {
 214:../Libraries/XMCLib/src/xmc_ccu8.c ****     XMC_ASSERT("XMC_CCU8_lDeassertReset:Invalid Module Pointer", 0);
 215:../Libraries/XMCLib/src/xmc_ccu8.c ****   }
 216:../Libraries/XMCLib/src/xmc_ccu8.c **** }
 217:../Libraries/XMCLib/src/xmc_ccu8.c **** #endif
 218:../Libraries/XMCLib/src/xmc_ccu8.c **** 
 219:../Libraries/XMCLib/src/xmc_ccu8.c **** #if defined(CLOCK_GATING_SUPPORTED)
 220:../Libraries/XMCLib/src/xmc_ccu8.c **** __STATIC_INLINE void XMC_CCU8_lGateClock(XMC_CCU8_MODULE_t *const module)
 221:../Libraries/XMCLib/src/xmc_ccu8.c **** {
 222:../Libraries/XMCLib/src/xmc_ccu8.c ****   if (module == CCU80)
 223:../Libraries/XMCLib/src/xmc_ccu8.c ****   {
 224:../Libraries/XMCLib/src/xmc_ccu8.c ****     XMC_SCU_CLOCK_GatePeripheralClock(XMC_SCU_PERIPHERAL_CLOCK_CCU80);
 225:../Libraries/XMCLib/src/xmc_ccu8.c ****   }
 226:../Libraries/XMCLib/src/xmc_ccu8.c **** #if defined(CCU81)
 227:../Libraries/XMCLib/src/xmc_ccu8.c ****   else if (module == CCU81)
 228:../Libraries/XMCLib/src/xmc_ccu8.c ****   {
 229:../Libraries/XMCLib/src/xmc_ccu8.c ****     XMC_SCU_CLOCK_GatePeripheralClock(XMC_SCU_PERIPHERAL_CLOCK_CCU81);
 230:../Libraries/XMCLib/src/xmc_ccu8.c ****   }
 231:../Libraries/XMCLib/src/xmc_ccu8.c **** #endif
 232:../Libraries/XMCLib/src/xmc_ccu8.c ****   else
 233:../Libraries/XMCLib/src/xmc_ccu8.c ****   {
 234:../Libraries/XMCLib/src/xmc_ccu8.c ****     XMC_ASSERT("XMC_CCU8_lGateClock:Invalid Module Pointer", 0);
 235:../Libraries/XMCLib/src/xmc_ccu8.c ****   }
 236:../Libraries/XMCLib/src/xmc_ccu8.c **** }
 237:../Libraries/XMCLib/src/xmc_ccu8.c **** 
 238:../Libraries/XMCLib/src/xmc_ccu8.c **** __STATIC_INLINE void XMC_CCU8_lUngateClock(XMC_CCU8_MODULE_t *const module)
 239:../Libraries/XMCLib/src/xmc_ccu8.c **** {
 240:../Libraries/XMCLib/src/xmc_ccu8.c ****   if (module == CCU80)
 241:../Libraries/XMCLib/src/xmc_ccu8.c ****   {
 242:../Libraries/XMCLib/src/xmc_ccu8.c ****     XMC_SCU_CLOCK_UngatePeripheralClock(XMC_SCU_PERIPHERAL_CLOCK_CCU80);
 243:../Libraries/XMCLib/src/xmc_ccu8.c ****   }
 244:../Libraries/XMCLib/src/xmc_ccu8.c **** #if defined(CCU81)
 245:../Libraries/XMCLib/src/xmc_ccu8.c ****   else if (module == CCU81)
 246:../Libraries/XMCLib/src/xmc_ccu8.c ****   {
 247:../Libraries/XMCLib/src/xmc_ccu8.c ****     XMC_SCU_CLOCK_UngatePeripheralClock(XMC_SCU_PERIPHERAL_CLOCK_CCU81);
 248:../Libraries/XMCLib/src/xmc_ccu8.c ****   }
 249:../Libraries/XMCLib/src/xmc_ccu8.c **** #endif
 250:../Libraries/XMCLib/src/xmc_ccu8.c ****   else
 251:../Libraries/XMCLib/src/xmc_ccu8.c ****   {
 252:../Libraries/XMCLib/src/xmc_ccu8.c ****     XMC_ASSERT("XMC_CCU8_lUngateClock:Invalid Module Pointer", 0);
 253:../Libraries/XMCLib/src/xmc_ccu8.c ****   }
 254:../Libraries/XMCLib/src/xmc_ccu8.c **** }
 255:../Libraries/XMCLib/src/xmc_ccu8.c **** #endif
 256:../Libraries/XMCLib/src/xmc_ccu8.c **** 
 257:../Libraries/XMCLib/src/xmc_ccu8.c **** #if defined (XMC_ASSERT_ENABLE)
 258:../Libraries/XMCLib/src/xmc_ccu8.c **** __STATIC_INLINE bool XMC_CCU8_SLICE_IsInputvalid(XMC_CCU8_SLICE_INPUT_t input)
 259:../Libraries/XMCLib/src/xmc_ccu8.c **** {
 260:../Libraries/XMCLib/src/xmc_ccu8.c **** #if (UC_SERIES == XMC14)
 261:../Libraries/XMCLib/src/xmc_ccu8.c ****   return (input < 48U);
 262:../Libraries/XMCLib/src/xmc_ccu8.c **** #else
 263:../Libraries/XMCLib/src/xmc_ccu8.c ****   return (input < 16U);
 264:../Libraries/XMCLib/src/xmc_ccu8.c **** #endif
 265:../Libraries/XMCLib/src/xmc_ccu8.c **** }
 266:../Libraries/XMCLib/src/xmc_ccu8.c **** #endif
 267:../Libraries/XMCLib/src/xmc_ccu8.c **** /**************************************************************************************************
 268:../Libraries/XMCLib/src/xmc_ccu8.c ****  * API IMPLEMENTATION
 269:../Libraries/XMCLib/src/xmc_ccu8.c ****  **************************************************************************************************
 270:../Libraries/XMCLib/src/xmc_ccu8.c **** 
 271:../Libraries/XMCLib/src/xmc_ccu8.c **** /* API to set the CCU8 module as active and enable the clock  */
 272:../Libraries/XMCLib/src/xmc_ccu8.c **** void XMC_CCU8_EnableModule(XMC_CCU8_MODULE_t *const module)
 273:../Libraries/XMCLib/src/xmc_ccu8.c **** {
  28              	 .loc 1 273 0
  29              	 .cfi_startproc
  30              	 
  31              	 
  32              	.LVL0:
  33 0000 10B5     	 push {r4,lr}
  34              	.LCFI0:
  35              	 .cfi_def_cfa_offset 8
  36              	 .cfi_offset 4,-8
  37              	 .cfi_offset 14,-4
  38              	 .loc 1 273 0
  39 0002 0446     	 mov r4,r0
 274:../Libraries/XMCLib/src/xmc_ccu8.c ****   XMC_ASSERT("XMC_CCU8_EnableModule:Invalid Module Pointer", XMC_CCU8_IsValidModule(module));
 275:../Libraries/XMCLib/src/xmc_ccu8.c **** 
 276:../Libraries/XMCLib/src/xmc_ccu8.c **** #if (UC_FAMILY == XMC4)
 277:../Libraries/XMCLib/src/xmc_ccu8.c ****   /* Enable CCU8 module clock */
 278:../Libraries/XMCLib/src/xmc_ccu8.c ****   XMC_SCU_CLOCK_EnableClock(XMC_SCU_CLOCK_CCU);
  40              	 .loc 1 278 0
  41 0004 1020     	 movs r0,#16
  42              	.LVL1:
  43 0006 FFF7FEFF 	 bl XMC_SCU_CLOCK_EnableClock
  44              	.LVL2:
  45              	.LBB12:
  46              	.LBB13:
 202:../Libraries/XMCLib/src/xmc_ccu8.c ****   {
  47              	 .loc 1 202 0
  48 000a 074B     	 ldr r3,.L6
  49 000c 9C42     	 cmp r4,r3
  50 000e 01D1     	 bne .L2
 204:../Libraries/XMCLib/src/xmc_ccu8.c ****   }
  51              	 .loc 1 204 0
  52 0010 8020     	 movs r0,#128
  53 0012 04E0     	 b .L4
  54              	.L2:
 207:../Libraries/XMCLib/src/xmc_ccu8.c ****   {
  55              	 .loc 1 207 0
  56 0014 054B     	 ldr r3,.L6+4
  57 0016 9C42     	 cmp r4,r3
  58 0018 05D1     	 bne .L1
 209:../Libraries/XMCLib/src/xmc_ccu8.c ****   }
  59              	 .loc 1 209 0
  60 001a 4FF48070 	 mov r0,#256
  61              	.L4:
  62              	.LBE13:
  63              	.LBE12:
 279:../Libraries/XMCLib/src/xmc_ccu8.c **** #endif
 280:../Libraries/XMCLib/src/xmc_ccu8.c **** 
 281:../Libraries/XMCLib/src/xmc_ccu8.c **** #if defined(CLOCK_GATING_SUPPORTED)
 282:../Libraries/XMCLib/src/xmc_ccu8.c ****   XMC_CCU8_lUngateClock(module);
 283:../Libraries/XMCLib/src/xmc_ccu8.c **** #endif
 284:../Libraries/XMCLib/src/xmc_ccu8.c **** 
 285:../Libraries/XMCLib/src/xmc_ccu8.c **** #if defined(PERIPHERAL_RESET_SUPPORTED)
 286:../Libraries/XMCLib/src/xmc_ccu8.c ****   XMC_CCU8_lDeassertReset(module);
 287:../Libraries/XMCLib/src/xmc_ccu8.c **** #endif
 288:../Libraries/XMCLib/src/xmc_ccu8.c **** }
  64              	 .loc 1 288 0
  65 001e BDE81040 	 pop {r4,lr}
  66              	.LCFI1:
  67              	 .cfi_remember_state
  68              	 .cfi_restore 14
  69              	 .cfi_restore 4
  70              	 .cfi_def_cfa_offset 0
  71              	.LVL3:
  72              	.LBB15:
  73              	.LBB14:
 209:../Libraries/XMCLib/src/xmc_ccu8.c ****   }
  74              	 .loc 1 209 0
  75 0022 FFF7FEBF 	 b XMC_SCU_RESET_DeassertPeripheralReset
  76              	.LVL4:
  77              	.L1:
  78              	.LCFI2:
  79              	 .cfi_restore_state
  80 0026 10BD     	 pop {r4,pc}
  81              	.LVL5:
  82              	.L7:
  83              	 .align 2
  84              	.L6:
  85 0028 00000240 	 .word 1073872896
  86 002c 00400240 	 .word 1073889280
  87              	.LBE14:
  88              	.LBE15:
  89              	 .cfi_endproc
  90              	.LFE233:
  92              	 .section .text.XMC_CCU8_DisableModule,"ax",%progbits
  93              	 .align 1
  94              	 .global XMC_CCU8_DisableModule
  95              	 .thumb
  96              	 .thumb_func
  98              	XMC_CCU8_DisableModule:
  99              	.LFB234:
 289:../Libraries/XMCLib/src/xmc_ccu8.c **** 
 290:../Libraries/XMCLib/src/xmc_ccu8.c **** /* API to set the CCU8 module as idle and disable the clock  */
 291:../Libraries/XMCLib/src/xmc_ccu8.c **** void XMC_CCU8_DisableModule(XMC_CCU8_MODULE_t *const module)
 292:../Libraries/XMCLib/src/xmc_ccu8.c **** {
 100              	 .loc 1 292 0
 101              	 .cfi_startproc
 102              	 
 103              	 
 104              	 
 105              	.LVL6:
 106              	.LBB18:
 107              	.LBB19:
 184:../Libraries/XMCLib/src/xmc_ccu8.c ****   {
 108              	 .loc 1 184 0
 109 0000 064B     	 ldr r3,.L12
 110 0002 9842     	 cmp r0,r3
 111 0004 01D1     	 bne .L9
 186:../Libraries/XMCLib/src/xmc_ccu8.c ****   }
 112              	 .loc 1 186 0
 113 0006 8020     	 movs r0,#128
 114              	.LVL7:
 115 0008 04E0     	 b .L11
 116              	.LVL8:
 117              	.L9:
 189:../Libraries/XMCLib/src/xmc_ccu8.c ****   {
 118              	 .loc 1 189 0
 119 000a 054B     	 ldr r3,.L12+4
 120 000c 9842     	 cmp r0,r3
 121 000e 03D1     	 bne .L8
 191:../Libraries/XMCLib/src/xmc_ccu8.c ****   }
 122              	 .loc 1 191 0
 123 0010 4FF48070 	 mov r0,#256
 124              	.LVL9:
 125              	.L11:
 126 0014 FFF7FEBF 	 b XMC_SCU_RESET_AssertPeripheralReset
 127              	.LVL10:
 128              	.L8:
 129 0018 7047     	 bx lr
 130              	.L13:
 131 001a 00BF     	 .align 2
 132              	.L12:
 133 001c 00000240 	 .word 1073872896
 134 0020 00400240 	 .word 1073889280
 135              	.LBE19:
 136              	.LBE18:
 137              	 .cfi_endproc
 138              	.LFE234:
 140              	 .section .text.XMC_CCU8_Init,"ax",%progbits
 141              	 .align 1
 142              	 .global XMC_CCU8_Init
 143              	 .thumb
 144              	 .thumb_func
 146              	XMC_CCU8_Init:
 147              	.LFB235:
 293:../Libraries/XMCLib/src/xmc_ccu8.c ****   XMC_ASSERT("XMC_CCU8_DisableModule:Invalid Module Pointer", XMC_CCU8_IsValidModule(module));
 294:../Libraries/XMCLib/src/xmc_ccu8.c **** 
 295:../Libraries/XMCLib/src/xmc_ccu8.c **** #if defined(PERIPHERAL_RESET_SUPPORTED)
 296:../Libraries/XMCLib/src/xmc_ccu8.c ****   XMC_CCU8_lAssertReset(module);
 297:../Libraries/XMCLib/src/xmc_ccu8.c **** #endif
 298:../Libraries/XMCLib/src/xmc_ccu8.c **** 
 299:../Libraries/XMCLib/src/xmc_ccu8.c **** #if defined(CLOCK_GATING_SUPPORTED)
 300:../Libraries/XMCLib/src/xmc_ccu8.c ****   XMC_CCU8_lGateClock(module);
 301:../Libraries/XMCLib/src/xmc_ccu8.c **** #endif
 302:../Libraries/XMCLib/src/xmc_ccu8.c **** }
 303:../Libraries/XMCLib/src/xmc_ccu8.c **** 
 304:../Libraries/XMCLib/src/xmc_ccu8.c **** /* API to initialize CCU8 global resources  */
 305:../Libraries/XMCLib/src/xmc_ccu8.c **** void XMC_CCU8_Init(XMC_CCU8_MODULE_t *const module, const XMC_CCU8_SLICE_MCMS_ACTION_t mcs_action)
 306:../Libraries/XMCLib/src/xmc_ccu8.c **** {
 148              	 .loc 1 306 0
 149              	 .cfi_startproc
 150              	 
 151              	 
 152              	.LVL11:
 153 0000 38B5     	 push {r3,r4,r5,lr}
 154              	.LCFI3:
 155              	 .cfi_def_cfa_offset 16
 156              	 .cfi_offset 3,-16
 157              	 .cfi_offset 4,-12
 158              	 .cfi_offset 5,-8
 159              	 .cfi_offset 14,-4
 160              	 .loc 1 306 0
 161 0002 0446     	 mov r4,r0
 162 0004 0D46     	 mov r5,r1
 307:../Libraries/XMCLib/src/xmc_ccu8.c ****   uint32_t gctrl;
 308:../Libraries/XMCLib/src/xmc_ccu8.c **** 
 309:../Libraries/XMCLib/src/xmc_ccu8.c ****   XMC_ASSERT("XMC_CCU8_Init:Invalid Module Pointer", XMC_CCU8_IsValidModule(module));
 310:../Libraries/XMCLib/src/xmc_ccu8.c ****   XMC_ASSERT("XMC_CCU8_Init:Invalid mcs action", XMC_CCU8_SLICE_CHECK_MCS_ACTION(mcs_action));
 311:../Libraries/XMCLib/src/xmc_ccu8.c **** 
 312:../Libraries/XMCLib/src/xmc_ccu8.c ****   /* Enable CCU8 module */
 313:../Libraries/XMCLib/src/xmc_ccu8.c ****   XMC_CCU8_EnableModule(module);
 163              	 .loc 1 313 0
 164 0006 FFF7FEFF 	 bl XMC_CCU8_EnableModule
 165              	.LVL12:
 166              	.LBB20:
 167              	.LBB21:
 168              	 .file 2 "G:/dt_g1_balancing_plate_wise20192020/XMC/Libraries/XMCLib/inc/xmc_ccu8.h"
   1:G:/dt_g1_balancing_plate_wise20192020/XMC/Libraries/XMCLib/inc\xmc_ccu8.h **** /**
   2:G:/dt_g1_balancing_plate_wise20192020/XMC/Libraries/XMCLib/inc\xmc_ccu8.h ****  * @file xmc_ccu8.h
   3:G:/dt_g1_balancing_plate_wise20192020/XMC/Libraries/XMCLib/inc\xmc_ccu8.h ****  * @date 2019-03-30
   4:G:/dt_g1_balancing_plate_wise20192020/XMC/Libraries/XMCLib/inc\xmc_ccu8.h ****  *
   5:G:/dt_g1_balancing_plate_wise20192020/XMC/Libraries/XMCLib/inc\xmc_ccu8.h ****  * @cond
   6:G:/dt_g1_balancing_plate_wise20192020/XMC/Libraries/XMCLib/inc\xmc_ccu8.h ****  **************************************************************************************************
   7:G:/dt_g1_balancing_plate_wise20192020/XMC/Libraries/XMCLib/inc\xmc_ccu8.h ****  * XMClib v2.1.22 - XMC Peripheral Driver Library 
   8:G:/dt_g1_balancing_plate_wise20192020/XMC/Libraries/XMCLib/inc\xmc_ccu8.h ****  *
   9:G:/dt_g1_balancing_plate_wise20192020/XMC/Libraries/XMCLib/inc\xmc_ccu8.h ****  * Copyright (c) 2015-2019, Infineon Technologies AG
  10:G:/dt_g1_balancing_plate_wise20192020/XMC/Libraries/XMCLib/inc\xmc_ccu8.h ****  * All rights reserved.                        
  11:G:/dt_g1_balancing_plate_wise20192020/XMC/Libraries/XMCLib/inc\xmc_ccu8.h ****  *                                             
  12:G:/dt_g1_balancing_plate_wise20192020/XMC/Libraries/XMCLib/inc\xmc_ccu8.h ****  * Redistribution and use in source and binary forms, with or without modification,are permitted pr
  13:G:/dt_g1_balancing_plate_wise20192020/XMC/Libraries/XMCLib/inc\xmc_ccu8.h ****  * following conditions are met:   
  14:G:/dt_g1_balancing_plate_wise20192020/XMC/Libraries/XMCLib/inc\xmc_ccu8.h ****  *                                                                              
  15:G:/dt_g1_balancing_plate_wise20192020/XMC/Libraries/XMCLib/inc\xmc_ccu8.h ****  * Redistributions of source code must retain the above copyright notice, this list of conditions a
  16:G:/dt_g1_balancing_plate_wise20192020/XMC/Libraries/XMCLib/inc\xmc_ccu8.h ****  * disclaimer.                        
  17:G:/dt_g1_balancing_plate_wise20192020/XMC/Libraries/XMCLib/inc\xmc_ccu8.h ****  * 
  18:G:/dt_g1_balancing_plate_wise20192020/XMC/Libraries/XMCLib/inc\xmc_ccu8.h ****  * Redistributions in binary form must reproduce the above copyright notice, this list of condition
  19:G:/dt_g1_balancing_plate_wise20192020/XMC/Libraries/XMCLib/inc\xmc_ccu8.h ****  * disclaimer in the documentation and/or other materials provided with the distribution.          
  20:G:/dt_g1_balancing_plate_wise20192020/XMC/Libraries/XMCLib/inc\xmc_ccu8.h ****  * 
  21:G:/dt_g1_balancing_plate_wise20192020/XMC/Libraries/XMCLib/inc\xmc_ccu8.h ****  * Neither the name of the copyright holders nor the names of its contributors may be used to endor
  22:G:/dt_g1_balancing_plate_wise20192020/XMC/Libraries/XMCLib/inc\xmc_ccu8.h ****  * products derived from this software without specific prior written permission.                  
  23:G:/dt_g1_balancing_plate_wise20192020/XMC/Libraries/XMCLib/inc\xmc_ccu8.h ****  *                                                                              
  24:G:/dt_g1_balancing_plate_wise20192020/XMC/Libraries/XMCLib/inc\xmc_ccu8.h ****  * THIS SOFTWARE IS PROVIDED BY THE COPYRIGHT HOLDERS AND CONTRIBUTORS "AS IS" AND ANY EXPRESS OR I
  25:G:/dt_g1_balancing_plate_wise20192020/XMC/Libraries/XMCLib/inc\xmc_ccu8.h ****  * INCLUDING, BUT NOT LIMITED TO, THE IMPLIED WARRANTIES OF MERCHANTABILITY AND FITNESS FOR A PARTI
  26:G:/dt_g1_balancing_plate_wise20192020/XMC/Libraries/XMCLib/inc\xmc_ccu8.h ****  * DISCLAIMED. IN NO EVENT SHALL THE COPYRIGHT HOLDER OR CONTRIBUTORS BE LIABLE  FOR ANY DIRECT, IN
  27:G:/dt_g1_balancing_plate_wise20192020/XMC/Libraries/XMCLib/inc\xmc_ccu8.h ****  * SPECIAL, EXEMPLARY, OR CONSEQUENTIAL DAMAGES (INCLUDING, BUT NOT LIMITED TO, PROCUREMENT OF SUBS
  28:G:/dt_g1_balancing_plate_wise20192020/XMC/Libraries/XMCLib/inc\xmc_ccu8.h ****  * SERVICES; LOSS OF USE, DATA, OR PROFITS; OR BUSINESS INTERRUPTION) HOWEVER CAUSED AND ON ANY THE
  29:G:/dt_g1_balancing_plate_wise20192020/XMC/Libraries/XMCLib/inc\xmc_ccu8.h ****  * WHETHER IN CONTRACT, STRICT LIABILITY,OR TORT (INCLUDING NEGLIGENCE OR OTHERWISE) ARISING IN ANY
  30:G:/dt_g1_balancing_plate_wise20192020/XMC/Libraries/XMCLib/inc\xmc_ccu8.h ****  * OF THIS SOFTWARE, EVEN IF ADVISED OF THE POSSIBILITY OF SUCH DAMAGE.                            
  31:G:/dt_g1_balancing_plate_wise20192020/XMC/Libraries/XMCLib/inc\xmc_ccu8.h ****  *                                                                              
  32:G:/dt_g1_balancing_plate_wise20192020/XMC/Libraries/XMCLib/inc\xmc_ccu8.h ****  * To improve the quality of the software, users are encouraged to share modifications, enhancement
  33:G:/dt_g1_balancing_plate_wise20192020/XMC/Libraries/XMCLib/inc\xmc_ccu8.h ****  * Infineon Technologies AG dave@infineon.com).                                                    
  34:G:/dt_g1_balancing_plate_wise20192020/XMC/Libraries/XMCLib/inc\xmc_ccu8.h ****  **************************************************************************************************
  35:G:/dt_g1_balancing_plate_wise20192020/XMC/Libraries/XMCLib/inc\xmc_ccu8.h ****  *
  36:G:/dt_g1_balancing_plate_wise20192020/XMC/Libraries/XMCLib/inc\xmc_ccu8.h ****  * Change History
  37:G:/dt_g1_balancing_plate_wise20192020/XMC/Libraries/XMCLib/inc\xmc_ccu8.h ****  * --------------
  38:G:/dt_g1_balancing_plate_wise20192020/XMC/Libraries/XMCLib/inc\xmc_ccu8.h ****  *
  39:G:/dt_g1_balancing_plate_wise20192020/XMC/Libraries/XMCLib/inc\xmc_ccu8.h ****  * 2015-02-20:
  40:G:/dt_g1_balancing_plate_wise20192020/XMC/Libraries/XMCLib/inc\xmc_ccu8.h ****  *     - Initial <br>
  41:G:/dt_g1_balancing_plate_wise20192020/XMC/Libraries/XMCLib/inc\xmc_ccu8.h ****  *     - Documentation updates <br>
  42:G:/dt_g1_balancing_plate_wise20192020/XMC/Libraries/XMCLib/inc\xmc_ccu8.h ****  *
  43:G:/dt_g1_balancing_plate_wise20192020/XMC/Libraries/XMCLib/inc\xmc_ccu8.h ****  * 2015-06-20:
  44:G:/dt_g1_balancing_plate_wise20192020/XMC/Libraries/XMCLib/inc\xmc_ccu8.h ****  *     - Removed version macros and declaration of GetDriverVersion API <br>
  45:G:/dt_g1_balancing_plate_wise20192020/XMC/Libraries/XMCLib/inc\xmc_ccu8.h ****  *     - Added XMC_CCU8_SLICE_LoadSelector() API, to select which compare register value has to be 
  46:G:/dt_g1_balancing_plate_wise20192020/XMC/Libraries/XMCLib/inc\xmc_ccu8.h ****  *       during external load event.
  47:G:/dt_g1_balancing_plate_wise20192020/XMC/Libraries/XMCLib/inc\xmc_ccu8.h ****  *
  48:G:/dt_g1_balancing_plate_wise20192020/XMC/Libraries/XMCLib/inc\xmc_ccu8.h ****  * 2015-07-01:
  49:G:/dt_g1_balancing_plate_wise20192020/XMC/Libraries/XMCLib/inc\xmc_ccu8.h ****  *     - In XMC_CCU8_SLICE_CHECK_INTERRUPT macro, fixed the missing item for compare match down for
  50:G:/dt_g1_balancing_plate_wise20192020/XMC/Libraries/XMCLib/inc\xmc_ccu8.h ****  *
  51:G:/dt_g1_balancing_plate_wise20192020/XMC/Libraries/XMCLib/inc\xmc_ccu8.h ****  * 2015-07-24:
  52:G:/dt_g1_balancing_plate_wise20192020/XMC/Libraries/XMCLib/inc\xmc_ccu8.h ****  *     - XMC_CCU8_SLICE_ConfigureStatusBitOverrideEvent() is updated to support XMC14 device. <br>
  53:G:/dt_g1_balancing_plate_wise20192020/XMC/Libraries/XMCLib/inc\xmc_ccu8.h ****  *
  54:G:/dt_g1_balancing_plate_wise20192020/XMC/Libraries/XMCLib/inc\xmc_ccu8.h ****  * 2015-08-17:
  55:G:/dt_g1_balancing_plate_wise20192020/XMC/Libraries/XMCLib/inc\xmc_ccu8.h ****  *     - XMC_CCU8_SLICE_PRESCALER_t enum is added to set the prescaler divider. <br>
  56:G:/dt_g1_balancing_plate_wise20192020/XMC/Libraries/XMCLib/inc\xmc_ccu8.h ****  *     - XMC_CCU8_SLICE_SHADOW_TRANSFER_MODE_t is added for all the devices except XMC45 devices, t
  57:G:/dt_g1_balancing_plate_wise20192020/XMC/Libraries/XMCLib/inc\xmc_ccu8.h ****  *       shadow transfer has to happen. <br>
  58:G:/dt_g1_balancing_plate_wise20192020/XMC/Libraries/XMCLib/inc\xmc_ccu8.h ****  *     - XMC_CCU8_SOURCE_OUT0_t, XMC_CCU8_SOURCE_OUT1_t, XMC_CCU8_SOURCE_OUT2_t, XMC_CCU8_SOURCE_OU
  59:G:/dt_g1_balancing_plate_wise20192020/XMC/Libraries/XMCLib/inc\xmc_ccu8.h ****  *       to maps one of the ST to OUT0, OUT1, OUT3, OUT4 signals.
  60:G:/dt_g1_balancing_plate_wise20192020/XMC/Libraries/XMCLib/inc\xmc_ccu8.h ****  *     - In XMC_CCU8_SLICE_COMPARE_CONFIG_t structure, selector_out0, selector_out1, selector_out2,
  61:G:/dt_g1_balancing_plate_wise20192020/XMC/Libraries/XMCLib/inc\xmc_ccu8.h ****  *       added to support XMC14 devices.
  62:G:/dt_g1_balancing_plate_wise20192020/XMC/Libraries/XMCLib/inc\xmc_ccu8.h ****  *     - XMC_CCU8_EnableShadowTransfer() API is made as inline, to improve the speed. <br>
  63:G:/dt_g1_balancing_plate_wise20192020/XMC/Libraries/XMCLib/inc\xmc_ccu8.h ****  *     - XMC_CCU8_SLICE_EnableCascadedShadowTransfer(), XMC_CCU8_SLICE_DisableCascadedShadowTransfe
  64:G:/dt_g1_balancing_plate_wise20192020/XMC/Libraries/XMCLib/inc\xmc_ccu8.h ****  *       XMC_CCU8_SLICE_SetShadowTransferMode() API are supported for all the devices except XMC45.
  65:G:/dt_g1_balancing_plate_wise20192020/XMC/Libraries/XMCLib/inc\xmc_ccu8.h ****  *
  66:G:/dt_g1_balancing_plate_wise20192020/XMC/Libraries/XMCLib/inc\xmc_ccu8.h ****  * 2015-09-29:
  67:G:/dt_g1_balancing_plate_wise20192020/XMC/Libraries/XMCLib/inc\xmc_ccu8.h ****  *     - In XMC_CCU8_SLICE_EVENT_LEVEL_SENSITIVITY_t, two more enum items are added to support exte
  68:G:/dt_g1_balancing_plate_wise20192020/XMC/Libraries/XMCLib/inc\xmc_ccu8.h ****  *       settings.
  69:G:/dt_g1_balancing_plate_wise20192020/XMC/Libraries/XMCLib/inc\xmc_ccu8.h ****  *
  70:G:/dt_g1_balancing_plate_wise20192020/XMC/Libraries/XMCLib/inc\xmc_ccu8.h ****  * 2015-10-07:
  71:G:/dt_g1_balancing_plate_wise20192020/XMC/Libraries/XMCLib/inc\xmc_ccu8.h ****  *     - XMC_CCU8_SLICE_SetTimerCompareMatchChannel1(), XMC_CCU8_SLICE_SetTimerCompareMatchChannel2
  72:G:/dt_g1_balancing_plate_wise20192020/XMC/Libraries/XMCLib/inc\xmc_ccu8.h ****  *       added to update the respective compare registers directly.
  73:G:/dt_g1_balancing_plate_wise20192020/XMC/Libraries/XMCLib/inc\xmc_ccu8.h ****  *     - XMC_CCU8_SLICE_GetEvent() is made as inline.
  74:G:/dt_g1_balancing_plate_wise20192020/XMC/Libraries/XMCLib/inc\xmc_ccu8.h ****  *     - XMC_CCU8_SLICE_MULTI_IRQ_ID_t is added to support the XMC_CCU8_SLICE_EnableMultipleEvents(
  75:G:/dt_g1_balancing_plate_wise20192020/XMC/Libraries/XMCLib/inc\xmc_ccu8.h ****  *       XMC_CCU8_SLICE_DisableMultipleEvents() APIs.
  76:G:/dt_g1_balancing_plate_wise20192020/XMC/Libraries/XMCLib/inc\xmc_ccu8.h ****  *     - DOC updates for the newly added APIs.
  77:G:/dt_g1_balancing_plate_wise20192020/XMC/Libraries/XMCLib/inc\xmc_ccu8.h ****  *
  78:G:/dt_g1_balancing_plate_wise20192020/XMC/Libraries/XMCLib/inc\xmc_ccu8.h ****  * 2016-03-09:
  79:G:/dt_g1_balancing_plate_wise20192020/XMC/Libraries/XMCLib/inc\xmc_ccu8.h ****  *     - Optimization of write only registers
  80:G:/dt_g1_balancing_plate_wise20192020/XMC/Libraries/XMCLib/inc\xmc_ccu8.h ****  *
  81:G:/dt_g1_balancing_plate_wise20192020/XMC/Libraries/XMCLib/inc\xmc_ccu8.h ****  * 2016-05-20:
  82:G:/dt_g1_balancing_plate_wise20192020/XMC/Libraries/XMCLib/inc\xmc_ccu8.h ****  *     - Added XMC_CCU8_SLICE_StopClearTimer()
  83:G:/dt_g1_balancing_plate_wise20192020/XMC/Libraries/XMCLib/inc\xmc_ccu8.h ****  *     - Changed XMC_CCU8_SLICE_StopTimer() and XMC_CCU8_SLICE_ClearTimer() 
  84:G:/dt_g1_balancing_plate_wise20192020/XMC/Libraries/XMCLib/inc\xmc_ccu8.h ****  *
  85:G:/dt_g1_balancing_plate_wise20192020/XMC/Libraries/XMCLib/inc\xmc_ccu8.h ****  * 2017-04-27:
  86:G:/dt_g1_balancing_plate_wise20192020/XMC/Libraries/XMCLib/inc\xmc_ccu8.h ****  *     - XMC_CCU8_SLICE_SetPrescaler() changed div_val parameter to type XMC_CCU8_SLICE_PRESCALER_t
  87:G:/dt_g1_balancing_plate_wise20192020/XMC/Libraries/XMCLib/inc\xmc_ccu8.h ****  *
  88:G:/dt_g1_balancing_plate_wise20192020/XMC/Libraries/XMCLib/inc\xmc_ccu8.h ****  * 2017-09-15:
  89:G:/dt_g1_balancing_plate_wise20192020/XMC/Libraries/XMCLib/inc\xmc_ccu8.h ****  *     - Fix XMC_CCU8_SLICE_SetShadowTransferMode()
  90:G:/dt_g1_balancing_plate_wise20192020/XMC/Libraries/XMCLib/inc\xmc_ccu8.h ****  *     - Added parity checking functionality
  91:G:/dt_g1_balancing_plate_wise20192020/XMC/Libraries/XMCLib/inc\xmc_ccu8.h ****  *
  92:G:/dt_g1_balancing_plate_wise20192020/XMC/Libraries/XMCLib/inc\xmc_ccu8.h ****  * 2019-03-30:
  93:G:/dt_g1_balancing_plate_wise20192020/XMC/Libraries/XMCLib/inc\xmc_ccu8.h ****  *     - Changed XMC_CCU8_StartPrescaler(), XMC_CCU8_StartParityChecker(), XMC_CCU8_StopPrescaler()
  94:G:/dt_g1_balancing_plate_wise20192020/XMC/Libraries/XMCLib/inc\xmc_ccu8.h ****  *       XMC_CCU8_EnableMultipleClocks(), XMC_CCU8_EnableClock(), XMC_CCU8_DisableClock() to avoid 
  95:G:/dt_g1_balancing_plate_wise20192020/XMC/Libraries/XMCLib/inc\xmc_ccu8.h ****  *     - Changed XMC_CCU8_SLICE_SetEvent(), XMC_CCU8_SLICE_ClearEvent() to avoid RMW access
  96:G:/dt_g1_balancing_plate_wise20192020/XMC/Libraries/XMCLib/inc\xmc_ccu8.h ****  *     - Added XMC_CCU8_SetSuspendMode(), XMC_CCU8_SLICE_GetPrescaler()
  97:G:/dt_g1_balancing_plate_wise20192020/XMC/Libraries/XMCLib/inc\xmc_ccu8.h ****  *     - Added XMC_CCU8_SLICE_GetTimerCompareMatchChannel1() and XMC_CCU8_SLICE_GetTimerCompareMatc
  98:G:/dt_g1_balancing_plate_wise20192020/XMC/Libraries/XMCLib/inc\xmc_ccu8.h ****  * 
  99:G:/dt_g1_balancing_plate_wise20192020/XMC/Libraries/XMCLib/inc\xmc_ccu8.h ****  * @endcond
 100:G:/dt_g1_balancing_plate_wise20192020/XMC/Libraries/XMCLib/inc\xmc_ccu8.h ****  */
 101:G:/dt_g1_balancing_plate_wise20192020/XMC/Libraries/XMCLib/inc\xmc_ccu8.h **** 
 102:G:/dt_g1_balancing_plate_wise20192020/XMC/Libraries/XMCLib/inc\xmc_ccu8.h **** #ifndef XMC_CCU8_H
 103:G:/dt_g1_balancing_plate_wise20192020/XMC/Libraries/XMCLib/inc\xmc_ccu8.h **** #define XMC_CCU8_H
 104:G:/dt_g1_balancing_plate_wise20192020/XMC/Libraries/XMCLib/inc\xmc_ccu8.h **** 
 105:G:/dt_g1_balancing_plate_wise20192020/XMC/Libraries/XMCLib/inc\xmc_ccu8.h **** /**************************************************************************************************
 106:G:/dt_g1_balancing_plate_wise20192020/XMC/Libraries/XMCLib/inc\xmc_ccu8.h ****  * HEADER FILES
 107:G:/dt_g1_balancing_plate_wise20192020/XMC/Libraries/XMCLib/inc\xmc_ccu8.h ****  **************************************************************************************************
 108:G:/dt_g1_balancing_plate_wise20192020/XMC/Libraries/XMCLib/inc\xmc_ccu8.h **** #include "xmc_common.h"
 109:G:/dt_g1_balancing_plate_wise20192020/XMC/Libraries/XMCLib/inc\xmc_ccu8.h **** 
 110:G:/dt_g1_balancing_plate_wise20192020/XMC/Libraries/XMCLib/inc\xmc_ccu8.h **** #if defined(CCU80)
 111:G:/dt_g1_balancing_plate_wise20192020/XMC/Libraries/XMCLib/inc\xmc_ccu8.h **** 
 112:G:/dt_g1_balancing_plate_wise20192020/XMC/Libraries/XMCLib/inc\xmc_ccu8.h **** #if UC_FAMILY == XMC1
 113:G:/dt_g1_balancing_plate_wise20192020/XMC/Libraries/XMCLib/inc\xmc_ccu8.h ****  #include "xmc1_ccu8_map.h"
 114:G:/dt_g1_balancing_plate_wise20192020/XMC/Libraries/XMCLib/inc\xmc_ccu8.h **** #endif
 115:G:/dt_g1_balancing_plate_wise20192020/XMC/Libraries/XMCLib/inc\xmc_ccu8.h **** 
 116:G:/dt_g1_balancing_plate_wise20192020/XMC/Libraries/XMCLib/inc\xmc_ccu8.h **** #if UC_FAMILY == XMC4
 117:G:/dt_g1_balancing_plate_wise20192020/XMC/Libraries/XMCLib/inc\xmc_ccu8.h ****  #include "xmc4_ccu8_map.h"
 118:G:/dt_g1_balancing_plate_wise20192020/XMC/Libraries/XMCLib/inc\xmc_ccu8.h **** #endif
 119:G:/dt_g1_balancing_plate_wise20192020/XMC/Libraries/XMCLib/inc\xmc_ccu8.h **** 
 120:G:/dt_g1_balancing_plate_wise20192020/XMC/Libraries/XMCLib/inc\xmc_ccu8.h **** /**
 121:G:/dt_g1_balancing_plate_wise20192020/XMC/Libraries/XMCLib/inc\xmc_ccu8.h ****  * @addtogroup XMClib XMC Peripheral Library
 122:G:/dt_g1_balancing_plate_wise20192020/XMC/Libraries/XMCLib/inc\xmc_ccu8.h ****  * @{
 123:G:/dt_g1_balancing_plate_wise20192020/XMC/Libraries/XMCLib/inc\xmc_ccu8.h ****  */
 124:G:/dt_g1_balancing_plate_wise20192020/XMC/Libraries/XMCLib/inc\xmc_ccu8.h **** 
 125:G:/dt_g1_balancing_plate_wise20192020/XMC/Libraries/XMCLib/inc\xmc_ccu8.h **** /**
 126:G:/dt_g1_balancing_plate_wise20192020/XMC/Libraries/XMCLib/inc\xmc_ccu8.h ****  * @addtogroup CCU8
 127:G:/dt_g1_balancing_plate_wise20192020/XMC/Libraries/XMCLib/inc\xmc_ccu8.h ****  *
 128:G:/dt_g1_balancing_plate_wise20192020/XMC/Libraries/XMCLib/inc\xmc_ccu8.h ****  * @brief Capture Compare Unit 8 (CCU8) low level driver for XMC family of microcontrollers<br>
 129:G:/dt_g1_balancing_plate_wise20192020/XMC/Libraries/XMCLib/inc\xmc_ccu8.h ****  *
 130:G:/dt_g1_balancing_plate_wise20192020/XMC/Libraries/XMCLib/inc\xmc_ccu8.h ****  * The CCU8 peripheral functions play a major role in applications that need complex Pulse Width Mo
 131:G:/dt_g1_balancing_plate_wise20192020/XMC/Libraries/XMCLib/inc\xmc_ccu8.h ****  * generation, with complementary high side and low side switches, multi phase control. These funct
 132:G:/dt_g1_balancing_plate_wise20192020/XMC/Libraries/XMCLib/inc\xmc_ccu8.h ****  * with a very flexible and programmable signal conditioning scheme, make the CCU8 the must have pe
 133:G:/dt_g1_balancing_plate_wise20192020/XMC/Libraries/XMCLib/inc\xmc_ccu8.h ****  * of the art motor control, multi phase and multi level power electronics systems.\n
 134:G:/dt_g1_balancing_plate_wise20192020/XMC/Libraries/XMCLib/inc\xmc_ccu8.h ****  * Each CCU8 module is comprised of four identical 16 bit Capture/Compare Timer slices, CC8y (where
 135:G:/dt_g1_balancing_plate_wise20192020/XMC/Libraries/XMCLib/inc\xmc_ccu8.h ****  * timer slice can work in compare mode or in capture mode.
 136:G:/dt_g1_balancing_plate_wise20192020/XMC/Libraries/XMCLib/inc\xmc_ccu8.h ****  *
 137:G:/dt_g1_balancing_plate_wise20192020/XMC/Libraries/XMCLib/inc\xmc_ccu8.h ****  * APIs provided in this file cover the following functional blocks of CCU8:
 138:G:/dt_g1_balancing_plate_wise20192020/XMC/Libraries/XMCLib/inc\xmc_ccu8.h ****  * -- Timer configuration, Capture configuration, Function/Event configuration, Interrupt configura
 139:G:/dt_g1_balancing_plate_wise20192020/XMC/Libraries/XMCLib/inc\xmc_ccu8.h ****  * \par Note:
 140:G:/dt_g1_balancing_plate_wise20192020/XMC/Libraries/XMCLib/inc\xmc_ccu8.h ****  * 1. SLICE (APIs prefixed with e.g. XMC_CCU8_SLICE_)
 141:G:/dt_g1_balancing_plate_wise20192020/XMC/Libraries/XMCLib/inc\xmc_ccu8.h ****  * 2. Module (APIs are not having any prefix e.g. XMC_CCU8_)
 142:G:/dt_g1_balancing_plate_wise20192020/XMC/Libraries/XMCLib/inc\xmc_ccu8.h ****  *
 143:G:/dt_g1_balancing_plate_wise20192020/XMC/Libraries/XMCLib/inc\xmc_ccu8.h ****  * \par Timer(Compare mode) configuration:
 144:G:/dt_g1_balancing_plate_wise20192020/XMC/Libraries/XMCLib/inc\xmc_ccu8.h ****  * This section of the LLD provides the configuration structure XMC_CCU8_SLICE_COMPARE_CONFIG_t, 
 145:G:/dt_g1_balancing_plate_wise20192020/XMC/Libraries/XMCLib/inc\xmc_ccu8.h ****  * XMC_CCU8_SLICE_DEAD_TIME_CONFIG_t and the initialization functions XMC_CCU8_SLICE_CompareInit(),
 146:G:/dt_g1_balancing_plate_wise20192020/XMC/Libraries/XMCLib/inc\xmc_ccu8.h ****  *
 147:G:/dt_g1_balancing_plate_wise20192020/XMC/Libraries/XMCLib/inc\xmc_ccu8.h ****  * It can be used to:
 148:G:/dt_g1_balancing_plate_wise20192020/XMC/Libraries/XMCLib/inc\xmc_ccu8.h ****  * -# Start and Stop the timer. (XMC_CCU8_SLICE_StartTimer(), XMC_CCU8_SLICE_StopTimer())
 149:G:/dt_g1_balancing_plate_wise20192020/XMC/Libraries/XMCLib/inc\xmc_ccu8.h ****  * -# Update the period, compare, Dither, Prescaler  and Passive values. (XMC_CCU8_SLICE_SetTimerPe
 150:G:/dt_g1_balancing_plate_wise20192020/XMC/Libraries/XMCLib/inc\xmc_ccu8.h ****  *    XMC_CCU8_SLICE_SetTimerCompareMatch(), XMC_CCU8_SLICE_SetPrescaler(), XMC_CCU8_SLICE_SetDithe
 151:G:/dt_g1_balancing_plate_wise20192020/XMC/Libraries/XMCLib/inc\xmc_ccu8.h ****  *    XMC_CCU8_SLICE_SetPassiveLevel())
 152:G:/dt_g1_balancing_plate_wise20192020/XMC/Libraries/XMCLib/inc\xmc_ccu8.h ****  * -# Configure the dead time.(XMC_CCU8_SLICE_SetDeadTimeValue(), XMC_CCU8_SLICE_SetDeadTimePrescal
 153:G:/dt_g1_balancing_plate_wise20192020/XMC/Libraries/XMCLib/inc\xmc_ccu8.h ****  * -# Enable the slices to support multichannel mode. (XMC_CCU8_SLICE_EnableMultiChannelMode())
 154:G:/dt_g1_balancing_plate_wise20192020/XMC/Libraries/XMCLib/inc\xmc_ccu8.h ****  * 
 155:G:/dt_g1_balancing_plate_wise20192020/XMC/Libraries/XMCLib/inc\xmc_ccu8.h ****  * \par Capture configuration:
 156:G:/dt_g1_balancing_plate_wise20192020/XMC/Libraries/XMCLib/inc\xmc_ccu8.h ****  * This section of the LLD provides the configuration structure XMC_CCU8_SLICE_CAPTURE_CONFIG_t and
 157:G:/dt_g1_balancing_plate_wise20192020/XMC/Libraries/XMCLib/inc\xmc_ccu8.h ****  * function XMC_CCU8_SLICE_CaptureInit().
 158:G:/dt_g1_balancing_plate_wise20192020/XMC/Libraries/XMCLib/inc\xmc_ccu8.h ****  *
 159:G:/dt_g1_balancing_plate_wise20192020/XMC/Libraries/XMCLib/inc\xmc_ccu8.h ****  * It can be used to:
 160:G:/dt_g1_balancing_plate_wise20192020/XMC/Libraries/XMCLib/inc\xmc_ccu8.h ****  * -# Configure the capture functionality. (XMC_CCU8_SLICE_Capture0Config(), XMC_CCU8_SLICE_Capture
 161:G:/dt_g1_balancing_plate_wise20192020/XMC/Libraries/XMCLib/inc\xmc_ccu8.h ****  * -# Read the captured values along with the status, which indicate the value is latest or not.
 162:G:/dt_g1_balancing_plate_wise20192020/XMC/Libraries/XMCLib/inc\xmc_ccu8.h ****  *    (XMC_CCU8_SLICE_GetCaptureRegisterValue())
 163:G:/dt_g1_balancing_plate_wise20192020/XMC/Libraries/XMCLib/inc\xmc_ccu8.h ****  * 
 164:G:/dt_g1_balancing_plate_wise20192020/XMC/Libraries/XMCLib/inc\xmc_ccu8.h ****  * \par Function/Event configuration:
 165:G:/dt_g1_balancing_plate_wise20192020/XMC/Libraries/XMCLib/inc\xmc_ccu8.h ****  * This section of the LLD provides the configuration structure XMC_CCU8_SLICE_EVENT_CONFIG_t.
 166:G:/dt_g1_balancing_plate_wise20192020/XMC/Libraries/XMCLib/inc\xmc_ccu8.h ****  * 
 167:G:/dt_g1_balancing_plate_wise20192020/XMC/Libraries/XMCLib/inc\xmc_ccu8.h ****  * It can be used to:
 168:G:/dt_g1_balancing_plate_wise20192020/XMC/Libraries/XMCLib/inc\xmc_ccu8.h ****  * -# Enable and Disable the events. (XMC_CCU8_SLICE_EnableEvent(), XMC_CCU8_SLICE_DisableEvent())
 169:G:/dt_g1_balancing_plate_wise20192020/XMC/Libraries/XMCLib/inc\xmc_ccu8.h ****  * -# Configure to start and stop the timer on external events.(XMC_CCU8_SLICE_StartConfig(), XMC_C
 170:G:/dt_g1_balancing_plate_wise20192020/XMC/Libraries/XMCLib/inc\xmc_ccu8.h ****  * -# Modulation, external load and Gating of the timer output.(XMC_CCU8_SLICE_ModulationConfig(), 
 171:G:/dt_g1_balancing_plate_wise20192020/XMC/Libraries/XMCLib/inc\xmc_ccu8.h ****  *    XMC_CCU8_SLICE_LoadConfig(), XMC_CCU8_SLICE_GateConfig())
 172:G:/dt_g1_balancing_plate_wise20192020/XMC/Libraries/XMCLib/inc\xmc_ccu8.h ****  * -# Control the count direction of the timer based on the external event. (XMC_CCU8_SLICE_Directi
 173:G:/dt_g1_balancing_plate_wise20192020/XMC/Libraries/XMCLib/inc\xmc_ccu8.h ****  * -# Count the external events.(XMC_CCU8_SLICE_CountConfig())
 174:G:/dt_g1_balancing_plate_wise20192020/XMC/Libraries/XMCLib/inc\xmc_ccu8.h ****  * -# External Trap. Which can be used as protective feature.(XMC_CCU8_SLICE_EnableTrap(), XMC_CCU8
 175:G:/dt_g1_balancing_plate_wise20192020/XMC/Libraries/XMCLib/inc\xmc_ccu8.h ****  *    XMC_CCU8_SLICE_TrapConfig())
 176:G:/dt_g1_balancing_plate_wise20192020/XMC/Libraries/XMCLib/inc\xmc_ccu8.h ****  *
 177:G:/dt_g1_balancing_plate_wise20192020/XMC/Libraries/XMCLib/inc\xmc_ccu8.h ****  * \par Interrupt configuration:
 178:G:/dt_g1_balancing_plate_wise20192020/XMC/Libraries/XMCLib/inc\xmc_ccu8.h ****  * This section of the LLD provides the function to configure the interrupt node to each event (XMC
 179:G:/dt_g1_balancing_plate_wise20192020/XMC/Libraries/XMCLib/inc\xmc_ccu8.h ****  *
 180:G:/dt_g1_balancing_plate_wise20192020/XMC/Libraries/XMCLib/inc\xmc_ccu8.h ****  * @{
 181:G:/dt_g1_balancing_plate_wise20192020/XMC/Libraries/XMCLib/inc\xmc_ccu8.h ****  */
 182:G:/dt_g1_balancing_plate_wise20192020/XMC/Libraries/XMCLib/inc\xmc_ccu8.h **** 
 183:G:/dt_g1_balancing_plate_wise20192020/XMC/Libraries/XMCLib/inc\xmc_ccu8.h **** /**************************************************************************************************
 184:G:/dt_g1_balancing_plate_wise20192020/XMC/Libraries/XMCLib/inc\xmc_ccu8.h ****  * MACROS
 185:G:/dt_g1_balancing_plate_wise20192020/XMC/Libraries/XMCLib/inc\xmc_ccu8.h ****  **************************************************************************************************
 186:G:/dt_g1_balancing_plate_wise20192020/XMC/Libraries/XMCLib/inc\xmc_ccu8.h **** #define XMC_CCU8_SLICE_CHECK_INTERRUPT(interrupt) \
 187:G:/dt_g1_balancing_plate_wise20192020/XMC/Libraries/XMCLib/inc\xmc_ccu8.h ****     ((interrupt == XMC_CCU8_SLICE_IRQ_ID_PERIOD_MATCH)           || \
 188:G:/dt_g1_balancing_plate_wise20192020/XMC/Libraries/XMCLib/inc\xmc_ccu8.h ****      (interrupt == XMC_CCU8_SLICE_IRQ_ID_ONE_MATCH)              || \
 189:G:/dt_g1_balancing_plate_wise20192020/XMC/Libraries/XMCLib/inc\xmc_ccu8.h ****      (interrupt == XMC_CCU8_SLICE_IRQ_ID_COMPARE_MATCH_UP_CH_1)  || \
 190:G:/dt_g1_balancing_plate_wise20192020/XMC/Libraries/XMCLib/inc\xmc_ccu8.h ****      (interrupt == XMC_CCU8_SLICE_IRQ_ID_COMPARE_MATCH_DOWN_CH_1)|| \
 191:G:/dt_g1_balancing_plate_wise20192020/XMC/Libraries/XMCLib/inc\xmc_ccu8.h ****      (interrupt == XMC_CCU8_SLICE_IRQ_ID_COMPARE_MATCH_UP_CH_2)  || \
 192:G:/dt_g1_balancing_plate_wise20192020/XMC/Libraries/XMCLib/inc\xmc_ccu8.h ****      (interrupt == XMC_CCU8_SLICE_IRQ_ID_COMPARE_MATCH_DOWN_CH_2)|| \
 193:G:/dt_g1_balancing_plate_wise20192020/XMC/Libraries/XMCLib/inc\xmc_ccu8.h ****      (interrupt == XMC_CCU8_SLICE_IRQ_ID_EVENT0)                 || \
 194:G:/dt_g1_balancing_plate_wise20192020/XMC/Libraries/XMCLib/inc\xmc_ccu8.h ****      (interrupt == XMC_CCU8_SLICE_IRQ_ID_EVENT1)                 || \
 195:G:/dt_g1_balancing_plate_wise20192020/XMC/Libraries/XMCLib/inc\xmc_ccu8.h ****      (interrupt == XMC_CCU8_SLICE_IRQ_ID_EVENT2)                 || \
 196:G:/dt_g1_balancing_plate_wise20192020/XMC/Libraries/XMCLib/inc\xmc_ccu8.h ****      (interrupt == XMC_CCU8_SLICE_IRQ_ID_TRAP))
 197:G:/dt_g1_balancing_plate_wise20192020/XMC/Libraries/XMCLib/inc\xmc_ccu8.h ****      
 198:G:/dt_g1_balancing_plate_wise20192020/XMC/Libraries/XMCLib/inc\xmc_ccu8.h **** /* Macro to check if the slice ptr passed is valid */
 199:G:/dt_g1_balancing_plate_wise20192020/XMC/Libraries/XMCLib/inc\xmc_ccu8.h **** #define XMC_CCU8_SLICE_CHECK_COMP_CHANNEL(cmp_channel) \
 200:G:/dt_g1_balancing_plate_wise20192020/XMC/Libraries/XMCLib/inc\xmc_ccu8.h ****     ((cmp_channel == XMC_CCU8_SLICE_COMPARE_CHANNEL_1) || \
 201:G:/dt_g1_balancing_plate_wise20192020/XMC/Libraries/XMCLib/inc\xmc_ccu8.h ****      (cmp_channel == XMC_CCU8_SLICE_COMPARE_CHANNEL_2))
 202:G:/dt_g1_balancing_plate_wise20192020/XMC/Libraries/XMCLib/inc\xmc_ccu8.h **** 
 203:G:/dt_g1_balancing_plate_wise20192020/XMC/Libraries/XMCLib/inc\xmc_ccu8.h **** /**************************************************************************************************
 204:G:/dt_g1_balancing_plate_wise20192020/XMC/Libraries/XMCLib/inc\xmc_ccu8.h ****  * ENUMS
 205:G:/dt_g1_balancing_plate_wise20192020/XMC/Libraries/XMCLib/inc\xmc_ccu8.h ****  **************************************************************************************************
 206:G:/dt_g1_balancing_plate_wise20192020/XMC/Libraries/XMCLib/inc\xmc_ccu8.h **** 
 207:G:/dt_g1_balancing_plate_wise20192020/XMC/Libraries/XMCLib/inc\xmc_ccu8.h **** /**
 208:G:/dt_g1_balancing_plate_wise20192020/XMC/Libraries/XMCLib/inc\xmc_ccu8.h ****  * Typedef for CCU8 Global data structure
 209:G:/dt_g1_balancing_plate_wise20192020/XMC/Libraries/XMCLib/inc\xmc_ccu8.h ****  */
 210:G:/dt_g1_balancing_plate_wise20192020/XMC/Libraries/XMCLib/inc\xmc_ccu8.h **** typedef CCU8_GLOBAL_TypeDef XMC_CCU8_MODULE_t;
 211:G:/dt_g1_balancing_plate_wise20192020/XMC/Libraries/XMCLib/inc\xmc_ccu8.h **** 
 212:G:/dt_g1_balancing_plate_wise20192020/XMC/Libraries/XMCLib/inc\xmc_ccu8.h **** /**
 213:G:/dt_g1_balancing_plate_wise20192020/XMC/Libraries/XMCLib/inc\xmc_ccu8.h ****  * Typedef for CCU8 Slice data structure
 214:G:/dt_g1_balancing_plate_wise20192020/XMC/Libraries/XMCLib/inc\xmc_ccu8.h ****  */
 215:G:/dt_g1_balancing_plate_wise20192020/XMC/Libraries/XMCLib/inc\xmc_ccu8.h **** typedef CCU8_CC8_TypeDef XMC_CCU8_SLICE_t;
 216:G:/dt_g1_balancing_plate_wise20192020/XMC/Libraries/XMCLib/inc\xmc_ccu8.h **** 
 217:G:/dt_g1_balancing_plate_wise20192020/XMC/Libraries/XMCLib/inc\xmc_ccu8.h **** /**
 218:G:/dt_g1_balancing_plate_wise20192020/XMC/Libraries/XMCLib/inc\xmc_ccu8.h ****  *  Return Value of an API
 219:G:/dt_g1_balancing_plate_wise20192020/XMC/Libraries/XMCLib/inc\xmc_ccu8.h ****  */
 220:G:/dt_g1_balancing_plate_wise20192020/XMC/Libraries/XMCLib/inc\xmc_ccu8.h **** typedef enum XMC_CCU8_STATUS
 221:G:/dt_g1_balancing_plate_wise20192020/XMC/Libraries/XMCLib/inc\xmc_ccu8.h **** {
 222:G:/dt_g1_balancing_plate_wise20192020/XMC/Libraries/XMCLib/inc\xmc_ccu8.h ****   XMC_CCU8_STATUS_OK      = 0U, /**< API fulfils request */
 223:G:/dt_g1_balancing_plate_wise20192020/XMC/Libraries/XMCLib/inc\xmc_ccu8.h ****   XMC_CCU8_STATUS_ERROR       , /**< API cannot fulfil request */
 224:G:/dt_g1_balancing_plate_wise20192020/XMC/Libraries/XMCLib/inc\xmc_ccu8.h ****   XMC_CCU8_STATUS_RUNNING     , /**< The timer slice is currently running */
 225:G:/dt_g1_balancing_plate_wise20192020/XMC/Libraries/XMCLib/inc\xmc_ccu8.h ****   XMC_CCU8_STATUS_IDLE          /**< The timer slice is currently idle */
 226:G:/dt_g1_balancing_plate_wise20192020/XMC/Libraries/XMCLib/inc\xmc_ccu8.h **** } XMC_CCU8_STATUS_t;
 227:G:/dt_g1_balancing_plate_wise20192020/XMC/Libraries/XMCLib/inc\xmc_ccu8.h **** 
 228:G:/dt_g1_balancing_plate_wise20192020/XMC/Libraries/XMCLib/inc\xmc_ccu8.h **** /**
 229:G:/dt_g1_balancing_plate_wise20192020/XMC/Libraries/XMCLib/inc\xmc_ccu8.h ****  * CCU8 module clock
 230:G:/dt_g1_balancing_plate_wise20192020/XMC/Libraries/XMCLib/inc\xmc_ccu8.h ****  */
 231:G:/dt_g1_balancing_plate_wise20192020/XMC/Libraries/XMCLib/inc\xmc_ccu8.h **** typedef enum XMC_CCU8_CLOCK
 232:G:/dt_g1_balancing_plate_wise20192020/XMC/Libraries/XMCLib/inc\xmc_ccu8.h **** {
 233:G:/dt_g1_balancing_plate_wise20192020/XMC/Libraries/XMCLib/inc\xmc_ccu8.h ****   XMC_CCU8_CLOCK_SCU        = 0U, /**< Select the fCCU as the clock */
 234:G:/dt_g1_balancing_plate_wise20192020/XMC/Libraries/XMCLib/inc\xmc_ccu8.h ****   XMC_CCU8_CLOCK_EXTERNAL_A     , /**< External clock-A */
 235:G:/dt_g1_balancing_plate_wise20192020/XMC/Libraries/XMCLib/inc\xmc_ccu8.h ****   XMC_CCU8_CLOCK_EXTERNAL_B     , /**< External clock-B */
 236:G:/dt_g1_balancing_plate_wise20192020/XMC/Libraries/XMCLib/inc\xmc_ccu8.h ****   XMC_CCU8_CLOCK_EXTERNAL_C       /**< External clock-C */
 237:G:/dt_g1_balancing_plate_wise20192020/XMC/Libraries/XMCLib/inc\xmc_ccu8.h **** } XMC_CCU8_CLOCK_t;
 238:G:/dt_g1_balancing_plate_wise20192020/XMC/Libraries/XMCLib/inc\xmc_ccu8.h **** 
 239:G:/dt_g1_balancing_plate_wise20192020/XMC/Libraries/XMCLib/inc\xmc_ccu8.h **** /**
 240:G:/dt_g1_balancing_plate_wise20192020/XMC/Libraries/XMCLib/inc\xmc_ccu8.h ****  * CCU8 set the shadow transfer type for multichannel mode
 241:G:/dt_g1_balancing_plate_wise20192020/XMC/Libraries/XMCLib/inc\xmc_ccu8.h ****  */
 242:G:/dt_g1_balancing_plate_wise20192020/XMC/Libraries/XMCLib/inc\xmc_ccu8.h **** typedef enum XMC_CCU8_MULTI_CHANNEL_SHADOW_TRANSFER
 243:G:/dt_g1_balancing_plate_wise20192020/XMC/Libraries/XMCLib/inc\xmc_ccu8.h **** {
 244:G:/dt_g1_balancing_plate_wise20192020/XMC/Libraries/XMCLib/inc\xmc_ccu8.h ****   XMC_CCU8_MULTI_CHANNEL_SHADOW_TRANSFER_SW_SLICE0       = (uint32_t)0x4000000, /**< Shadow transfe
 245:G:/dt_g1_balancing_plate_wise20192020/XMC/Libraries/XMCLib/inc\xmc_ccu8.h ****                                                                                      only for slice
 246:G:/dt_g1_balancing_plate_wise20192020/XMC/Libraries/XMCLib/inc\xmc_ccu8.h ****   XMC_CCU8_MULTI_CHANNEL_SHADOW_TRANSFER_SW_MCSS_SLICE0  = (uint32_t)0x4000400, /**< Shadow transfe
 247:G:/dt_g1_balancing_plate_wise20192020/XMC/Libraries/XMCLib/inc\xmc_ccu8.h ****                                                                                      and hardware f
 248:G:/dt_g1_balancing_plate_wise20192020/XMC/Libraries/XMCLib/inc\xmc_ccu8.h ****   XMC_CCU8_MULTI_CHANNEL_SHADOW_TRANSFER_SW_SLICE1       = (uint32_t)0x8000000, /**< Shadow transfe
 249:G:/dt_g1_balancing_plate_wise20192020/XMC/Libraries/XMCLib/inc\xmc_ccu8.h ****                                                                                      only for slice
 250:G:/dt_g1_balancing_plate_wise20192020/XMC/Libraries/XMCLib/inc\xmc_ccu8.h ****   XMC_CCU8_MULTI_CHANNEL_SHADOW_TRANSFER_SW_MCSS_SLICE1  = (uint32_t)0x8000800, /**< Shadow transfe
 251:G:/dt_g1_balancing_plate_wise20192020/XMC/Libraries/XMCLib/inc\xmc_ccu8.h ****                                                                                      and hardware f
 252:G:/dt_g1_balancing_plate_wise20192020/XMC/Libraries/XMCLib/inc\xmc_ccu8.h ****   XMC_CCU8_MULTI_CHANNEL_SHADOW_TRANSFER_SW_SLICE2       = (uint32_t)0x10000000, /**< Shadow transf
 253:G:/dt_g1_balancing_plate_wise20192020/XMC/Libraries/XMCLib/inc\xmc_ccu8.h ****                                                                                       only for slic
 254:G:/dt_g1_balancing_plate_wise20192020/XMC/Libraries/XMCLib/inc\xmc_ccu8.h ****   XMC_CCU8_MULTI_CHANNEL_SHADOW_TRANSFER_SW_MCSS_SLICE2  = (uint32_t)0x10001000, /**< Shadow transf
 255:G:/dt_g1_balancing_plate_wise20192020/XMC/Libraries/XMCLib/inc\xmc_ccu8.h ****                                                                                       and hardware 
 256:G:/dt_g1_balancing_plate_wise20192020/XMC/Libraries/XMCLib/inc\xmc_ccu8.h ****   XMC_CCU8_MULTI_CHANNEL_SHADOW_TRANSFER_SW_SLICE3       = (uint32_t)0x20000000, /**< Shadow transf
 257:G:/dt_g1_balancing_plate_wise20192020/XMC/Libraries/XMCLib/inc\xmc_ccu8.h ****                                                                                       only for slic
 258:G:/dt_g1_balancing_plate_wise20192020/XMC/Libraries/XMCLib/inc\xmc_ccu8.h ****   XMC_CCU8_MULTI_CHANNEL_SHADOW_TRANSFER_SW_MCSS_SLICE3  = (uint32_t)0x20002000  /**< Shadow transf
 259:G:/dt_g1_balancing_plate_wise20192020/XMC/Libraries/XMCLib/inc\xmc_ccu8.h ****                                                                                       and hardware 
 260:G:/dt_g1_balancing_plate_wise20192020/XMC/Libraries/XMCLib/inc\xmc_ccu8.h **** } XMC_CCU8_MULTI_CHANNEL_SHADOW_TRANSFER_t;
 261:G:/dt_g1_balancing_plate_wise20192020/XMC/Libraries/XMCLib/inc\xmc_ccu8.h **** 
 262:G:/dt_g1_balancing_plate_wise20192020/XMC/Libraries/XMCLib/inc\xmc_ccu8.h **** /**
 263:G:/dt_g1_balancing_plate_wise20192020/XMC/Libraries/XMCLib/inc\xmc_ccu8.h ****  *  Operational modes of CCU8 slice
 264:G:/dt_g1_balancing_plate_wise20192020/XMC/Libraries/XMCLib/inc\xmc_ccu8.h ****  */
 265:G:/dt_g1_balancing_plate_wise20192020/XMC/Libraries/XMCLib/inc\xmc_ccu8.h **** typedef enum XMC_CCU8_SLICE_MODE
 266:G:/dt_g1_balancing_plate_wise20192020/XMC/Libraries/XMCLib/inc\xmc_ccu8.h **** {
 267:G:/dt_g1_balancing_plate_wise20192020/XMC/Libraries/XMCLib/inc\xmc_ccu8.h ****   XMC_CCU8_SLICE_MODE_COMPARE  = 0U, /**< slice(CC8y) operates in Compare Mode */
 268:G:/dt_g1_balancing_plate_wise20192020/XMC/Libraries/XMCLib/inc\xmc_ccu8.h ****   XMC_CCU8_SLICE_MODE_CAPTURE        /**< slice(CC8y) operates in Capture Mode */
 269:G:/dt_g1_balancing_plate_wise20192020/XMC/Libraries/XMCLib/inc\xmc_ccu8.h **** } XMC_CCU8_SLICE_MODE_t;
 270:G:/dt_g1_balancing_plate_wise20192020/XMC/Libraries/XMCLib/inc\xmc_ccu8.h **** 
 271:G:/dt_g1_balancing_plate_wise20192020/XMC/Libraries/XMCLib/inc\xmc_ccu8.h **** /**
 272:G:/dt_g1_balancing_plate_wise20192020/XMC/Libraries/XMCLib/inc\xmc_ccu8.h ****  * Slice Output selection
 273:G:/dt_g1_balancing_plate_wise20192020/XMC/Libraries/XMCLib/inc\xmc_ccu8.h ****  */
 274:G:/dt_g1_balancing_plate_wise20192020/XMC/Libraries/XMCLib/inc\xmc_ccu8.h **** typedef enum XMC_CCU8_SLICE_OUTPUT
 275:G:/dt_g1_balancing_plate_wise20192020/XMC/Libraries/XMCLib/inc\xmc_ccu8.h **** {
 276:G:/dt_g1_balancing_plate_wise20192020/XMC/Libraries/XMCLib/inc\xmc_ccu8.h ****   XMC_CCU8_SLICE_OUTPUT_0  = 1U, /**< Slice Output-0 */
 277:G:/dt_g1_balancing_plate_wise20192020/XMC/Libraries/XMCLib/inc\xmc_ccu8.h ****   XMC_CCU8_SLICE_OUTPUT_1  = 2U, /**< Slice Output-1 */
 278:G:/dt_g1_balancing_plate_wise20192020/XMC/Libraries/XMCLib/inc\xmc_ccu8.h ****   XMC_CCU8_SLICE_OUTPUT_2  = 4U, /**< Slice Output-2 */
 279:G:/dt_g1_balancing_plate_wise20192020/XMC/Libraries/XMCLib/inc\xmc_ccu8.h ****   XMC_CCU8_SLICE_OUTPUT_3  = 8U  /**< Slice Output-3 */
 280:G:/dt_g1_balancing_plate_wise20192020/XMC/Libraries/XMCLib/inc\xmc_ccu8.h **** } XMC_CCU8_SLICE_OUTPUT_t;
 281:G:/dt_g1_balancing_plate_wise20192020/XMC/Libraries/XMCLib/inc\xmc_ccu8.h **** 
 282:G:/dt_g1_balancing_plate_wise20192020/XMC/Libraries/XMCLib/inc\xmc_ccu8.h **** /**
 283:G:/dt_g1_balancing_plate_wise20192020/XMC/Libraries/XMCLib/inc\xmc_ccu8.h ****  *  Timer counting modes for the slice
 284:G:/dt_g1_balancing_plate_wise20192020/XMC/Libraries/XMCLib/inc\xmc_ccu8.h ****  */
 285:G:/dt_g1_balancing_plate_wise20192020/XMC/Libraries/XMCLib/inc\xmc_ccu8.h **** typedef enum XMC_CCU8_SLICE_TIMER_COUNT_MODE
 286:G:/dt_g1_balancing_plate_wise20192020/XMC/Libraries/XMCLib/inc\xmc_ccu8.h **** {
 287:G:/dt_g1_balancing_plate_wise20192020/XMC/Libraries/XMCLib/inc\xmc_ccu8.h ****   XMC_CCU8_SLICE_TIMER_COUNT_MODE_EA  = 0U, /**< Edge Aligned Mode */
 288:G:/dt_g1_balancing_plate_wise20192020/XMC/Libraries/XMCLib/inc\xmc_ccu8.h ****   XMC_CCU8_SLICE_TIMER_COUNT_MODE_CA        /**< Centre Aligned Mode */
 289:G:/dt_g1_balancing_plate_wise20192020/XMC/Libraries/XMCLib/inc\xmc_ccu8.h **** } XMC_CCU8_SLICE_TIMER_COUNT_MODE_t;
 290:G:/dt_g1_balancing_plate_wise20192020/XMC/Libraries/XMCLib/inc\xmc_ccu8.h **** 
 291:G:/dt_g1_balancing_plate_wise20192020/XMC/Libraries/XMCLib/inc\xmc_ccu8.h **** /**
 292:G:/dt_g1_balancing_plate_wise20192020/XMC/Libraries/XMCLib/inc\xmc_ccu8.h ****  *  Timer repetition mode for the slice
 293:G:/dt_g1_balancing_plate_wise20192020/XMC/Libraries/XMCLib/inc\xmc_ccu8.h ****  */
 294:G:/dt_g1_balancing_plate_wise20192020/XMC/Libraries/XMCLib/inc\xmc_ccu8.h **** typedef enum XMC_CCU8_SLICE_TIMER_REPEAT_MODE
 295:G:/dt_g1_balancing_plate_wise20192020/XMC/Libraries/XMCLib/inc\xmc_ccu8.h **** {
 296:G:/dt_g1_balancing_plate_wise20192020/XMC/Libraries/XMCLib/inc\xmc_ccu8.h ****   XMC_CCU8_SLICE_TIMER_REPEAT_MODE_REPEAT = 0U, /**< Repetitive mode: continuous mode of operation 
 297:G:/dt_g1_balancing_plate_wise20192020/XMC/Libraries/XMCLib/inc\xmc_ccu8.h ****   XMC_CCU8_SLICE_TIMER_REPEAT_MODE_SINGLE       /**< Single shot mode: Once a Period match/One matc
 298:G:/dt_g1_balancing_plate_wise20192020/XMC/Libraries/XMCLib/inc\xmc_ccu8.h ****                                                      occurs timer goes to idle state */
 299:G:/dt_g1_balancing_plate_wise20192020/XMC/Libraries/XMCLib/inc\xmc_ccu8.h **** } XMC_CCU8_SLICE_TIMER_REPEAT_MODE_t;
 300:G:/dt_g1_balancing_plate_wise20192020/XMC/Libraries/XMCLib/inc\xmc_ccu8.h **** 
 301:G:/dt_g1_balancing_plate_wise20192020/XMC/Libraries/XMCLib/inc\xmc_ccu8.h **** /**
 302:G:/dt_g1_balancing_plate_wise20192020/XMC/Libraries/XMCLib/inc\xmc_ccu8.h ****  * Timer counting direction for the CCU8 slice
 303:G:/dt_g1_balancing_plate_wise20192020/XMC/Libraries/XMCLib/inc\xmc_ccu8.h ****  */
 304:G:/dt_g1_balancing_plate_wise20192020/XMC/Libraries/XMCLib/inc\xmc_ccu8.h **** typedef enum XMC_CCU8_SLICE_TIMER_COUNT_DIR
 305:G:/dt_g1_balancing_plate_wise20192020/XMC/Libraries/XMCLib/inc\xmc_ccu8.h **** {
 306:G:/dt_g1_balancing_plate_wise20192020/XMC/Libraries/XMCLib/inc\xmc_ccu8.h ****   XMC_CCU8_SLICE_TIMER_COUNT_DIR_UP   = 0U, /**< Counting up */
 307:G:/dt_g1_balancing_plate_wise20192020/XMC/Libraries/XMCLib/inc\xmc_ccu8.h ****   XMC_CCU8_SLICE_TIMER_COUNT_DIR_DOWN       /**< Counting down */
 308:G:/dt_g1_balancing_plate_wise20192020/XMC/Libraries/XMCLib/inc\xmc_ccu8.h **** } XMC_CCU8_SLICE_TIMER_COUNT_DIR_t;
 309:G:/dt_g1_balancing_plate_wise20192020/XMC/Libraries/XMCLib/inc\xmc_ccu8.h **** 
 310:G:/dt_g1_balancing_plate_wise20192020/XMC/Libraries/XMCLib/inc\xmc_ccu8.h **** /**
 311:G:/dt_g1_balancing_plate_wise20192020/XMC/Libraries/XMCLib/inc\xmc_ccu8.h ****  *  Capture mode register sets
 312:G:/dt_g1_balancing_plate_wise20192020/XMC/Libraries/XMCLib/inc\xmc_ccu8.h ****  */
 313:G:/dt_g1_balancing_plate_wise20192020/XMC/Libraries/XMCLib/inc\xmc_ccu8.h **** typedef enum XMC_CCU8_SLICE_CAP_REG_SET
 314:G:/dt_g1_balancing_plate_wise20192020/XMC/Libraries/XMCLib/inc\xmc_ccu8.h **** {
 315:G:/dt_g1_balancing_plate_wise20192020/XMC/Libraries/XMCLib/inc\xmc_ccu8.h ****   XMC_CCU8_SLICE_CAP_REG_SET_LOW  = 0U, /**< Capture register-0, Capture register-1 used */
 316:G:/dt_g1_balancing_plate_wise20192020/XMC/Libraries/XMCLib/inc\xmc_ccu8.h ****   XMC_CCU8_SLICE_CAP_REG_SET_HIGH       /**< Capture register-0, Capture register-1 used */
 317:G:/dt_g1_balancing_plate_wise20192020/XMC/Libraries/XMCLib/inc\xmc_ccu8.h **** } XMC_CCU8_SLICE_CAP_REG_SET_t;
 318:G:/dt_g1_balancing_plate_wise20192020/XMC/Libraries/XMCLib/inc\xmc_ccu8.h **** 
 319:G:/dt_g1_balancing_plate_wise20192020/XMC/Libraries/XMCLib/inc\xmc_ccu8.h **** /**
 320:G:/dt_g1_balancing_plate_wise20192020/XMC/Libraries/XMCLib/inc\xmc_ccu8.h ****  *  Prescaler mode
 321:G:/dt_g1_balancing_plate_wise20192020/XMC/Libraries/XMCLib/inc\xmc_ccu8.h ****  */
 322:G:/dt_g1_balancing_plate_wise20192020/XMC/Libraries/XMCLib/inc\xmc_ccu8.h **** typedef enum XMC_CCU8_SLICE_PRESCALER_MODE
 323:G:/dt_g1_balancing_plate_wise20192020/XMC/Libraries/XMCLib/inc\xmc_ccu8.h **** {
 324:G:/dt_g1_balancing_plate_wise20192020/XMC/Libraries/XMCLib/inc\xmc_ccu8.h ****   XMC_CCU8_SLICE_PRESCALER_MODE_NORMAL = 0U, /**< Fixed division of module clock */
 325:G:/dt_g1_balancing_plate_wise20192020/XMC/Libraries/XMCLib/inc\xmc_ccu8.h ****   XMC_CCU8_SLICE_PRESCALER_MODE_FLOAT        /**< Floating divider */
 326:G:/dt_g1_balancing_plate_wise20192020/XMC/Libraries/XMCLib/inc\xmc_ccu8.h **** } XMC_CCU8_SLICE_PRESCALER_MODE_t;
 327:G:/dt_g1_balancing_plate_wise20192020/XMC/Libraries/XMCLib/inc\xmc_ccu8.h **** 
 328:G:/dt_g1_balancing_plate_wise20192020/XMC/Libraries/XMCLib/inc\xmc_ccu8.h **** /**
 329:G:/dt_g1_balancing_plate_wise20192020/XMC/Libraries/XMCLib/inc\xmc_ccu8.h ****  *  Timer output passive level
 330:G:/dt_g1_balancing_plate_wise20192020/XMC/Libraries/XMCLib/inc\xmc_ccu8.h ****  */
 331:G:/dt_g1_balancing_plate_wise20192020/XMC/Libraries/XMCLib/inc\xmc_ccu8.h **** typedef enum XMC_CCU8_SLICE_OUTPUT_PASSIVE_LEVEL
 332:G:/dt_g1_balancing_plate_wise20192020/XMC/Libraries/XMCLib/inc\xmc_ccu8.h **** {
 333:G:/dt_g1_balancing_plate_wise20192020/XMC/Libraries/XMCLib/inc\xmc_ccu8.h ****   XMC_CCU8_SLICE_OUTPUT_PASSIVE_LEVEL_LOW  = 0U, /**< Passive level = Low */
 334:G:/dt_g1_balancing_plate_wise20192020/XMC/Libraries/XMCLib/inc\xmc_ccu8.h ****   XMC_CCU8_SLICE_OUTPUT_PASSIVE_LEVEL_HIGH       /**< Passive level = High */
 335:G:/dt_g1_balancing_plate_wise20192020/XMC/Libraries/XMCLib/inc\xmc_ccu8.h **** } XMC_CCU8_SLICE_OUTPUT_PASSIVE_LEVEL_t;
 336:G:/dt_g1_balancing_plate_wise20192020/XMC/Libraries/XMCLib/inc\xmc_ccu8.h **** 
 337:G:/dt_g1_balancing_plate_wise20192020/XMC/Libraries/XMCLib/inc\xmc_ccu8.h **** /**
 338:G:/dt_g1_balancing_plate_wise20192020/XMC/Libraries/XMCLib/inc\xmc_ccu8.h ****  *  Compare Channel selection
 339:G:/dt_g1_balancing_plate_wise20192020/XMC/Libraries/XMCLib/inc\xmc_ccu8.h ****  */
 340:G:/dt_g1_balancing_plate_wise20192020/XMC/Libraries/XMCLib/inc\xmc_ccu8.h **** typedef enum XMC_CCU8_SLICE_COMPARE_CHANNEL
 341:G:/dt_g1_balancing_plate_wise20192020/XMC/Libraries/XMCLib/inc\xmc_ccu8.h **** {
 342:G:/dt_g1_balancing_plate_wise20192020/XMC/Libraries/XMCLib/inc\xmc_ccu8.h ****   XMC_CCU8_SLICE_COMPARE_CHANNEL_1  = 0U, /**< Compare Channel-1 */
 343:G:/dt_g1_balancing_plate_wise20192020/XMC/Libraries/XMCLib/inc\xmc_ccu8.h ****   XMC_CCU8_SLICE_COMPARE_CHANNEL_2        /**< Compare Channel-2 */
 344:G:/dt_g1_balancing_plate_wise20192020/XMC/Libraries/XMCLib/inc\xmc_ccu8.h **** } XMC_CCU8_SLICE_COMPARE_CHANNEL_t;
 345:G:/dt_g1_balancing_plate_wise20192020/XMC/Libraries/XMCLib/inc\xmc_ccu8.h **** 
 346:G:/dt_g1_balancing_plate_wise20192020/XMC/Libraries/XMCLib/inc\xmc_ccu8.h **** /**
 347:G:/dt_g1_balancing_plate_wise20192020/XMC/Libraries/XMCLib/inc\xmc_ccu8.h ****  * Timer clock Divider
 348:G:/dt_g1_balancing_plate_wise20192020/XMC/Libraries/XMCLib/inc\xmc_ccu8.h ****  */
 349:G:/dt_g1_balancing_plate_wise20192020/XMC/Libraries/XMCLib/inc\xmc_ccu8.h **** typedef enum XMC_CCU8_SLICE_PRESCALER
 350:G:/dt_g1_balancing_plate_wise20192020/XMC/Libraries/XMCLib/inc\xmc_ccu8.h **** {
 351:G:/dt_g1_balancing_plate_wise20192020/XMC/Libraries/XMCLib/inc\xmc_ccu8.h ****   XMC_CCU8_SLICE_PRESCALER_1  = 0U, /**< Slice Clock = fccu8 */
 352:G:/dt_g1_balancing_plate_wise20192020/XMC/Libraries/XMCLib/inc\xmc_ccu8.h ****   XMC_CCU8_SLICE_PRESCALER_2      , /**< Slice Clock = fccu8/2 */
 353:G:/dt_g1_balancing_plate_wise20192020/XMC/Libraries/XMCLib/inc\xmc_ccu8.h ****   XMC_CCU8_SLICE_PRESCALER_4      , /**< Slice Clock = fccu8/4 */
 354:G:/dt_g1_balancing_plate_wise20192020/XMC/Libraries/XMCLib/inc\xmc_ccu8.h ****   XMC_CCU8_SLICE_PRESCALER_8      , /**< Slice Clock = fccu8/8 */
 355:G:/dt_g1_balancing_plate_wise20192020/XMC/Libraries/XMCLib/inc\xmc_ccu8.h ****   XMC_CCU8_SLICE_PRESCALER_16     , /**< Slice Clock = fccu8/16 */
 356:G:/dt_g1_balancing_plate_wise20192020/XMC/Libraries/XMCLib/inc\xmc_ccu8.h ****   XMC_CCU8_SLICE_PRESCALER_32     , /**< Slice Clock = fccu8/32 */
 357:G:/dt_g1_balancing_plate_wise20192020/XMC/Libraries/XMCLib/inc\xmc_ccu8.h ****   XMC_CCU8_SLICE_PRESCALER_64     , /**< Slice Clock = fccu8/64 */
 358:G:/dt_g1_balancing_plate_wise20192020/XMC/Libraries/XMCLib/inc\xmc_ccu8.h ****   XMC_CCU8_SLICE_PRESCALER_128    , /**< Slice Clock = fccu8/128 */
 359:G:/dt_g1_balancing_plate_wise20192020/XMC/Libraries/XMCLib/inc\xmc_ccu8.h ****   XMC_CCU8_SLICE_PRESCALER_256    , /**< Slice Clock = fccu8/256 */
 360:G:/dt_g1_balancing_plate_wise20192020/XMC/Libraries/XMCLib/inc\xmc_ccu8.h ****   XMC_CCU8_SLICE_PRESCALER_512    , /**< Slice Clock = fccu8/512 */
 361:G:/dt_g1_balancing_plate_wise20192020/XMC/Libraries/XMCLib/inc\xmc_ccu8.h ****   XMC_CCU8_SLICE_PRESCALER_1024   , /**< Slice Clock = fccu8/1024 */
 362:G:/dt_g1_balancing_plate_wise20192020/XMC/Libraries/XMCLib/inc\xmc_ccu8.h ****   XMC_CCU8_SLICE_PRESCALER_2048   , /**< Slice Clock = fccu8/2048 */
 363:G:/dt_g1_balancing_plate_wise20192020/XMC/Libraries/XMCLib/inc\xmc_ccu8.h ****   XMC_CCU8_SLICE_PRESCALER_4096   , /**< Slice Clock = fccu8/4096 */
 364:G:/dt_g1_balancing_plate_wise20192020/XMC/Libraries/XMCLib/inc\xmc_ccu8.h ****   XMC_CCU8_SLICE_PRESCALER_8192   , /**< Slice Clock = fccu8/8192 */
 365:G:/dt_g1_balancing_plate_wise20192020/XMC/Libraries/XMCLib/inc\xmc_ccu8.h ****   XMC_CCU8_SLICE_PRESCALER_16384  , /**< Slice Clock = fccu8/16384 */
 366:G:/dt_g1_balancing_plate_wise20192020/XMC/Libraries/XMCLib/inc\xmc_ccu8.h ****   XMC_CCU8_SLICE_PRESCALER_32768    /**< Slice Clock = fccu8/32768 */
 367:G:/dt_g1_balancing_plate_wise20192020/XMC/Libraries/XMCLib/inc\xmc_ccu8.h **** } XMC_CCU8_SLICE_PRESCALER_t;
 368:G:/dt_g1_balancing_plate_wise20192020/XMC/Libraries/XMCLib/inc\xmc_ccu8.h **** 
 369:G:/dt_g1_balancing_plate_wise20192020/XMC/Libraries/XMCLib/inc\xmc_ccu8.h **** /**
 370:G:/dt_g1_balancing_plate_wise20192020/XMC/Libraries/XMCLib/inc\xmc_ccu8.h ****  * Dead Time Generator Clock Divider
 371:G:/dt_g1_balancing_plate_wise20192020/XMC/Libraries/XMCLib/inc\xmc_ccu8.h ****  */
 372:G:/dt_g1_balancing_plate_wise20192020/XMC/Libraries/XMCLib/inc\xmc_ccu8.h **** typedef enum XMC_CCU8_SLICE_DTC_DIV
 373:G:/dt_g1_balancing_plate_wise20192020/XMC/Libraries/XMCLib/inc\xmc_ccu8.h **** {
 374:G:/dt_g1_balancing_plate_wise20192020/XMC/Libraries/XMCLib/inc\xmc_ccu8.h ****   XMC_CCU8_SLICE_DTC_DIV_1  = 0U, /**< DTC clock = Slice Clock */
 375:G:/dt_g1_balancing_plate_wise20192020/XMC/Libraries/XMCLib/inc\xmc_ccu8.h ****   XMC_CCU8_SLICE_DTC_DIV_2      , /**< DTC clock = Slice Clock/2 */
 376:G:/dt_g1_balancing_plate_wise20192020/XMC/Libraries/XMCLib/inc\xmc_ccu8.h ****   XMC_CCU8_SLICE_DTC_DIV_4      , /**< DTC clock = Slice Clock/4 */
 377:G:/dt_g1_balancing_plate_wise20192020/XMC/Libraries/XMCLib/inc\xmc_ccu8.h ****   XMC_CCU8_SLICE_DTC_DIV_8        /**< DTC clock = Slice Clock/8 */
 378:G:/dt_g1_balancing_plate_wise20192020/XMC/Libraries/XMCLib/inc\xmc_ccu8.h **** } XMC_CCU8_SLICE_DTC_DIV_t;
 379:G:/dt_g1_balancing_plate_wise20192020/XMC/Libraries/XMCLib/inc\xmc_ccu8.h **** 
 380:G:/dt_g1_balancing_plate_wise20192020/XMC/Libraries/XMCLib/inc\xmc_ccu8.h **** 
 381:G:/dt_g1_balancing_plate_wise20192020/XMC/Libraries/XMCLib/inc\xmc_ccu8.h **** /**
 382:G:/dt_g1_balancing_plate_wise20192020/XMC/Libraries/XMCLib/inc\xmc_ccu8.h ****  *  The compare channel output which is routed to the slice output signal(STy).
 383:G:/dt_g1_balancing_plate_wise20192020/XMC/Libraries/XMCLib/inc\xmc_ccu8.h ****  */
 384:G:/dt_g1_balancing_plate_wise20192020/XMC/Libraries/XMCLib/inc\xmc_ccu8.h **** typedef enum XMC_CCU8_SLICE_STATUS
 385:G:/dt_g1_balancing_plate_wise20192020/XMC/Libraries/XMCLib/inc\xmc_ccu8.h **** {
 386:G:/dt_g1_balancing_plate_wise20192020/XMC/Libraries/XMCLib/inc\xmc_ccu8.h ****   XMC_CCU8_SLICE_STATUS_CHANNEL_1        = 0U, /**< Channel-1 status connected to Slice Status */
 387:G:/dt_g1_balancing_plate_wise20192020/XMC/Libraries/XMCLib/inc\xmc_ccu8.h ****   XMC_CCU8_SLICE_STATUS_CHANNEL_2            , /**< Channel-2 status connected to Slice Status */
 388:G:/dt_g1_balancing_plate_wise20192020/XMC/Libraries/XMCLib/inc\xmc_ccu8.h ****   XMC_CCU8_SLICE_STATUS_CHANNEL_1_AND_2      , /**< \b Wired \b AND of Channel-1 and Channel-2 stat
 389:G:/dt_g1_balancing_plate_wise20192020/XMC/Libraries/XMCLib/inc\xmc_ccu8.h ****                                                     Slice status */
 390:G:/dt_g1_balancing_plate_wise20192020/XMC/Libraries/XMCLib/inc\xmc_ccu8.h **** #if ((UC_SERIES == XMC13) || (UC_SERIES == XMC14)) || defined(DOXYGEN)
 391:G:/dt_g1_balancing_plate_wise20192020/XMC/Libraries/XMCLib/inc\xmc_ccu8.h ****   XMC_CCU8_SLICE_STATUS_CHANNEL_1_OR_2         /**< \b Wired \b OR of Channel-1 and Channel-2 statu
 392:G:/dt_g1_balancing_plate_wise20192020/XMC/Libraries/XMCLib/inc\xmc_ccu8.h ****                                                     status. @note Only available for XMC1300 and XM
 393:G:/dt_g1_balancing_plate_wise20192020/XMC/Libraries/XMCLib/inc\xmc_ccu8.h **** #endif
 394:G:/dt_g1_balancing_plate_wise20192020/XMC/Libraries/XMCLib/inc\xmc_ccu8.h **** } XMC_CCU8_SLICE_STATUS_t;
 395:G:/dt_g1_balancing_plate_wise20192020/XMC/Libraries/XMCLib/inc\xmc_ccu8.h **** 
 396:G:/dt_g1_balancing_plate_wise20192020/XMC/Libraries/XMCLib/inc\xmc_ccu8.h **** /**
 397:G:/dt_g1_balancing_plate_wise20192020/XMC/Libraries/XMCLib/inc\xmc_ccu8.h ****  *  Compare channel for which modulation has to be applied
 398:G:/dt_g1_balancing_plate_wise20192020/XMC/Libraries/XMCLib/inc\xmc_ccu8.h ****  */
 399:G:/dt_g1_balancing_plate_wise20192020/XMC/Libraries/XMCLib/inc\xmc_ccu8.h **** typedef enum XMC_CCU8_SLICE_MODULATION_CHANNEL
 400:G:/dt_g1_balancing_plate_wise20192020/XMC/Libraries/XMCLib/inc\xmc_ccu8.h **** {
 401:G:/dt_g1_balancing_plate_wise20192020/XMC/Libraries/XMCLib/inc\xmc_ccu8.h ****   XMC_CCU8_SLICE_MODULATION_CHANNEL_NONE  = 0U, /**< No modulation */
 402:G:/dt_g1_balancing_plate_wise20192020/XMC/Libraries/XMCLib/inc\xmc_ccu8.h ****   XMC_CCU8_SLICE_MODULATION_CHANNEL_1         , /**< Modulation for Compare Channel-1 */
 403:G:/dt_g1_balancing_plate_wise20192020/XMC/Libraries/XMCLib/inc\xmc_ccu8.h ****   XMC_CCU8_SLICE_MODULATION_CHANNEL_2         , /**< Modulation for Compare Channel-2 */
 404:G:/dt_g1_balancing_plate_wise20192020/XMC/Libraries/XMCLib/inc\xmc_ccu8.h ****   XMC_CCU8_SLICE_MODULATION_CHANNEL_1_AND_2     /**< Modulation for Compare Channel-1 and Compare C
 405:G:/dt_g1_balancing_plate_wise20192020/XMC/Libraries/XMCLib/inc\xmc_ccu8.h **** } XMC_CCU8_SLICE_MODULATION_CHANNEL_t;
 406:G:/dt_g1_balancing_plate_wise20192020/XMC/Libraries/XMCLib/inc\xmc_ccu8.h **** 
 407:G:/dt_g1_balancing_plate_wise20192020/XMC/Libraries/XMCLib/inc\xmc_ccu8.h **** /**
 408:G:/dt_g1_balancing_plate_wise20192020/XMC/Libraries/XMCLib/inc\xmc_ccu8.h ****  *  External Function list
 409:G:/dt_g1_balancing_plate_wise20192020/XMC/Libraries/XMCLib/inc\xmc_ccu8.h ****  */
 410:G:/dt_g1_balancing_plate_wise20192020/XMC/Libraries/XMCLib/inc\xmc_ccu8.h **** typedef enum XMC_CCU8_SLICE_FUNCTION
 411:G:/dt_g1_balancing_plate_wise20192020/XMC/Libraries/XMCLib/inc\xmc_ccu8.h **** {
 412:G:/dt_g1_balancing_plate_wise20192020/XMC/Libraries/XMCLib/inc\xmc_ccu8.h ****   XMC_CCU8_SLICE_FUNCTION_START           = 0U, /**< Start function */
 413:G:/dt_g1_balancing_plate_wise20192020/XMC/Libraries/XMCLib/inc\xmc_ccu8.h ****   XMC_CCU8_SLICE_FUNCTION_STOP                , /**< Stop function */
 414:G:/dt_g1_balancing_plate_wise20192020/XMC/Libraries/XMCLib/inc\xmc_ccu8.h ****   XMC_CCU8_SLICE_FUNCTION_CAPTURE_EVENT0      , /**< Capture Event-0 function, CCycapt0 signal is u
 415:G:/dt_g1_balancing_plate_wise20192020/XMC/Libraries/XMCLib/inc\xmc_ccu8.h ****                                                      generation */
 416:G:/dt_g1_balancing_plate_wise20192020/XMC/Libraries/XMCLib/inc\xmc_ccu8.h ****   XMC_CCU8_SLICE_FUNCTION_CAPTURE_EVENT1      , /**< Capture Event-1 function, CCycapt1 signal is u
 417:G:/dt_g1_balancing_plate_wise20192020/XMC/Libraries/XMCLib/inc\xmc_ccu8.h ****                                                      generation */
 418:G:/dt_g1_balancing_plate_wise20192020/XMC/Libraries/XMCLib/inc\xmc_ccu8.h ****   XMC_CCU8_SLICE_FUNCTION_GATING              , /**< Gating function */
 419:G:/dt_g1_balancing_plate_wise20192020/XMC/Libraries/XMCLib/inc\xmc_ccu8.h ****   XMC_CCU8_SLICE_FUNCTION_DIRECTION           , /**< Direction function */
 420:G:/dt_g1_balancing_plate_wise20192020/XMC/Libraries/XMCLib/inc\xmc_ccu8.h ****   XMC_CCU8_SLICE_FUNCTION_LOAD                , /**< Load function */
 421:G:/dt_g1_balancing_plate_wise20192020/XMC/Libraries/XMCLib/inc\xmc_ccu8.h ****   XMC_CCU8_SLICE_FUNCTION_COUNT               , /**< Counting function */
 422:G:/dt_g1_balancing_plate_wise20192020/XMC/Libraries/XMCLib/inc\xmc_ccu8.h ****   XMC_CCU8_SLICE_FUNCTION_OVERRIDE            , /**< Override function */
 423:G:/dt_g1_balancing_plate_wise20192020/XMC/Libraries/XMCLib/inc\xmc_ccu8.h ****   XMC_CCU8_SLICE_FUNCTION_MODULATION          , /**< Modulation function */
 424:G:/dt_g1_balancing_plate_wise20192020/XMC/Libraries/XMCLib/inc\xmc_ccu8.h ****   XMC_CCU8_SLICE_FUNCTION_TRAP                  /**< Trap function */
 425:G:/dt_g1_balancing_plate_wise20192020/XMC/Libraries/XMCLib/inc\xmc_ccu8.h **** } XMC_CCU8_SLICE_FUNCTION_t;
 426:G:/dt_g1_balancing_plate_wise20192020/XMC/Libraries/XMCLib/inc\xmc_ccu8.h **** 
 427:G:/dt_g1_balancing_plate_wise20192020/XMC/Libraries/XMCLib/inc\xmc_ccu8.h **** /**
 428:G:/dt_g1_balancing_plate_wise20192020/XMC/Libraries/XMCLib/inc\xmc_ccu8.h ****  *  External Event list
 429:G:/dt_g1_balancing_plate_wise20192020/XMC/Libraries/XMCLib/inc\xmc_ccu8.h ****  */
 430:G:/dt_g1_balancing_plate_wise20192020/XMC/Libraries/XMCLib/inc\xmc_ccu8.h **** typedef enum XMC_CCU8_SLICE_EVENT
 431:G:/dt_g1_balancing_plate_wise20192020/XMC/Libraries/XMCLib/inc\xmc_ccu8.h **** {
 432:G:/dt_g1_balancing_plate_wise20192020/XMC/Libraries/XMCLib/inc\xmc_ccu8.h ****   XMC_CCU8_SLICE_EVENT_NONE  = 0U, /**< None */
 433:G:/dt_g1_balancing_plate_wise20192020/XMC/Libraries/XMCLib/inc\xmc_ccu8.h ****   XMC_CCU8_SLICE_EVENT_0         , /**< Event-0 */
 434:G:/dt_g1_balancing_plate_wise20192020/XMC/Libraries/XMCLib/inc\xmc_ccu8.h ****   XMC_CCU8_SLICE_EVENT_1         , /**< Event-1 */
 435:G:/dt_g1_balancing_plate_wise20192020/XMC/Libraries/XMCLib/inc\xmc_ccu8.h ****   XMC_CCU8_SLICE_EVENT_2           /**< Event-2 */
 436:G:/dt_g1_balancing_plate_wise20192020/XMC/Libraries/XMCLib/inc\xmc_ccu8.h **** } XMC_CCU8_SLICE_EVENT_t;
 437:G:/dt_g1_balancing_plate_wise20192020/XMC/Libraries/XMCLib/inc\xmc_ccu8.h **** 
 438:G:/dt_g1_balancing_plate_wise20192020/XMC/Libraries/XMCLib/inc\xmc_ccu8.h **** /**
 439:G:/dt_g1_balancing_plate_wise20192020/XMC/Libraries/XMCLib/inc\xmc_ccu8.h ****  *  External Event trigger criteria  - Edge sensitivity
 440:G:/dt_g1_balancing_plate_wise20192020/XMC/Libraries/XMCLib/inc\xmc_ccu8.h ****  */
 441:G:/dt_g1_balancing_plate_wise20192020/XMC/Libraries/XMCLib/inc\xmc_ccu8.h **** typedef enum XMC_CCU8_SLICE_EVENT_EDGE_SENSITIVITY
 442:G:/dt_g1_balancing_plate_wise20192020/XMC/Libraries/XMCLib/inc\xmc_ccu8.h **** {
 443:G:/dt_g1_balancing_plate_wise20192020/XMC/Libraries/XMCLib/inc\xmc_ccu8.h ****   XMC_CCU8_SLICE_EVENT_EDGE_SENSITIVITY_NONE          = 0U, /**< None */
 444:G:/dt_g1_balancing_plate_wise20192020/XMC/Libraries/XMCLib/inc\xmc_ccu8.h ****   XMC_CCU8_SLICE_EVENT_EDGE_SENSITIVITY_RISING_EDGE       , /**< Rising Edge of the input signal ge
 445:G:/dt_g1_balancing_plate_wise20192020/XMC/Libraries/XMCLib/inc\xmc_ccu8.h ****                                                                  event trigger */
 446:G:/dt_g1_balancing_plate_wise20192020/XMC/Libraries/XMCLib/inc\xmc_ccu8.h ****   XMC_CCU8_SLICE_EVENT_EDGE_SENSITIVITY_FALLING_EDGE      , /**< Falling Edge of the input signal g
 447:G:/dt_g1_balancing_plate_wise20192020/XMC/Libraries/XMCLib/inc\xmc_ccu8.h ****                                                                  trigger */
 448:G:/dt_g1_balancing_plate_wise20192020/XMC/Libraries/XMCLib/inc\xmc_ccu8.h ****   XMC_CCU8_SLICE_EVENT_EDGE_SENSITIVITY_DUAL_EDGE           /**< Both Rising and Falling edges caus
 449:G:/dt_g1_balancing_plate_wise20192020/XMC/Libraries/XMCLib/inc\xmc_ccu8.h **** } XMC_CCU8_SLICE_EVENT_EDGE_SENSITIVITY_t;
 450:G:/dt_g1_balancing_plate_wise20192020/XMC/Libraries/XMCLib/inc\xmc_ccu8.h **** 
 451:G:/dt_g1_balancing_plate_wise20192020/XMC/Libraries/XMCLib/inc\xmc_ccu8.h **** /**
 452:G:/dt_g1_balancing_plate_wise20192020/XMC/Libraries/XMCLib/inc\xmc_ccu8.h ****  *  External Event trigger criteria  - Level sensitivity
 453:G:/dt_g1_balancing_plate_wise20192020/XMC/Libraries/XMCLib/inc\xmc_ccu8.h ****  */
 454:G:/dt_g1_balancing_plate_wise20192020/XMC/Libraries/XMCLib/inc\xmc_ccu8.h **** typedef enum XMC_CCU8_SLICE_EVENT_LEVEL_SENSITIVITY
 455:G:/dt_g1_balancing_plate_wise20192020/XMC/Libraries/XMCLib/inc\xmc_ccu8.h **** {
 456:G:/dt_g1_balancing_plate_wise20192020/XMC/Libraries/XMCLib/inc\xmc_ccu8.h ****   XMC_CCU8_SLICE_EVENT_LEVEL_SENSITIVITY_ACTIVE_HIGH = 0U, /**< Level sensitive functions react to 
 457:G:/dt_g1_balancing_plate_wise20192020/XMC/Libraries/XMCLib/inc\xmc_ccu8.h ****   XMC_CCU8_SLICE_EVENT_LEVEL_SENSITIVITY_ACTIVE_LOW  = 1U, /**< Level sensitive functions react to 
 458:G:/dt_g1_balancing_plate_wise20192020/XMC/Libraries/XMCLib/inc\xmc_ccu8.h ****     /* Below enum items can be utilised specific to the functionality */
 459:G:/dt_g1_balancing_plate_wise20192020/XMC/Libraries/XMCLib/inc\xmc_ccu8.h ****   XMC_CCU8_SLICE_EVENT_LEVEL_SENSITIVITY_COUNT_UP_ON_LOW = 0U, /**< Timer counts up, during Low sta
 460:G:/dt_g1_balancing_plate_wise20192020/XMC/Libraries/XMCLib/inc\xmc_ccu8.h ****   XMC_CCU8_SLICE_EVENT_LEVEL_SENSITIVITY_COUNT_UP_ON_HIGH = 1U /**< Timer counts up, during High st
 461:G:/dt_g1_balancing_plate_wise20192020/XMC/Libraries/XMCLib/inc\xmc_ccu8.h **** } XMC_CCU8_SLICE_EVENT_LEVEL_SENSITIVITY_t;
 462:G:/dt_g1_balancing_plate_wise20192020/XMC/Libraries/XMCLib/inc\xmc_ccu8.h **** 
 463:G:/dt_g1_balancing_plate_wise20192020/XMC/Libraries/XMCLib/inc\xmc_ccu8.h **** /**
 464:G:/dt_g1_balancing_plate_wise20192020/XMC/Libraries/XMCLib/inc\xmc_ccu8.h ****  *  Low pass filter Configuration. The External Event input should be stable for a selected number 
 465:G:/dt_g1_balancing_plate_wise20192020/XMC/Libraries/XMCLib/inc\xmc_ccu8.h ****  */
 466:G:/dt_g1_balancing_plate_wise20192020/XMC/Libraries/XMCLib/inc\xmc_ccu8.h **** typedef enum XMC_CCU8_SLICE_EVENT_FILTER
 467:G:/dt_g1_balancing_plate_wise20192020/XMC/Libraries/XMCLib/inc\xmc_ccu8.h **** {
 468:G:/dt_g1_balancing_plate_wise20192020/XMC/Libraries/XMCLib/inc\xmc_ccu8.h ****   XMC_CCU8_SLICE_EVENT_FILTER_DISABLED  = 0U, /**< No Low Pass Filtering is applied */
 469:G:/dt_g1_balancing_plate_wise20192020/XMC/Libraries/XMCLib/inc\xmc_ccu8.h ****   XMC_CCU8_SLICE_EVENT_FILTER_3_CYCLES      , /**< Input should be stable for 3 clock cycles */
 470:G:/dt_g1_balancing_plate_wise20192020/XMC/Libraries/XMCLib/inc\xmc_ccu8.h ****   XMC_CCU8_SLICE_EVENT_FILTER_5_CYCLES      , /**< Input should be stable for 5 clock cycles */
 471:G:/dt_g1_balancing_plate_wise20192020/XMC/Libraries/XMCLib/inc\xmc_ccu8.h ****   XMC_CCU8_SLICE_EVENT_FILTER_7_CYCLES        /**< Input should be stable for 7 clock cycles */
 472:G:/dt_g1_balancing_plate_wise20192020/XMC/Libraries/XMCLib/inc\xmc_ccu8.h **** } XMC_CCU8_SLICE_EVENT_FILTER_t;
 473:G:/dt_g1_balancing_plate_wise20192020/XMC/Libraries/XMCLib/inc\xmc_ccu8.h **** 
 474:G:/dt_g1_balancing_plate_wise20192020/XMC/Libraries/XMCLib/inc\xmc_ccu8.h **** /**
 475:G:/dt_g1_balancing_plate_wise20192020/XMC/Libraries/XMCLib/inc\xmc_ccu8.h ****  *  External Event Input list. This list depicts the possible input connections to the CCU8 slice.
 476:G:/dt_g1_balancing_plate_wise20192020/XMC/Libraries/XMCLib/inc\xmc_ccu8.h ****  *  Interconnects are specific to each device.
 477:G:/dt_g1_balancing_plate_wise20192020/XMC/Libraries/XMCLib/inc\xmc_ccu8.h ****  */
 478:G:/dt_g1_balancing_plate_wise20192020/XMC/Libraries/XMCLib/inc\xmc_ccu8.h **** typedef uint8_t XMC_CCU8_SLICE_INPUT_t;
 479:G:/dt_g1_balancing_plate_wise20192020/XMC/Libraries/XMCLib/inc\xmc_ccu8.h **** 
 480:G:/dt_g1_balancing_plate_wise20192020/XMC/Libraries/XMCLib/inc\xmc_ccu8.h **** 
 481:G:/dt_g1_balancing_plate_wise20192020/XMC/Libraries/XMCLib/inc\xmc_ccu8.h **** /**
 482:G:/dt_g1_balancing_plate_wise20192020/XMC/Libraries/XMCLib/inc\xmc_ccu8.h ****  * Actions that can be performed upon detection of an external Timer STOP event
 483:G:/dt_g1_balancing_plate_wise20192020/XMC/Libraries/XMCLib/inc\xmc_ccu8.h ****  */
 484:G:/dt_g1_balancing_plate_wise20192020/XMC/Libraries/XMCLib/inc\xmc_ccu8.h **** typedef enum XMC_CCU8_SLICE_END_MODE
 485:G:/dt_g1_balancing_plate_wise20192020/XMC/Libraries/XMCLib/inc\xmc_ccu8.h **** {
 486:G:/dt_g1_balancing_plate_wise20192020/XMC/Libraries/XMCLib/inc\xmc_ccu8.h ****   XMC_CCU8_SLICE_END_MODE_TIMER_STOP       = 0U, /**< Stops the timer, without clearing TIMER regis
 487:G:/dt_g1_balancing_plate_wise20192020/XMC/Libraries/XMCLib/inc\xmc_ccu8.h ****   XMC_CCU8_SLICE_END_MODE_TIMER_CLEAR          , /**< Without stopping timer, clears the TIMER regi
 488:G:/dt_g1_balancing_plate_wise20192020/XMC/Libraries/XMCLib/inc\xmc_ccu8.h ****   XMC_CCU8_SLICE_END_MODE_TIMER_STOP_CLEAR       /**< Stops the timer and clears the TIMER register
 489:G:/dt_g1_balancing_plate_wise20192020/XMC/Libraries/XMCLib/inc\xmc_ccu8.h **** } XMC_CCU8_SLICE_END_MODE_t;
 490:G:/dt_g1_balancing_plate_wise20192020/XMC/Libraries/XMCLib/inc\xmc_ccu8.h **** 
 491:G:/dt_g1_balancing_plate_wise20192020/XMC/Libraries/XMCLib/inc\xmc_ccu8.h **** /**
 492:G:/dt_g1_balancing_plate_wise20192020/XMC/Libraries/XMCLib/inc\xmc_ccu8.h ****  *  Actions that can be performed upon detection of an external Timer START event
 493:G:/dt_g1_balancing_plate_wise20192020/XMC/Libraries/XMCLib/inc\xmc_ccu8.h ****  */
 494:G:/dt_g1_balancing_plate_wise20192020/XMC/Libraries/XMCLib/inc\xmc_ccu8.h **** typedef enum XMC_CCU8_SLICE_START_MODE
 495:G:/dt_g1_balancing_plate_wise20192020/XMC/Libraries/XMCLib/inc\xmc_ccu8.h **** {
 496:G:/dt_g1_balancing_plate_wise20192020/XMC/Libraries/XMCLib/inc\xmc_ccu8.h ****   XMC_CCU8_SLICE_START_MODE_TIMER_START       = 0U, /**< Start the timer from the current count of 
 497:G:/dt_g1_balancing_plate_wise20192020/XMC/Libraries/XMCLib/inc\xmc_ccu8.h ****   XMC_CCU8_SLICE_START_MODE_TIMER_START_CLEAR       /**< Clears the TIMER register and start the ti
 498:G:/dt_g1_balancing_plate_wise20192020/XMC/Libraries/XMCLib/inc\xmc_ccu8.h **** } XMC_CCU8_SLICE_START_MODE_t;
 499:G:/dt_g1_balancing_plate_wise20192020/XMC/Libraries/XMCLib/inc\xmc_ccu8.h **** 
 500:G:/dt_g1_balancing_plate_wise20192020/XMC/Libraries/XMCLib/inc\xmc_ccu8.h **** /**
 501:G:/dt_g1_balancing_plate_wise20192020/XMC/Libraries/XMCLib/inc\xmc_ccu8.h ****  *  Modulation of timer output signals
 502:G:/dt_g1_balancing_plate_wise20192020/XMC/Libraries/XMCLib/inc\xmc_ccu8.h ****  */
 503:G:/dt_g1_balancing_plate_wise20192020/XMC/Libraries/XMCLib/inc\xmc_ccu8.h **** typedef enum XMC_CCU8_SLICE_MODULATION_MODE
 504:G:/dt_g1_balancing_plate_wise20192020/XMC/Libraries/XMCLib/inc\xmc_ccu8.h **** {
 505:G:/dt_g1_balancing_plate_wise20192020/XMC/Libraries/XMCLib/inc\xmc_ccu8.h ****   XMC_CCU8_SLICE_MODULATION_MODE_CLEAR_ST_OUT  = 0U, /**< Clear ST and OUT signals */
 506:G:/dt_g1_balancing_plate_wise20192020/XMC/Libraries/XMCLib/inc\xmc_ccu8.h ****   XMC_CCU8_SLICE_MODULATION_MODE_CLEAR_OUT           /**< Clear only the OUT signal */
 507:G:/dt_g1_balancing_plate_wise20192020/XMC/Libraries/XMCLib/inc\xmc_ccu8.h **** } XMC_CCU8_SLICE_MODULATION_MODE_t;
 508:G:/dt_g1_balancing_plate_wise20192020/XMC/Libraries/XMCLib/inc\xmc_ccu8.h **** 
 509:G:/dt_g1_balancing_plate_wise20192020/XMC/Libraries/XMCLib/inc\xmc_ccu8.h **** /**
 510:G:/dt_g1_balancing_plate_wise20192020/XMC/Libraries/XMCLib/inc\xmc_ccu8.h ****  *  Trap exit mode
 511:G:/dt_g1_balancing_plate_wise20192020/XMC/Libraries/XMCLib/inc\xmc_ccu8.h ****  */
 512:G:/dt_g1_balancing_plate_wise20192020/XMC/Libraries/XMCLib/inc\xmc_ccu8.h **** typedef enum XMC_CCU8_SLICE_TRAP_EXIT_MODE
 513:G:/dt_g1_balancing_plate_wise20192020/XMC/Libraries/XMCLib/inc\xmc_ccu8.h **** {
 514:G:/dt_g1_balancing_plate_wise20192020/XMC/Libraries/XMCLib/inc\xmc_ccu8.h ****   XMC_CCU8_SLICE_TRAP_EXIT_MODE_AUTOMATIC = 0U, /**< Clear trap state as soon as the trap signal is
 515:G:/dt_g1_balancing_plate_wise20192020/XMC/Libraries/XMCLib/inc\xmc_ccu8.h ****   XMC_CCU8_SLICE_TRAP_EXIT_MODE_SW              /**< Clear only when acknowledged by software */
 516:G:/dt_g1_balancing_plate_wise20192020/XMC/Libraries/XMCLib/inc\xmc_ccu8.h **** } XMC_CCU8_SLICE_TRAP_EXIT_MODE_t;
 517:G:/dt_g1_balancing_plate_wise20192020/XMC/Libraries/XMCLib/inc\xmc_ccu8.h **** 
 518:G:/dt_g1_balancing_plate_wise20192020/XMC/Libraries/XMCLib/inc\xmc_ccu8.h **** /**
 519:G:/dt_g1_balancing_plate_wise20192020/XMC/Libraries/XMCLib/inc\xmc_ccu8.h ****  *  Timer clear on capture
 520:G:/dt_g1_balancing_plate_wise20192020/XMC/Libraries/XMCLib/inc\xmc_ccu8.h ****  */
 521:G:/dt_g1_balancing_plate_wise20192020/XMC/Libraries/XMCLib/inc\xmc_ccu8.h **** typedef enum XMC_CCU8_SLICE_TIMER_CLEAR_MODE
 522:G:/dt_g1_balancing_plate_wise20192020/XMC/Libraries/XMCLib/inc\xmc_ccu8.h **** {
 523:G:/dt_g1_balancing_plate_wise20192020/XMC/Libraries/XMCLib/inc\xmc_ccu8.h ****   XMC_CCU8_SLICE_TIMER_CLEAR_MODE_NEVER    = 0U, /**< Never clear the timer on any capture event */
 524:G:/dt_g1_balancing_plate_wise20192020/XMC/Libraries/XMCLib/inc\xmc_ccu8.h ****   XMC_CCU8_SLICE_TIMER_CLEAR_MODE_CAP_HIGH     , /**< Clear only when timer value has been captured
 525:G:/dt_g1_balancing_plate_wise20192020/XMC/Libraries/XMCLib/inc\xmc_ccu8.h ****   XMC_CCU8_SLICE_TIMER_CLEAR_MODE_CAP_LOW      , /**< Clear only when timer value has been captured
 526:G:/dt_g1_balancing_plate_wise20192020/XMC/Libraries/XMCLib/inc\xmc_ccu8.h ****   XMC_CCU8_SLICE_TIMER_CLEAR_MODE_ALWAYS         /**< Always clear the timer upon detection of any 
 527:G:/dt_g1_balancing_plate_wise20192020/XMC/Libraries/XMCLib/inc\xmc_ccu8.h **** } XMC_CCU8_SLICE_TIMER_CLEAR_MODE_t;
 528:G:/dt_g1_balancing_plate_wise20192020/XMC/Libraries/XMCLib/inc\xmc_ccu8.h **** 
 529:G:/dt_g1_balancing_plate_wise20192020/XMC/Libraries/XMCLib/inc\xmc_ccu8.h **** /**
 530:G:/dt_g1_balancing_plate_wise20192020/XMC/Libraries/XMCLib/inc\xmc_ccu8.h ****  *  Multi Channel Shadow transfer request configuration options
 531:G:/dt_g1_balancing_plate_wise20192020/XMC/Libraries/XMCLib/inc\xmc_ccu8.h ****  */
 532:G:/dt_g1_balancing_plate_wise20192020/XMC/Libraries/XMCLib/inc\xmc_ccu8.h **** typedef enum XMC_CCU8_SLICE_MCMS_ACTION
 533:G:/dt_g1_balancing_plate_wise20192020/XMC/Libraries/XMCLib/inc\xmc_ccu8.h **** {
 534:G:/dt_g1_balancing_plate_wise20192020/XMC/Libraries/XMCLib/inc\xmc_ccu8.h ****   XMC_CCU8_SLICE_MCMS_ACTION_TRANSFER_PR_CR          = 0U, /**< Transfer Compare and Period Shadow 
 535:G:/dt_g1_balancing_plate_wise20192020/XMC/Libraries/XMCLib/inc\xmc_ccu8.h ****                                                                 the actual registers upon MCS xfer 
 536:G:/dt_g1_balancing_plate_wise20192020/XMC/Libraries/XMCLib/inc\xmc_ccu8.h ****   XMC_CCU8_SLICE_MCMS_ACTION_TRANSFER_PR_CR_PCMP     = 1U, /**< Transfer Compare, Period and Presca
 537:G:/dt_g1_balancing_plate_wise20192020/XMC/Libraries/XMCLib/inc\xmc_ccu8.h ****                                                                 register values to the actual regis
 538:G:/dt_g1_balancing_plate_wise20192020/XMC/Libraries/XMCLib/inc\xmc_ccu8.h ****                                                                 request */
 539:G:/dt_g1_balancing_plate_wise20192020/XMC/Libraries/XMCLib/inc\xmc_ccu8.h ****   XMC_CCU8_SLICE_MCMS_ACTION_TRANSFER_PR_CR_PCMP_DIT = 3U  /**< Transfer Compare, Period ,Prescaler
 540:G:/dt_g1_balancing_plate_wise20192020/XMC/Libraries/XMCLib/inc\xmc_ccu8.h ****                                                                 Compare register values to the actu
 541:G:/dt_g1_balancing_plate_wise20192020/XMC/Libraries/XMCLib/inc\xmc_ccu8.h ****                                                                 MCS xfer request */
 542:G:/dt_g1_balancing_plate_wise20192020/XMC/Libraries/XMCLib/inc\xmc_ccu8.h **** } XMC_CCU8_SLICE_MCMS_ACTION_t;
 543:G:/dt_g1_balancing_plate_wise20192020/XMC/Libraries/XMCLib/inc\xmc_ccu8.h **** 
 544:G:/dt_g1_balancing_plate_wise20192020/XMC/Libraries/XMCLib/inc\xmc_ccu8.h **** /**
 545:G:/dt_g1_balancing_plate_wise20192020/XMC/Libraries/XMCLib/inc\xmc_ccu8.h ****  * Available Interrupt Event Ids
 546:G:/dt_g1_balancing_plate_wise20192020/XMC/Libraries/XMCLib/inc\xmc_ccu8.h ****  */
 547:G:/dt_g1_balancing_plate_wise20192020/XMC/Libraries/XMCLib/inc\xmc_ccu8.h **** typedef enum XMC_CCU8_SLICE_IRQ_ID
 548:G:/dt_g1_balancing_plate_wise20192020/XMC/Libraries/XMCLib/inc\xmc_ccu8.h **** {
 549:G:/dt_g1_balancing_plate_wise20192020/XMC/Libraries/XMCLib/inc\xmc_ccu8.h ****   XMC_CCU8_SLICE_IRQ_ID_PERIOD_MATCH            = 0U , /**< Period match counting up */
 550:G:/dt_g1_balancing_plate_wise20192020/XMC/Libraries/XMCLib/inc\xmc_ccu8.h ****   XMC_CCU8_SLICE_IRQ_ID_ONE_MATCH               = 1U , /**< One match counting down */
 551:G:/dt_g1_balancing_plate_wise20192020/XMC/Libraries/XMCLib/inc\xmc_ccu8.h ****   XMC_CCU8_SLICE_IRQ_ID_COMPARE_MATCH_UP_CH_1   = 2U , /**< Compare match counting up for channel 1
 552:G:/dt_g1_balancing_plate_wise20192020/XMC/Libraries/XMCLib/inc\xmc_ccu8.h ****   XMC_CCU8_SLICE_IRQ_ID_COMPARE_MATCH_DOWN_CH_1 = 3U , /**< Compare match counting down for channel
 553:G:/dt_g1_balancing_plate_wise20192020/XMC/Libraries/XMCLib/inc\xmc_ccu8.h ****   XMC_CCU8_SLICE_IRQ_ID_COMPARE_MATCH_UP_CH_2   = 4U , /**< Compare match counting up for channel 2
 554:G:/dt_g1_balancing_plate_wise20192020/XMC/Libraries/XMCLib/inc\xmc_ccu8.h ****   XMC_CCU8_SLICE_IRQ_ID_COMPARE_MATCH_DOWN_CH_2 = 5U , /**< Compare match counting down for channel
 555:G:/dt_g1_balancing_plate_wise20192020/XMC/Libraries/XMCLib/inc\xmc_ccu8.h ****   XMC_CCU8_SLICE_IRQ_ID_EVENT0                  = 8U , /**< Event-0 occurrence */
 556:G:/dt_g1_balancing_plate_wise20192020/XMC/Libraries/XMCLib/inc\xmc_ccu8.h ****   XMC_CCU8_SLICE_IRQ_ID_EVENT1                  = 9U , /**< Event-1 occurrence */
 557:G:/dt_g1_balancing_plate_wise20192020/XMC/Libraries/XMCLib/inc\xmc_ccu8.h ****   XMC_CCU8_SLICE_IRQ_ID_EVENT2                  = 10U, /**< Event-2 occurrence */
 558:G:/dt_g1_balancing_plate_wise20192020/XMC/Libraries/XMCLib/inc\xmc_ccu8.h ****   XMC_CCU8_SLICE_IRQ_ID_TRAP                    = 11U  /**< Trap occurrence */
 559:G:/dt_g1_balancing_plate_wise20192020/XMC/Libraries/XMCLib/inc\xmc_ccu8.h **** } XMC_CCU8_SLICE_IRQ_ID_t;
 560:G:/dt_g1_balancing_plate_wise20192020/XMC/Libraries/XMCLib/inc\xmc_ccu8.h **** 
 561:G:/dt_g1_balancing_plate_wise20192020/XMC/Libraries/XMCLib/inc\xmc_ccu8.h **** /**
 562:G:/dt_g1_balancing_plate_wise20192020/XMC/Libraries/XMCLib/inc\xmc_ccu8.h ****  * Available Interrupt Event Ids, which is added to support multi event APIs
 563:G:/dt_g1_balancing_plate_wise20192020/XMC/Libraries/XMCLib/inc\xmc_ccu8.h ****  */
 564:G:/dt_g1_balancing_plate_wise20192020/XMC/Libraries/XMCLib/inc\xmc_ccu8.h **** typedef enum XMC_CCU8_SLICE_MULTI_IRQ_ID
 565:G:/dt_g1_balancing_plate_wise20192020/XMC/Libraries/XMCLib/inc\xmc_ccu8.h **** {
 566:G:/dt_g1_balancing_plate_wise20192020/XMC/Libraries/XMCLib/inc\xmc_ccu8.h ****   XMC_CCU8_SLICE_MULTI_IRQ_ID_PERIOD_MATCH            = 0x1U,   /**< Period match counting up */
 567:G:/dt_g1_balancing_plate_wise20192020/XMC/Libraries/XMCLib/inc\xmc_ccu8.h ****   XMC_CCU8_SLICE_MULTI_IRQ_ID_ONE_MATCH               = 0x2U,   /**< One match counting down */
 568:G:/dt_g1_balancing_plate_wise20192020/XMC/Libraries/XMCLib/inc\xmc_ccu8.h ****   XMC_CCU8_SLICE_MULTI_IRQ_ID_COMPARE_MATCH_UP_CH_1   = 0x4U,   /**< Compare match counting up for 
 569:G:/dt_g1_balancing_plate_wise20192020/XMC/Libraries/XMCLib/inc\xmc_ccu8.h ****   XMC_CCU8_SLICE_MULTI_IRQ_ID_COMPARE_MATCH_DOWN_CH_1 = 0x8U,   /**< Compare match counting down fo
 570:G:/dt_g1_balancing_plate_wise20192020/XMC/Libraries/XMCLib/inc\xmc_ccu8.h ****   XMC_CCU8_SLICE_MULTI_IRQ_ID_COMPARE_MATCH_UP_CH_2   = 0x10U,  /**< Compare match counting up for 
 571:G:/dt_g1_balancing_plate_wise20192020/XMC/Libraries/XMCLib/inc\xmc_ccu8.h ****   XMC_CCU8_SLICE_MULTI_IRQ_ID_COMPARE_MATCH_DOWN_CH_2 = 0x20U,  /**< Compare match counting down fo
 572:G:/dt_g1_balancing_plate_wise20192020/XMC/Libraries/XMCLib/inc\xmc_ccu8.h ****   XMC_CCU8_SLICE_MULTI_IRQ_ID_EVENT0                  = 0x100U, /**< Event-0 occurrence */
 573:G:/dt_g1_balancing_plate_wise20192020/XMC/Libraries/XMCLib/inc\xmc_ccu8.h ****   XMC_CCU8_SLICE_MULTI_IRQ_ID_EVENT1                  = 0x200U, /**< Event-1 occurrence */
 574:G:/dt_g1_balancing_plate_wise20192020/XMC/Libraries/XMCLib/inc\xmc_ccu8.h ****   XMC_CCU8_SLICE_MULTI_IRQ_ID_EVENT2                  = 0x400U, /**< Event-2 occurrence */
 575:G:/dt_g1_balancing_plate_wise20192020/XMC/Libraries/XMCLib/inc\xmc_ccu8.h **** } XMC_CCU8_SLICE_MULTI_IRQ_ID_t;
 576:G:/dt_g1_balancing_plate_wise20192020/XMC/Libraries/XMCLib/inc\xmc_ccu8.h **** 
 577:G:/dt_g1_balancing_plate_wise20192020/XMC/Libraries/XMCLib/inc\xmc_ccu8.h **** /**
 578:G:/dt_g1_balancing_plate_wise20192020/XMC/Libraries/XMCLib/inc\xmc_ccu8.h ****  * Service Request Lines for CCU8. Event are mapped to these SR lines and these are used to generat
 579:G:/dt_g1_balancing_plate_wise20192020/XMC/Libraries/XMCLib/inc\xmc_ccu8.h ****  */
 580:G:/dt_g1_balancing_plate_wise20192020/XMC/Libraries/XMCLib/inc\xmc_ccu8.h **** typedef enum XMC_CCU8_SLICE_SR_ID
 581:G:/dt_g1_balancing_plate_wise20192020/XMC/Libraries/XMCLib/inc\xmc_ccu8.h **** {
 582:G:/dt_g1_balancing_plate_wise20192020/XMC/Libraries/XMCLib/inc\xmc_ccu8.h ****   XMC_CCU8_SLICE_SR_ID_0    = 0U, /**< Service Request Line-0 selected  */
 583:G:/dt_g1_balancing_plate_wise20192020/XMC/Libraries/XMCLib/inc\xmc_ccu8.h ****   XMC_CCU8_SLICE_SR_ID_1        , /**< Service Request Line-1 selected  */
 584:G:/dt_g1_balancing_plate_wise20192020/XMC/Libraries/XMCLib/inc\xmc_ccu8.h ****   XMC_CCU8_SLICE_SR_ID_2        , /**< Service Request Line-2 selected  */
 585:G:/dt_g1_balancing_plate_wise20192020/XMC/Libraries/XMCLib/inc\xmc_ccu8.h ****   XMC_CCU8_SLICE_SR_ID_3          /**< Service Request Line-3 selected  */
 586:G:/dt_g1_balancing_plate_wise20192020/XMC/Libraries/XMCLib/inc\xmc_ccu8.h **** } XMC_CCU8_SLICE_SR_ID_t;
 587:G:/dt_g1_balancing_plate_wise20192020/XMC/Libraries/XMCLib/inc\xmc_ccu8.h **** 
 588:G:/dt_g1_balancing_plate_wise20192020/XMC/Libraries/XMCLib/inc\xmc_ccu8.h **** 
 589:G:/dt_g1_balancing_plate_wise20192020/XMC/Libraries/XMCLib/inc\xmc_ccu8.h **** /**
 590:G:/dt_g1_balancing_plate_wise20192020/XMC/Libraries/XMCLib/inc\xmc_ccu8.h ****  *  Slice shadow transfer options.
 591:G:/dt_g1_balancing_plate_wise20192020/XMC/Libraries/XMCLib/inc\xmc_ccu8.h ****  */
 592:G:/dt_g1_balancing_plate_wise20192020/XMC/Libraries/XMCLib/inc\xmc_ccu8.h **** typedef enum XMC_CCU8_SHADOW_TRANSFER
 593:G:/dt_g1_balancing_plate_wise20192020/XMC/Libraries/XMCLib/inc\xmc_ccu8.h **** {
 594:G:/dt_g1_balancing_plate_wise20192020/XMC/Libraries/XMCLib/inc\xmc_ccu8.h ****   XMC_CCU8_SHADOW_TRANSFER_SLICE_0            = CCU8_GCSS_S0SE_Msk,  /**< Transfer Period, Compare 
 595:G:/dt_g1_balancing_plate_wise20192020/XMC/Libraries/XMCLib/inc\xmc_ccu8.h ****                                                                           shadow register values to
 596:G:/dt_g1_balancing_plate_wise20192020/XMC/Libraries/XMCLib/inc\xmc_ccu8.h ****                                                                           SLICE-0 */
 597:G:/dt_g1_balancing_plate_wise20192020/XMC/Libraries/XMCLib/inc\xmc_ccu8.h ****   XMC_CCU8_SHADOW_TRANSFER_DITHER_SLICE_0     = CCU8_GCSS_S0DSE_Msk, /**< Transfer Dither compare s
 598:G:/dt_g1_balancing_plate_wise20192020/XMC/Libraries/XMCLib/inc\xmc_ccu8.h ****                                                                           to actual register for SL
 599:G:/dt_g1_balancing_plate_wise20192020/XMC/Libraries/XMCLib/inc\xmc_ccu8.h ****   XMC_CCU8_SHADOW_TRANSFER_PRESCALER_SLICE_0  = CCU8_GCSS_S0PSE_Msk, /**< Transfer Prescaler shadow
 600:G:/dt_g1_balancing_plate_wise20192020/XMC/Libraries/XMCLib/inc\xmc_ccu8.h ****                                                                           actual register for SLICE
 601:G:/dt_g1_balancing_plate_wise20192020/XMC/Libraries/XMCLib/inc\xmc_ccu8.h ****   XMC_CCU8_SHADOW_TRANSFER_SLICE_1            = CCU8_GCSS_S1SE_Msk,  /**< Transfer Period, Compare 
 602:G:/dt_g1_balancing_plate_wise20192020/XMC/Libraries/XMCLib/inc\xmc_ccu8.h ****                                                                           shadow register values to
 603:G:/dt_g1_balancing_plate_wise20192020/XMC/Libraries/XMCLib/inc\xmc_ccu8.h ****                                                                           SLICE-1 */
 604:G:/dt_g1_balancing_plate_wise20192020/XMC/Libraries/XMCLib/inc\xmc_ccu8.h ****   XMC_CCU8_SHADOW_TRANSFER_DITHER_SLICE_1     = CCU8_GCSS_S1DSE_Msk, /**< Transfer Dither compare s
 605:G:/dt_g1_balancing_plate_wise20192020/XMC/Libraries/XMCLib/inc\xmc_ccu8.h ****                                                                           to actual registers for S
 606:G:/dt_g1_balancing_plate_wise20192020/XMC/Libraries/XMCLib/inc\xmc_ccu8.h ****   XMC_CCU8_SHADOW_TRANSFER_PRESCALER_SLICE_1  = CCU8_GCSS_S1PSE_Msk, /**< Transfer Prescaler shadow
 607:G:/dt_g1_balancing_plate_wise20192020/XMC/Libraries/XMCLib/inc\xmc_ccu8.h ****                                                                           actual register for SLICE
 608:G:/dt_g1_balancing_plate_wise20192020/XMC/Libraries/XMCLib/inc\xmc_ccu8.h ****   XMC_CCU8_SHADOW_TRANSFER_SLICE_2            = CCU8_GCSS_S2SE_Msk,  /**< Transfer Period, Compare 
 609:G:/dt_g1_balancing_plate_wise20192020/XMC/Libraries/XMCLib/inc\xmc_ccu8.h ****                                                                           shadow register values to
 610:G:/dt_g1_balancing_plate_wise20192020/XMC/Libraries/XMCLib/inc\xmc_ccu8.h ****                                                                           SLICE-2 */
 611:G:/dt_g1_balancing_plate_wise20192020/XMC/Libraries/XMCLib/inc\xmc_ccu8.h ****   XMC_CCU8_SHADOW_TRANSFER_DITHER_SLICE_2     = CCU8_GCSS_S2DSE_Msk, /**< Transfer Dither compare s
 612:G:/dt_g1_balancing_plate_wise20192020/XMC/Libraries/XMCLib/inc\xmc_ccu8.h ****                                                                           to actual register for SL
 613:G:/dt_g1_balancing_plate_wise20192020/XMC/Libraries/XMCLib/inc\xmc_ccu8.h ****   XMC_CCU8_SHADOW_TRANSFER_PRESCALER_SLICE_2  = CCU8_GCSS_S2PSE_Msk, /**< Transfer Prescaler shadow
 614:G:/dt_g1_balancing_plate_wise20192020/XMC/Libraries/XMCLib/inc\xmc_ccu8.h ****                                                                           actual register for SLICE
 615:G:/dt_g1_balancing_plate_wise20192020/XMC/Libraries/XMCLib/inc\xmc_ccu8.h ****   XMC_CCU8_SHADOW_TRANSFER_SLICE_3            = CCU8_GCSS_S3SE_Msk,  /**< Transfer Period, Compare 
 616:G:/dt_g1_balancing_plate_wise20192020/XMC/Libraries/XMCLib/inc\xmc_ccu8.h ****                                                                           shadow register values to
 617:G:/dt_g1_balancing_plate_wise20192020/XMC/Libraries/XMCLib/inc\xmc_ccu8.h ****                                                                           SLICE-3 */
 618:G:/dt_g1_balancing_plate_wise20192020/XMC/Libraries/XMCLib/inc\xmc_ccu8.h ****   XMC_CCU8_SHADOW_TRANSFER_DITHER_SLICE_3     = CCU8_GCSS_S3DSE_Msk, /**< Transfer Dither compare s
 619:G:/dt_g1_balancing_plate_wise20192020/XMC/Libraries/XMCLib/inc\xmc_ccu8.h ****                                                                           to actual register for SL
 620:G:/dt_g1_balancing_plate_wise20192020/XMC/Libraries/XMCLib/inc\xmc_ccu8.h ****   XMC_CCU8_SHADOW_TRANSFER_PRESCALER_SLICE_3  = CCU8_GCSS_S3PSE_Msk  /**< Transfer Prescaler shadow
 621:G:/dt_g1_balancing_plate_wise20192020/XMC/Libraries/XMCLib/inc\xmc_ccu8.h ****                                                                           actual register for SLICE
 622:G:/dt_g1_balancing_plate_wise20192020/XMC/Libraries/XMCLib/inc\xmc_ccu8.h **** } XMC_CCU8_SHADOW_TRANSFER_t;
 623:G:/dt_g1_balancing_plate_wise20192020/XMC/Libraries/XMCLib/inc\xmc_ccu8.h **** 
 624:G:/dt_g1_balancing_plate_wise20192020/XMC/Libraries/XMCLib/inc\xmc_ccu8.h **** #if (UC_SERIES != XMC45) || defined(DOXYGEN)
 625:G:/dt_g1_balancing_plate_wise20192020/XMC/Libraries/XMCLib/inc\xmc_ccu8.h **** /**
 626:G:/dt_g1_balancing_plate_wise20192020/XMC/Libraries/XMCLib/inc\xmc_ccu8.h ****  *  Slice shadow transfer mode options.
 627:G:/dt_g1_balancing_plate_wise20192020/XMC/Libraries/XMCLib/inc\xmc_ccu8.h ****  * @note Not available for XMC4500 series
 628:G:/dt_g1_balancing_plate_wise20192020/XMC/Libraries/XMCLib/inc\xmc_ccu8.h ****  */
 629:G:/dt_g1_balancing_plate_wise20192020/XMC/Libraries/XMCLib/inc\xmc_ccu8.h **** typedef enum XMC_CCU8_SLICE_SHADOW_TRANSFER_MODE
 630:G:/dt_g1_balancing_plate_wise20192020/XMC/Libraries/XMCLib/inc\xmc_ccu8.h **** {
 631:G:/dt_g1_balancing_plate_wise20192020/XMC/Libraries/XMCLib/inc\xmc_ccu8.h ****   XMC_CCU8_SLICE_SHADOW_TRANSFER_MODE_IN_PERIOD_MATCH_AND_ONE_MATCH = 0U, /**< Shadow transfer is d
 632:G:/dt_g1_balancing_plate_wise20192020/XMC/Libraries/XMCLib/inc\xmc_ccu8.h ****                                                                                One match. */
 633:G:/dt_g1_balancing_plate_wise20192020/XMC/Libraries/XMCLib/inc\xmc_ccu8.h ****   XMC_CCU8_SLICE_SHADOW_TRANSFER_MODE_ONLY_IN_PERIOD_MATCH = 1U,  /**< Shadow transfer is done only
 634:G:/dt_g1_balancing_plate_wise20192020/XMC/Libraries/XMCLib/inc\xmc_ccu8.h ****   XMC_CCU8_SLICE_SHADOW_TRANSFER_MODE_ONLY_IN_ONE_MATCH = 2U  /**< Shadow transfer is done only in 
 635:G:/dt_g1_balancing_plate_wise20192020/XMC/Libraries/XMCLib/inc\xmc_ccu8.h **** } XMC_CCU8_SLICE_SHADOW_TRANSFER_MODE_t;
 636:G:/dt_g1_balancing_plate_wise20192020/XMC/Libraries/XMCLib/inc\xmc_ccu8.h **** #endif
 637:G:/dt_g1_balancing_plate_wise20192020/XMC/Libraries/XMCLib/inc\xmc_ccu8.h **** 
 638:G:/dt_g1_balancing_plate_wise20192020/XMC/Libraries/XMCLib/inc\xmc_ccu8.h **** #if defined(CCU8V3) || defined(DOXYGEN) /* Defined for XMC1400 devices only */
 639:G:/dt_g1_balancing_plate_wise20192020/XMC/Libraries/XMCLib/inc\xmc_ccu8.h **** /**
 640:G:/dt_g1_balancing_plate_wise20192020/XMC/Libraries/XMCLib/inc\xmc_ccu8.h ****  *  Output sources for OUTy0 signal
 641:G:/dt_g1_balancing_plate_wise20192020/XMC/Libraries/XMCLib/inc\xmc_ccu8.h ****  * @note Only available for XMC1400 series
 642:G:/dt_g1_balancing_plate_wise20192020/XMC/Libraries/XMCLib/inc\xmc_ccu8.h ****  */
 643:G:/dt_g1_balancing_plate_wise20192020/XMC/Libraries/XMCLib/inc\xmc_ccu8.h ****  typedef enum XMC_CCU8_SOURCE_OUT0
 644:G:/dt_g1_balancing_plate_wise20192020/XMC/Libraries/XMCLib/inc\xmc_ccu8.h **** {
 645:G:/dt_g1_balancing_plate_wise20192020/XMC/Libraries/XMCLib/inc\xmc_ccu8.h ****   XMC_CCU8_SOURCE_OUT0_ST1      = (uint32_t)0x0, /**< CCU8yST1 signal path is connected the CCU8x.O
 646:G:/dt_g1_balancing_plate_wise20192020/XMC/Libraries/XMCLib/inc\xmc_ccu8.h ****   XMC_CCU8_SOURCE_OUT0_INV_ST1  = (uint32_t)0x1, /**< Inverted CCU8yST1 signal path is connected th
 647:G:/dt_g1_balancing_plate_wise20192020/XMC/Libraries/XMCLib/inc\xmc_ccu8.h ****   XMC_CCU8_SOURCE_OUT0_ST2      = (uint32_t)0x2, /**< CCU8yST2 signal path is connected the CCU8x.O
 648:G:/dt_g1_balancing_plate_wise20192020/XMC/Libraries/XMCLib/inc\xmc_ccu8.h ****   XMC_CCU8_SOURCE_OUT0_INV_ST2  = (uint32_t)0x3  /**< Inverted CCU8yST2 signal path is connected th
 649:G:/dt_g1_balancing_plate_wise20192020/XMC/Libraries/XMCLib/inc\xmc_ccu8.h **** } XMC_CCU8_SOURCE_OUT0_t;
 650:G:/dt_g1_balancing_plate_wise20192020/XMC/Libraries/XMCLib/inc\xmc_ccu8.h **** 
 651:G:/dt_g1_balancing_plate_wise20192020/XMC/Libraries/XMCLib/inc\xmc_ccu8.h **** /**
 652:G:/dt_g1_balancing_plate_wise20192020/XMC/Libraries/XMCLib/inc\xmc_ccu8.h ****  *  Output sources for OUTy1 signal
 653:G:/dt_g1_balancing_plate_wise20192020/XMC/Libraries/XMCLib/inc\xmc_ccu8.h ****  *  @note Only available for XMC1400 series
 654:G:/dt_g1_balancing_plate_wise20192020/XMC/Libraries/XMCLib/inc\xmc_ccu8.h ****  */
 655:G:/dt_g1_balancing_plate_wise20192020/XMC/Libraries/XMCLib/inc\xmc_ccu8.h ****  typedef enum XMC_CCU8_SOURCE_OUT1
 656:G:/dt_g1_balancing_plate_wise20192020/XMC/Libraries/XMCLib/inc\xmc_ccu8.h **** {
 657:G:/dt_g1_balancing_plate_wise20192020/XMC/Libraries/XMCLib/inc\xmc_ccu8.h ****   XMC_CCU8_SOURCE_OUT1_ST1      = (uint32_t)0x1, /**< CCU8yST1 signal path is connected the CCU8x.O
 658:G:/dt_g1_balancing_plate_wise20192020/XMC/Libraries/XMCLib/inc\xmc_ccu8.h ****   XMC_CCU8_SOURCE_OUT1_INV_ST1  = (uint32_t)0x0, /**< Inverted CCU8yST1 signal path is connected th
 659:G:/dt_g1_balancing_plate_wise20192020/XMC/Libraries/XMCLib/inc\xmc_ccu8.h ****   XMC_CCU8_SOURCE_OUT1_ST2      = (uint32_t)0x3, /**< CCU8yST2 signal path is connected the CCU8x.O
 660:G:/dt_g1_balancing_plate_wise20192020/XMC/Libraries/XMCLib/inc\xmc_ccu8.h ****   XMC_CCU8_SOURCE_OUT1_INV_ST2  = (uint32_t)0x2  /**< Inverted CCU8yST2 signal path is connected th
 661:G:/dt_g1_balancing_plate_wise20192020/XMC/Libraries/XMCLib/inc\xmc_ccu8.h **** } XMC_CCU8_SOURCE_OUT1_t;
 662:G:/dt_g1_balancing_plate_wise20192020/XMC/Libraries/XMCLib/inc\xmc_ccu8.h **** 
 663:G:/dt_g1_balancing_plate_wise20192020/XMC/Libraries/XMCLib/inc\xmc_ccu8.h **** /**
 664:G:/dt_g1_balancing_plate_wise20192020/XMC/Libraries/XMCLib/inc\xmc_ccu8.h ****  * Output sources for OUTy2 signal
 665:G:/dt_g1_balancing_plate_wise20192020/XMC/Libraries/XMCLib/inc\xmc_ccu8.h ****  * @note Only available for XMC1400 series
 666:G:/dt_g1_balancing_plate_wise20192020/XMC/Libraries/XMCLib/inc\xmc_ccu8.h ****  */
 667:G:/dt_g1_balancing_plate_wise20192020/XMC/Libraries/XMCLib/inc\xmc_ccu8.h ****  typedef enum XMC_CCU8_SOURCE_OUT2
 668:G:/dt_g1_balancing_plate_wise20192020/XMC/Libraries/XMCLib/inc\xmc_ccu8.h **** {
 669:G:/dt_g1_balancing_plate_wise20192020/XMC/Libraries/XMCLib/inc\xmc_ccu8.h ****   XMC_CCU8_SOURCE_OUT2_ST2      = (uint32_t)0x0, /**< CCU8yST2 signal path is connected the CCU8x.O
 670:G:/dt_g1_balancing_plate_wise20192020/XMC/Libraries/XMCLib/inc\xmc_ccu8.h ****   XMC_CCU8_SOURCE_OUT2_INV_ST2  = (uint32_t)0x1, /**< Inverted CCU8yST2 signal path is connected th
 671:G:/dt_g1_balancing_plate_wise20192020/XMC/Libraries/XMCLib/inc\xmc_ccu8.h ****   XMC_CCU8_SOURCE_OUT2_ST1      = (uint32_t)0x2, /**< CCU8yST1 signal path is connected the CCU8x.O
 672:G:/dt_g1_balancing_plate_wise20192020/XMC/Libraries/XMCLib/inc\xmc_ccu8.h ****   XMC_CCU8_SOURCE_OUT2_INV_ST1  = (uint32_t)0x3  /**< Inverted CCU8yST1 signal path is connected th
 673:G:/dt_g1_balancing_plate_wise20192020/XMC/Libraries/XMCLib/inc\xmc_ccu8.h **** } XMC_CCU8_SOURCE_OUT2_t;
 674:G:/dt_g1_balancing_plate_wise20192020/XMC/Libraries/XMCLib/inc\xmc_ccu8.h **** 
 675:G:/dt_g1_balancing_plate_wise20192020/XMC/Libraries/XMCLib/inc\xmc_ccu8.h **** /**
 676:G:/dt_g1_balancing_plate_wise20192020/XMC/Libraries/XMCLib/inc\xmc_ccu8.h ****  *  Output sources for OUTy3 signal
 677:G:/dt_g1_balancing_plate_wise20192020/XMC/Libraries/XMCLib/inc\xmc_ccu8.h ****  *  @note Only available for XMC1400 series
 678:G:/dt_g1_balancing_plate_wise20192020/XMC/Libraries/XMCLib/inc\xmc_ccu8.h ****  */
 679:G:/dt_g1_balancing_plate_wise20192020/XMC/Libraries/XMCLib/inc\xmc_ccu8.h ****  typedef enum XMC_CCU8_SOURCE_OUT3
 680:G:/dt_g1_balancing_plate_wise20192020/XMC/Libraries/XMCLib/inc\xmc_ccu8.h **** {
 681:G:/dt_g1_balancing_plate_wise20192020/XMC/Libraries/XMCLib/inc\xmc_ccu8.h ****   XMC_CCU8_SOURCE_OUT3_ST2      = (uint32_t)0x1, /**< CCU8yST2 signal path is connected the CCU8x.O
 682:G:/dt_g1_balancing_plate_wise20192020/XMC/Libraries/XMCLib/inc\xmc_ccu8.h ****   XMC_CCU8_SOURCE_OUT3_INV_ST2  = (uint32_t)0x0, /**< Inverted CCU8yST2 signal path is connected th
 683:G:/dt_g1_balancing_plate_wise20192020/XMC/Libraries/XMCLib/inc\xmc_ccu8.h ****   XMC_CCU8_SOURCE_OUT3_ST1      = (uint32_t)0x3, /**< CCU8yST1 signal path is connected the CCU8x.O
 684:G:/dt_g1_balancing_plate_wise20192020/XMC/Libraries/XMCLib/inc\xmc_ccu8.h ****   XMC_CCU8_SOURCE_OUT3_INV_ST1  = (uint32_t)0x2  /**< Inverted CCU8yST1 signal path is connected th
 685:G:/dt_g1_balancing_plate_wise20192020/XMC/Libraries/XMCLib/inc\xmc_ccu8.h **** } XMC_CCU8_SOURCE_OUT3_t;
 686:G:/dt_g1_balancing_plate_wise20192020/XMC/Libraries/XMCLib/inc\xmc_ccu8.h **** #endif
 687:G:/dt_g1_balancing_plate_wise20192020/XMC/Libraries/XMCLib/inc\xmc_ccu8.h **** 
 688:G:/dt_g1_balancing_plate_wise20192020/XMC/Libraries/XMCLib/inc\xmc_ccu8.h **** 
 689:G:/dt_g1_balancing_plate_wise20192020/XMC/Libraries/XMCLib/inc\xmc_ccu8.h **** /**
 690:G:/dt_g1_balancing_plate_wise20192020/XMC/Libraries/XMCLib/inc\xmc_ccu8.h ****  *  Output selector for CCU8x.OUT0-3
 691:G:/dt_g1_balancing_plate_wise20192020/XMC/Libraries/XMCLib/inc\xmc_ccu8.h ****  */
 692:G:/dt_g1_balancing_plate_wise20192020/XMC/Libraries/XMCLib/inc\xmc_ccu8.h **** #if !defined(CCU8V3) /* Defined for all devices except XMC1400 */
 693:G:/dt_g1_balancing_plate_wise20192020/XMC/Libraries/XMCLib/inc\xmc_ccu8.h **** typedef enum XMC_CCU8_OUT_PATH
 694:G:/dt_g1_balancing_plate_wise20192020/XMC/Libraries/XMCLib/inc\xmc_ccu8.h **** {
 695:G:/dt_g1_balancing_plate_wise20192020/XMC/Libraries/XMCLib/inc\xmc_ccu8.h ****   XMC_CCU8_OUT_PATH_OUT0_ST1      = (uint32_t)0x20000, /**< CCU8yST1 signal path is connected the C
 696:G:/dt_g1_balancing_plate_wise20192020/XMC/Libraries/XMCLib/inc\xmc_ccu8.h ****   XMC_CCU8_OUT_PATH_OUT0_INV_ST1  = (uint32_t)0x20002, /**< Inverted CCU8yST1 signal path is connec
 697:G:/dt_g1_balancing_plate_wise20192020/XMC/Libraries/XMCLib/inc\xmc_ccu8.h ****   XMC_CCU8_OUT_PATH_OUT1_ST1      = (uint32_t)0x40000, /**< CCU8yST1 signal path is connected the C
 698:G:/dt_g1_balancing_plate_wise20192020/XMC/Libraries/XMCLib/inc\xmc_ccu8.h ****   XMC_CCU8_OUT_PATH_OUT1_INV_ST1  = (uint32_t)0x40004, /**< Inverted CCU8yST1 signal path is connec
 699:G:/dt_g1_balancing_plate_wise20192020/XMC/Libraries/XMCLib/inc\xmc_ccu8.h ****   XMC_CCU8_OUT_PATH_OUT2_ST2      = (uint32_t)0x80000, /**< CCU8yST2 signal path is connected the C
 700:G:/dt_g1_balancing_plate_wise20192020/XMC/Libraries/XMCLib/inc\xmc_ccu8.h ****   XMC_CCU8_OUT_PATH_OUT2_INV_ST2  = (uint32_t)0x80008, /**< Inverted CCU8yST2 signal path is connec
 701:G:/dt_g1_balancing_plate_wise20192020/XMC/Libraries/XMCLib/inc\xmc_ccu8.h ****   XMC_CCU8_OUT_PATH_OUT3_ST2      = (uint32_t)0x100000,/**< CCU8yST2 signal path is connected the C
 702:G:/dt_g1_balancing_plate_wise20192020/XMC/Libraries/XMCLib/inc\xmc_ccu8.h ****   XMC_CCU8_OUT_PATH_OUT3_INV_ST1  = (uint32_t)0x100010 /**< Inverted CCU8yST2 signal path is connec
 703:G:/dt_g1_balancing_plate_wise20192020/XMC/Libraries/XMCLib/inc\xmc_ccu8.h **** } XMC_CCU8_OUT_PATH_t;
 704:G:/dt_g1_balancing_plate_wise20192020/XMC/Libraries/XMCLib/inc\xmc_ccu8.h **** #else
 705:G:/dt_g1_balancing_plate_wise20192020/XMC/Libraries/XMCLib/inc\xmc_ccu8.h **** typedef enum XMC_CCU8_OUT_PATH
 706:G:/dt_g1_balancing_plate_wise20192020/XMC/Libraries/XMCLib/inc\xmc_ccu8.h **** {
 707:G:/dt_g1_balancing_plate_wise20192020/XMC/Libraries/XMCLib/inc\xmc_ccu8.h ****   XMC_CCU8_OUT_PATH_OUT0_ST1      = (uint32_t)0x000C0, /**< CCU8yST1 signal path is connected the C
 708:G:/dt_g1_balancing_plate_wise20192020/XMC/Libraries/XMCLib/inc\xmc_ccu8.h ****   XMC_CCU8_OUT_PATH_OUT0_INV_ST1  = (uint32_t)0x000D0, /**< Inverted CCU8yST1 signal path is connec
 709:G:/dt_g1_balancing_plate_wise20192020/XMC/Libraries/XMCLib/inc\xmc_ccu8.h ****   XMC_CCU8_OUT_PATH_OUT0_ST2      = (uint32_t)0x000E0, /**< CCU8yST2 signal path is connected the C
 710:G:/dt_g1_balancing_plate_wise20192020/XMC/Libraries/XMCLib/inc\xmc_ccu8.h ****   XMC_CCU8_OUT_PATH_OUT0_INV_ST2  = (uint32_t)0x000F0, /**< Inverted CCU8yST2 signal path is connec
 711:G:/dt_g1_balancing_plate_wise20192020/XMC/Libraries/XMCLib/inc\xmc_ccu8.h ****   XMC_CCU8_OUT_PATH_OUT1_ST1      = (uint32_t)0x00D00, /**< CCU8yST1 signal path is connected the C
 712:G:/dt_g1_balancing_plate_wise20192020/XMC/Libraries/XMCLib/inc\xmc_ccu8.h ****   XMC_CCU8_OUT_PATH_OUT1_INV_ST1  = (uint32_t)0x00C00, /**< Inverted CCU8yST1 signal path is connec
 713:G:/dt_g1_balancing_plate_wise20192020/XMC/Libraries/XMCLib/inc\xmc_ccu8.h ****   XMC_CCU8_OUT_PATH_OUT1_ST2      = (uint32_t)0x00F00, /**< CCU8yST2 signal path is connected the C
 714:G:/dt_g1_balancing_plate_wise20192020/XMC/Libraries/XMCLib/inc\xmc_ccu8.h ****   XMC_CCU8_OUT_PATH_OUT1_INV_ST2  = (uint32_t)0x00E00, /**< Inverted CCU8yST2 signal path is connec
 715:G:/dt_g1_balancing_plate_wise20192020/XMC/Libraries/XMCLib/inc\xmc_ccu8.h ****   XMC_CCU8_OUT_PATH_OUT2_ST2      = (uint32_t)0x0C000, /**< CCU8yST2 signal path is connected the C
 716:G:/dt_g1_balancing_plate_wise20192020/XMC/Libraries/XMCLib/inc\xmc_ccu8.h ****   XMC_CCU8_OUT_PATH_OUT2_INV_ST2  = (uint32_t)0x0D000, /**< Inverted CCU8yST2 signal path is connec
 717:G:/dt_g1_balancing_plate_wise20192020/XMC/Libraries/XMCLib/inc\xmc_ccu8.h ****   XMC_CCU8_OUT_PATH_OUT2_ST1      = (uint32_t)0x0E000, /**< CCU8yST1 signal path is connected the C
 718:G:/dt_g1_balancing_plate_wise20192020/XMC/Libraries/XMCLib/inc\xmc_ccu8.h ****   XMC_CCU8_OUT_PATH_OUT2_INV_ST1  = (uint32_t)0x0F000, /**< Inverted CCU8yST1 signal path is connec
 719:G:/dt_g1_balancing_plate_wise20192020/XMC/Libraries/XMCLib/inc\xmc_ccu8.h ****   XMC_CCU8_OUT_PATH_OUT3_ST2      = (uint32_t)0xD0000, /**< CCU8yST2 signal path is connected the C
 720:G:/dt_g1_balancing_plate_wise20192020/XMC/Libraries/XMCLib/inc\xmc_ccu8.h ****   XMC_CCU8_OUT_PATH_OUT3_INV_ST2  = (uint32_t)0xC0000, /**< Inverted CCU8yST2 signal path is connec
 721:G:/dt_g1_balancing_plate_wise20192020/XMC/Libraries/XMCLib/inc\xmc_ccu8.h ****   XMC_CCU8_OUT_PATH_OUT3_ST1      = (uint32_t)0xF0000, /**< CCU8yST1 signal path is connected the C
 722:G:/dt_g1_balancing_plate_wise20192020/XMC/Libraries/XMCLib/inc\xmc_ccu8.h ****   XMC_CCU8_OUT_PATH_OUT3_INV_ST1  = (uint32_t)0xE0000  /**< Inverted CCU8yST1 signal path is connec
 723:G:/dt_g1_balancing_plate_wise20192020/XMC/Libraries/XMCLib/inc\xmc_ccu8.h **** } XMC_CCU8_OUT_PATH_t;
 724:G:/dt_g1_balancing_plate_wise20192020/XMC/Libraries/XMCLib/inc\xmc_ccu8.h **** 
 725:G:/dt_g1_balancing_plate_wise20192020/XMC/Libraries/XMCLib/inc\xmc_ccu8.h **** /**
 726:G:/dt_g1_balancing_plate_wise20192020/XMC/Libraries/XMCLib/inc\xmc_ccu8.h ****  *  Immediate write into configuration register
 727:G:/dt_g1_balancing_plate_wise20192020/XMC/Libraries/XMCLib/inc\xmc_ccu8.h ****  *  @note Only available for XMC1400 series
 728:G:/dt_g1_balancing_plate_wise20192020/XMC/Libraries/XMCLib/inc\xmc_ccu8.h ****  */
 729:G:/dt_g1_balancing_plate_wise20192020/XMC/Libraries/XMCLib/inc\xmc_ccu8.h **** typedef enum XMC_CCU8_SLICE_WRITE_INTO
 730:G:/dt_g1_balancing_plate_wise20192020/XMC/Libraries/XMCLib/inc\xmc_ccu8.h **** {
 731:G:/dt_g1_balancing_plate_wise20192020/XMC/Libraries/XMCLib/inc\xmc_ccu8.h ****   XMC_CCU8_SLICE_WRITE_INTO_PERIOD_CONFIGURATION = CCU8_CC8_STC_IRPC_Msk,                  /**< Imm
 732:G:/dt_g1_balancing_plate_wise20192020/XMC/Libraries/XMCLib/inc\xmc_ccu8.h ****                                                                                                 Wri
 733:G:/dt_g1_balancing_plate_wise20192020/XMC/Libraries/XMCLib/inc\xmc_ccu8.h ****                                                                                                 Con
 734:G:/dt_g1_balancing_plate_wise20192020/XMC/Libraries/XMCLib/inc\xmc_ccu8.h ****   XMC_CCU8_SLICE_WRITE_INTO_COMPARE1_CONFIGURATION = CCU8_CC8_STC_IRCC1_Msk,               /**< Imm
 735:G:/dt_g1_balancing_plate_wise20192020/XMC/Libraries/XMCLib/inc\xmc_ccu8.h ****                                                                                                 Wri
 736:G:/dt_g1_balancing_plate_wise20192020/XMC/Libraries/XMCLib/inc\xmc_ccu8.h ****                                                                                                 Con
 737:G:/dt_g1_balancing_plate_wise20192020/XMC/Libraries/XMCLib/inc\xmc_ccu8.h ****   XMC_CCU8_SLICE_WRITE_INTO_COMPARE2_CONFIGURATION = CCU8_CC8_STC_IRCC2_Msk,               /**< Imm
 738:G:/dt_g1_balancing_plate_wise20192020/XMC/Libraries/XMCLib/inc\xmc_ccu8.h ****                                                                                                 Wri
 739:G:/dt_g1_balancing_plate_wise20192020/XMC/Libraries/XMCLib/inc\xmc_ccu8.h ****                                                                                                 Con
 740:G:/dt_g1_balancing_plate_wise20192020/XMC/Libraries/XMCLib/inc\xmc_ccu8.h ****   XMC_CCU8_SLICE_WRITE_INTO_PASSIVE_LEVEL_CONFIGURATION = CCU8_CC8_STC_IRLC_Msk,           /**< Imm
 741:G:/dt_g1_balancing_plate_wise20192020/XMC/Libraries/XMCLib/inc\xmc_ccu8.h ****                                                                                                 Wri
 742:G:/dt_g1_balancing_plate_wise20192020/XMC/Libraries/XMCLib/inc\xmc_ccu8.h **** 	                                                                                            Config
 743:G:/dt_g1_balancing_plate_wise20192020/XMC/Libraries/XMCLib/inc\xmc_ccu8.h ****   XMC_CCU8_SLICE_WRITE_INTO_DITHER_VALUE_CONFIGURATION = CCU8_CC8_STC_IRDC_Msk,            /**< Imm
 744:G:/dt_g1_balancing_plate_wise20192020/XMC/Libraries/XMCLib/inc\xmc_ccu8.h ****                                                                                                 Wri
 745:G:/dt_g1_balancing_plate_wise20192020/XMC/Libraries/XMCLib/inc\xmc_ccu8.h **** 	                                                                                            Config
 746:G:/dt_g1_balancing_plate_wise20192020/XMC/Libraries/XMCLib/inc\xmc_ccu8.h ****   XMC_CCU8_SLICE_WRITE_INTO_FLOATING_PRESCALER_VALUE_CONFIGURATION = CCU8_CC8_STC_IRFC_Msk /**< Imm
 747:G:/dt_g1_balancing_plate_wise20192020/XMC/Libraries/XMCLib/inc\xmc_ccu8.h ****                                                                                                 Wri
 748:G:/dt_g1_balancing_plate_wise20192020/XMC/Libraries/XMCLib/inc\xmc_ccu8.h ****                                                                                                 Val
 749:G:/dt_g1_balancing_plate_wise20192020/XMC/Libraries/XMCLib/inc\xmc_ccu8.h **** } XMC_CCU8_SLICE_WRITE_INTO_t;
 750:G:/dt_g1_balancing_plate_wise20192020/XMC/Libraries/XMCLib/inc\xmc_ccu8.h **** 
 751:G:/dt_g1_balancing_plate_wise20192020/XMC/Libraries/XMCLib/inc\xmc_ccu8.h **** 
 752:G:/dt_g1_balancing_plate_wise20192020/XMC/Libraries/XMCLib/inc\xmc_ccu8.h **** /**
 753:G:/dt_g1_balancing_plate_wise20192020/XMC/Libraries/XMCLib/inc\xmc_ccu8.h ****  *  Automatic Shadow Transfer request when writing into shadow register
 754:G:/dt_g1_balancing_plate_wise20192020/XMC/Libraries/XMCLib/inc\xmc_ccu8.h ****  *  @note Only available for XMC1400 series
 755:G:/dt_g1_balancing_plate_wise20192020/XMC/Libraries/XMCLib/inc\xmc_ccu8.h ****  */
 756:G:/dt_g1_balancing_plate_wise20192020/XMC/Libraries/XMCLib/inc\xmc_ccu8.h **** typedef enum XMC_CCU8_SLICE_AUTOMAIC_SHADOW_TRANSFER_WRITE_INTO
 757:G:/dt_g1_balancing_plate_wise20192020/XMC/Libraries/XMCLib/inc\xmc_ccu8.h **** {
 758:G:/dt_g1_balancing_plate_wise20192020/XMC/Libraries/XMCLib/inc\xmc_ccu8.h ****   XMC_CCU8_SLICE_AUTOMAIC_SHADOW_TRANSFER_WRITE_INTO_PERIOD_SHADOW = CCU8_CC8_STC_ASPC_Msk,        
 759:G:/dt_g1_balancing_plate_wise20192020/XMC/Libraries/XMCLib/inc\xmc_ccu8.h **** 	                                                                                                  
 760:G:/dt_g1_balancing_plate_wise20192020/XMC/Libraries/XMCLib/inc\xmc_ccu8.h ****                                                                                                    
 761:G:/dt_g1_balancing_plate_wise20192020/XMC/Libraries/XMCLib/inc\xmc_ccu8.h ****                                                                                                    
 762:G:/dt_g1_balancing_plate_wise20192020/XMC/Libraries/XMCLib/inc\xmc_ccu8.h ****   XMC_CCU8_SLICE_AUTOMAIC_SHADOW_TRANSFER_WRITE_INTO_COMPARE1_SHADOW = CCU8_CC8_STC_ASCC1_Msk,     
 763:G:/dt_g1_balancing_plate_wise20192020/XMC/Libraries/XMCLib/inc\xmc_ccu8.h **** 	                                                                                                  
 764:G:/dt_g1_balancing_plate_wise20192020/XMC/Libraries/XMCLib/inc\xmc_ccu8.h **** 	                                                                                                  
 765:G:/dt_g1_balancing_plate_wise20192020/XMC/Libraries/XMCLib/inc\xmc_ccu8.h **** 	                                                                                                  
 766:G:/dt_g1_balancing_plate_wise20192020/XMC/Libraries/XMCLib/inc\xmc_ccu8.h ****   XMC_CCU8_SLICE_AUTOMAIC_SHADOW_TRANSFER_WRITE_INTO_COMPARE2_SHADOW = CCU8_CC8_STC_ASCC2_Msk,     
 767:G:/dt_g1_balancing_plate_wise20192020/XMC/Libraries/XMCLib/inc\xmc_ccu8.h **** 	                                                                                                  
 768:G:/dt_g1_balancing_plate_wise20192020/XMC/Libraries/XMCLib/inc\xmc_ccu8.h **** 	                                                                                                  
 769:G:/dt_g1_balancing_plate_wise20192020/XMC/Libraries/XMCLib/inc\xmc_ccu8.h **** 	                                                                                                  
 770:G:/dt_g1_balancing_plate_wise20192020/XMC/Libraries/XMCLib/inc\xmc_ccu8.h ****   XMC_CCU8_SLICE_AUTOMAIC_SHADOW_TRANSFER_WRITE_INTO_PASSIVE_LEVEL = CCU8_CC8_STC_ASLC_Msk,        
 771:G:/dt_g1_balancing_plate_wise20192020/XMC/Libraries/XMCLib/inc\xmc_ccu8.h **** 	                                                                                                  
 772:G:/dt_g1_balancing_plate_wise20192020/XMC/Libraries/XMCLib/inc\xmc_ccu8.h ****                                                                                                    
 773:G:/dt_g1_balancing_plate_wise20192020/XMC/Libraries/XMCLib/inc\xmc_ccu8.h ****   XMC_CCU8_SLICE_AUTOMAIC_SHADOW_TRANSFER_WRITE_INTO_DITHER_SHADOW = CCU8_CC8_STC_ASDC_Msk,        
 774:G:/dt_g1_balancing_plate_wise20192020/XMC/Libraries/XMCLib/inc\xmc_ccu8.h ****                                                                                                    
 775:G:/dt_g1_balancing_plate_wise20192020/XMC/Libraries/XMCLib/inc\xmc_ccu8.h ****                                                                                                    
 776:G:/dt_g1_balancing_plate_wise20192020/XMC/Libraries/XMCLib/inc\xmc_ccu8.h ****   XMC_CCU8_SLICE_AUTOMAIC_SHADOW_TRANSFER_WRITE_INTO_FLOATING_PRESCALER_SHADOW = CCU8_CC8_STC_ASFC_
 777:G:/dt_g1_balancing_plate_wise20192020/XMC/Libraries/XMCLib/inc\xmc_ccu8.h **** 	                                                                                                  
 778:G:/dt_g1_balancing_plate_wise20192020/XMC/Libraries/XMCLib/inc\xmc_ccu8.h ****                                                                                                    
 779:G:/dt_g1_balancing_plate_wise20192020/XMC/Libraries/XMCLib/inc\xmc_ccu8.h ****                                                                                                    
 780:G:/dt_g1_balancing_plate_wise20192020/XMC/Libraries/XMCLib/inc\xmc_ccu8.h **** 
 781:G:/dt_g1_balancing_plate_wise20192020/XMC/Libraries/XMCLib/inc\xmc_ccu8.h **** } XMC_CCU8_SLICE_AUTOMAIC_SHADOW_TRANSFER_WRITE_INTO_t;
 782:G:/dt_g1_balancing_plate_wise20192020/XMC/Libraries/XMCLib/inc\xmc_ccu8.h **** #endif
 783:G:/dt_g1_balancing_plate_wise20192020/XMC/Libraries/XMCLib/inc\xmc_ccu8.h **** 
 784:G:/dt_g1_balancing_plate_wise20192020/XMC/Libraries/XMCLib/inc\xmc_ccu8.h **** /**
 785:G:/dt_g1_balancing_plate_wise20192020/XMC/Libraries/XMCLib/inc\xmc_ccu8.h ****  *  CCU8 slice mask which can be used for the APIs as input where multi slice support is available
 786:G:/dt_g1_balancing_plate_wise20192020/XMC/Libraries/XMCLib/inc\xmc_ccu8.h ****  */
 787:G:/dt_g1_balancing_plate_wise20192020/XMC/Libraries/XMCLib/inc\xmc_ccu8.h **** typedef enum XMC_CCU8_SLICE_MASK
 788:G:/dt_g1_balancing_plate_wise20192020/XMC/Libraries/XMCLib/inc\xmc_ccu8.h **** {
 789:G:/dt_g1_balancing_plate_wise20192020/XMC/Libraries/XMCLib/inc\xmc_ccu8.h ****   XMC_CCU8_SLICE_MASK_SLICE_0  = 1U , /**< SLICE-0 */
 790:G:/dt_g1_balancing_plate_wise20192020/XMC/Libraries/XMCLib/inc\xmc_ccu8.h ****   XMC_CCU8_SLICE_MASK_SLICE_1  = 2U , /**< SLICE-1 */
 791:G:/dt_g1_balancing_plate_wise20192020/XMC/Libraries/XMCLib/inc\xmc_ccu8.h ****   XMC_CCU8_SLICE_MASK_SLICE_2  = 4U , /**< SLICE-2 */
 792:G:/dt_g1_balancing_plate_wise20192020/XMC/Libraries/XMCLib/inc\xmc_ccu8.h ****   XMC_CCU8_SLICE_MASK_SLICE_3  = 8U   /**< SLICE-3 */
 793:G:/dt_g1_balancing_plate_wise20192020/XMC/Libraries/XMCLib/inc\xmc_ccu8.h **** } XMC_CCU8_SLICE_MASK_t;
 794:G:/dt_g1_balancing_plate_wise20192020/XMC/Libraries/XMCLib/inc\xmc_ccu8.h **** 
 795:G:/dt_g1_balancing_plate_wise20192020/XMC/Libraries/XMCLib/inc\xmc_ccu8.h **** /**
 796:G:/dt_g1_balancing_plate_wise20192020/XMC/Libraries/XMCLib/inc\xmc_ccu8.h ****  *  Selects which signal is controlling the delay between the change at the CCU8 outputs and effect
 797:G:/dt_g1_balancing_plate_wise20192020/XMC/Libraries/XMCLib/inc\xmc_ccu8.h ****  */
 798:G:/dt_g1_balancing_plate_wise20192020/XMC/Libraries/XMCLib/inc\xmc_ccu8.h **** typedef enum XMC_CCU8_PARITY_CHECKER_DELAY_INPUT
 799:G:/dt_g1_balancing_plate_wise20192020/XMC/Libraries/XMCLib/inc\xmc_ccu8.h **** {
 800:G:/dt_g1_balancing_plate_wise20192020/XMC/Libraries/XMCLib/inc\xmc_ccu8.h ****   XMC_CCU8_PARITY_CHECKER_DELAY_INPUT_IGBTA = 0 << CCU8_GPCHK_PCDS_Pos,
 801:G:/dt_g1_balancing_plate_wise20192020/XMC/Libraries/XMCLib/inc\xmc_ccu8.h ****   XMC_CCU8_PARITY_CHECKER_DELAY_INPUT_IGBTB = 1 << CCU8_GPCHK_PCDS_Pos,
 802:G:/dt_g1_balancing_plate_wise20192020/XMC/Libraries/XMCLib/inc\xmc_ccu8.h ****   XMC_CCU8_PARITY_CHECKER_DELAY_INPUT_IGBTC = 2 << CCU8_GPCHK_PCDS_Pos,
 803:G:/dt_g1_balancing_plate_wise20192020/XMC/Libraries/XMCLib/inc\xmc_ccu8.h ****   XMC_CCU8_PARITY_CHECKER_DELAY_INPUT_IGBTD = 3 << CCU8_GPCHK_PCDS_Pos
 804:G:/dt_g1_balancing_plate_wise20192020/XMC/Libraries/XMCLib/inc\xmc_ccu8.h **** } XMC_CCU8_PARITY_CHECKER_DELAY_INPUT_t;
 805:G:/dt_g1_balancing_plate_wise20192020/XMC/Libraries/XMCLib/inc\xmc_ccu8.h **** 
 806:G:/dt_g1_balancing_plate_wise20192020/XMC/Libraries/XMCLib/inc\xmc_ccu8.h **** 
 807:G:/dt_g1_balancing_plate_wise20192020/XMC/Libraries/XMCLib/inc\xmc_ccu8.h **** /**
 808:G:/dt_g1_balancing_plate_wise20192020/XMC/Libraries/XMCLib/inc\xmc_ccu8.h ****  *  Selects which signal contains the driver parity information
 809:G:/dt_g1_balancing_plate_wise20192020/XMC/Libraries/XMCLib/inc\xmc_ccu8.h ****  */
 810:G:/dt_g1_balancing_plate_wise20192020/XMC/Libraries/XMCLib/inc\xmc_ccu8.h **** typedef enum XMC_CCU8_PARITY_CHECKER_DRIVER_INPUT
 811:G:/dt_g1_balancing_plate_wise20192020/XMC/Libraries/XMCLib/inc\xmc_ccu8.h **** {
 812:G:/dt_g1_balancing_plate_wise20192020/XMC/Libraries/XMCLib/inc\xmc_ccu8.h ****   XMC_CCU8_PARITY_CHECKER_DRIVER_INPUT_SLICE_0 = 0 << CCU8_GPCHK_PISEL_Pos,
 813:G:/dt_g1_balancing_plate_wise20192020/XMC/Libraries/XMCLib/inc\xmc_ccu8.h ****   XMC_CCU8_PARITY_CHECKER_DRIVER_INPUT_SLICE_1 = 1 << CCU8_GPCHK_PISEL_Pos,
 814:G:/dt_g1_balancing_plate_wise20192020/XMC/Libraries/XMCLib/inc\xmc_ccu8.h ****   XMC_CCU8_PARITY_CHECKER_DRIVER_INPUT_SLICE_2 = 2 << CCU8_GPCHK_PISEL_Pos,
 815:G:/dt_g1_balancing_plate_wise20192020/XMC/Libraries/XMCLib/inc\xmc_ccu8.h ****   XMC_CCU8_PARITY_CHECKER_DRIVER_INPUT_SLICE_3 = 3 << CCU8_GPCHK_PISEL_Pos,
 816:G:/dt_g1_balancing_plate_wise20192020/XMC/Libraries/XMCLib/inc\xmc_ccu8.h **** } XMC_CCU8_PARITY_CHECKER_DRIVER_INPUT_t;
 817:G:/dt_g1_balancing_plate_wise20192020/XMC/Libraries/XMCLib/inc\xmc_ccu8.h **** 
 818:G:/dt_g1_balancing_plate_wise20192020/XMC/Libraries/XMCLib/inc\xmc_ccu8.h **** /**
 819:G:/dt_g1_balancing_plate_wise20192020/XMC/Libraries/XMCLib/inc\xmc_ccu8.h ****  *  Selects if we have an odd or even parity
 820:G:/dt_g1_balancing_plate_wise20192020/XMC/Libraries/XMCLib/inc\xmc_ccu8.h ****  */
 821:G:/dt_g1_balancing_plate_wise20192020/XMC/Libraries/XMCLib/inc\xmc_ccu8.h **** typedef enum XMC_CCU8_PARITY_CHECKER_TYPE
 822:G:/dt_g1_balancing_plate_wise20192020/XMC/Libraries/XMCLib/inc\xmc_ccu8.h **** {
 823:G:/dt_g1_balancing_plate_wise20192020/XMC/Libraries/XMCLib/inc\xmc_ccu8.h ****   XMC_CCU8_PARITY_CHECKER_TYPE_EVEN = 0 << CCU8_GPCHK_PCTS_Pos,
 824:G:/dt_g1_balancing_plate_wise20192020/XMC/Libraries/XMCLib/inc\xmc_ccu8.h ****   XMC_CCU8_PARITY_CHECKER_TYPE_ODD = 1 << CCU8_GPCHK_PCTS_Pos,
 825:G:/dt_g1_balancing_plate_wise20192020/XMC/Libraries/XMCLib/inc\xmc_ccu8.h **** } XMC_CCU8_PARITY_CHECKER_TYPE_t;
 826:G:/dt_g1_balancing_plate_wise20192020/XMC/Libraries/XMCLib/inc\xmc_ccu8.h **** 
 827:G:/dt_g1_balancing_plate_wise20192020/XMC/Libraries/XMCLib/inc\xmc_ccu8.h **** /**
 828:G:/dt_g1_balancing_plate_wise20192020/XMC/Libraries/XMCLib/inc\xmc_ccu8.h ****  *  Selects suspend mode
 829:G:/dt_g1_balancing_plate_wise20192020/XMC/Libraries/XMCLib/inc\xmc_ccu8.h ****  */
 830:G:/dt_g1_balancing_plate_wise20192020/XMC/Libraries/XMCLib/inc\xmc_ccu8.h **** typedef enum XMC_CCU8_SUSPEND_MODE
 831:G:/dt_g1_balancing_plate_wise20192020/XMC/Libraries/XMCLib/inc\xmc_ccu8.h **** {
 832:G:/dt_g1_balancing_plate_wise20192020/XMC/Libraries/XMCLib/inc\xmc_ccu8.h ****   XMC_CCU8_SUSPEND_MODE_IGNORE = 0 << CCU8_GCTRL_SUSCFG_Pos, /**< Suspend request ignored. The modu
 833:G:/dt_g1_balancing_plate_wise20192020/XMC/Libraries/XMCLib/inc\xmc_ccu8.h ****   XMC_CCU8_SUSPEND_MODE_STOPS_INMEDIATELLY = 1 << CCU8_GCTRL_SUSCFG_Pos, /**< Stops all the running
 834:G:/dt_g1_balancing_plate_wise20192020/XMC/Libraries/XMCLib/inc\xmc_ccu8.h ****   XMC_CCU8_SUSPEND_MODE_SAFE_STOP = 2 << CCU8_GCTRL_SUSCFG_Pos, /**< Stops the block immediately an
 835:G:/dt_g1_balancing_plate_wise20192020/XMC/Libraries/XMCLib/inc\xmc_ccu8.h ****   XMC_CCU8_SUSPEND_MODE_WAIT_ROLL_OVER = 3 << CCU8_GCTRL_SUSCFG_Pos /**< Waits for the roll over of
 836:G:/dt_g1_balancing_plate_wise20192020/XMC/Libraries/XMCLib/inc\xmc_ccu8.h **** } XMC_CCU8_SUSPEND_MODE_t;
 837:G:/dt_g1_balancing_plate_wise20192020/XMC/Libraries/XMCLib/inc\xmc_ccu8.h **** 
 838:G:/dt_g1_balancing_plate_wise20192020/XMC/Libraries/XMCLib/inc\xmc_ccu8.h **** /**************************************************************************************************
 839:G:/dt_g1_balancing_plate_wise20192020/XMC/Libraries/XMCLib/inc\xmc_ccu8.h ****  * DATA STRUCTURES
 840:G:/dt_g1_balancing_plate_wise20192020/XMC/Libraries/XMCLib/inc\xmc_ccu8.h ****  **************************************************************************************************
 841:G:/dt_g1_balancing_plate_wise20192020/XMC/Libraries/XMCLib/inc\xmc_ccu8.h **** 
 842:G:/dt_g1_balancing_plate_wise20192020/XMC/Libraries/XMCLib/inc\xmc_ccu8.h **** /**
 843:G:/dt_g1_balancing_plate_wise20192020/XMC/Libraries/XMCLib/inc\xmc_ccu8.h ****  *  Configuration data structure of an External Event(Event-0/1/2).
 844:G:/dt_g1_balancing_plate_wise20192020/XMC/Libraries/XMCLib/inc\xmc_ccu8.h ****  *  Needed to configure the various aspects of an External Event.
 845:G:/dt_g1_balancing_plate_wise20192020/XMC/Libraries/XMCLib/inc\xmc_ccu8.h ****  *  This structure will not connect the external event with an external function.
 846:G:/dt_g1_balancing_plate_wise20192020/XMC/Libraries/XMCLib/inc\xmc_ccu8.h ****  */
 847:G:/dt_g1_balancing_plate_wise20192020/XMC/Libraries/XMCLib/inc\xmc_ccu8.h **** typedef struct XMC_CCU8_SLICE_EVENT_CONFIG
 848:G:/dt_g1_balancing_plate_wise20192020/XMC/Libraries/XMCLib/inc\xmc_ccu8.h **** {
 849:G:/dt_g1_balancing_plate_wise20192020/XMC/Libraries/XMCLib/inc\xmc_ccu8.h ****   XMC_CCU8_SLICE_INPUT_t                   mapped_input; /**< Required input signal for the Event. 
 850:G:/dt_g1_balancing_plate_wise20192020/XMC/Libraries/XMCLib/inc\xmc_ccu8.h ****   XMC_CCU8_SLICE_EVENT_EDGE_SENSITIVITY_t  edge;         /**< Select the event edge of the input si
 851:G:/dt_g1_balancing_plate_wise20192020/XMC/Libraries/XMCLib/inc\xmc_ccu8.h ****                                                               This is needed for an edge sensitive 
 852:G:/dt_g1_balancing_plate_wise20192020/XMC/Libraries/XMCLib/inc\xmc_ccu8.h ****   XMC_CCU8_SLICE_EVENT_LEVEL_SENSITIVITY_t level;        /**< Select the event level of the input s
 853:G:/dt_g1_balancing_plate_wise20192020/XMC/Libraries/XMCLib/inc\xmc_ccu8.h ****                                                               This is needed for an level sensitive
 854:G:/dt_g1_balancing_plate_wise20192020/XMC/Libraries/XMCLib/inc\xmc_ccu8.h ****   XMC_CCU8_SLICE_EVENT_FILTER_t            duration;     /**< Low Pass filter duration in terms of 
 855:G:/dt_g1_balancing_plate_wise20192020/XMC/Libraries/XMCLib/inc\xmc_ccu8.h **** } XMC_CCU8_SLICE_EVENT_CONFIG_t;
 856:G:/dt_g1_balancing_plate_wise20192020/XMC/Libraries/XMCLib/inc\xmc_ccu8.h **** 
 857:G:/dt_g1_balancing_plate_wise20192020/XMC/Libraries/XMCLib/inc\xmc_ccu8.h **** /*Anonymous structure/union guard start*/
 858:G:/dt_g1_balancing_plate_wise20192020/XMC/Libraries/XMCLib/inc\xmc_ccu8.h **** #if defined(__CC_ARM)
 859:G:/dt_g1_balancing_plate_wise20192020/XMC/Libraries/XMCLib/inc\xmc_ccu8.h ****   #pragma push
 860:G:/dt_g1_balancing_plate_wise20192020/XMC/Libraries/XMCLib/inc\xmc_ccu8.h ****   #pragma anon_unions
 861:G:/dt_g1_balancing_plate_wise20192020/XMC/Libraries/XMCLib/inc\xmc_ccu8.h **** #elif defined(__TASKING__)
 862:G:/dt_g1_balancing_plate_wise20192020/XMC/Libraries/XMCLib/inc\xmc_ccu8.h ****   #pragma warning 586
 863:G:/dt_g1_balancing_plate_wise20192020/XMC/Libraries/XMCLib/inc\xmc_ccu8.h **** #endif
 864:G:/dt_g1_balancing_plate_wise20192020/XMC/Libraries/XMCLib/inc\xmc_ccu8.h **** 
 865:G:/dt_g1_balancing_plate_wise20192020/XMC/Libraries/XMCLib/inc\xmc_ccu8.h **** /**
 866:G:/dt_g1_balancing_plate_wise20192020/XMC/Libraries/XMCLib/inc\xmc_ccu8.h ****  * Dead Time configuration
 867:G:/dt_g1_balancing_plate_wise20192020/XMC/Libraries/XMCLib/inc\xmc_ccu8.h ****  */
 868:G:/dt_g1_balancing_plate_wise20192020/XMC/Libraries/XMCLib/inc\xmc_ccu8.h **** typedef struct XMC_CCU8_SLICE_DEAD_TIME_CONFIG
 869:G:/dt_g1_balancing_plate_wise20192020/XMC/Libraries/XMCLib/inc\xmc_ccu8.h **** {
 870:G:/dt_g1_balancing_plate_wise20192020/XMC/Libraries/XMCLib/inc\xmc_ccu8.h ****   union
 871:G:/dt_g1_balancing_plate_wise20192020/XMC/Libraries/XMCLib/inc\xmc_ccu8.h ****   {
 872:G:/dt_g1_balancing_plate_wise20192020/XMC/Libraries/XMCLib/inc\xmc_ccu8.h ****     struct
 873:G:/dt_g1_balancing_plate_wise20192020/XMC/Libraries/XMCLib/inc\xmc_ccu8.h ****     {
 874:G:/dt_g1_balancing_plate_wise20192020/XMC/Libraries/XMCLib/inc\xmc_ccu8.h ****       uint32_t enable_dead_time_channel1 : 1; /**< Enable dead time for Compare Channel-1 */
 875:G:/dt_g1_balancing_plate_wise20192020/XMC/Libraries/XMCLib/inc\xmc_ccu8.h ****       uint32_t enable_dead_time_channel2 : 1; /**< Enable dead time for Compare Channel-2 */
 876:G:/dt_g1_balancing_plate_wise20192020/XMC/Libraries/XMCLib/inc\xmc_ccu8.h ****       uint32_t channel1_st_path : 1;          /**< Should dead time be applied to ST output of Comp
 877:G:/dt_g1_balancing_plate_wise20192020/XMC/Libraries/XMCLib/inc\xmc_ccu8.h ****       uint32_t channel1_inv_st_path : 1;      /**< Should dead time be applied to inverse ST output
 878:G:/dt_g1_balancing_plate_wise20192020/XMC/Libraries/XMCLib/inc\xmc_ccu8.h ****                                                    Compare Channel-1? */
 879:G:/dt_g1_balancing_plate_wise20192020/XMC/Libraries/XMCLib/inc\xmc_ccu8.h ****       uint32_t channel2_st_path : 1;          /**< Should dead time be applied to ST output of Comp
 880:G:/dt_g1_balancing_plate_wise20192020/XMC/Libraries/XMCLib/inc\xmc_ccu8.h ****       uint32_t channel2_inv_st_path : 1;      /**< Should dead time be applied to inverse ST output
 881:G:/dt_g1_balancing_plate_wise20192020/XMC/Libraries/XMCLib/inc\xmc_ccu8.h ****                                                    Compare Channel-2? */
 882:G:/dt_g1_balancing_plate_wise20192020/XMC/Libraries/XMCLib/inc\xmc_ccu8.h ****       uint32_t div : 2;                       /**< Dead time prescaler divider value.
 883:G:/dt_g1_balancing_plate_wise20192020/XMC/Libraries/XMCLib/inc\xmc_ccu8.h ****                                                    Accepts enum ::XMC_CCU8_SLICE_DTC_DIV_t*/
 884:G:/dt_g1_balancing_plate_wise20192020/XMC/Libraries/XMCLib/inc\xmc_ccu8.h ****       uint32_t : 24;
 885:G:/dt_g1_balancing_plate_wise20192020/XMC/Libraries/XMCLib/inc\xmc_ccu8.h ****     };
 886:G:/dt_g1_balancing_plate_wise20192020/XMC/Libraries/XMCLib/inc\xmc_ccu8.h ****     uint32_t dtc;
 887:G:/dt_g1_balancing_plate_wise20192020/XMC/Libraries/XMCLib/inc\xmc_ccu8.h ****   };
 888:G:/dt_g1_balancing_plate_wise20192020/XMC/Libraries/XMCLib/inc\xmc_ccu8.h ****   union
 889:G:/dt_g1_balancing_plate_wise20192020/XMC/Libraries/XMCLib/inc\xmc_ccu8.h ****   {
 890:G:/dt_g1_balancing_plate_wise20192020/XMC/Libraries/XMCLib/inc\xmc_ccu8.h ****     struct
 891:G:/dt_g1_balancing_plate_wise20192020/XMC/Libraries/XMCLib/inc\xmc_ccu8.h ****     {
 892:G:/dt_g1_balancing_plate_wise20192020/XMC/Libraries/XMCLib/inc\xmc_ccu8.h ****       uint32_t channel1_st_rising_edge_counter : 8; /**< Contains the delay value that is applied t
 893:G:/dt_g1_balancing_plate_wise20192020/XMC/Libraries/XMCLib/inc\xmc_ccu8.h **** 	                                                       for compare channel-1. Range: [0x0 to 0xFF]
 894:G:/dt_g1_balancing_plate_wise20192020/XMC/Libraries/XMCLib/inc\xmc_ccu8.h ****       uint32_t channel1_st_falling_edge_counter : 8; /**< Contains the delay value that is applied 
 895:G:/dt_g1_balancing_plate_wise20192020/XMC/Libraries/XMCLib/inc\xmc_ccu8.h **** 	                                                        for compare channel-1. Range: [0x0 to 0xFF
 896:G:/dt_g1_balancing_plate_wise20192020/XMC/Libraries/XMCLib/inc\xmc_ccu8.h ****       uint32_t : 16;
 897:G:/dt_g1_balancing_plate_wise20192020/XMC/Libraries/XMCLib/inc\xmc_ccu8.h ****     };
 898:G:/dt_g1_balancing_plate_wise20192020/XMC/Libraries/XMCLib/inc\xmc_ccu8.h ****     uint32_t dc1r;
 899:G:/dt_g1_balancing_plate_wise20192020/XMC/Libraries/XMCLib/inc\xmc_ccu8.h ****   };
 900:G:/dt_g1_balancing_plate_wise20192020/XMC/Libraries/XMCLib/inc\xmc_ccu8.h ****   union
 901:G:/dt_g1_balancing_plate_wise20192020/XMC/Libraries/XMCLib/inc\xmc_ccu8.h ****   {
 902:G:/dt_g1_balancing_plate_wise20192020/XMC/Libraries/XMCLib/inc\xmc_ccu8.h ****     struct
 903:G:/dt_g1_balancing_plate_wise20192020/XMC/Libraries/XMCLib/inc\xmc_ccu8.h ****     {
 904:G:/dt_g1_balancing_plate_wise20192020/XMC/Libraries/XMCLib/inc\xmc_ccu8.h ****       uint32_t channel2_st_rising_edge_counter : 8; /**< Contains the delay value that is applied t
 905:G:/dt_g1_balancing_plate_wise20192020/XMC/Libraries/XMCLib/inc\xmc_ccu8.h **** 	                                                     for compare channel-2. Range: [0x0 to 0xFF]*/
 906:G:/dt_g1_balancing_plate_wise20192020/XMC/Libraries/XMCLib/inc\xmc_ccu8.h ****       uint32_t channel2_st_falling_edge_counter : 8; /**< Contains the delay value that is applied 
 907:G:/dt_g1_balancing_plate_wise20192020/XMC/Libraries/XMCLib/inc\xmc_ccu8.h **** 	                                                     for compare channel-2. Range: [0x0 to 0xFF]*/
 908:G:/dt_g1_balancing_plate_wise20192020/XMC/Libraries/XMCLib/inc\xmc_ccu8.h ****       uint32_t : 16;
 909:G:/dt_g1_balancing_plate_wise20192020/XMC/Libraries/XMCLib/inc\xmc_ccu8.h ****     };
 910:G:/dt_g1_balancing_plate_wise20192020/XMC/Libraries/XMCLib/inc\xmc_ccu8.h ****     uint32_t dc2r;
 911:G:/dt_g1_balancing_plate_wise20192020/XMC/Libraries/XMCLib/inc\xmc_ccu8.h ****   };
 912:G:/dt_g1_balancing_plate_wise20192020/XMC/Libraries/XMCLib/inc\xmc_ccu8.h **** } XMC_CCU8_SLICE_DEAD_TIME_CONFIG_t;
 913:G:/dt_g1_balancing_plate_wise20192020/XMC/Libraries/XMCLib/inc\xmc_ccu8.h **** 
 914:G:/dt_g1_balancing_plate_wise20192020/XMC/Libraries/XMCLib/inc\xmc_ccu8.h **** /**
 915:G:/dt_g1_balancing_plate_wise20192020/XMC/Libraries/XMCLib/inc\xmc_ccu8.h ****  *  Configuration data structure for CCU8 slice. Specifically configures the CCU8 slice to compare 
 916:G:/dt_g1_balancing_plate_wise20192020/XMC/Libraries/XMCLib/inc\xmc_ccu8.h ****  *  This excludes event and function configuration.
 917:G:/dt_g1_balancing_plate_wise20192020/XMC/Libraries/XMCLib/inc\xmc_ccu8.h ****  */
 918:G:/dt_g1_balancing_plate_wise20192020/XMC/Libraries/XMCLib/inc\xmc_ccu8.h **** typedef struct XMC_CCU8_SLICE_COMPARE_CONFIG
 919:G:/dt_g1_balancing_plate_wise20192020/XMC/Libraries/XMCLib/inc\xmc_ccu8.h **** {
 920:G:/dt_g1_balancing_plate_wise20192020/XMC/Libraries/XMCLib/inc\xmc_ccu8.h ****   union
 921:G:/dt_g1_balancing_plate_wise20192020/XMC/Libraries/XMCLib/inc\xmc_ccu8.h ****   {
 922:G:/dt_g1_balancing_plate_wise20192020/XMC/Libraries/XMCLib/inc\xmc_ccu8.h ****     struct
 923:G:/dt_g1_balancing_plate_wise20192020/XMC/Libraries/XMCLib/inc\xmc_ccu8.h ****     {
 924:G:/dt_g1_balancing_plate_wise20192020/XMC/Libraries/XMCLib/inc\xmc_ccu8.h ****       uint32_t timer_mode : 1;         /**< Edge aligned or Centre Aligned.
 925:G:/dt_g1_balancing_plate_wise20192020/XMC/Libraries/XMCLib/inc\xmc_ccu8.h ****                                             Accepts enum :: XMC_CCU8_SLICE_TIMER_COUNT_MODE_t */
 926:G:/dt_g1_balancing_plate_wise20192020/XMC/Libraries/XMCLib/inc\xmc_ccu8.h ****       uint32_t monoshot : 1;           /**< Single shot or Continuous mode .
 927:G:/dt_g1_balancing_plate_wise20192020/XMC/Libraries/XMCLib/inc\xmc_ccu8.h ****                                             Accepts enum :: XMC_CCU8_SLICE_TIMER_REPEAT_MODE_t */
 928:G:/dt_g1_balancing_plate_wise20192020/XMC/Libraries/XMCLib/inc\xmc_ccu8.h ****       uint32_t shadow_xfer_clear : 1; /**< Should PR and CR shadow xfer happen when timer is cleare
 929:G:/dt_g1_balancing_plate_wise20192020/XMC/Libraries/XMCLib/inc\xmc_ccu8.h ****       uint32_t : 10;
 930:G:/dt_g1_balancing_plate_wise20192020/XMC/Libraries/XMCLib/inc\xmc_ccu8.h ****       uint32_t dither_timer_period: 1; /**< Can the period of the timer dither? */
 931:G:/dt_g1_balancing_plate_wise20192020/XMC/Libraries/XMCLib/inc\xmc_ccu8.h ****       uint32_t dither_duty_cycle : 1;  /**< Can the compare match of the timer dither? */
 932:G:/dt_g1_balancing_plate_wise20192020/XMC/Libraries/XMCLib/inc\xmc_ccu8.h ****       uint32_t : 1;
 933:G:/dt_g1_balancing_plate_wise20192020/XMC/Libraries/XMCLib/inc\xmc_ccu8.h ****       uint32_t prescaler_mode: 1;      /**< Normal or floating prescaler mode.
 934:G:/dt_g1_balancing_plate_wise20192020/XMC/Libraries/XMCLib/inc\xmc_ccu8.h ****                                             Accepts enum :: XMC_CCU8_SLICE_PRESCALER_MODE_t */
 935:G:/dt_g1_balancing_plate_wise20192020/XMC/Libraries/XMCLib/inc\xmc_ccu8.h ****       uint32_t : 8;
 936:G:/dt_g1_balancing_plate_wise20192020/XMC/Libraries/XMCLib/inc\xmc_ccu8.h ****       uint32_t mcm_ch1_enable : 1;     /**< Multi-Channel mode for compare channel 1 enable? */
 937:G:/dt_g1_balancing_plate_wise20192020/XMC/Libraries/XMCLib/inc\xmc_ccu8.h ****       uint32_t mcm_ch2_enable : 1;     /**< Multi-Channel mode for compare channel 2 enable? */
 938:G:/dt_g1_balancing_plate_wise20192020/XMC/Libraries/XMCLib/inc\xmc_ccu8.h ****       uint32_t : 2;
 939:G:/dt_g1_balancing_plate_wise20192020/XMC/Libraries/XMCLib/inc\xmc_ccu8.h ****       uint32_t slice_status : 2;       /**< Which of the two channels drives the slice status outpu
 940:G:/dt_g1_balancing_plate_wise20192020/XMC/Libraries/XMCLib/inc\xmc_ccu8.h **** 	                                          Accepts enum :: XMC_CCU8_SLICE_STATUS_t*/
 941:G:/dt_g1_balancing_plate_wise20192020/XMC/Libraries/XMCLib/inc\xmc_ccu8.h ****       uint32_t : 1;
 942:G:/dt_g1_balancing_plate_wise20192020/XMC/Libraries/XMCLib/inc\xmc_ccu8.h ****     };
 943:G:/dt_g1_balancing_plate_wise20192020/XMC/Libraries/XMCLib/inc\xmc_ccu8.h ****     uint32_t tc;
 944:G:/dt_g1_balancing_plate_wise20192020/XMC/Libraries/XMCLib/inc\xmc_ccu8.h ****   };
 945:G:/dt_g1_balancing_plate_wise20192020/XMC/Libraries/XMCLib/inc\xmc_ccu8.h ****   union
 946:G:/dt_g1_balancing_plate_wise20192020/XMC/Libraries/XMCLib/inc\xmc_ccu8.h ****   {
 947:G:/dt_g1_balancing_plate_wise20192020/XMC/Libraries/XMCLib/inc\xmc_ccu8.h ****     struct
 948:G:/dt_g1_balancing_plate_wise20192020/XMC/Libraries/XMCLib/inc\xmc_ccu8.h ****     {
 949:G:/dt_g1_balancing_plate_wise20192020/XMC/Libraries/XMCLib/inc\xmc_ccu8.h ****       uint32_t passive_level_out0 : 1; /**< ST and OUT passive levels Configuration for OUT0. 
 950:G:/dt_g1_balancing_plate_wise20192020/XMC/Libraries/XMCLib/inc\xmc_ccu8.h **** 	                                          Accepts enum :: XMC_CCU8_SLICE_OUTPUT_PASSIVE_LEVEL_t */
 951:G:/dt_g1_balancing_plate_wise20192020/XMC/Libraries/XMCLib/inc\xmc_ccu8.h ****       uint32_t passive_level_out1 : 1; /**< ST and OUT passive levels Configuration for OUT1. 
 952:G:/dt_g1_balancing_plate_wise20192020/XMC/Libraries/XMCLib/inc\xmc_ccu8.h **** 	                                          Accepts enum :: XMC_CCU8_SLICE_OUTPUT_PASSIVE_LEVEL_t */
 953:G:/dt_g1_balancing_plate_wise20192020/XMC/Libraries/XMCLib/inc\xmc_ccu8.h ****       uint32_t passive_level_out2 : 1; /**< ST and OUT passive levels Configuration for OUT2. 
 954:G:/dt_g1_balancing_plate_wise20192020/XMC/Libraries/XMCLib/inc\xmc_ccu8.h **** 	                                          Accepts enum :: XMC_CCU8_SLICE_OUTPUT_PASSIVE_LEVEL_t */
 955:G:/dt_g1_balancing_plate_wise20192020/XMC/Libraries/XMCLib/inc\xmc_ccu8.h ****       uint32_t passive_level_out3 : 1; /**< ST and OUT passive levels Configuration for OUT3. 
 956:G:/dt_g1_balancing_plate_wise20192020/XMC/Libraries/XMCLib/inc\xmc_ccu8.h **** 	                                          Accepts enum :: XMC_CCU8_SLICE_OUTPUT_PASSIVE_LEVEL_t */
 957:G:/dt_g1_balancing_plate_wise20192020/XMC/Libraries/XMCLib/inc\xmc_ccu8.h ****       uint32_t : 28;
 958:G:/dt_g1_balancing_plate_wise20192020/XMC/Libraries/XMCLib/inc\xmc_ccu8.h ****     };
 959:G:/dt_g1_balancing_plate_wise20192020/XMC/Libraries/XMCLib/inc\xmc_ccu8.h ****     uint32_t psl;
 960:G:/dt_g1_balancing_plate_wise20192020/XMC/Libraries/XMCLib/inc\xmc_ccu8.h ****   };
 961:G:/dt_g1_balancing_plate_wise20192020/XMC/Libraries/XMCLib/inc\xmc_ccu8.h ****   union
 962:G:/dt_g1_balancing_plate_wise20192020/XMC/Libraries/XMCLib/inc\xmc_ccu8.h ****   {
 963:G:/dt_g1_balancing_plate_wise20192020/XMC/Libraries/XMCLib/inc\xmc_ccu8.h ****     struct
 964:G:/dt_g1_balancing_plate_wise20192020/XMC/Libraries/XMCLib/inc\xmc_ccu8.h ****     {
 965:G:/dt_g1_balancing_plate_wise20192020/XMC/Libraries/XMCLib/inc\xmc_ccu8.h ****       uint32_t asymmetric_pwm : 1;     /**< Should the PWM be a function of the 2 compare channels
 966:G:/dt_g1_balancing_plate_wise20192020/XMC/Libraries/XMCLib/inc\xmc_ccu8.h ****                                             rather than period value? */
 967:G:/dt_g1_balancing_plate_wise20192020/XMC/Libraries/XMCLib/inc\xmc_ccu8.h ****   #if !defined(CCU8V3)    /* Defined for all devices except XMC1400 */                             
 968:G:/dt_g1_balancing_plate_wise20192020/XMC/Libraries/XMCLib/inc\xmc_ccu8.h ****       uint32_t invert_out0 : 1;        /**< Should inverted ST of Channel-1 be connected to OUT0? *
 969:G:/dt_g1_balancing_plate_wise20192020/XMC/Libraries/XMCLib/inc\xmc_ccu8.h ****       uint32_t invert_out1 : 1;        /**< Should inverted ST of Channel-1 be connected to OUT1? *
 970:G:/dt_g1_balancing_plate_wise20192020/XMC/Libraries/XMCLib/inc\xmc_ccu8.h ****       uint32_t invert_out2 : 1;        /**< Should inverted ST of Channel-2 be connected to OUT2? *
 971:G:/dt_g1_balancing_plate_wise20192020/XMC/Libraries/XMCLib/inc\xmc_ccu8.h ****       uint32_t invert_out3 : 1;        /**< Should inverted ST of Channel-2 be connected to OUT3? *
 972:G:/dt_g1_balancing_plate_wise20192020/XMC/Libraries/XMCLib/inc\xmc_ccu8.h ****       uint32_t : 27;
 973:G:/dt_g1_balancing_plate_wise20192020/XMC/Libraries/XMCLib/inc\xmc_ccu8.h ****   #else
 974:G:/dt_g1_balancing_plate_wise20192020/XMC/Libraries/XMCLib/inc\xmc_ccu8.h ****       uint32_t : 3;
 975:G:/dt_g1_balancing_plate_wise20192020/XMC/Libraries/XMCLib/inc\xmc_ccu8.h ****       uint32_t selector_out0 : 2;      /**< Connect ST or inverted ST of Channel-1 or Channel-2 be 
 976:G:/dt_g1_balancing_plate_wise20192020/XMC/Libraries/XMCLib/inc\xmc_ccu8.h ****                                             Accepts enum :: XMC_CCU8_SOURCE_OUT0_t 
 977:G:/dt_g1_balancing_plate_wise20192020/XMC/Libraries/XMCLib/inc\xmc_ccu8.h ****                                             refer OCS1 bit-field of CHC register. 
 978:G:/dt_g1_balancing_plate_wise20192020/XMC/Libraries/XMCLib/inc\xmc_ccu8.h **** 											@note Only available for XMC1400 series */
 979:G:/dt_g1_balancing_plate_wise20192020/XMC/Libraries/XMCLib/inc\xmc_ccu8.h ****       uint32_t : 2;
 980:G:/dt_g1_balancing_plate_wise20192020/XMC/Libraries/XMCLib/inc\xmc_ccu8.h ****       uint32_t selector_out1 : 2;      /**< Connect ST or inverted ST of Channel-1 or Channel-2 be 
 981:G:/dt_g1_balancing_plate_wise20192020/XMC/Libraries/XMCLib/inc\xmc_ccu8.h ****                                             Accepts enum :: XMC_CCU8_SOURCE_OUT1_t 
 982:G:/dt_g1_balancing_plate_wise20192020/XMC/Libraries/XMCLib/inc\xmc_ccu8.h ****                                             refer OCS2 bit-field of CHC register. 
 983:G:/dt_g1_balancing_plate_wise20192020/XMC/Libraries/XMCLib/inc\xmc_ccu8.h **** 											@note Only available for XMC1400 series */
 984:G:/dt_g1_balancing_plate_wise20192020/XMC/Libraries/XMCLib/inc\xmc_ccu8.h ****       uint32_t : 2;
 985:G:/dt_g1_balancing_plate_wise20192020/XMC/Libraries/XMCLib/inc\xmc_ccu8.h ****       uint32_t selector_out2 : 2;      /**< Connect ST or inverted ST of Channel-1 or Channel-2 be 
 986:G:/dt_g1_balancing_plate_wise20192020/XMC/Libraries/XMCLib/inc\xmc_ccu8.h ****                                             Accepts enum :: XMC_CCU8_SOURCE_OUT2_t 
 987:G:/dt_g1_balancing_plate_wise20192020/XMC/Libraries/XMCLib/inc\xmc_ccu8.h ****                                             refer OCS3 bit-field of CHC register.
 988:G:/dt_g1_balancing_plate_wise20192020/XMC/Libraries/XMCLib/inc\xmc_ccu8.h **** 											@note Only available for XMC1400 series */
 989:G:/dt_g1_balancing_plate_wise20192020/XMC/Libraries/XMCLib/inc\xmc_ccu8.h ****       uint32_t : 2;
 990:G:/dt_g1_balancing_plate_wise20192020/XMC/Libraries/XMCLib/inc\xmc_ccu8.h ****       uint32_t selector_out3 : 2;      /**< Connect ST or inverted ST of Channel-1 or Channel-2 be 
 991:G:/dt_g1_balancing_plate_wise20192020/XMC/Libraries/XMCLib/inc\xmc_ccu8.h ****                                             Accepts enum :: XMC_CCU8_SOURCE_OUT3_t 
 992:G:/dt_g1_balancing_plate_wise20192020/XMC/Libraries/XMCLib/inc\xmc_ccu8.h ****                                             refer OCS4 bit-field of CHC register.
 993:G:/dt_g1_balancing_plate_wise20192020/XMC/Libraries/XMCLib/inc\xmc_ccu8.h **** 											@note Only available for XMC1400 series */
 994:G:/dt_g1_balancing_plate_wise20192020/XMC/Libraries/XMCLib/inc\xmc_ccu8.h ****       uint32_t : 14;
 995:G:/dt_g1_balancing_plate_wise20192020/XMC/Libraries/XMCLib/inc\xmc_ccu8.h ****   #endif
 996:G:/dt_g1_balancing_plate_wise20192020/XMC/Libraries/XMCLib/inc\xmc_ccu8.h ****     };
 997:G:/dt_g1_balancing_plate_wise20192020/XMC/Libraries/XMCLib/inc\xmc_ccu8.h ****     uint32_t chc;
 998:G:/dt_g1_balancing_plate_wise20192020/XMC/Libraries/XMCLib/inc\xmc_ccu8.h ****   };
 999:G:/dt_g1_balancing_plate_wise20192020/XMC/Libraries/XMCLib/inc\xmc_ccu8.h ****   uint32_t prescaler_initval : 4;      /**< Initial prescaler divider value 
1000:G:/dt_g1_balancing_plate_wise20192020/XMC/Libraries/XMCLib/inc\xmc_ccu8.h ****                                             Accepts enum :: XMC_CCU8_SLICE_PRESCALER_t */
1001:G:/dt_g1_balancing_plate_wise20192020/XMC/Libraries/XMCLib/inc\xmc_ccu8.h ****   uint32_t float_limit : 4;            /**< The max value which the prescaler divider can increment
1002:G:/dt_g1_balancing_plate_wise20192020/XMC/Libraries/XMCLib/inc\xmc_ccu8.h ****                                             Range : [0 to 15] */
1003:G:/dt_g1_balancing_plate_wise20192020/XMC/Libraries/XMCLib/inc\xmc_ccu8.h ****   uint32_t dither_limit : 4;           /**< The value that determines the spreading of dithering 
1004:G:/dt_g1_balancing_plate_wise20192020/XMC/Libraries/XMCLib/inc\xmc_ccu8.h ****                                             Range : [0 to 15] */
1005:G:/dt_g1_balancing_plate_wise20192020/XMC/Libraries/XMCLib/inc\xmc_ccu8.h ****   uint32_t timer_concatenation : 1;    /**< Enables the concatenation of the timer if true*/
1006:G:/dt_g1_balancing_plate_wise20192020/XMC/Libraries/XMCLib/inc\xmc_ccu8.h **** } XMC_CCU8_SLICE_COMPARE_CONFIG_t;
1007:G:/dt_g1_balancing_plate_wise20192020/XMC/Libraries/XMCLib/inc\xmc_ccu8.h **** 
1008:G:/dt_g1_balancing_plate_wise20192020/XMC/Libraries/XMCLib/inc\xmc_ccu8.h **** /**
1009:G:/dt_g1_balancing_plate_wise20192020/XMC/Libraries/XMCLib/inc\xmc_ccu8.h ****  *  Configuration data structure for CCU8 slice. Specifically configures the CCU8 slice to capture 
1010:G:/dt_g1_balancing_plate_wise20192020/XMC/Libraries/XMCLib/inc\xmc_ccu8.h ****  *  This excludes event and function configuration.
1011:G:/dt_g1_balancing_plate_wise20192020/XMC/Libraries/XMCLib/inc\xmc_ccu8.h ****  */
1012:G:/dt_g1_balancing_plate_wise20192020/XMC/Libraries/XMCLib/inc\xmc_ccu8.h **** typedef struct XMC_CCU8_SLICE_CAPTURE_CONFIG
1013:G:/dt_g1_balancing_plate_wise20192020/XMC/Libraries/XMCLib/inc\xmc_ccu8.h **** {
1014:G:/dt_g1_balancing_plate_wise20192020/XMC/Libraries/XMCLib/inc\xmc_ccu8.h ****   union
1015:G:/dt_g1_balancing_plate_wise20192020/XMC/Libraries/XMCLib/inc\xmc_ccu8.h ****   {
1016:G:/dt_g1_balancing_plate_wise20192020/XMC/Libraries/XMCLib/inc\xmc_ccu8.h ****     struct
1017:G:/dt_g1_balancing_plate_wise20192020/XMC/Libraries/XMCLib/inc\xmc_ccu8.h ****     {
1018:G:/dt_g1_balancing_plate_wise20192020/XMC/Libraries/XMCLib/inc\xmc_ccu8.h ****       uint32_t : 4;
1019:G:/dt_g1_balancing_plate_wise20192020/XMC/Libraries/XMCLib/inc\xmc_ccu8.h ****       uint32_t fifo_enable : 1;      /**< Should the capture registers be setup as a FIFO?(Extended
1020:G:/dt_g1_balancing_plate_wise20192020/XMC/Libraries/XMCLib/inc\xmc_ccu8.h ****       uint32_t timer_clear_mode : 2; /**< How should the timer register be cleared upon detection o
1021:G:/dt_g1_balancing_plate_wise20192020/XMC/Libraries/XMCLib/inc\xmc_ccu8.h ****                                           Accepts enum ::XMC_CCU8_SLICE_TIMER_CLEAR_MODE_t */
1022:G:/dt_g1_balancing_plate_wise20192020/XMC/Libraries/XMCLib/inc\xmc_ccu8.h ****       uint32_t : 4;
1023:G:/dt_g1_balancing_plate_wise20192020/XMC/Libraries/XMCLib/inc\xmc_ccu8.h ****       uint32_t same_event : 1;       /**< Should the capture event for C1V/C0V and C3V/C2V be same 
1024:G:/dt_g1_balancing_plate_wise20192020/XMC/Libraries/XMCLib/inc\xmc_ccu8.h ****       uint32_t ignore_full_flag : 1; /**< Should updates to capture registers follow full flag rule
1025:G:/dt_g1_balancing_plate_wise20192020/XMC/Libraries/XMCLib/inc\xmc_ccu8.h ****       uint32_t : 3;
1026:G:/dt_g1_balancing_plate_wise20192020/XMC/Libraries/XMCLib/inc\xmc_ccu8.h ****       uint32_t prescaler_mode: 1;    /**< Normal or floating prescaler Accepts enum :: XMC_CCU8_SLI
1027:G:/dt_g1_balancing_plate_wise20192020/XMC/Libraries/XMCLib/inc\xmc_ccu8.h ****       uint32_t : 15;
1028:G:/dt_g1_balancing_plate_wise20192020/XMC/Libraries/XMCLib/inc\xmc_ccu8.h ****     };
1029:G:/dt_g1_balancing_plate_wise20192020/XMC/Libraries/XMCLib/inc\xmc_ccu8.h ****     uint32_t tc;
1030:G:/dt_g1_balancing_plate_wise20192020/XMC/Libraries/XMCLib/inc\xmc_ccu8.h ****   };
1031:G:/dt_g1_balancing_plate_wise20192020/XMC/Libraries/XMCLib/inc\xmc_ccu8.h ****   uint32_t prescaler_initval : 4;    /**< Prescaler divider value */
1032:G:/dt_g1_balancing_plate_wise20192020/XMC/Libraries/XMCLib/inc\xmc_ccu8.h ****   uint32_t float_limit : 4;          /**< The max value which the prescaler divider can increment t
1033:G:/dt_g1_balancing_plate_wise20192020/XMC/Libraries/XMCLib/inc\xmc_ccu8.h ****   uint32_t timer_concatenation : 1;    /**< Enables the concatenation of the timer */
1034:G:/dt_g1_balancing_plate_wise20192020/XMC/Libraries/XMCLib/inc\xmc_ccu8.h **** } XMC_CCU8_SLICE_CAPTURE_CONFIG_t;
1035:G:/dt_g1_balancing_plate_wise20192020/XMC/Libraries/XMCLib/inc\xmc_ccu8.h **** /*Anonymous structure/union guard end*/
1036:G:/dt_g1_balancing_plate_wise20192020/XMC/Libraries/XMCLib/inc\xmc_ccu8.h **** #if defined(__CC_ARM)
1037:G:/dt_g1_balancing_plate_wise20192020/XMC/Libraries/XMCLib/inc\xmc_ccu8.h ****   #pragma pop
1038:G:/dt_g1_balancing_plate_wise20192020/XMC/Libraries/XMCLib/inc\xmc_ccu8.h **** #elif defined(__TASKING__)
1039:G:/dt_g1_balancing_plate_wise20192020/XMC/Libraries/XMCLib/inc\xmc_ccu8.h ****   #pragma warning restore
1040:G:/dt_g1_balancing_plate_wise20192020/XMC/Libraries/XMCLib/inc\xmc_ccu8.h **** #endif
1041:G:/dt_g1_balancing_plate_wise20192020/XMC/Libraries/XMCLib/inc\xmc_ccu8.h **** /**************************************************************************************************
1042:G:/dt_g1_balancing_plate_wise20192020/XMC/Libraries/XMCLib/inc\xmc_ccu8.h ****  * API Prototypes
1043:G:/dt_g1_balancing_plate_wise20192020/XMC/Libraries/XMCLib/inc\xmc_ccu8.h ****  **************************************************************************************************
1044:G:/dt_g1_balancing_plate_wise20192020/XMC/Libraries/XMCLib/inc\xmc_ccu8.h **** #ifdef __cplusplus
1045:G:/dt_g1_balancing_plate_wise20192020/XMC/Libraries/XMCLib/inc\xmc_ccu8.h **** extern "C" {
1046:G:/dt_g1_balancing_plate_wise20192020/XMC/Libraries/XMCLib/inc\xmc_ccu8.h **** #endif
1047:G:/dt_g1_balancing_plate_wise20192020/XMC/Libraries/XMCLib/inc\xmc_ccu8.h **** 
1048:G:/dt_g1_balancing_plate_wise20192020/XMC/Libraries/XMCLib/inc\xmc_ccu8.h **** __STATIC_INLINE bool XMC_CCU8_IsValidModule(const XMC_CCU8_MODULE_t *const module)
1049:G:/dt_g1_balancing_plate_wise20192020/XMC/Libraries/XMCLib/inc\xmc_ccu8.h **** {
1050:G:/dt_g1_balancing_plate_wise20192020/XMC/Libraries/XMCLib/inc\xmc_ccu8.h ****   bool tmp = false;
1051:G:/dt_g1_balancing_plate_wise20192020/XMC/Libraries/XMCLib/inc\xmc_ccu8.h ****   
1052:G:/dt_g1_balancing_plate_wise20192020/XMC/Libraries/XMCLib/inc\xmc_ccu8.h ****   tmp = (module == CCU80);
1053:G:/dt_g1_balancing_plate_wise20192020/XMC/Libraries/XMCLib/inc\xmc_ccu8.h ****   
1054:G:/dt_g1_balancing_plate_wise20192020/XMC/Libraries/XMCLib/inc\xmc_ccu8.h **** #if defined(CCU81)
1055:G:/dt_g1_balancing_plate_wise20192020/XMC/Libraries/XMCLib/inc\xmc_ccu8.h ****   tmp = tmp || (module == CCU81);
1056:G:/dt_g1_balancing_plate_wise20192020/XMC/Libraries/XMCLib/inc\xmc_ccu8.h **** #endif
1057:G:/dt_g1_balancing_plate_wise20192020/XMC/Libraries/XMCLib/inc\xmc_ccu8.h ****   
1058:G:/dt_g1_balancing_plate_wise20192020/XMC/Libraries/XMCLib/inc\xmc_ccu8.h ****   return tmp;  
1059:G:/dt_g1_balancing_plate_wise20192020/XMC/Libraries/XMCLib/inc\xmc_ccu8.h **** } 
1060:G:/dt_g1_balancing_plate_wise20192020/XMC/Libraries/XMCLib/inc\xmc_ccu8.h **** 
1061:G:/dt_g1_balancing_plate_wise20192020/XMC/Libraries/XMCLib/inc\xmc_ccu8.h **** __STATIC_INLINE bool XMC_CCU8_IsValidSlice(const XMC_CCU8_SLICE_t *const slice)
1062:G:/dt_g1_balancing_plate_wise20192020/XMC/Libraries/XMCLib/inc\xmc_ccu8.h **** {
1063:G:/dt_g1_balancing_plate_wise20192020/XMC/Libraries/XMCLib/inc\xmc_ccu8.h ****   bool tmp = false;
1064:G:/dt_g1_balancing_plate_wise20192020/XMC/Libraries/XMCLib/inc\xmc_ccu8.h ****   
1065:G:/dt_g1_balancing_plate_wise20192020/XMC/Libraries/XMCLib/inc\xmc_ccu8.h ****   tmp = (slice == CCU80_CC80);
1066:G:/dt_g1_balancing_plate_wise20192020/XMC/Libraries/XMCLib/inc\xmc_ccu8.h **** #if defined(CCU80_CC81)  
1067:G:/dt_g1_balancing_plate_wise20192020/XMC/Libraries/XMCLib/inc\xmc_ccu8.h ****   tmp = tmp || (slice == CCU80_CC81);
1068:G:/dt_g1_balancing_plate_wise20192020/XMC/Libraries/XMCLib/inc\xmc_ccu8.h **** #endif
1069:G:/dt_g1_balancing_plate_wise20192020/XMC/Libraries/XMCLib/inc\xmc_ccu8.h **** #if defined(CCU80_CC82)  
1070:G:/dt_g1_balancing_plate_wise20192020/XMC/Libraries/XMCLib/inc\xmc_ccu8.h ****   tmp = tmp || (slice == CCU80_CC82);
1071:G:/dt_g1_balancing_plate_wise20192020/XMC/Libraries/XMCLib/inc\xmc_ccu8.h **** #endif
1072:G:/dt_g1_balancing_plate_wise20192020/XMC/Libraries/XMCLib/inc\xmc_ccu8.h **** #if defined(CCU80_CC83)  
1073:G:/dt_g1_balancing_plate_wise20192020/XMC/Libraries/XMCLib/inc\xmc_ccu8.h ****   tmp = tmp || (slice == CCU80_CC83);
1074:G:/dt_g1_balancing_plate_wise20192020/XMC/Libraries/XMCLib/inc\xmc_ccu8.h **** #endif
1075:G:/dt_g1_balancing_plate_wise20192020/XMC/Libraries/XMCLib/inc\xmc_ccu8.h **** #if defined(CCU81)  
1076:G:/dt_g1_balancing_plate_wise20192020/XMC/Libraries/XMCLib/inc\xmc_ccu8.h ****   tmp = tmp || (slice == CCU81_CC80);
1077:G:/dt_g1_balancing_plate_wise20192020/XMC/Libraries/XMCLib/inc\xmc_ccu8.h **** #if defined(CCU81_CC81)  
1078:G:/dt_g1_balancing_plate_wise20192020/XMC/Libraries/XMCLib/inc\xmc_ccu8.h ****   tmp = tmp || (slice == CCU81_CC81);
1079:G:/dt_g1_balancing_plate_wise20192020/XMC/Libraries/XMCLib/inc\xmc_ccu8.h **** #endif
1080:G:/dt_g1_balancing_plate_wise20192020/XMC/Libraries/XMCLib/inc\xmc_ccu8.h **** #if defined(CCU81_CC82)  
1081:G:/dt_g1_balancing_plate_wise20192020/XMC/Libraries/XMCLib/inc\xmc_ccu8.h ****   tmp = tmp || (slice == CCU81_CC82);
1082:G:/dt_g1_balancing_plate_wise20192020/XMC/Libraries/XMCLib/inc\xmc_ccu8.h **** #endif
1083:G:/dt_g1_balancing_plate_wise20192020/XMC/Libraries/XMCLib/inc\xmc_ccu8.h **** #if defined(CCU81_CC83)  
1084:G:/dt_g1_balancing_plate_wise20192020/XMC/Libraries/XMCLib/inc\xmc_ccu8.h ****   tmp = tmp || (slice == CCU81_CC83);
1085:G:/dt_g1_balancing_plate_wise20192020/XMC/Libraries/XMCLib/inc\xmc_ccu8.h **** #endif
1086:G:/dt_g1_balancing_plate_wise20192020/XMC/Libraries/XMCLib/inc\xmc_ccu8.h **** #endif 
1087:G:/dt_g1_balancing_plate_wise20192020/XMC/Libraries/XMCLib/inc\xmc_ccu8.h ****  
1088:G:/dt_g1_balancing_plate_wise20192020/XMC/Libraries/XMCLib/inc\xmc_ccu8.h ****   return tmp;  
1089:G:/dt_g1_balancing_plate_wise20192020/XMC/Libraries/XMCLib/inc\xmc_ccu8.h **** } 
1090:G:/dt_g1_balancing_plate_wise20192020/XMC/Libraries/XMCLib/inc\xmc_ccu8.h **** 
1091:G:/dt_g1_balancing_plate_wise20192020/XMC/Libraries/XMCLib/inc\xmc_ccu8.h **** /**
1092:G:/dt_g1_balancing_plate_wise20192020/XMC/Libraries/XMCLib/inc\xmc_ccu8.h ****  * @param module Constant pointer to CCU8 module
1093:G:/dt_g1_balancing_plate_wise20192020/XMC/Libraries/XMCLib/inc\xmc_ccu8.h ****  * @param mcs_action multi-channel shadow transfer request configuration
1094:G:/dt_g1_balancing_plate_wise20192020/XMC/Libraries/XMCLib/inc\xmc_ccu8.h ****  * @return <BR>
1095:G:/dt_g1_balancing_plate_wise20192020/XMC/Libraries/XMCLib/inc\xmc_ccu8.h ****  *    None<BR>
1096:G:/dt_g1_balancing_plate_wise20192020/XMC/Libraries/XMCLib/inc\xmc_ccu8.h ****  *
1097:G:/dt_g1_balancing_plate_wise20192020/XMC/Libraries/XMCLib/inc\xmc_ccu8.h ****  * \par<b>Description:</b><br>
1098:G:/dt_g1_balancing_plate_wise20192020/XMC/Libraries/XMCLib/inc\xmc_ccu8.h ****  *  Initialization of global register GCTRL.\n\n
1099:G:/dt_g1_balancing_plate_wise20192020/XMC/Libraries/XMCLib/inc\xmc_ccu8.h ****  *  As part of module initialization, behaviour of the module upon detection
1100:G:/dt_g1_balancing_plate_wise20192020/XMC/Libraries/XMCLib/inc\xmc_ccu8.h ****  *  Multi-Channel Mode trigger is configured. Will also invoke the XMC_CCU8_EnableModule().
1101:G:/dt_g1_balancing_plate_wise20192020/XMC/Libraries/XMCLib/inc\xmc_ccu8.h ****  *  The API call would bring up the required CCU8 module and also initialize the module for
1102:G:/dt_g1_balancing_plate_wise20192020/XMC/Libraries/XMCLib/inc\xmc_ccu8.h ****  *  the required multi-channel shadow transfer.
1103:G:/dt_g1_balancing_plate_wise20192020/XMC/Libraries/XMCLib/inc\xmc_ccu8.h ****  *
1104:G:/dt_g1_balancing_plate_wise20192020/XMC/Libraries/XMCLib/inc\xmc_ccu8.h ****  * \par<b>Related APIs:</b><br>
1105:G:/dt_g1_balancing_plate_wise20192020/XMC/Libraries/XMCLib/inc\xmc_ccu8.h ****  * XMC_CCU8_SLICE_CompareInit()<BR> XMC_CCU8_SLICE_CaptureInit().
1106:G:/dt_g1_balancing_plate_wise20192020/XMC/Libraries/XMCLib/inc\xmc_ccu8.h ****  */
1107:G:/dt_g1_balancing_plate_wise20192020/XMC/Libraries/XMCLib/inc\xmc_ccu8.h **** void XMC_CCU8_Init(XMC_CCU8_MODULE_t *const module, const XMC_CCU8_SLICE_MCMS_ACTION_t mcs_action);
1108:G:/dt_g1_balancing_plate_wise20192020/XMC/Libraries/XMCLib/inc\xmc_ccu8.h **** 
1109:G:/dt_g1_balancing_plate_wise20192020/XMC/Libraries/XMCLib/inc\xmc_ccu8.h **** /**
1110:G:/dt_g1_balancing_plate_wise20192020/XMC/Libraries/XMCLib/inc\xmc_ccu8.h ****  * @param module Constant pointer to CCU8 module
1111:G:/dt_g1_balancing_plate_wise20192020/XMC/Libraries/XMCLib/inc\xmc_ccu8.h ****  * @return <BR>
1112:G:/dt_g1_balancing_plate_wise20192020/XMC/Libraries/XMCLib/inc\xmc_ccu8.h ****  *    None<BR>
1113:G:/dt_g1_balancing_plate_wise20192020/XMC/Libraries/XMCLib/inc\xmc_ccu8.h ****  *
1114:G:/dt_g1_balancing_plate_wise20192020/XMC/Libraries/XMCLib/inc\xmc_ccu8.h ****  * \par<b>Description:</b><br>
1115:G:/dt_g1_balancing_plate_wise20192020/XMC/Libraries/XMCLib/inc\xmc_ccu8.h ****  * Enables the CCU8 module and brings it to active state.\n\n
1116:G:/dt_g1_balancing_plate_wise20192020/XMC/Libraries/XMCLib/inc\xmc_ccu8.h ****  * Also disables the gating of the clock signal (if applicable depending on the device being select
1117:G:/dt_g1_balancing_plate_wise20192020/XMC/Libraries/XMCLib/inc\xmc_ccu8.h ****  * Invoke this API before any operations are done on the CCU8 module. Invoked from  XMC_CCU8_Init()
1118:G:/dt_g1_balancing_plate_wise20192020/XMC/Libraries/XMCLib/inc\xmc_ccu8.h ****  *
1119:G:/dt_g1_balancing_plate_wise20192020/XMC/Libraries/XMCLib/inc\xmc_ccu8.h ****  * \par<b>Related APIs:</b><br>
1120:G:/dt_g1_balancing_plate_wise20192020/XMC/Libraries/XMCLib/inc\xmc_ccu8.h ****  * XMC_CCU8_SetModuleClock()<BR>  XMC_CCU8_DisableModule()<BR>  XMC_CCU8_StartPrescaler().
1121:G:/dt_g1_balancing_plate_wise20192020/XMC/Libraries/XMCLib/inc\xmc_ccu8.h ****  */
1122:G:/dt_g1_balancing_plate_wise20192020/XMC/Libraries/XMCLib/inc\xmc_ccu8.h **** void XMC_CCU8_EnableModule(XMC_CCU8_MODULE_t *const module);
1123:G:/dt_g1_balancing_plate_wise20192020/XMC/Libraries/XMCLib/inc\xmc_ccu8.h **** 
1124:G:/dt_g1_balancing_plate_wise20192020/XMC/Libraries/XMCLib/inc\xmc_ccu8.h **** /**
1125:G:/dt_g1_balancing_plate_wise20192020/XMC/Libraries/XMCLib/inc\xmc_ccu8.h ****  * @param module Constant pointer to CCU8 module
1126:G:/dt_g1_balancing_plate_wise20192020/XMC/Libraries/XMCLib/inc\xmc_ccu8.h ****  * @return <BR>
1127:G:/dt_g1_balancing_plate_wise20192020/XMC/Libraries/XMCLib/inc\xmc_ccu8.h ****  *    None<BR>
1128:G:/dt_g1_balancing_plate_wise20192020/XMC/Libraries/XMCLib/inc\xmc_ccu8.h ****  *
1129:G:/dt_g1_balancing_plate_wise20192020/XMC/Libraries/XMCLib/inc\xmc_ccu8.h ****  * \par<b>Description:</b><br>
1130:G:/dt_g1_balancing_plate_wise20192020/XMC/Libraries/XMCLib/inc\xmc_ccu8.h ****  * Brings the CCU8 module to reset state and enables gating of the clock signal(if applicable depen
1131:G:/dt_g1_balancing_plate_wise20192020/XMC/Libraries/XMCLib/inc\xmc_ccu8.h ****  * on the device being selected).\n\n
1132:G:/dt_g1_balancing_plate_wise20192020/XMC/Libraries/XMCLib/inc\xmc_ccu8.h ****  * Invoke this API when a CCU8 module needs to be disabled completely.
1133:G:/dt_g1_balancing_plate_wise20192020/XMC/Libraries/XMCLib/inc\xmc_ccu8.h ****  * Any operation on the CCU8 module will have no effect after this API is called.
1134:G:/dt_g1_balancing_plate_wise20192020/XMC/Libraries/XMCLib/inc\xmc_ccu8.h ****  *
1135:G:/dt_g1_balancing_plate_wise20192020/XMC/Libraries/XMCLib/inc\xmc_ccu8.h ****  * \par<b>Related APIs:</b><br>
1136:G:/dt_g1_balancing_plate_wise20192020/XMC/Libraries/XMCLib/inc\xmc_ccu8.h ****  * XMC_CCU8_EnableModule()<BR> XMC_CCU8_DisableModule().
1137:G:/dt_g1_balancing_plate_wise20192020/XMC/Libraries/XMCLib/inc\xmc_ccu8.h ****  */
1138:G:/dt_g1_balancing_plate_wise20192020/XMC/Libraries/XMCLib/inc\xmc_ccu8.h **** void XMC_CCU8_DisableModule(XMC_CCU8_MODULE_t *const module);
1139:G:/dt_g1_balancing_plate_wise20192020/XMC/Libraries/XMCLib/inc\xmc_ccu8.h **** 
1140:G:/dt_g1_balancing_plate_wise20192020/XMC/Libraries/XMCLib/inc\xmc_ccu8.h **** /**
1141:G:/dt_g1_balancing_plate_wise20192020/XMC/Libraries/XMCLib/inc\xmc_ccu8.h ****  * @param module Constant pointer to CCU8 module
1142:G:/dt_g1_balancing_plate_wise20192020/XMC/Libraries/XMCLib/inc\xmc_ccu8.h ****  * @param clock Choice of input clock to the module
1143:G:/dt_g1_balancing_plate_wise20192020/XMC/Libraries/XMCLib/inc\xmc_ccu8.h ****  * @return <BR>
1144:G:/dt_g1_balancing_plate_wise20192020/XMC/Libraries/XMCLib/inc\xmc_ccu8.h ****  *    None<BR>
1145:G:/dt_g1_balancing_plate_wise20192020/XMC/Libraries/XMCLib/inc\xmc_ccu8.h ****  *
1146:G:/dt_g1_balancing_plate_wise20192020/XMC/Libraries/XMCLib/inc\xmc_ccu8.h ****  * \par<b>Description:</b><br>
1147:G:/dt_g1_balancing_plate_wise20192020/XMC/Libraries/XMCLib/inc\xmc_ccu8.h ****  *  Selects the Module Clock by configuring GCTRL.PCIS bits.\n\n
1148:G:/dt_g1_balancing_plate_wise20192020/XMC/Libraries/XMCLib/inc\xmc_ccu8.h ****  *  There are 3 potential clock sources. This API helps to select the required clock source.
1149:G:/dt_g1_balancing_plate_wise20192020/XMC/Libraries/XMCLib/inc\xmc_ccu8.h ****  *  Call to this API is valid after the XMC_CCU8_Init().
1150:G:/dt_g1_balancing_plate_wise20192020/XMC/Libraries/XMCLib/inc\xmc_ccu8.h ****  *
1151:G:/dt_g1_balancing_plate_wise20192020/XMC/Libraries/XMCLib/inc\xmc_ccu8.h ****  * \par<b>Related APIs:</b><br>
1152:G:/dt_g1_balancing_plate_wise20192020/XMC/Libraries/XMCLib/inc\xmc_ccu8.h ****  * None.<BR>
1153:G:/dt_g1_balancing_plate_wise20192020/XMC/Libraries/XMCLib/inc\xmc_ccu8.h ****  */
1154:G:/dt_g1_balancing_plate_wise20192020/XMC/Libraries/XMCLib/inc\xmc_ccu8.h **** void XMC_CCU8_SetModuleClock(XMC_CCU8_MODULE_t *const module, const XMC_CCU8_CLOCK_t clock);
1155:G:/dt_g1_balancing_plate_wise20192020/XMC/Libraries/XMCLib/inc\xmc_ccu8.h **** 
1156:G:/dt_g1_balancing_plate_wise20192020/XMC/Libraries/XMCLib/inc\xmc_ccu8.h **** /**
1157:G:/dt_g1_balancing_plate_wise20192020/XMC/Libraries/XMCLib/inc\xmc_ccu8.h ****  * @param module Constant pointer to CCU8 module
1158:G:/dt_g1_balancing_plate_wise20192020/XMC/Libraries/XMCLib/inc\xmc_ccu8.h ****  * @return <BR>
1159:G:/dt_g1_balancing_plate_wise20192020/XMC/Libraries/XMCLib/inc\xmc_ccu8.h ****  *    None<BR>
1160:G:/dt_g1_balancing_plate_wise20192020/XMC/Libraries/XMCLib/inc\xmc_ccu8.h ****  *
1161:G:/dt_g1_balancing_plate_wise20192020/XMC/Libraries/XMCLib/inc\xmc_ccu8.h ****  * \par<b>Description:</b><br>
1162:G:/dt_g1_balancing_plate_wise20192020/XMC/Libraries/XMCLib/inc\xmc_ccu8.h ****  *  Starts the prescaler and restores clocks to the timer slices, by setting GIDLC.SPRB bit.<br>\n
1163:G:/dt_g1_balancing_plate_wise20192020/XMC/Libraries/XMCLib/inc\xmc_ccu8.h ****  *  Once the input to the prescaler has been chosen and the prescaler divider of all slices program
1164:G:/dt_g1_balancing_plate_wise20192020/XMC/Libraries/XMCLib/inc\xmc_ccu8.h ****  *  the prescaler itself may be started. Invoke this  API after XMC_CCU8_Init()
1165:G:/dt_g1_balancing_plate_wise20192020/XMC/Libraries/XMCLib/inc\xmc_ccu8.h ****  *  (Mandatory to fully initialize the module).
1166:G:/dt_g1_balancing_plate_wise20192020/XMC/Libraries/XMCLib/inc\xmc_ccu8.h ****  *
1167:G:/dt_g1_balancing_plate_wise20192020/XMC/Libraries/XMCLib/inc\xmc_ccu8.h ****  * \par<b>Related APIs:</b><br>
1168:G:/dt_g1_balancing_plate_wise20192020/XMC/Libraries/XMCLib/inc\xmc_ccu8.h ****  * XMC_CCU8_Init()<BR>  XMC_CCU8_EnableClock()<BR>  XMC_CCU8_DisableClock()<BR>  XMC_CCU8_StartPres
1169:G:/dt_g1_balancing_plate_wise20192020/XMC/Libraries/XMCLib/inc\xmc_ccu8.h ****  *  XMC_CCU8_StopPrescaler().
1170:G:/dt_g1_balancing_plate_wise20192020/XMC/Libraries/XMCLib/inc\xmc_ccu8.h ****  */
1171:G:/dt_g1_balancing_plate_wise20192020/XMC/Libraries/XMCLib/inc\xmc_ccu8.h **** __STATIC_INLINE void XMC_CCU8_StartPrescaler(XMC_CCU8_MODULE_t *const module)
1172:G:/dt_g1_balancing_plate_wise20192020/XMC/Libraries/XMCLib/inc\xmc_ccu8.h **** {
1173:G:/dt_g1_balancing_plate_wise20192020/XMC/Libraries/XMCLib/inc\xmc_ccu8.h ****   XMC_ASSERT("XMC_CCU8_StartPrescaler:Invalid Module Pointer", XMC_CCU8_IsValidModule(module));
1174:G:/dt_g1_balancing_plate_wise20192020/XMC/Libraries/XMCLib/inc\xmc_ccu8.h ****   module->GIDLC = (uint32_t) CCU8_GIDLC_SPRB_Msk;
 169              	 .loc 2 1174 0
 170 000a 4FF48073 	 mov r3,#256
 171 000e E360     	 str r3,[r4,#12]
 172              	.LBE21:
 173              	.LBE20:
 314:../Libraries/XMCLib/src/xmc_ccu8.c ****   /* Start the prescaler */
 315:../Libraries/XMCLib/src/xmc_ccu8.c ****   XMC_CCU8_StartPrescaler(module);
 316:../Libraries/XMCLib/src/xmc_ccu8.c ****   
 317:../Libraries/XMCLib/src/xmc_ccu8.c ****   gctrl = module->GCTRL;
 174              	 .loc 1 317 0
 175 0010 2368     	 ldr r3,[r4]
 176              	.LVL13:
 318:../Libraries/XMCLib/src/xmc_ccu8.c ****   gctrl &= ~((uint32_t) CCU8_GCTRL_MSDE_Msk);
 177              	 .loc 1 318 0
 178 0012 23F44043 	 bic r3,r3,#49152
 179              	.LVL14:
 319:../Libraries/XMCLib/src/xmc_ccu8.c ****   gctrl |= (uint32_t)mcs_action << CCU8_GCTRL_MSDE_Pos;
 180              	 .loc 1 319 0
 181 0016 43EA8531 	 orr r1,r3,r5,lsl#14
 182              	.LVL15:
 320:../Libraries/XMCLib/src/xmc_ccu8.c ****   
 321:../Libraries/XMCLib/src/xmc_ccu8.c ****   module->GCTRL = gctrl;
 183              	 .loc 1 321 0
 184 001a 2160     	 str r1,[r4]
 185 001c 38BD     	 pop {r3,r4,r5,pc}
 186              	 .cfi_endproc
 187              	.LFE235:
 189              	 .section .text.XMC_CCU8_SetModuleClock,"ax",%progbits
 190              	 .align 1
 191              	 .global XMC_CCU8_SetModuleClock
 192              	 .thumb
 193              	 .thumb_func
 195              	XMC_CCU8_SetModuleClock:
 196              	.LFB236:
 322:../Libraries/XMCLib/src/xmc_ccu8.c **** }
 323:../Libraries/XMCLib/src/xmc_ccu8.c **** 
 324:../Libraries/XMCLib/src/xmc_ccu8.c **** /* API to select CCU8 module clock */
 325:../Libraries/XMCLib/src/xmc_ccu8.c **** void XMC_CCU8_SetModuleClock(XMC_CCU8_MODULE_t *const module, const XMC_CCU8_CLOCK_t clock)
 326:../Libraries/XMCLib/src/xmc_ccu8.c **** {
 197              	 .loc 1 326 0
 198              	 .cfi_startproc
 199              	 
 200              	 
 201              	 
 202              	.LVL16:
 327:../Libraries/XMCLib/src/xmc_ccu8.c ****   uint32_t gctrl;
 328:../Libraries/XMCLib/src/xmc_ccu8.c **** 
 329:../Libraries/XMCLib/src/xmc_ccu8.c ****   XMC_ASSERT("XMC_CCU8_SetModuleClock:Invalid Module Pointer", XMC_CCU8_IsValidModule(module));
 330:../Libraries/XMCLib/src/xmc_ccu8.c ****   XMC_ASSERT("XMC_CCU8_SetModuleClock:Invalid Module Clock", XMC_CCU8_SLICE_CHECK_CLOCK(clock));
 331:../Libraries/XMCLib/src/xmc_ccu8.c **** 
 332:../Libraries/XMCLib/src/xmc_ccu8.c ****   gctrl = module->GCTRL;
 203              	 .loc 1 332 0
 204 0000 0368     	 ldr r3,[r0]
 205              	.LVL17:
 333:../Libraries/XMCLib/src/xmc_ccu8.c ****   gctrl &= ~((uint32_t) CCU8_GCTRL_PCIS_Msk);
 206              	 .loc 1 333 0
 207 0002 23F03003 	 bic r3,r3,#48
 208              	.LVL18:
 334:../Libraries/XMCLib/src/xmc_ccu8.c ****   gctrl |= ((uint32_t) clock) << CCU8_GCTRL_PCIS_Pos;
 209              	 .loc 1 334 0
 210 0006 43EA0111 	 orr r1,r3,r1,lsl#4
 211              	.LVL19:
 335:../Libraries/XMCLib/src/xmc_ccu8.c **** 
 336:../Libraries/XMCLib/src/xmc_ccu8.c ****   module->GCTRL = gctrl;
 212              	 .loc 1 336 0
 213 000a 0160     	 str r1,[r0]
 214 000c 7047     	 bx lr
 215              	 .cfi_endproc
 216              	.LFE236:
 218              	 .section .text.XMC_CCU8_SLICE_CompareInit,"ax",%progbits
 219              	 .align 1
 220              	 .global XMC_CCU8_SLICE_CompareInit
 221              	 .thumb
 222              	 .thumb_func
 224              	XMC_CCU8_SLICE_CompareInit:
 225              	.LFB237:
 337:../Libraries/XMCLib/src/xmc_ccu8.c **** }
 338:../Libraries/XMCLib/src/xmc_ccu8.c **** 
 339:../Libraries/XMCLib/src/xmc_ccu8.c **** /* API to configure CC8 Slice in Compare mode */
 340:../Libraries/XMCLib/src/xmc_ccu8.c **** void XMC_CCU8_SLICE_CompareInit(XMC_CCU8_SLICE_t *const slice,
 341:../Libraries/XMCLib/src/xmc_ccu8.c ****                                 const XMC_CCU8_SLICE_COMPARE_CONFIG_t *const compare_init)
 342:../Libraries/XMCLib/src/xmc_ccu8.c **** {
 226              	 .loc 1 342 0
 227              	 .cfi_startproc
 228              	 
 229              	 
 230              	 
 231              	.LVL20:
 232              	.LBB22:
 233              	.LBB23:
1175:G:/dt_g1_balancing_plate_wise20192020/XMC/Libraries/XMCLib/inc\xmc_ccu8.h **** }
1176:G:/dt_g1_balancing_plate_wise20192020/XMC/Libraries/XMCLib/inc\xmc_ccu8.h **** 
1177:G:/dt_g1_balancing_plate_wise20192020/XMC/Libraries/XMCLib/inc\xmc_ccu8.h **** /**
1178:G:/dt_g1_balancing_plate_wise20192020/XMC/Libraries/XMCLib/inc\xmc_ccu8.h ****  * @param module Constant pointer to CCU8 module
1179:G:/dt_g1_balancing_plate_wise20192020/XMC/Libraries/XMCLib/inc\xmc_ccu8.h ****  * @return <BR>
1180:G:/dt_g1_balancing_plate_wise20192020/XMC/Libraries/XMCLib/inc\xmc_ccu8.h ****  *    None<BR>
1181:G:/dt_g1_balancing_plate_wise20192020/XMC/Libraries/XMCLib/inc\xmc_ccu8.h ****  *
1182:G:/dt_g1_balancing_plate_wise20192020/XMC/Libraries/XMCLib/inc\xmc_ccu8.h ****  * \par<b>Description:</b><br>
1183:G:/dt_g1_balancing_plate_wise20192020/XMC/Libraries/XMCLib/inc\xmc_ccu8.h ****  * Starts the parity function.<br>\n
1184:G:/dt_g1_balancing_plate_wise20192020/XMC/Libraries/XMCLib/inc\xmc_ccu8.h ****  * Invoke this  API after XMC_CCU8_Init()
1185:G:/dt_g1_balancing_plate_wise20192020/XMC/Libraries/XMCLib/inc\xmc_ccu8.h ****  *
1186:G:/dt_g1_balancing_plate_wise20192020/XMC/Libraries/XMCLib/inc\xmc_ccu8.h ****  * \par<b>Related APIs:</b><br>
1187:G:/dt_g1_balancing_plate_wise20192020/XMC/Libraries/XMCLib/inc\xmc_ccu8.h ****  * XMC_CCU8_Init()<BR>  XMC_CCU8_EnableClock()<BR>  XMC_CCU8_DisableClock()<BR> XMC_CCU8_StopParity
1188:G:/dt_g1_balancing_plate_wise20192020/XMC/Libraries/XMCLib/inc\xmc_ccu8.h ****  */
1189:G:/dt_g1_balancing_plate_wise20192020/XMC/Libraries/XMCLib/inc\xmc_ccu8.h **** __STATIC_INLINE void XMC_CCU8_StartParityChecker(XMC_CCU8_MODULE_t *const module)
1190:G:/dt_g1_balancing_plate_wise20192020/XMC/Libraries/XMCLib/inc\xmc_ccu8.h **** {
1191:G:/dt_g1_balancing_plate_wise20192020/XMC/Libraries/XMCLib/inc\xmc_ccu8.h ****   XMC_ASSERT("XMC_CCU8_StartParityChecker:Invalid Module Pointer", XMC_CCU8_IsValidModule(module));
1192:G:/dt_g1_balancing_plate_wise20192020/XMC/Libraries/XMCLib/inc\xmc_ccu8.h ****   module->GIDLC = (uint32_t) CCU8_GIDLC_SPCH_Msk;
1193:G:/dt_g1_balancing_plate_wise20192020/XMC/Libraries/XMCLib/inc\xmc_ccu8.h **** }
1194:G:/dt_g1_balancing_plate_wise20192020/XMC/Libraries/XMCLib/inc\xmc_ccu8.h **** 
1195:G:/dt_g1_balancing_plate_wise20192020/XMC/Libraries/XMCLib/inc\xmc_ccu8.h **** /**
1196:G:/dt_g1_balancing_plate_wise20192020/XMC/Libraries/XMCLib/inc\xmc_ccu8.h ****  * @param module Constant pointer to CCU8 module
1197:G:/dt_g1_balancing_plate_wise20192020/XMC/Libraries/XMCLib/inc\xmc_ccu8.h ****  * @return <BR>
1198:G:/dt_g1_balancing_plate_wise20192020/XMC/Libraries/XMCLib/inc\xmc_ccu8.h ****  *    None<BR>
1199:G:/dt_g1_balancing_plate_wise20192020/XMC/Libraries/XMCLib/inc\xmc_ccu8.h ****  *
1200:G:/dt_g1_balancing_plate_wise20192020/XMC/Libraries/XMCLib/inc\xmc_ccu8.h ****  * \par<b>Description:</b><br>
1201:G:/dt_g1_balancing_plate_wise20192020/XMC/Libraries/XMCLib/inc\xmc_ccu8.h ****  * Stops the prescaler and blocks clocks to the timer slices, by setting GIDLS.CPRB bit.\n\n
1202:G:/dt_g1_balancing_plate_wise20192020/XMC/Libraries/XMCLib/inc\xmc_ccu8.h ****  * Clears the run bit of the prescaler. Ensures that the module clock is not supplied to
1203:G:/dt_g1_balancing_plate_wise20192020/XMC/Libraries/XMCLib/inc\xmc_ccu8.h ****  * the slices of the module.
1204:G:/dt_g1_balancing_plate_wise20192020/XMC/Libraries/XMCLib/inc\xmc_ccu8.h ****  *
1205:G:/dt_g1_balancing_plate_wise20192020/XMC/Libraries/XMCLib/inc\xmc_ccu8.h ****  * \par<b>Related APIs:</b><br>
1206:G:/dt_g1_balancing_plate_wise20192020/XMC/Libraries/XMCLib/inc\xmc_ccu8.h ****  * XMC_CCU8_EnableClock()<BR>  XMC_CCU8_DisableClock()<BR>  XMC_CCU8_StartPrescaler()<BR>  XMC_CCU8
1207:G:/dt_g1_balancing_plate_wise20192020/XMC/Libraries/XMCLib/inc\xmc_ccu8.h ****  */
1208:G:/dt_g1_balancing_plate_wise20192020/XMC/Libraries/XMCLib/inc\xmc_ccu8.h **** __STATIC_INLINE void XMC_CCU8_StopPrescaler(XMC_CCU8_MODULE_t *const module)
1209:G:/dt_g1_balancing_plate_wise20192020/XMC/Libraries/XMCLib/inc\xmc_ccu8.h **** {
1210:G:/dt_g1_balancing_plate_wise20192020/XMC/Libraries/XMCLib/inc\xmc_ccu8.h ****   XMC_ASSERT("XMC_CCU8_StopPrescaler:Invalid Module Pointer", XMC_CCU8_IsValidModule(module));
1211:G:/dt_g1_balancing_plate_wise20192020/XMC/Libraries/XMCLib/inc\xmc_ccu8.h ****   module->GIDLS = (uint32_t) CCU8_GIDLS_CPRB_Msk;
1212:G:/dt_g1_balancing_plate_wise20192020/XMC/Libraries/XMCLib/inc\xmc_ccu8.h **** }
1213:G:/dt_g1_balancing_plate_wise20192020/XMC/Libraries/XMCLib/inc\xmc_ccu8.h **** 
1214:G:/dt_g1_balancing_plate_wise20192020/XMC/Libraries/XMCLib/inc\xmc_ccu8.h **** /**
1215:G:/dt_g1_balancing_plate_wise20192020/XMC/Libraries/XMCLib/inc\xmc_ccu8.h ****  * @param module Constant pointer to CCU8 module
1216:G:/dt_g1_balancing_plate_wise20192020/XMC/Libraries/XMCLib/inc\xmc_ccu8.h ****  * @return <BR>
1217:G:/dt_g1_balancing_plate_wise20192020/XMC/Libraries/XMCLib/inc\xmc_ccu8.h ****  *    None<BR>
1218:G:/dt_g1_balancing_plate_wise20192020/XMC/Libraries/XMCLib/inc\xmc_ccu8.h ****  *
1219:G:/dt_g1_balancing_plate_wise20192020/XMC/Libraries/XMCLib/inc\xmc_ccu8.h ****  * \par<b>Description:</b><br>
1220:G:/dt_g1_balancing_plate_wise20192020/XMC/Libraries/XMCLib/inc\xmc_ccu8.h ****  * Stops the parity function.<br>\n
1221:G:/dt_g1_balancing_plate_wise20192020/XMC/Libraries/XMCLib/inc\xmc_ccu8.h ****  *
1222:G:/dt_g1_balancing_plate_wise20192020/XMC/Libraries/XMCLib/inc\xmc_ccu8.h ****  * \par<b>Related APIs:</b><br>
1223:G:/dt_g1_balancing_plate_wise20192020/XMC/Libraries/XMCLib/inc\xmc_ccu8.h ****  * XMC_CCU8_EnableClock()<BR>  XMC_CCU8_DisableClock()<BR>  XMC_CCU8_StartParityChecker()<BR>
1224:G:/dt_g1_balancing_plate_wise20192020/XMC/Libraries/XMCLib/inc\xmc_ccu8.h ****  */
1225:G:/dt_g1_balancing_plate_wise20192020/XMC/Libraries/XMCLib/inc\xmc_ccu8.h **** __STATIC_INLINE void XMC_CCU8_StopParityChecker(XMC_CCU8_MODULE_t *const module)
1226:G:/dt_g1_balancing_plate_wise20192020/XMC/Libraries/XMCLib/inc\xmc_ccu8.h **** {
1227:G:/dt_g1_balancing_plate_wise20192020/XMC/Libraries/XMCLib/inc\xmc_ccu8.h ****   XMC_ASSERT("XMC_CCU8_StopParityChecker:Invalid Module Pointer", XMC_CCU8_IsValidModule(module));
1228:G:/dt_g1_balancing_plate_wise20192020/XMC/Libraries/XMCLib/inc\xmc_ccu8.h ****   module->GIDLS = (uint32_t) CCU8_GIDLS_CPCH_Msk;
1229:G:/dt_g1_balancing_plate_wise20192020/XMC/Libraries/XMCLib/inc\xmc_ccu8.h **** }
1230:G:/dt_g1_balancing_plate_wise20192020/XMC/Libraries/XMCLib/inc\xmc_ccu8.h **** 
1231:G:/dt_g1_balancing_plate_wise20192020/XMC/Libraries/XMCLib/inc\xmc_ccu8.h **** /**
1232:G:/dt_g1_balancing_plate_wise20192020/XMC/Libraries/XMCLib/inc\xmc_ccu8.h ****  * @param module Constant pointer to CCU8 module
1233:G:/dt_g1_balancing_plate_wise20192020/XMC/Libraries/XMCLib/inc\xmc_ccu8.h ****  * @return <BR>
1234:G:/dt_g1_balancing_plate_wise20192020/XMC/Libraries/XMCLib/inc\xmc_ccu8.h ****  *    None<BR>
1235:G:/dt_g1_balancing_plate_wise20192020/XMC/Libraries/XMCLib/inc\xmc_ccu8.h ****  *
1236:G:/dt_g1_balancing_plate_wise20192020/XMC/Libraries/XMCLib/inc\xmc_ccu8.h ****  * \par<b>Description:</b><br>
1237:G:/dt_g1_balancing_plate_wise20192020/XMC/Libraries/XMCLib/inc\xmc_ccu8.h ****  * Returns the state of the prescaler, by reading GSTAT.PRB bit.\n\n
1238:G:/dt_g1_balancing_plate_wise20192020/XMC/Libraries/XMCLib/inc\xmc_ccu8.h ****  * If clock is being supplied to the slices of the  module then returns as true. 
1239:G:/dt_g1_balancing_plate_wise20192020/XMC/Libraries/XMCLib/inc\xmc_ccu8.h ****  *
1240:G:/dt_g1_balancing_plate_wise20192020/XMC/Libraries/XMCLib/inc\xmc_ccu8.h ****  * \par<b>Related APIs:</b><br>
1241:G:/dt_g1_balancing_plate_wise20192020/XMC/Libraries/XMCLib/inc\xmc_ccu8.h ****  * XMC_CCU8_StartPrescaler()<BR>  XMC_CCU8_StopPrescaler()<BR> XMC_CCU8_EnableClock()<BR>  XMC_CCU8
1242:G:/dt_g1_balancing_plate_wise20192020/XMC/Libraries/XMCLib/inc\xmc_ccu8.h ****  */
1243:G:/dt_g1_balancing_plate_wise20192020/XMC/Libraries/XMCLib/inc\xmc_ccu8.h **** __STATIC_INLINE bool XMC_CCU8_IsPrescalerRunning(XMC_CCU8_MODULE_t *const module)
1244:G:/dt_g1_balancing_plate_wise20192020/XMC/Libraries/XMCLib/inc\xmc_ccu8.h **** {
1245:G:/dt_g1_balancing_plate_wise20192020/XMC/Libraries/XMCLib/inc\xmc_ccu8.h ****   XMC_ASSERT("XMC_CCU8_IsPrescalerRunning:Invalid Module Pointer", XMC_CCU8_IsValidModule(module));
1246:G:/dt_g1_balancing_plate_wise20192020/XMC/Libraries/XMCLib/inc\xmc_ccu8.h ****   return((bool)((module->GSTAT & (uint32_t) CCU8_GSTAT_PRB_Msk) == CCU8_GSTAT_PRB_Msk));
1247:G:/dt_g1_balancing_plate_wise20192020/XMC/Libraries/XMCLib/inc\xmc_ccu8.h **** }
1248:G:/dt_g1_balancing_plate_wise20192020/XMC/Libraries/XMCLib/inc\xmc_ccu8.h **** 
1249:G:/dt_g1_balancing_plate_wise20192020/XMC/Libraries/XMCLib/inc\xmc_ccu8.h **** /**
1250:G:/dt_g1_balancing_plate_wise20192020/XMC/Libraries/XMCLib/inc\xmc_ccu8.h ****  * @param module Constant pointer to CCU8 module
1251:G:/dt_g1_balancing_plate_wise20192020/XMC/Libraries/XMCLib/inc\xmc_ccu8.h ****  * @return <BR>
1252:G:/dt_g1_balancing_plate_wise20192020/XMC/Libraries/XMCLib/inc\xmc_ccu8.h ****  *    None<BR>
1253:G:/dt_g1_balancing_plate_wise20192020/XMC/Libraries/XMCLib/inc\xmc_ccu8.h ****  *
1254:G:/dt_g1_balancing_plate_wise20192020/XMC/Libraries/XMCLib/inc\xmc_ccu8.h ****  * \par<b>Description:</b><br>
1255:G:/dt_g1_balancing_plate_wise20192020/XMC/Libraries/XMCLib/inc\xmc_ccu8.h ****  * Returns the state of the parity checker.\n\n
1256:G:/dt_g1_balancing_plate_wise20192020/XMC/Libraries/XMCLib/inc\xmc_ccu8.h ****  *
1257:G:/dt_g1_balancing_plate_wise20192020/XMC/Libraries/XMCLib/inc\xmc_ccu8.h ****  * \par<b>Related APIs:</b><br>
1258:G:/dt_g1_balancing_plate_wise20192020/XMC/Libraries/XMCLib/inc\xmc_ccu8.h ****  * XMC_CCU8_StartParityChecker()<BR>  XMC_CCU8_StopParityChecker()<BR> XMC_CCU8_EnableClock()<BR>  
1259:G:/dt_g1_balancing_plate_wise20192020/XMC/Libraries/XMCLib/inc\xmc_ccu8.h ****  */
1260:G:/dt_g1_balancing_plate_wise20192020/XMC/Libraries/XMCLib/inc\xmc_ccu8.h **** __STATIC_INLINE bool XMC_CCU8_IsParityCheckerRunning(XMC_CCU8_MODULE_t *const module)
1261:G:/dt_g1_balancing_plate_wise20192020/XMC/Libraries/XMCLib/inc\xmc_ccu8.h **** {
1262:G:/dt_g1_balancing_plate_wise20192020/XMC/Libraries/XMCLib/inc\xmc_ccu8.h ****   XMC_ASSERT("XMC_CCU8_IsPrescalerRunning:Invalid Module Pointer", XMC_CCU8_IsValidModule(module));
1263:G:/dt_g1_balancing_plate_wise20192020/XMC/Libraries/XMCLib/inc\xmc_ccu8.h ****   return((bool)((module->GSTAT & (uint32_t) CCU8_GSTAT_PCRB_Msk) == CCU8_GSTAT_PCRB_Msk));
1264:G:/dt_g1_balancing_plate_wise20192020/XMC/Libraries/XMCLib/inc\xmc_ccu8.h **** }
1265:G:/dt_g1_balancing_plate_wise20192020/XMC/Libraries/XMCLib/inc\xmc_ccu8.h **** 
1266:G:/dt_g1_balancing_plate_wise20192020/XMC/Libraries/XMCLib/inc\xmc_ccu8.h **** /**
1267:G:/dt_g1_balancing_plate_wise20192020/XMC/Libraries/XMCLib/inc\xmc_ccu8.h ****  * @param module Constant pointer to CCU8 module
1268:G:/dt_g1_balancing_plate_wise20192020/XMC/Libraries/XMCLib/inc\xmc_ccu8.h ****  * @param clock_mask Slices whose clocks are to be enabled simultaneously.
1269:G:/dt_g1_balancing_plate_wise20192020/XMC/Libraries/XMCLib/inc\xmc_ccu8.h ****  *                   Bit location 0/1/2/3 represents slice-0/1/2/3 respectively. 
1270:G:/dt_g1_balancing_plate_wise20192020/XMC/Libraries/XMCLib/inc\xmc_ccu8.h ****  *                   Range: [0x1 to 0xF]
1271:G:/dt_g1_balancing_plate_wise20192020/XMC/Libraries/XMCLib/inc\xmc_ccu8.h ****  * @return <BR>
1272:G:/dt_g1_balancing_plate_wise20192020/XMC/Libraries/XMCLib/inc\xmc_ccu8.h ****  *    None<BR>
1273:G:/dt_g1_balancing_plate_wise20192020/XMC/Libraries/XMCLib/inc\xmc_ccu8.h ****  *
1274:G:/dt_g1_balancing_plate_wise20192020/XMC/Libraries/XMCLib/inc\xmc_ccu8.h ****  * \par<b>Description:</b><br>
1275:G:/dt_g1_balancing_plate_wise20192020/XMC/Libraries/XMCLib/inc\xmc_ccu8.h ****  * Enables clocks of multiple slices at a time, by configuring GIDLC.CS0I, GIDLC.CS1I, GIDLC.CS2I, 
1276:G:/dt_g1_balancing_plate_wise20192020/XMC/Libraries/XMCLib/inc\xmc_ccu8.h ****  * GIDLC.CS3I bits.\n\n
1277:G:/dt_g1_balancing_plate_wise20192020/XMC/Libraries/XMCLib/inc\xmc_ccu8.h ****  * Takes an input clock_mask, which determines the slices that would receive the clock. Bring them 
1278:G:/dt_g1_balancing_plate_wise20192020/XMC/Libraries/XMCLib/inc\xmc_ccu8.h ****  * of the idle state simultaneously.
1279:G:/dt_g1_balancing_plate_wise20192020/XMC/Libraries/XMCLib/inc\xmc_ccu8.h ****  *
1280:G:/dt_g1_balancing_plate_wise20192020/XMC/Libraries/XMCLib/inc\xmc_ccu8.h ****  * \par<b>Related APIs:</b><br>
1281:G:/dt_g1_balancing_plate_wise20192020/XMC/Libraries/XMCLib/inc\xmc_ccu8.h ****  * XMC_CCU8_EnableClock()<BR>  XMC_CCU8_DisableClock().
1282:G:/dt_g1_balancing_plate_wise20192020/XMC/Libraries/XMCLib/inc\xmc_ccu8.h ****  */
1283:G:/dt_g1_balancing_plate_wise20192020/XMC/Libraries/XMCLib/inc\xmc_ccu8.h **** __STATIC_INLINE void XMC_CCU8_EnableMultipleClocks(XMC_CCU8_MODULE_t *const module, const uint8_t c
1284:G:/dt_g1_balancing_plate_wise20192020/XMC/Libraries/XMCLib/inc\xmc_ccu8.h **** {
1285:G:/dt_g1_balancing_plate_wise20192020/XMC/Libraries/XMCLib/inc\xmc_ccu8.h ****   XMC_ASSERT("XMC_CCU8_EnableMultipleClocks:Invalid Module Pointer", XMC_CCU8_IsValidModule(module)
1286:G:/dt_g1_balancing_plate_wise20192020/XMC/Libraries/XMCLib/inc\xmc_ccu8.h ****   XMC_ASSERT("XMC_CCU8_EnableMultipleClocks:Invalid clock mask", (clock_mask < 16U));
1287:G:/dt_g1_balancing_plate_wise20192020/XMC/Libraries/XMCLib/inc\xmc_ccu8.h **** 
1288:G:/dt_g1_balancing_plate_wise20192020/XMC/Libraries/XMCLib/inc\xmc_ccu8.h ****   module->GIDLC = (uint32_t) clock_mask;
1289:G:/dt_g1_balancing_plate_wise20192020/XMC/Libraries/XMCLib/inc\xmc_ccu8.h **** }
1290:G:/dt_g1_balancing_plate_wise20192020/XMC/Libraries/XMCLib/inc\xmc_ccu8.h **** 
1291:G:/dt_g1_balancing_plate_wise20192020/XMC/Libraries/XMCLib/inc\xmc_ccu8.h **** /**
1292:G:/dt_g1_balancing_plate_wise20192020/XMC/Libraries/XMCLib/inc\xmc_ccu8.h ****  * @param module Constant pointer to CCU8 module
1293:G:/dt_g1_balancing_plate_wise20192020/XMC/Libraries/XMCLib/inc\xmc_ccu8.h ****  * @param mode   Selects suspend mode
1294:G:/dt_g1_balancing_plate_wise20192020/XMC/Libraries/XMCLib/inc\xmc_ccu8.h ****  * @return <BR>
1295:G:/dt_g1_balancing_plate_wise20192020/XMC/Libraries/XMCLib/inc\xmc_ccu8.h ****  *    None<BR>
1296:G:/dt_g1_balancing_plate_wise20192020/XMC/Libraries/XMCLib/inc\xmc_ccu8.h ****  *
1297:G:/dt_g1_balancing_plate_wise20192020/XMC/Libraries/XMCLib/inc\xmc_ccu8.h ****  * \par<b>Description:</b><br>
1298:G:/dt_g1_balancing_plate_wise20192020/XMC/Libraries/XMCLib/inc\xmc_ccu8.h ****  * Configures the entering in suspend mode for all the CCU8 slices.
1299:G:/dt_g1_balancing_plate_wise20192020/XMC/Libraries/XMCLib/inc\xmc_ccu8.h ****  *
1300:G:/dt_g1_balancing_plate_wise20192020/XMC/Libraries/XMCLib/inc\xmc_ccu8.h ****  * \par<b>Related APIs:</b><br>
1301:G:/dt_g1_balancing_plate_wise20192020/XMC/Libraries/XMCLib/inc\xmc_ccu8.h ****  * None.
1302:G:/dt_g1_balancing_plate_wise20192020/XMC/Libraries/XMCLib/inc\xmc_ccu8.h ****  */
1303:G:/dt_g1_balancing_plate_wise20192020/XMC/Libraries/XMCLib/inc\xmc_ccu8.h **** __STATIC_INLINE void XMC_CCU8_SetSuspendMode(XMC_CCU8_MODULE_t *const module, const XMC_CCU8_SUSPEN
1304:G:/dt_g1_balancing_plate_wise20192020/XMC/Libraries/XMCLib/inc\xmc_ccu8.h **** {
1305:G:/dt_g1_balancing_plate_wise20192020/XMC/Libraries/XMCLib/inc\xmc_ccu8.h ****   XMC_ASSERT("XMC_CCU8_EnableMultipleClocks:Invalid Module Pointer", XMC_CCU8_IsValidModule(module)
1306:G:/dt_g1_balancing_plate_wise20192020/XMC/Libraries/XMCLib/inc\xmc_ccu8.h ****   module->GCTRL = (module->GCTRL & (uint32_t)~CCU8_GCTRL_SUSCFG_Msk) | mode;
1307:G:/dt_g1_balancing_plate_wise20192020/XMC/Libraries/XMCLib/inc\xmc_ccu8.h **** }
1308:G:/dt_g1_balancing_plate_wise20192020/XMC/Libraries/XMCLib/inc\xmc_ccu8.h **** 
1309:G:/dt_g1_balancing_plate_wise20192020/XMC/Libraries/XMCLib/inc\xmc_ccu8.h **** /**
1310:G:/dt_g1_balancing_plate_wise20192020/XMC/Libraries/XMCLib/inc\xmc_ccu8.h ****  * @param slice Constant pointer to CC8 Slice
1311:G:/dt_g1_balancing_plate_wise20192020/XMC/Libraries/XMCLib/inc\xmc_ccu8.h ****  * @param compare_init Pointer to slice configuration structure
1312:G:/dt_g1_balancing_plate_wise20192020/XMC/Libraries/XMCLib/inc\xmc_ccu8.h ****  * @return <BR>
1313:G:/dt_g1_balancing_plate_wise20192020/XMC/Libraries/XMCLib/inc\xmc_ccu8.h ****  *    None<BR>
1314:G:/dt_g1_balancing_plate_wise20192020/XMC/Libraries/XMCLib/inc\xmc_ccu8.h ****  *
1315:G:/dt_g1_balancing_plate_wise20192020/XMC/Libraries/XMCLib/inc\xmc_ccu8.h ****  * \par<b>Description:</b><br>
1316:G:/dt_g1_balancing_plate_wise20192020/XMC/Libraries/XMCLib/inc\xmc_ccu8.h ****  * Initialization of a CC8 slice to compare mode, by configuring CC8yTC, CC8yCMC, CC8yPSC, CC8yDITH
1317:G:/dt_g1_balancing_plate_wise20192020/XMC/Libraries/XMCLib/inc\xmc_ccu8.h ****  * CC8yFPCS, CC8yCHC registers.\n\n
1318:G:/dt_g1_balancing_plate_wise20192020/XMC/Libraries/XMCLib/inc\xmc_ccu8.h ****  * CC8 slice is configured with Timer configurations in this routine. Timer is stopped before initi
1319:G:/dt_g1_balancing_plate_wise20192020/XMC/Libraries/XMCLib/inc\xmc_ccu8.h ****  * by calling XMC_CCU8_SLICE_StopTimer(). After initialization user has to explicitly enable
1320:G:/dt_g1_balancing_plate_wise20192020/XMC/Libraries/XMCLib/inc\xmc_ccu8.h ****  * the shadow transfer for the required values by calling XMC_CCU8_EnableShadowTransfer() with appr
1321:G:/dt_g1_balancing_plate_wise20192020/XMC/Libraries/XMCLib/inc\xmc_ccu8.h ****  *
1322:G:/dt_g1_balancing_plate_wise20192020/XMC/Libraries/XMCLib/inc\xmc_ccu8.h ****  * \par<b>Related APIs:</b><br>
1323:G:/dt_g1_balancing_plate_wise20192020/XMC/Libraries/XMCLib/inc\xmc_ccu8.h ****  * None.
1324:G:/dt_g1_balancing_plate_wise20192020/XMC/Libraries/XMCLib/inc\xmc_ccu8.h ****  */
1325:G:/dt_g1_balancing_plate_wise20192020/XMC/Libraries/XMCLib/inc\xmc_ccu8.h **** void XMC_CCU8_SLICE_CompareInit(XMC_CCU8_SLICE_t *const slice,
1326:G:/dt_g1_balancing_plate_wise20192020/XMC/Libraries/XMCLib/inc\xmc_ccu8.h ****                                 const XMC_CCU8_SLICE_COMPARE_CONFIG_t *const compare_init);
1327:G:/dt_g1_balancing_plate_wise20192020/XMC/Libraries/XMCLib/inc\xmc_ccu8.h **** 
1328:G:/dt_g1_balancing_plate_wise20192020/XMC/Libraries/XMCLib/inc\xmc_ccu8.h **** /**
1329:G:/dt_g1_balancing_plate_wise20192020/XMC/Libraries/XMCLib/inc\xmc_ccu8.h ****  * @param slice Constant pointer to CC8 Slice
1330:G:/dt_g1_balancing_plate_wise20192020/XMC/Libraries/XMCLib/inc\xmc_ccu8.h ****  * @param capture_init Pointer to slice configuration structure
1331:G:/dt_g1_balancing_plate_wise20192020/XMC/Libraries/XMCLib/inc\xmc_ccu8.h ****  * @return <BR>
1332:G:/dt_g1_balancing_plate_wise20192020/XMC/Libraries/XMCLib/inc\xmc_ccu8.h ****  *    None<BR>
1333:G:/dt_g1_balancing_plate_wise20192020/XMC/Libraries/XMCLib/inc\xmc_ccu8.h ****  *
1334:G:/dt_g1_balancing_plate_wise20192020/XMC/Libraries/XMCLib/inc\xmc_ccu8.h ****  * \par<b>Description:</b><br>
1335:G:/dt_g1_balancing_plate_wise20192020/XMC/Libraries/XMCLib/inc\xmc_ccu8.h ****  * Initialization of a CC8 slice to capture mode, by configuring CC8yTC, CC8yCMC, CC8yPSC,CC8yFPCS 
1336:G:/dt_g1_balancing_plate_wise20192020/XMC/Libraries/XMCLib/inc\xmc_ccu8.h ****  * CC8 slice is configured with Capture configurations in  this routine. Timer is stopped before in
1337:G:/dt_g1_balancing_plate_wise20192020/XMC/Libraries/XMCLib/inc\xmc_ccu8.h ****  * by calling XMC_CCU8_SLICE_StopTimer(). After initialization user has to explicitly enable the sh
1338:G:/dt_g1_balancing_plate_wise20192020/XMC/Libraries/XMCLib/inc\xmc_ccu8.h ****  * for the required  values by calling XMC_CCU8_EnableShadowTransfer() with appropriate mask. 
1339:G:/dt_g1_balancing_plate_wise20192020/XMC/Libraries/XMCLib/inc\xmc_ccu8.h ****  *
1340:G:/dt_g1_balancing_plate_wise20192020/XMC/Libraries/XMCLib/inc\xmc_ccu8.h ****  * \par<b>Related APIs:</b><br>
1341:G:/dt_g1_balancing_plate_wise20192020/XMC/Libraries/XMCLib/inc\xmc_ccu8.h ****  * XMC_CCU8_SLICE_Capture0Config()<BR>  XMC_CCU8_SLICE_Capture1Config().
1342:G:/dt_g1_balancing_plate_wise20192020/XMC/Libraries/XMCLib/inc\xmc_ccu8.h ****  */
1343:G:/dt_g1_balancing_plate_wise20192020/XMC/Libraries/XMCLib/inc\xmc_ccu8.h **** void XMC_CCU8_SLICE_CaptureInit(XMC_CCU8_SLICE_t *const slice,
1344:G:/dt_g1_balancing_plate_wise20192020/XMC/Libraries/XMCLib/inc\xmc_ccu8.h ****                                 const XMC_CCU8_SLICE_CAPTURE_CONFIG_t *const capture_init);
1345:G:/dt_g1_balancing_plate_wise20192020/XMC/Libraries/XMCLib/inc\xmc_ccu8.h **** 
1346:G:/dt_g1_balancing_plate_wise20192020/XMC/Libraries/XMCLib/inc\xmc_ccu8.h **** /**
1347:G:/dt_g1_balancing_plate_wise20192020/XMC/Libraries/XMCLib/inc\xmc_ccu8.h ****  * @param module Constant pointer to CCU8 module
1348:G:/dt_g1_balancing_plate_wise20192020/XMC/Libraries/XMCLib/inc\xmc_ccu8.h ****  * @param slice_number Slice for which the clock should be Enabled.
1349:G:/dt_g1_balancing_plate_wise20192020/XMC/Libraries/XMCLib/inc\xmc_ccu8.h ****  *                   Range: [0x0 to 0x3]
1350:G:/dt_g1_balancing_plate_wise20192020/XMC/Libraries/XMCLib/inc\xmc_ccu8.h ****  * @return <BR>
1351:G:/dt_g1_balancing_plate_wise20192020/XMC/Libraries/XMCLib/inc\xmc_ccu8.h ****  *    None<BR>
1352:G:/dt_g1_balancing_plate_wise20192020/XMC/Libraries/XMCLib/inc\xmc_ccu8.h ****  *
1353:G:/dt_g1_balancing_plate_wise20192020/XMC/Libraries/XMCLib/inc\xmc_ccu8.h ****  * \par<b>Description:</b><br>
1354:G:/dt_g1_balancing_plate_wise20192020/XMC/Libraries/XMCLib/inc\xmc_ccu8.h ****  *  Enables the slice timer clock, by configuring GIDLC.CS0I, GIDLC.CS1I, GIDLC.CS2I, 
1355:G:/dt_g1_balancing_plate_wise20192020/XMC/Libraries/XMCLib/inc\xmc_ccu8.h ****  *  GIDLC.CS3I bits according to the selected \a slice_number.\n\n
1356:G:/dt_g1_balancing_plate_wise20192020/XMC/Libraries/XMCLib/inc\xmc_ccu8.h ****  *  It is possible to enable/disable clock at slice level. This uses the \b slice_number to indicat
1357:G:/dt_g1_balancing_plate_wise20192020/XMC/Libraries/XMCLib/inc\xmc_ccu8.h ****  *  slice whose clock needs to be enabled. Directly accessed register is GIDLC.
1358:G:/dt_g1_balancing_plate_wise20192020/XMC/Libraries/XMCLib/inc\xmc_ccu8.h ****  *
1359:G:/dt_g1_balancing_plate_wise20192020/XMC/Libraries/XMCLib/inc\xmc_ccu8.h ****  * \par<b>Related APIs:</b><br>
1360:G:/dt_g1_balancing_plate_wise20192020/XMC/Libraries/XMCLib/inc\xmc_ccu8.h ****  * XMC_CCU8_DisableClock()<BR>  XMC_CCU8_EnableMultipleClocks()<BR>  XMC_CCU8_StartPrescaler()<BR> 
1361:G:/dt_g1_balancing_plate_wise20192020/XMC/Libraries/XMCLib/inc\xmc_ccu8.h ****  */
1362:G:/dt_g1_balancing_plate_wise20192020/XMC/Libraries/XMCLib/inc\xmc_ccu8.h **** __STATIC_INLINE void XMC_CCU8_EnableClock(XMC_CCU8_MODULE_t *const module, const uint8_t slice_numb
1363:G:/dt_g1_balancing_plate_wise20192020/XMC/Libraries/XMCLib/inc\xmc_ccu8.h **** {
1364:G:/dt_g1_balancing_plate_wise20192020/XMC/Libraries/XMCLib/inc\xmc_ccu8.h ****   XMC_ASSERT("XMC_CCU8_EnableClock:Invalid Module Pointer", XMC_CCU8_IsValidModule(module));
1365:G:/dt_g1_balancing_plate_wise20192020/XMC/Libraries/XMCLib/inc\xmc_ccu8.h ****   XMC_ASSERT("XMC_CCU8_EnableClock:Invalid Slice Number", (slice_number < 4U));
1366:G:/dt_g1_balancing_plate_wise20192020/XMC/Libraries/XMCLib/inc\xmc_ccu8.h **** 
1367:G:/dt_g1_balancing_plate_wise20192020/XMC/Libraries/XMCLib/inc\xmc_ccu8.h ****   module->GIDLC = ((uint32_t) 1 << slice_number);
1368:G:/dt_g1_balancing_plate_wise20192020/XMC/Libraries/XMCLib/inc\xmc_ccu8.h **** }
1369:G:/dt_g1_balancing_plate_wise20192020/XMC/Libraries/XMCLib/inc\xmc_ccu8.h **** 
1370:G:/dt_g1_balancing_plate_wise20192020/XMC/Libraries/XMCLib/inc\xmc_ccu8.h **** /**
1371:G:/dt_g1_balancing_plate_wise20192020/XMC/Libraries/XMCLib/inc\xmc_ccu8.h ****  * @param module Constant pointer to CCU8 module
1372:G:/dt_g1_balancing_plate_wise20192020/XMC/Libraries/XMCLib/inc\xmc_ccu8.h ****  * @param slice_number Slice for which the clock should be disabled.
1373:G:/dt_g1_balancing_plate_wise20192020/XMC/Libraries/XMCLib/inc\xmc_ccu8.h ****  *                   Range: [0x0 to 0x3]
1374:G:/dt_g1_balancing_plate_wise20192020/XMC/Libraries/XMCLib/inc\xmc_ccu8.h ****  * @return <BR>
1375:G:/dt_g1_balancing_plate_wise20192020/XMC/Libraries/XMCLib/inc\xmc_ccu8.h ****  *    None<BR>
1376:G:/dt_g1_balancing_plate_wise20192020/XMC/Libraries/XMCLib/inc\xmc_ccu8.h ****  *
1377:G:/dt_g1_balancing_plate_wise20192020/XMC/Libraries/XMCLib/inc\xmc_ccu8.h ****  * \par<b>Description:</b><br>
1378:G:/dt_g1_balancing_plate_wise20192020/XMC/Libraries/XMCLib/inc\xmc_ccu8.h ****  * Disables the slice timer clock, by configuring GIDLS.SS0I, GIDLS.SSS1I, GIDLS.SSS2I, 
1379:G:/dt_g1_balancing_plate_wise20192020/XMC/Libraries/XMCLib/inc\xmc_ccu8.h ****  * GIDLS.SSS3I bits according to the selected \a slice_number .\n\n
1380:G:/dt_g1_balancing_plate_wise20192020/XMC/Libraries/XMCLib/inc\xmc_ccu8.h ****  * It is possible to disable clock at slice level using the module pointer.
1381:G:/dt_g1_balancing_plate_wise20192020/XMC/Libraries/XMCLib/inc\xmc_ccu8.h ****  * \b slice_number is used to disable the clock to a given slice of the module.
1382:G:/dt_g1_balancing_plate_wise20192020/XMC/Libraries/XMCLib/inc\xmc_ccu8.h ****  *
1383:G:/dt_g1_balancing_plate_wise20192020/XMC/Libraries/XMCLib/inc\xmc_ccu8.h ****  * \par<b>Related APIs:</b><br>
1384:G:/dt_g1_balancing_plate_wise20192020/XMC/Libraries/XMCLib/inc\xmc_ccu8.h ****  * XMC_CCU8_EnableClock()<BR>  XMC_CCU8_EnableMultipleClocks()<BR>  XMC_CCU8_StartPrescaler()<BR>  
1385:G:/dt_g1_balancing_plate_wise20192020/XMC/Libraries/XMCLib/inc\xmc_ccu8.h ****  */
1386:G:/dt_g1_balancing_plate_wise20192020/XMC/Libraries/XMCLib/inc\xmc_ccu8.h **** __STATIC_INLINE void XMC_CCU8_DisableClock(XMC_CCU8_MODULE_t *const module, const uint8_t slice_num
1387:G:/dt_g1_balancing_plate_wise20192020/XMC/Libraries/XMCLib/inc\xmc_ccu8.h **** {
1388:G:/dt_g1_balancing_plate_wise20192020/XMC/Libraries/XMCLib/inc\xmc_ccu8.h ****   XMC_ASSERT("XMC_CCU8_DisableClock:Invalid Module Pointer", XMC_CCU8_IsValidModule(module));
1389:G:/dt_g1_balancing_plate_wise20192020/XMC/Libraries/XMCLib/inc\xmc_ccu8.h ****   XMC_ASSERT("XMC_CCU8_DisableClock:Invalid Slice Number", (slice_number < 4U));
1390:G:/dt_g1_balancing_plate_wise20192020/XMC/Libraries/XMCLib/inc\xmc_ccu8.h **** 
1391:G:/dt_g1_balancing_plate_wise20192020/XMC/Libraries/XMCLib/inc\xmc_ccu8.h ****   module->GIDLS = ((uint32_t) 1 << slice_number);
1392:G:/dt_g1_balancing_plate_wise20192020/XMC/Libraries/XMCLib/inc\xmc_ccu8.h **** }
1393:G:/dt_g1_balancing_plate_wise20192020/XMC/Libraries/XMCLib/inc\xmc_ccu8.h **** 
1394:G:/dt_g1_balancing_plate_wise20192020/XMC/Libraries/XMCLib/inc\xmc_ccu8.h **** /**
1395:G:/dt_g1_balancing_plate_wise20192020/XMC/Libraries/XMCLib/inc\xmc_ccu8.h ****  * @param module Constant pointer to CCU8 module
1396:G:/dt_g1_balancing_plate_wise20192020/XMC/Libraries/XMCLib/inc\xmc_ccu8.h ****  * @param slice_number Slice for which the clock should be disabled.
1397:G:/dt_g1_balancing_plate_wise20192020/XMC/Libraries/XMCLib/inc\xmc_ccu8.h ****  *                   Range: [0x0 to 0x3]
1398:G:/dt_g1_balancing_plate_wise20192020/XMC/Libraries/XMCLib/inc\xmc_ccu8.h ****  * @param output Slice output.
1399:G:/dt_g1_balancing_plate_wise20192020/XMC/Libraries/XMCLib/inc\xmc_ccu8.h ****  * @return <BR>
1400:G:/dt_g1_balancing_plate_wise20192020/XMC/Libraries/XMCLib/inc\xmc_ccu8.h ****  *    None<BR>
1401:G:/dt_g1_balancing_plate_wise20192020/XMC/Libraries/XMCLib/inc\xmc_ccu8.h ****  *
1402:G:/dt_g1_balancing_plate_wise20192020/XMC/Libraries/XMCLib/inc\xmc_ccu8.h ****  * \par<b>Description:</b><br>
1403:G:/dt_g1_balancing_plate_wise20192020/XMC/Libraries/XMCLib/inc\xmc_ccu8.h ****  * Enables slice outputs to be used to perform the parity check. 
1404:G:/dt_g1_balancing_plate_wise20192020/XMC/Libraries/XMCLib/inc\xmc_ccu8.h ****  *
1405:G:/dt_g1_balancing_plate_wise20192020/XMC/Libraries/XMCLib/inc\xmc_ccu8.h ****  * \par<b>Related APIs:</b><br>
1406:G:/dt_g1_balancing_plate_wise20192020/XMC/Libraries/XMCLib/inc\xmc_ccu8.h ****  * XMC_CCU8_StartParityChecker()<BR>  XMC_CCU8_SLICE_ParityCheckerDisableSliceOutput()<BR>
1407:G:/dt_g1_balancing_plate_wise20192020/XMC/Libraries/XMCLib/inc\xmc_ccu8.h ****  */
1408:G:/dt_g1_balancing_plate_wise20192020/XMC/Libraries/XMCLib/inc\xmc_ccu8.h **** __STATIC_INLINE void XMC_CCU8_SLICE_ParityCheckerEnableSliceOutput(XMC_CCU8_MODULE_t *const module,
1409:G:/dt_g1_balancing_plate_wise20192020/XMC/Libraries/XMCLib/inc\xmc_ccu8.h **** {
1410:G:/dt_g1_balancing_plate_wise20192020/XMC/Libraries/XMCLib/inc\xmc_ccu8.h ****   XMC_ASSERT("XMC_CCU8_SLICE_ParityCheckerEnableSliceOutput:Invalid Module Pointer", XMC_CCU8_IsVal
1411:G:/dt_g1_balancing_plate_wise20192020/XMC/Libraries/XMCLib/inc\xmc_ccu8.h ****   XMC_ASSERT("XMC_CCU8_SLICE_ParityCheckerEnableSliceOutput:Invalid Slice Number", (slice_number < 
1412:G:/dt_g1_balancing_plate_wise20192020/XMC/Libraries/XMCLib/inc\xmc_ccu8.h **** 
1413:G:/dt_g1_balancing_plate_wise20192020/XMC/Libraries/XMCLib/inc\xmc_ccu8.h ****   module->GPCHK |= (uint32_t)(((output & (1 << slice_number)) << CCU8_GPCHK_PCSEL0_Pos) |
1414:G:/dt_g1_balancing_plate_wise20192020/XMC/Libraries/XMCLib/inc\xmc_ccu8.h ****                               ((output & (2 << slice_number)) << CCU8_GPCHK_PCSEL1_Pos) |
1415:G:/dt_g1_balancing_plate_wise20192020/XMC/Libraries/XMCLib/inc\xmc_ccu8.h ****                               ((output & (4 << slice_number)) << CCU8_GPCHK_PCSEL2_Pos) |
1416:G:/dt_g1_balancing_plate_wise20192020/XMC/Libraries/XMCLib/inc\xmc_ccu8.h ****                               ((output & (8 << slice_number)) << CCU8_GPCHK_PCSEL3_Pos));
1417:G:/dt_g1_balancing_plate_wise20192020/XMC/Libraries/XMCLib/inc\xmc_ccu8.h **** }
1418:G:/dt_g1_balancing_plate_wise20192020/XMC/Libraries/XMCLib/inc\xmc_ccu8.h **** 
1419:G:/dt_g1_balancing_plate_wise20192020/XMC/Libraries/XMCLib/inc\xmc_ccu8.h **** /**
1420:G:/dt_g1_balancing_plate_wise20192020/XMC/Libraries/XMCLib/inc\xmc_ccu8.h ****  * @param module Constant pointer to CCU8 module
1421:G:/dt_g1_balancing_plate_wise20192020/XMC/Libraries/XMCLib/inc\xmc_ccu8.h ****  * @param slice_number Slice for which the clock should be disabled.
1422:G:/dt_g1_balancing_plate_wise20192020/XMC/Libraries/XMCLib/inc\xmc_ccu8.h ****  *                   Range: [0x0 to 0x3]
1423:G:/dt_g1_balancing_plate_wise20192020/XMC/Libraries/XMCLib/inc\xmc_ccu8.h ****  * @param output Slice output ::XMC_CCU8_SLICE_OUTPUT_t.
1424:G:/dt_g1_balancing_plate_wise20192020/XMC/Libraries/XMCLib/inc\xmc_ccu8.h ****  * @return <BR>
1425:G:/dt_g1_balancing_plate_wise20192020/XMC/Libraries/XMCLib/inc\xmc_ccu8.h ****  *    None<BR>
1426:G:/dt_g1_balancing_plate_wise20192020/XMC/Libraries/XMCLib/inc\xmc_ccu8.h ****  *
1427:G:/dt_g1_balancing_plate_wise20192020/XMC/Libraries/XMCLib/inc\xmc_ccu8.h ****  * \par<b>Description:</b><br>
1428:G:/dt_g1_balancing_plate_wise20192020/XMC/Libraries/XMCLib/inc\xmc_ccu8.h ****  * Enables slice outputs to be used to perform the parity check. 
1429:G:/dt_g1_balancing_plate_wise20192020/XMC/Libraries/XMCLib/inc\xmc_ccu8.h ****  *
1430:G:/dt_g1_balancing_plate_wise20192020/XMC/Libraries/XMCLib/inc\xmc_ccu8.h ****  * \par<b>Related APIs:</b><br>
1431:G:/dt_g1_balancing_plate_wise20192020/XMC/Libraries/XMCLib/inc\xmc_ccu8.h ****  * XMC_CCU8_StartParityChecker()<BR>  XMC_CCU8_SLICE_ParityCheckerEnableSliceOutput()<BR>
1432:G:/dt_g1_balancing_plate_wise20192020/XMC/Libraries/XMCLib/inc\xmc_ccu8.h ****  */
1433:G:/dt_g1_balancing_plate_wise20192020/XMC/Libraries/XMCLib/inc\xmc_ccu8.h **** __STATIC_INLINE void XMC_CCU8_SLICE_ParityCheckerDisableSliceOutput(XMC_CCU8_MODULE_t *const module
1434:G:/dt_g1_balancing_plate_wise20192020/XMC/Libraries/XMCLib/inc\xmc_ccu8.h **** {
1435:G:/dt_g1_balancing_plate_wise20192020/XMC/Libraries/XMCLib/inc\xmc_ccu8.h ****   XMC_ASSERT("XMC_CCU8_SLICE_ParityCheckerEnableSliceOutput:Invalid Module Pointer", XMC_CCU8_IsVal
1436:G:/dt_g1_balancing_plate_wise20192020/XMC/Libraries/XMCLib/inc\xmc_ccu8.h ****   XMC_ASSERT("XMC_CCU8_SLICE_ParityCheckerDisableSliceOutput:Invalid Slice Number", (slice_number <
1437:G:/dt_g1_balancing_plate_wise20192020/XMC/Libraries/XMCLib/inc\xmc_ccu8.h **** 
1438:G:/dt_g1_balancing_plate_wise20192020/XMC/Libraries/XMCLib/inc\xmc_ccu8.h ****   module->GPCHK &= (uint32_t)~(((output & (1 << slice_number)) << CCU8_GPCHK_PCSEL0_Pos) |
1439:G:/dt_g1_balancing_plate_wise20192020/XMC/Libraries/XMCLib/inc\xmc_ccu8.h ****                                ((output & (2 << slice_number)) << CCU8_GPCHK_PCSEL1_Pos) |
1440:G:/dt_g1_balancing_plate_wise20192020/XMC/Libraries/XMCLib/inc\xmc_ccu8.h ****                                ((output & (4 << slice_number)) << CCU8_GPCHK_PCSEL2_Pos) |
1441:G:/dt_g1_balancing_plate_wise20192020/XMC/Libraries/XMCLib/inc\xmc_ccu8.h ****                                ((output & (8 << slice_number)) << CCU8_GPCHK_PCSEL3_Pos));
1442:G:/dt_g1_balancing_plate_wise20192020/XMC/Libraries/XMCLib/inc\xmc_ccu8.h **** }
1443:G:/dt_g1_balancing_plate_wise20192020/XMC/Libraries/XMCLib/inc\xmc_ccu8.h **** 
1444:G:/dt_g1_balancing_plate_wise20192020/XMC/Libraries/XMCLib/inc\xmc_ccu8.h **** /**
1445:G:/dt_g1_balancing_plate_wise20192020/XMC/Libraries/XMCLib/inc\xmc_ccu8.h ****  * @param module Constant pointer to CCU8 module
1446:G:/dt_g1_balancing_plate_wise20192020/XMC/Libraries/XMCLib/inc\xmc_ccu8.h ****  * @param input signal controlling the delay between the change at the CCU8 outputs and effective c
1447:G:/dt_g1_balancing_plate_wise20192020/XMC/Libraries/XMCLib/inc\xmc_ccu8.h ****  * @return <BR>
1448:G:/dt_g1_balancing_plate_wise20192020/XMC/Libraries/XMCLib/inc\xmc_ccu8.h ****  *    None<BR>
1449:G:/dt_g1_balancing_plate_wise20192020/XMC/Libraries/XMCLib/inc\xmc_ccu8.h ****  *
1450:G:/dt_g1_balancing_plate_wise20192020/XMC/Libraries/XMCLib/inc\xmc_ccu8.h ****  * \par<b>Description:</b><br>
1451:G:/dt_g1_balancing_plate_wise20192020/XMC/Libraries/XMCLib/inc\xmc_ccu8.h ****  * Selects which signal is controlling the delay between the change at the CCU8 outputs and effecti
1452:G:/dt_g1_balancing_plate_wise20192020/XMC/Libraries/XMCLib/inc\xmc_ccu8.h ****  *
1453:G:/dt_g1_balancing_plate_wise20192020/XMC/Libraries/XMCLib/inc\xmc_ccu8.h ****  * \par<b>Related APIs:</b><br>
1454:G:/dt_g1_balancing_plate_wise20192020/XMC/Libraries/XMCLib/inc\xmc_ccu8.h ****  * XMC_CCU8_StartParityChecker()<BR>
1455:G:/dt_g1_balancing_plate_wise20192020/XMC/Libraries/XMCLib/inc\xmc_ccu8.h ****  */
1456:G:/dt_g1_balancing_plate_wise20192020/XMC/Libraries/XMCLib/inc\xmc_ccu8.h **** __STATIC_INLINE void XMC_CCU8_SLICE_ParityCheckerSetDelayInput(XMC_CCU8_MODULE_t *const module, con
1457:G:/dt_g1_balancing_plate_wise20192020/XMC/Libraries/XMCLib/inc\xmc_ccu8.h **** {
1458:G:/dt_g1_balancing_plate_wise20192020/XMC/Libraries/XMCLib/inc\xmc_ccu8.h ****   XMC_ASSERT("XMC_CCU8_SLICE_ParityCheckerSetDelayInput:Invalid Module Pointer", XMC_CCU8_IsValidMo
1459:G:/dt_g1_balancing_plate_wise20192020/XMC/Libraries/XMCLib/inc\xmc_ccu8.h ****   module->GPCHK = (module->GPCHK & (uint32_t)~CCU8_GPCHK_PCDS_Msk) | input;
1460:G:/dt_g1_balancing_plate_wise20192020/XMC/Libraries/XMCLib/inc\xmc_ccu8.h **** }
1461:G:/dt_g1_balancing_plate_wise20192020/XMC/Libraries/XMCLib/inc\xmc_ccu8.h **** 
1462:G:/dt_g1_balancing_plate_wise20192020/XMC/Libraries/XMCLib/inc\xmc_ccu8.h **** /**
1463:G:/dt_g1_balancing_plate_wise20192020/XMC/Libraries/XMCLib/inc\xmc_ccu8.h ****  * @param module Constant pointer to CCU8 module
1464:G:/dt_g1_balancing_plate_wise20192020/XMC/Libraries/XMCLib/inc\xmc_ccu8.h ****  * @param input signal contains the driver parity information ::XMC_CCU8_PARITY_CHECKER_DRIVER_INPU
1465:G:/dt_g1_balancing_plate_wise20192020/XMC/Libraries/XMCLib/inc\xmc_ccu8.h ****  * @return <BR>
1466:G:/dt_g1_balancing_plate_wise20192020/XMC/Libraries/XMCLib/inc\xmc_ccu8.h ****  *    None<BR>
1467:G:/dt_g1_balancing_plate_wise20192020/XMC/Libraries/XMCLib/inc\xmc_ccu8.h ****  *
1468:G:/dt_g1_balancing_plate_wise20192020/XMC/Libraries/XMCLib/inc\xmc_ccu8.h ****  * \par<b>Description:</b><br>
1469:G:/dt_g1_balancing_plate_wise20192020/XMC/Libraries/XMCLib/inc\xmc_ccu8.h ****  * Selects which signal contains the driver parity information.
1470:G:/dt_g1_balancing_plate_wise20192020/XMC/Libraries/XMCLib/inc\xmc_ccu8.h ****  * The signal must be selected throughout the input selector mux of each slice. The signal must be 
1471:G:/dt_g1_balancing_plate_wise20192020/XMC/Libraries/XMCLib/inc\xmc_ccu8.h ****  *
1472:G:/dt_g1_balancing_plate_wise20192020/XMC/Libraries/XMCLib/inc\xmc_ccu8.h ****  * \par<b>Related APIs:</b><br>
1473:G:/dt_g1_balancing_plate_wise20192020/XMC/Libraries/XMCLib/inc\xmc_ccu8.h ****  * XMC_CCU8_StartParityChecker(), XMC_CCU8_SLICE_SetInput()<BR>.
1474:G:/dt_g1_balancing_plate_wise20192020/XMC/Libraries/XMCLib/inc\xmc_ccu8.h ****  */
1475:G:/dt_g1_balancing_plate_wise20192020/XMC/Libraries/XMCLib/inc\xmc_ccu8.h **** __STATIC_INLINE void XMC_CCU8_SLICE_ParityCheckerSetDriverInput(XMC_CCU8_MODULE_t *const module, co
1476:G:/dt_g1_balancing_plate_wise20192020/XMC/Libraries/XMCLib/inc\xmc_ccu8.h **** {
1477:G:/dt_g1_balancing_plate_wise20192020/XMC/Libraries/XMCLib/inc\xmc_ccu8.h ****   XMC_ASSERT("XMC_CCU8_SLICE_ParityCheckerSetDelayInput:Invalid Module Pointer", XMC_CCU8_IsValidMo
1478:G:/dt_g1_balancing_plate_wise20192020/XMC/Libraries/XMCLib/inc\xmc_ccu8.h ****   module->GPCHK = (module->GPCHK & (uint32_t)~CCU8_GPCHK_PISEL_Msk) | input;
1479:G:/dt_g1_balancing_plate_wise20192020/XMC/Libraries/XMCLib/inc\xmc_ccu8.h **** }
1480:G:/dt_g1_balancing_plate_wise20192020/XMC/Libraries/XMCLib/inc\xmc_ccu8.h **** 
1481:G:/dt_g1_balancing_plate_wise20192020/XMC/Libraries/XMCLib/inc\xmc_ccu8.h **** /**
1482:G:/dt_g1_balancing_plate_wise20192020/XMC/Libraries/XMCLib/inc\xmc_ccu8.h ****  * @param module Constant pointer to CCU8 module
1483:G:/dt_g1_balancing_plate_wise20192020/XMC/Libraries/XMCLib/inc\xmc_ccu8.h ****  * @param type odd or even parity ::XMC_CCU8_PARITY_CHECKER_TYPE_t.
1484:G:/dt_g1_balancing_plate_wise20192020/XMC/Libraries/XMCLib/inc\xmc_ccu8.h ****  * @return <BR>
1485:G:/dt_g1_balancing_plate_wise20192020/XMC/Libraries/XMCLib/inc\xmc_ccu8.h ****  *    None<BR>
1486:G:/dt_g1_balancing_plate_wise20192020/XMC/Libraries/XMCLib/inc\xmc_ccu8.h ****  *
1487:G:/dt_g1_balancing_plate_wise20192020/XMC/Libraries/XMCLib/inc\xmc_ccu8.h ****  * \par<b>Description:</b><br>
1488:G:/dt_g1_balancing_plate_wise20192020/XMC/Libraries/XMCLib/inc\xmc_ccu8.h ****  * Selects if we have an odd or even parity.
1489:G:/dt_g1_balancing_plate_wise20192020/XMC/Libraries/XMCLib/inc\xmc_ccu8.h ****  *
1490:G:/dt_g1_balancing_plate_wise20192020/XMC/Libraries/XMCLib/inc\xmc_ccu8.h ****  * \par<b>Related APIs:</b><br>
1491:G:/dt_g1_balancing_plate_wise20192020/XMC/Libraries/XMCLib/inc\xmc_ccu8.h ****  * XMC_CCU8_StartParityChecker()<BR>.
1492:G:/dt_g1_balancing_plate_wise20192020/XMC/Libraries/XMCLib/inc\xmc_ccu8.h ****  */
1493:G:/dt_g1_balancing_plate_wise20192020/XMC/Libraries/XMCLib/inc\xmc_ccu8.h **** __STATIC_INLINE void XMC_CCU8_SLICE_ParityCheckerSetType(XMC_CCU8_MODULE_t *const module, const XMC
1494:G:/dt_g1_balancing_plate_wise20192020/XMC/Libraries/XMCLib/inc\xmc_ccu8.h **** {
1495:G:/dt_g1_balancing_plate_wise20192020/XMC/Libraries/XMCLib/inc\xmc_ccu8.h ****   XMC_ASSERT("XMC_CCU8_SLICE_ParityCheckerSetDelayInput:Invalid Module Pointer", XMC_CCU8_IsValidMo
1496:G:/dt_g1_balancing_plate_wise20192020/XMC/Libraries/XMCLib/inc\xmc_ccu8.h ****   module->GPCHK = (module->GPCHK & (uint32_t)~CCU8_GPCHK_PCTS_Msk) | type;
1497:G:/dt_g1_balancing_plate_wise20192020/XMC/Libraries/XMCLib/inc\xmc_ccu8.h **** }
1498:G:/dt_g1_balancing_plate_wise20192020/XMC/Libraries/XMCLib/inc\xmc_ccu8.h **** 
1499:G:/dt_g1_balancing_plate_wise20192020/XMC/Libraries/XMCLib/inc\xmc_ccu8.h **** 
1500:G:/dt_g1_balancing_plate_wise20192020/XMC/Libraries/XMCLib/inc\xmc_ccu8.h **** /**
1501:G:/dt_g1_balancing_plate_wise20192020/XMC/Libraries/XMCLib/inc\xmc_ccu8.h ****  * @param module Constant pointer to CCU8 module
1502:G:/dt_g1_balancing_plate_wise20192020/XMC/Libraries/XMCLib/inc\xmc_ccu8.h ****  * @return status of parity checker. If >0 then an error is dectected
1503:G:/dt_g1_balancing_plate_wise20192020/XMC/Libraries/XMCLib/inc\xmc_ccu8.h ****  *
1504:G:/dt_g1_balancing_plate_wise20192020/XMC/Libraries/XMCLib/inc\xmc_ccu8.h ****  * \par<b>Description:</b><br>
1505:G:/dt_g1_balancing_plate_wise20192020/XMC/Libraries/XMCLib/inc\xmc_ccu8.h ****  * Returns current value of the XOR chain.
1506:G:/dt_g1_balancing_plate_wise20192020/XMC/Libraries/XMCLib/inc\xmc_ccu8.h ****  *
1507:G:/dt_g1_balancing_plate_wise20192020/XMC/Libraries/XMCLib/inc\xmc_ccu8.h ****  * \par<b>Related APIs:</b><br>
1508:G:/dt_g1_balancing_plate_wise20192020/XMC/Libraries/XMCLib/inc\xmc_ccu8.h ****  * XMC_CCU8_StartParityChecker()<BR>
1509:G:/dt_g1_balancing_plate_wise20192020/XMC/Libraries/XMCLib/inc\xmc_ccu8.h ****  */
1510:G:/dt_g1_balancing_plate_wise20192020/XMC/Libraries/XMCLib/inc\xmc_ccu8.h **** __STATIC_INLINE uint32_t XMC_CCU8_SLICE_ParityCheckerGetStatus(XMC_CCU8_MODULE_t *const module)
1511:G:/dt_g1_balancing_plate_wise20192020/XMC/Libraries/XMCLib/inc\xmc_ccu8.h **** {
1512:G:/dt_g1_balancing_plate_wise20192020/XMC/Libraries/XMCLib/inc\xmc_ccu8.h ****   XMC_ASSERT("XMC_CCU8_SLICE_ParityCheckerSetDelayInput:Invalid Module Pointer", XMC_CCU8_IsValidMo
1513:G:/dt_g1_balancing_plate_wise20192020/XMC/Libraries/XMCLib/inc\xmc_ccu8.h ****   return (module->GPCHK & CCU8_GPCHK_PCST_Msk);
1514:G:/dt_g1_balancing_plate_wise20192020/XMC/Libraries/XMCLib/inc\xmc_ccu8.h **** }
1515:G:/dt_g1_balancing_plate_wise20192020/XMC/Libraries/XMCLib/inc\xmc_ccu8.h **** 
1516:G:/dt_g1_balancing_plate_wise20192020/XMC/Libraries/XMCLib/inc\xmc_ccu8.h **** /**
1517:G:/dt_g1_balancing_plate_wise20192020/XMC/Libraries/XMCLib/inc\xmc_ccu8.h ****  * @param slice Constant pointer to CC8 Slice
1518:G:/dt_g1_balancing_plate_wise20192020/XMC/Libraries/XMCLib/inc\xmc_ccu8.h ****  * @param out_path_msk configuration for output path selection.
1519:G:/dt_g1_balancing_plate_wise20192020/XMC/Libraries/XMCLib/inc\xmc_ccu8.h ****  *        combination of XMC_CCU8_OUT_PATH_t enum items can be used to create a mask.
1520:G:/dt_g1_balancing_plate_wise20192020/XMC/Libraries/XMCLib/inc\xmc_ccu8.h ****  * 
1521:G:/dt_g1_balancing_plate_wise20192020/XMC/Libraries/XMCLib/inc\xmc_ccu8.h ****  * @return <BR>
1522:G:/dt_g1_balancing_plate_wise20192020/XMC/Libraries/XMCLib/inc\xmc_ccu8.h ****  *    None<BR>
1523:G:/dt_g1_balancing_plate_wise20192020/XMC/Libraries/XMCLib/inc\xmc_ccu8.h ****  *
1524:G:/dt_g1_balancing_plate_wise20192020/XMC/Libraries/XMCLib/inc\xmc_ccu8.h ****  * \par<b>Description:</b><br>
1525:G:/dt_g1_balancing_plate_wise20192020/XMC/Libraries/XMCLib/inc\xmc_ccu8.h ****  * Configure the out the path of the two compare channels with specified ST signal, by configuring 
1526:G:/dt_g1_balancing_plate_wise20192020/XMC/Libraries/XMCLib/inc\xmc_ccu8.h ****  ^ CC8yCHC register.\n\n
1527:G:/dt_g1_balancing_plate_wise20192020/XMC/Libraries/XMCLib/inc\xmc_ccu8.h ****  * 
1528:G:/dt_g1_balancing_plate_wise20192020/XMC/Libraries/XMCLib/inc\xmc_ccu8.h ****  * For the two compare channels it is possible to select either direct ST signal or inverted ST sig
1529:G:/dt_g1_balancing_plate_wise20192020/XMC/Libraries/XMCLib/inc\xmc_ccu8.h ****  * \b out_path_msk is used to set the required out put path.
1530:G:/dt_g1_balancing_plate_wise20192020/XMC/Libraries/XMCLib/inc\xmc_ccu8.h ****  *
1531:G:/dt_g1_balancing_plate_wise20192020/XMC/Libraries/XMCLib/inc\xmc_ccu8.h ****  * \par<b>Related APIs:</b><br>
1532:G:/dt_g1_balancing_plate_wise20192020/XMC/Libraries/XMCLib/inc\xmc_ccu8.h ****  * None
1533:G:/dt_g1_balancing_plate_wise20192020/XMC/Libraries/XMCLib/inc\xmc_ccu8.h **** */
1534:G:/dt_g1_balancing_plate_wise20192020/XMC/Libraries/XMCLib/inc\xmc_ccu8.h **** void XMC_CCU8_SLICE_SetOutPath(XMC_CCU8_SLICE_t *const slice, const uint32_t out_path_msk);
1535:G:/dt_g1_balancing_plate_wise20192020/XMC/Libraries/XMCLib/inc\xmc_ccu8.h **** 
1536:G:/dt_g1_balancing_plate_wise20192020/XMC/Libraries/XMCLib/inc\xmc_ccu8.h **** /**
1537:G:/dt_g1_balancing_plate_wise20192020/XMC/Libraries/XMCLib/inc\xmc_ccu8.h ****  * @param slice Constant pointer to CC8 Slice
1538:G:/dt_g1_balancing_plate_wise20192020/XMC/Libraries/XMCLib/inc\xmc_ccu8.h ****  * @param event Map an External event to the External Start Function
1539:G:/dt_g1_balancing_plate_wise20192020/XMC/Libraries/XMCLib/inc\xmc_ccu8.h ****  * @param start_mode Behaviour of slice when the start function is activated
1540:G:/dt_g1_balancing_plate_wise20192020/XMC/Libraries/XMCLib/inc\xmc_ccu8.h ****  * @return <BR>
1541:G:/dt_g1_balancing_plate_wise20192020/XMC/Libraries/XMCLib/inc\xmc_ccu8.h ****  *    None<BR>
1542:G:/dt_g1_balancing_plate_wise20192020/XMC/Libraries/XMCLib/inc\xmc_ccu8.h ****  *
1543:G:/dt_g1_balancing_plate_wise20192020/XMC/Libraries/XMCLib/inc\xmc_ccu8.h ****  * \par<b>Description:</b><br>
1544:G:/dt_g1_balancing_plate_wise20192020/XMC/Libraries/XMCLib/inc\xmc_ccu8.h ****  *  Configures the Start Function of the slice, by configuring CC8yCMC.ENDS and CC8yTC.ENDM bits.\n
1545:G:/dt_g1_balancing_plate_wise20192020/XMC/Libraries/XMCLib/inc\xmc_ccu8.h ****  *  Start function is mapped with one of the 3 events. An external signal can control when a CC8 ti
1546:G:/dt_g1_balancing_plate_wise20192020/XMC/Libraries/XMCLib/inc\xmc_ccu8.h ****  *  Additionally, the behaviour of the slice upon activation of the start function is configured as
1547:G:/dt_g1_balancing_plate_wise20192020/XMC/Libraries/XMCLib/inc\xmc_ccu8.h ****  *
1548:G:/dt_g1_balancing_plate_wise20192020/XMC/Libraries/XMCLib/inc\xmc_ccu8.h ****  * \par<b>Related APIs:</b><br>
1549:G:/dt_g1_balancing_plate_wise20192020/XMC/Libraries/XMCLib/inc\xmc_ccu8.h ****  * XMC_CCU8_SLICE_StopConfig()<BR>  XMC_CCU8_SLICE_ConfigureEvent()<BR>  XMC_CCU8_SLICE_SetInput().
1550:G:/dt_g1_balancing_plate_wise20192020/XMC/Libraries/XMCLib/inc\xmc_ccu8.h ****  */
1551:G:/dt_g1_balancing_plate_wise20192020/XMC/Libraries/XMCLib/inc\xmc_ccu8.h **** void XMC_CCU8_SLICE_StartConfig(XMC_CCU8_SLICE_t *const slice,
1552:G:/dt_g1_balancing_plate_wise20192020/XMC/Libraries/XMCLib/inc\xmc_ccu8.h ****                                 const XMC_CCU8_SLICE_EVENT_t event,
1553:G:/dt_g1_balancing_plate_wise20192020/XMC/Libraries/XMCLib/inc\xmc_ccu8.h ****                                 const XMC_CCU8_SLICE_START_MODE_t start_mode);
1554:G:/dt_g1_balancing_plate_wise20192020/XMC/Libraries/XMCLib/inc\xmc_ccu8.h **** 
1555:G:/dt_g1_balancing_plate_wise20192020/XMC/Libraries/XMCLib/inc\xmc_ccu8.h **** /**
1556:G:/dt_g1_balancing_plate_wise20192020/XMC/Libraries/XMCLib/inc\xmc_ccu8.h ****  * @param slice Constant pointer to CC8 Slice
1557:G:/dt_g1_balancing_plate_wise20192020/XMC/Libraries/XMCLib/inc\xmc_ccu8.h ****  * @param event Map an External event to the External Stop Function
1558:G:/dt_g1_balancing_plate_wise20192020/XMC/Libraries/XMCLib/inc\xmc_ccu8.h ****  * @param end_mode Behaviour of slice when the stop function is activated
1559:G:/dt_g1_balancing_plate_wise20192020/XMC/Libraries/XMCLib/inc\xmc_ccu8.h ****  * @return <BR>
1560:G:/dt_g1_balancing_plate_wise20192020/XMC/Libraries/XMCLib/inc\xmc_ccu8.h ****  *    None<BR>
1561:G:/dt_g1_balancing_plate_wise20192020/XMC/Libraries/XMCLib/inc\xmc_ccu8.h ****  *
1562:G:/dt_g1_balancing_plate_wise20192020/XMC/Libraries/XMCLib/inc\xmc_ccu8.h ****  * \par<b>Description:</b><br>
1563:G:/dt_g1_balancing_plate_wise20192020/XMC/Libraries/XMCLib/inc\xmc_ccu8.h ****  * Configures the Stop function for the slice, by configuring CC8yCMC.STRTS and CC8yTC.STRM bits.\n
1564:G:/dt_g1_balancing_plate_wise20192020/XMC/Libraries/XMCLib/inc\xmc_ccu8.h ****  * Stop function is mapped with one of the 3 events. An external signal can control when a CCU8 tim
1565:G:/dt_g1_balancing_plate_wise20192020/XMC/Libraries/XMCLib/inc\xmc_ccu8.h ****  * Additionally, the behaviour of the slice upon activation of the stop function is configured as w
1566:G:/dt_g1_balancing_plate_wise20192020/XMC/Libraries/XMCLib/inc\xmc_ccu8.h ****  *
1567:G:/dt_g1_balancing_plate_wise20192020/XMC/Libraries/XMCLib/inc\xmc_ccu8.h ****  * \par<b>Related APIs:</b><br>
1568:G:/dt_g1_balancing_plate_wise20192020/XMC/Libraries/XMCLib/inc\xmc_ccu8.h ****  * XMC_CCU8_SLICE_StartConfig()<BR>  XMC_CCU8_SLICE_ConfigureEvent()<BR>  XMC_CCU8_SLICE_SetInput()
1569:G:/dt_g1_balancing_plate_wise20192020/XMC/Libraries/XMCLib/inc\xmc_ccu8.h ****  */
1570:G:/dt_g1_balancing_plate_wise20192020/XMC/Libraries/XMCLib/inc\xmc_ccu8.h **** void XMC_CCU8_SLICE_StopConfig(XMC_CCU8_SLICE_t *const slice,
1571:G:/dt_g1_balancing_plate_wise20192020/XMC/Libraries/XMCLib/inc\xmc_ccu8.h ****                                const XMC_CCU8_SLICE_EVENT_t event,
1572:G:/dt_g1_balancing_plate_wise20192020/XMC/Libraries/XMCLib/inc\xmc_ccu8.h ****                                const XMC_CCU8_SLICE_END_MODE_t end_mode);
1573:G:/dt_g1_balancing_plate_wise20192020/XMC/Libraries/XMCLib/inc\xmc_ccu8.h **** 
1574:G:/dt_g1_balancing_plate_wise20192020/XMC/Libraries/XMCLib/inc\xmc_ccu8.h **** /**
1575:G:/dt_g1_balancing_plate_wise20192020/XMC/Libraries/XMCLib/inc\xmc_ccu8.h ****  * @param slice Constant pointer to CC8 Slice
1576:G:/dt_g1_balancing_plate_wise20192020/XMC/Libraries/XMCLib/inc\xmc_ccu8.h ****  * @param event Map an External event to the External load Function
1577:G:/dt_g1_balancing_plate_wise20192020/XMC/Libraries/XMCLib/inc\xmc_ccu8.h ****  * @return <BR>
1578:G:/dt_g1_balancing_plate_wise20192020/XMC/Libraries/XMCLib/inc\xmc_ccu8.h ****  *    None<BR>
1579:G:/dt_g1_balancing_plate_wise20192020/XMC/Libraries/XMCLib/inc\xmc_ccu8.h ****  *
1580:G:/dt_g1_balancing_plate_wise20192020/XMC/Libraries/XMCLib/inc\xmc_ccu8.h ****  * \par<b>Description:</b><br>
1581:G:/dt_g1_balancing_plate_wise20192020/XMC/Libraries/XMCLib/inc\xmc_ccu8.h ****  *  Configures the Load Function for the slice, by configuring CC8yCMC.LDS bit.\n\n
1582:G:/dt_g1_balancing_plate_wise20192020/XMC/Libraries/XMCLib/inc\xmc_ccu8.h ****  *  Load function is mapped with one of the 3 events. Up on occurrence of the event,\n
1583:G:/dt_g1_balancing_plate_wise20192020/XMC/Libraries/XMCLib/inc\xmc_ccu8.h ****  *  if CC8yTCST.CDIR set to 0,CC8yTIMER register is reloaded with the value from compare channel 1 
1584:G:/dt_g1_balancing_plate_wise20192020/XMC/Libraries/XMCLib/inc\xmc_ccu8.h ****  *                            compare channel 2\n
1585:G:/dt_g1_balancing_plate_wise20192020/XMC/Libraries/XMCLib/inc\xmc_ccu8.h ****  *  if CC8yTCST.CDIR set to 1,CC8yTIMER register is reloaded with the value from period register\n
1586:G:/dt_g1_balancing_plate_wise20192020/XMC/Libraries/XMCLib/inc\xmc_ccu8.h ****  *  
1587:G:/dt_g1_balancing_plate_wise20192020/XMC/Libraries/XMCLib/inc\xmc_ccu8.h ****  *
1588:G:/dt_g1_balancing_plate_wise20192020/XMC/Libraries/XMCLib/inc\xmc_ccu8.h ****  * \par<b>Related APIs:</b><br>
1589:G:/dt_g1_balancing_plate_wise20192020/XMC/Libraries/XMCLib/inc\xmc_ccu8.h ****  *  XMC_CCU8_SLICE_ConfigureEvent()<BR>  XMC_CCU8_SLICE_SetInput().
1590:G:/dt_g1_balancing_plate_wise20192020/XMC/Libraries/XMCLib/inc\xmc_ccu8.h ****  */
1591:G:/dt_g1_balancing_plate_wise20192020/XMC/Libraries/XMCLib/inc\xmc_ccu8.h **** void XMC_CCU8_SLICE_LoadConfig(XMC_CCU8_SLICE_t *const slice, const XMC_CCU8_SLICE_EVENT_t event);
1592:G:/dt_g1_balancing_plate_wise20192020/XMC/Libraries/XMCLib/inc\xmc_ccu8.h **** 
1593:G:/dt_g1_balancing_plate_wise20192020/XMC/Libraries/XMCLib/inc\xmc_ccu8.h **** /**
1594:G:/dt_g1_balancing_plate_wise20192020/XMC/Libraries/XMCLib/inc\xmc_ccu8.h ****  * @param slice Constant pointer to CC8 Slice
1595:G:/dt_g1_balancing_plate_wise20192020/XMC/Libraries/XMCLib/inc\xmc_ccu8.h ****  * @param ch_num Select which compare channel value has to be loaded to the Timer register during e
1596:G:/dt_g1_balancing_plate_wise20192020/XMC/Libraries/XMCLib/inc\xmc_ccu8.h ****  * @return <BR>
1597:G:/dt_g1_balancing_plate_wise20192020/XMC/Libraries/XMCLib/inc\xmc_ccu8.h ****  *    None<BR>
1598:G:/dt_g1_balancing_plate_wise20192020/XMC/Libraries/XMCLib/inc\xmc_ccu8.h ****  *
1599:G:/dt_g1_balancing_plate_wise20192020/XMC/Libraries/XMCLib/inc\xmc_ccu8.h ****  * \par<b>Description:</b><br>
1600:G:/dt_g1_balancing_plate_wise20192020/XMC/Libraries/XMCLib/inc\xmc_ccu8.h ****  *  Up on occurrence of the external load event, if CC8yTCST.CDIR set to 0, CC8yTIMER register can 
1601:G:/dt_g1_balancing_plate_wise20192020/XMC/Libraries/XMCLib/inc\xmc_ccu8.h ****  *  with the value from compare channel 1 or compare channel 2\n
1602:G:/dt_g1_balancing_plate_wise20192020/XMC/Libraries/XMCLib/inc\xmc_ccu8.h ****  *  If CC8yTC.TLS is 0, compare channel 1 value is loaded to the CC8yTIMER register\n
1603:G:/dt_g1_balancing_plate_wise20192020/XMC/Libraries/XMCLib/inc\xmc_ccu8.h ****  *  If CC8yTC.TLS is 1, compare channel 2 value is loaded to the CC8yTIMER register\n
1604:G:/dt_g1_balancing_plate_wise20192020/XMC/Libraries/XMCLib/inc\xmc_ccu8.h ****  *
1605:G:/dt_g1_balancing_plate_wise20192020/XMC/Libraries/XMCLib/inc\xmc_ccu8.h ****  * \par<b>Related APIs:</b><br>
1606:G:/dt_g1_balancing_plate_wise20192020/XMC/Libraries/XMCLib/inc\xmc_ccu8.h ****  *  XMC_CCU8_SLICE_ConfigureEvent()<BR>  XMC_CCU8_SLICE_SetInput().
1607:G:/dt_g1_balancing_plate_wise20192020/XMC/Libraries/XMCLib/inc\xmc_ccu8.h ****  */
1608:G:/dt_g1_balancing_plate_wise20192020/XMC/Libraries/XMCLib/inc\xmc_ccu8.h **** void XMC_CCU8_SLICE_LoadSelector(XMC_CCU8_SLICE_t *const slice, const XMC_CCU8_SLICE_COMPARE_CHANNE
1609:G:/dt_g1_balancing_plate_wise20192020/XMC/Libraries/XMCLib/inc\xmc_ccu8.h **** 
1610:G:/dt_g1_balancing_plate_wise20192020/XMC/Libraries/XMCLib/inc\xmc_ccu8.h **** /**
1611:G:/dt_g1_balancing_plate_wise20192020/XMC/Libraries/XMCLib/inc\xmc_ccu8.h ****  * @param slice Constant pointer to CC8 Slice
1612:G:/dt_g1_balancing_plate_wise20192020/XMC/Libraries/XMCLib/inc\xmc_ccu8.h ****  * @param event Map an External event to the External Modulation Function
1613:G:/dt_g1_balancing_plate_wise20192020/XMC/Libraries/XMCLib/inc\xmc_ccu8.h ****  * @param mod_mode Desired Modulation mode
1614:G:/dt_g1_balancing_plate_wise20192020/XMC/Libraries/XMCLib/inc\xmc_ccu8.h ****  * @param channel Specify the channel(s) on which the modulation should be applied.
1615:G:/dt_g1_balancing_plate_wise20192020/XMC/Libraries/XMCLib/inc\xmc_ccu8.h ****  * @param synch_with_pwm Option to synchronize modulation with PWM start
1616:G:/dt_g1_balancing_plate_wise20192020/XMC/Libraries/XMCLib/inc\xmc_ccu8.h ****  *                       Pass \b true if the modulation needs to be synchronized with PWM signal.
1617:G:/dt_g1_balancing_plate_wise20192020/XMC/Libraries/XMCLib/inc\xmc_ccu8.h ****  * @return <BR>
1618:G:/dt_g1_balancing_plate_wise20192020/XMC/Libraries/XMCLib/inc\xmc_ccu8.h ****  *    None<BR>
1619:G:/dt_g1_balancing_plate_wise20192020/XMC/Libraries/XMCLib/inc\xmc_ccu8.h ****  *
1620:G:/dt_g1_balancing_plate_wise20192020/XMC/Libraries/XMCLib/inc\xmc_ccu8.h ****  * \par<b>Description:</b><br>
1621:G:/dt_g1_balancing_plate_wise20192020/XMC/Libraries/XMCLib/inc\xmc_ccu8.h ****  * Configures the Output Modulation Function of the slice, by configuring CC8yCMC.MOS, CC8yTC.EMT a
1622:G:/dt_g1_balancing_plate_wise20192020/XMC/Libraries/XMCLib/inc\xmc_ccu8.h ****  * CC8yTC.EMS bits.\n\n
1623:G:/dt_g1_balancing_plate_wise20192020/XMC/Libraries/XMCLib/inc\xmc_ccu8.h ****  * Modulation function is mapped with one of the 3 events. The output signal of the CCU can
1624:G:/dt_g1_balancing_plate_wise20192020/XMC/Libraries/XMCLib/inc\xmc_ccu8.h ****  * be modulated according to a external input.  Additionally, the behaviour of the slice upon activ
1625:G:/dt_g1_balancing_plate_wise20192020/XMC/Libraries/XMCLib/inc\xmc_ccu8.h ****  * of the modulation function is configured as well.
1626:G:/dt_g1_balancing_plate_wise20192020/XMC/Libraries/XMCLib/inc\xmc_ccu8.h ****  *
1627:G:/dt_g1_balancing_plate_wise20192020/XMC/Libraries/XMCLib/inc\xmc_ccu8.h ****  * \par<b>Related APIs:</b><br>
1628:G:/dt_g1_balancing_plate_wise20192020/XMC/Libraries/XMCLib/inc\xmc_ccu8.h ****  *  XMC_CCU8_SLICE_ConfigureEvent()<BR>  XMC_CCU8_SLICE_SetInput().
1629:G:/dt_g1_balancing_plate_wise20192020/XMC/Libraries/XMCLib/inc\xmc_ccu8.h ****  */
1630:G:/dt_g1_balancing_plate_wise20192020/XMC/Libraries/XMCLib/inc\xmc_ccu8.h **** void XMC_CCU8_SLICE_ModulationConfig(XMC_CCU8_SLICE_t *const slice,
1631:G:/dt_g1_balancing_plate_wise20192020/XMC/Libraries/XMCLib/inc\xmc_ccu8.h ****                                      const XMC_CCU8_SLICE_EVENT_t event,
1632:G:/dt_g1_balancing_plate_wise20192020/XMC/Libraries/XMCLib/inc\xmc_ccu8.h ****                                      const XMC_CCU8_SLICE_MODULATION_MODE_t mod_mode,
1633:G:/dt_g1_balancing_plate_wise20192020/XMC/Libraries/XMCLib/inc\xmc_ccu8.h ****                                      const XMC_CCU8_SLICE_MODULATION_CHANNEL_t channel, 
1634:G:/dt_g1_balancing_plate_wise20192020/XMC/Libraries/XMCLib/inc\xmc_ccu8.h ****                                      const bool synch_with_pwm
1635:G:/dt_g1_balancing_plate_wise20192020/XMC/Libraries/XMCLib/inc\xmc_ccu8.h ****                                      );
1636:G:/dt_g1_balancing_plate_wise20192020/XMC/Libraries/XMCLib/inc\xmc_ccu8.h **** 
1637:G:/dt_g1_balancing_plate_wise20192020/XMC/Libraries/XMCLib/inc\xmc_ccu8.h **** /**
1638:G:/dt_g1_balancing_plate_wise20192020/XMC/Libraries/XMCLib/inc\xmc_ccu8.h ****  * @param slice Constant pointer to CC8 Slice
1639:G:/dt_g1_balancing_plate_wise20192020/XMC/Libraries/XMCLib/inc\xmc_ccu8.h ****  * @param event Map an External event to the External Count Function
1640:G:/dt_g1_balancing_plate_wise20192020/XMC/Libraries/XMCLib/inc\xmc_ccu8.h ****  * @return <BR>
1641:G:/dt_g1_balancing_plate_wise20192020/XMC/Libraries/XMCLib/inc\xmc_ccu8.h ****  *    None<BR>
1642:G:/dt_g1_balancing_plate_wise20192020/XMC/Libraries/XMCLib/inc\xmc_ccu8.h ****  *
1643:G:/dt_g1_balancing_plate_wise20192020/XMC/Libraries/XMCLib/inc\xmc_ccu8.h ****  * \par<b>Description:</b><br>
1644:G:/dt_g1_balancing_plate_wise20192020/XMC/Libraries/XMCLib/inc\xmc_ccu8.h ****  * Configures the Count Function of the slice, by configuring CC8yCMC.CNTS bit.\n\n
1645:G:/dt_g1_balancing_plate_wise20192020/XMC/Libraries/XMCLib/inc\xmc_ccu8.h ****  * Count function is mapped with one of the 3 events. CCU8 slice can take an external
