   1              	 .syntax unified
   2              	 .cpu cortex-m4
   3              	 .eabi_attribute 27,3
   4              	 .fpu fpv4-sp-d16
   5              	 .eabi_attribute 20,1
   6              	 .eabi_attribute 21,1
   7              	 .eabi_attribute 23,3
   8              	 .eabi_attribute 24,1
   9              	 .eabi_attribute 25,1
  10              	 .eabi_attribute 26,1
  11              	 .eabi_attribute 30,4
  12              	 .eabi_attribute 34,1
  13              	 .eabi_attribute 18,4
  14              	 .thumb
  15              	 .file "xmc_i2s.c"
  16              	 .text
  17              	.Ltext0:
  18              	 .cfi_sections .debug_frame
  19              	 .section .text.XMC_I2S_CH_SetBaudrate,"ax",%progbits
  20              	 .align 1
  21              	 .global XMC_I2S_CH_SetBaudrate
  22              	 .thumb
  23              	 .thumb_func
  25              	XMC_I2S_CH_SetBaudrate:
  26              	.LFB258:
  27              	 .file 1 "../Libraries/XMCLib/src/xmc_i2s.c"
   1:../Libraries/XMCLib/src/xmc_i2s.c **** /**
   2:../Libraries/XMCLib/src/xmc_i2s.c ****  * @file xmc_i2s.c
   3:../Libraries/XMCLib/src/xmc_i2s.c ****  * @date 2019-05-07
   4:../Libraries/XMCLib/src/xmc_i2s.c ****  *
   5:../Libraries/XMCLib/src/xmc_i2s.c ****  * @cond
   6:../Libraries/XMCLib/src/xmc_i2s.c ****  **************************************************************************************************
   7:../Libraries/XMCLib/src/xmc_i2s.c ****  * XMClib v2.1.22 - XMC Peripheral Driver Library
   8:../Libraries/XMCLib/src/xmc_i2s.c ****  *
   9:../Libraries/XMCLib/src/xmc_i2s.c ****  * Copyright (c) 2015-2019, Infineon Technologies AG
  10:../Libraries/XMCLib/src/xmc_i2s.c ****  * All rights reserved.
  11:../Libraries/XMCLib/src/xmc_i2s.c ****  *
  12:../Libraries/XMCLib/src/xmc_i2s.c ****  * Redistribution and use in source and binary forms, with or without modification,are permitted pr
  13:../Libraries/XMCLib/src/xmc_i2s.c ****  * following conditions are met:
  14:../Libraries/XMCLib/src/xmc_i2s.c ****  *
  15:../Libraries/XMCLib/src/xmc_i2s.c ****  * Redistributions of source code must retain the above copyright notice, this list of conditions a
  16:../Libraries/XMCLib/src/xmc_i2s.c ****  * disclaimer.
  17:../Libraries/XMCLib/src/xmc_i2s.c ****  *
  18:../Libraries/XMCLib/src/xmc_i2s.c ****  * Redistributions in binary form must reproduce the above copyright notice, this list of condition
  19:../Libraries/XMCLib/src/xmc_i2s.c ****  * disclaimer in the documentation and/or other materials provided with the distribution.
  20:../Libraries/XMCLib/src/xmc_i2s.c ****  *
  21:../Libraries/XMCLib/src/xmc_i2s.c ****  * Neither the name of the copyright holders nor the names of its contributors may be used to endor
  22:../Libraries/XMCLib/src/xmc_i2s.c ****  * products derived from this software without specific prior written permission.
  23:../Libraries/XMCLib/src/xmc_i2s.c ****  *
  24:../Libraries/XMCLib/src/xmc_i2s.c ****  * THIS SOFTWARE IS PROVIDED BY THE COPYRIGHT HOLDERS AND CONTRIBUTORS "AS IS" AND ANY EXPRESS OR I
  25:../Libraries/XMCLib/src/xmc_i2s.c ****  * INCLUDING, BUT NOT LIMITED TO, THE IMPLIED WARRANTIES OF MERCHANTABILITY AND FITNESS FOR A PARTI
  26:../Libraries/XMCLib/src/xmc_i2s.c ****  * DISCLAIMED. IN NO EVENT SHALL THE COPYRIGHT HOLDER OR CONTRIBUTORS BE LIABLE  FOR ANY DIRECT, IN
  27:../Libraries/XMCLib/src/xmc_i2s.c ****  * SPECIAL, EXEMPLARY, OR CONSEQUENTIAL DAMAGES (INCLUDING, BUT NOT LIMITED TO, PROCUREMENT OF SUBS
  28:../Libraries/XMCLib/src/xmc_i2s.c ****  * SERVICES; LOSS OF USE, DATA, OR PROFITS; OR BUSINESS INTERRUPTION) HOWEVER CAUSED AND ON ANY THE
  29:../Libraries/XMCLib/src/xmc_i2s.c ****  * WHETHER IN CONTRACT, STRICT LIABILITY,OR TORT (INCLUDING NEGLIGENCE OR OTHERWISE) ARISING IN ANY
  30:../Libraries/XMCLib/src/xmc_i2s.c ****  * OF THIS SOFTWARE, EVEN IF ADVISED OF THE POSSIBILITY OF SUCH DAMAGE.
  31:../Libraries/XMCLib/src/xmc_i2s.c ****  *
  32:../Libraries/XMCLib/src/xmc_i2s.c ****  * To improve the quality of the software, users are encouraged to share modifications, enhancement
  33:../Libraries/XMCLib/src/xmc_i2s.c ****  * Infineon Technologies AG dave@infineon.com).
  34:../Libraries/XMCLib/src/xmc_i2s.c ****  **************************************************************************************************
  35:../Libraries/XMCLib/src/xmc_i2s.c ****  *
  36:../Libraries/XMCLib/src/xmc_i2s.c ****  * Change History
  37:../Libraries/XMCLib/src/xmc_i2s.c ****  * --------------
  38:../Libraries/XMCLib/src/xmc_i2s.c ****  *
  39:../Libraries/XMCLib/src/xmc_i2s.c ****  * 2015-08-21:
  40:../Libraries/XMCLib/src/xmc_i2s.c ****  *     - Initial <br>
  41:../Libraries/XMCLib/src/xmc_i2s.c ****  *
  42:../Libraries/XMCLib/src/xmc_i2s.c ****  * 2015-09-01:
  43:../Libraries/XMCLib/src/xmc_i2s.c ****  *     - Modified XMC_I2S_CH_EnableEvent() and XMC_I2S_CH_DisableEvent() for supporting multiple ev
  44:../Libraries/XMCLib/src/xmc_i2s.c ****  *
  45:../Libraries/XMCLib/src/xmc_i2s.c ****  * 2015-09-14:
  46:../Libraries/XMCLib/src/xmc_i2s.c ****  *     - Modified XMC_I2S_CH_SetSystemWordLength for supporting up to 63 system word length.
  47:../Libraries/XMCLib/src/xmc_i2s.c ****  *     - Removed parity configuration<br>
  48:../Libraries/XMCLib/src/xmc_i2s.c ****  *
  49:../Libraries/XMCLib/src/xmc_i2s.c ****  * 2015-09-28:
  50:../Libraries/XMCLib/src/xmc_i2s.c ****  *     - Fixed bugs in the XMC_I2S_CH_Init() and in the ASSERTs <br>
  51:../Libraries/XMCLib/src/xmc_i2s.c ****  *
  52:../Libraries/XMCLib/src/xmc_i2s.c ****  * 2015-11-04: 
  53:../Libraries/XMCLib/src/xmc_i2s.c ****  *     - Modified the check of XMC_USIC_CH_GetTransmitBufferStatus() in the XMC_I2S_CH_Transmit() A
  54:../Libraries/XMCLib/src/xmc_i2s.c ****  *
  55:../Libraries/XMCLib/src/xmc_i2s.c ****  * 2016-06-30:
  56:../Libraries/XMCLib/src/xmc_i2s.c ****  *     - Modified XMC_I2S_CH_Init:
  57:../Libraries/XMCLib/src/xmc_i2s.c ****  *       + change default passive level to 0
  58:../Libraries/XMCLib/src/xmc_i2s.c ****  *       + Call XMC_I2S_CH_SetSystemWordLength() to set the system frame length equal to the frame 
  59:../Libraries/XMCLib/src/xmc_i2s.c ****  *     - Modified XMC_I2S_CH_SetBaudrate:
  60:../Libraries/XMCLib/src/xmc_i2s.c ****  *       + Optional Master clock output signal generated with a fixed phase relation to SCLK.
  61:../Libraries/XMCLib/src/xmc_i2s.c ****  *
  62:../Libraries/XMCLib/src/xmc_i2s.c ****  * 2019-05-07:
  63:../Libraries/XMCLib/src/xmc_i2s.c ****  *     - Added XMC_I2S_CH_SetBaudrateEx() which allows to select between baudrate generator normal 
  64:../Libraries/XMCLib/src/xmc_i2s.c ****  *
  65:../Libraries/XMCLib/src/xmc_i2s.c ****  * @endcond
  66:../Libraries/XMCLib/src/xmc_i2s.c ****  *
  67:../Libraries/XMCLib/src/xmc_i2s.c ****  */
  68:../Libraries/XMCLib/src/xmc_i2s.c **** /**
  69:../Libraries/XMCLib/src/xmc_i2s.c ****  *
  70:../Libraries/XMCLib/src/xmc_i2s.c ****  * @brief I2S driver for XMC microcontroller family
  71:../Libraries/XMCLib/src/xmc_i2s.c ****  *
  72:../Libraries/XMCLib/src/xmc_i2s.c ****  */
  73:../Libraries/XMCLib/src/xmc_i2s.c **** /**************************************************************************************************
  74:../Libraries/XMCLib/src/xmc_i2s.c ****  * HEADER FILES
  75:../Libraries/XMCLib/src/xmc_i2s.c ****  **************************************************************************************************
  76:../Libraries/XMCLib/src/xmc_i2s.c **** 
  77:../Libraries/XMCLib/src/xmc_i2s.c **** #include <xmc_scu.h>
  78:../Libraries/XMCLib/src/xmc_i2s.c **** #include <xmc_i2s.h>
  79:../Libraries/XMCLib/src/xmc_i2s.c **** 
  80:../Libraries/XMCLib/src/xmc_i2s.c **** /**************************************************************************************************
  81:../Libraries/XMCLib/src/xmc_i2s.c ****  * MACROS
  82:../Libraries/XMCLib/src/xmc_i2s.c ****  **************************************************************************************************
  83:../Libraries/XMCLib/src/xmc_i2s.c **** /* To take into account the SCLK divider by 2 and the PPPEN divider (see Divider Mode Counter figur
  84:../Libraries/XMCLib/src/xmc_i2s.c **** #define XMC_I2S_CH_OVERSAMPLING (4UL)
  85:../Libraries/XMCLib/src/xmc_i2s.c **** 
  86:../Libraries/XMCLib/src/xmc_i2s.c **** /**************************************************************************************************
  87:../Libraries/XMCLib/src/xmc_i2s.c ****  * API IMPLEMENTATION
  88:../Libraries/XMCLib/src/xmc_i2s.c ****  **************************************************************************************************
  89:../Libraries/XMCLib/src/xmc_i2s.c **** 
  90:../Libraries/XMCLib/src/xmc_i2s.c **** /* Initializes the selected I2S channel with the config structure. */
  91:../Libraries/XMCLib/src/xmc_i2s.c **** void XMC_I2S_CH_Init(XMC_USIC_CH_t *const channel, const XMC_I2S_CH_CONFIG_t *const config)
  92:../Libraries/XMCLib/src/xmc_i2s.c **** {
  93:../Libraries/XMCLib/src/xmc_i2s.c ****   XMC_ASSERT("XMC_I2S_CH_Init: data_delayed_sclk_periods value not valid",(config->data_delayed_scl
  94:../Libraries/XMCLib/src/xmc_i2s.c **** 		                                                   (config->data_delayed_sclk_periods  < config->
  95:../Libraries/XMCLib/src/xmc_i2s.c ****   XMC_USIC_CH_Enable(channel);
  96:../Libraries/XMCLib/src/xmc_i2s.c **** 
  97:../Libraries/XMCLib/src/xmc_i2s.c ****   if(config->bus_mode == XMC_I2S_CH_BUS_MODE_MASTER)
  98:../Libraries/XMCLib/src/xmc_i2s.c ****   {
  99:../Libraries/XMCLib/src/xmc_i2s.c ****     /* Configure baud rate */
 100:../Libraries/XMCLib/src/xmc_i2s.c ****     (void)XMC_I2S_CH_SetBaudrateEx(channel, config->baudrate, config->normal_divider_mode);
 101:../Libraries/XMCLib/src/xmc_i2s.c ****   }
 102:../Libraries/XMCLib/src/xmc_i2s.c ****   /* Configuration of USIC Shift Control */
 103:../Libraries/XMCLib/src/xmc_i2s.c ****   /* Transmission Mode (TRM) = 1  */
 104:../Libraries/XMCLib/src/xmc_i2s.c ****   channel->SCTR = (uint32_t)(0x3UL << USIC_CH_SCTR_TRM_Pos) |
 105:../Libraries/XMCLib/src/xmc_i2s.c ****                   (uint32_t)((config->frame_length -1U) << USIC_CH_SCTR_FLE_Pos) |
 106:../Libraries/XMCLib/src/xmc_i2s.c ****                   (uint32_t)((config->data_bits - 1U) << USIC_CH_SCTR_WLE_Pos) |
 107:../Libraries/XMCLib/src/xmc_i2s.c ****                   USIC_CH_SCTR_SDIR_Msk;
 108:../Libraries/XMCLib/src/xmc_i2s.c **** 
 109:../Libraries/XMCLib/src/xmc_i2s.c ****   /* Configuration of USIC Transmit Control/Status Register */
 110:../Libraries/XMCLib/src/xmc_i2s.c ****   /* TBUF Data Enable (TDEN) = 1 */
 111:../Libraries/XMCLib/src/xmc_i2s.c ****   /* TBUF Data Single Shot Mode (TDSSM) = 1 */
 112:../Libraries/XMCLib/src/xmc_i2s.c ****   /* WA mode enabled(WAMD) = 1 */
 113:../Libraries/XMCLib/src/xmc_i2s.c ****   channel->TCSR = (uint32_t)((channel->TCSR & (~(USIC_CH_TCSR_WLEMD_Msk |
 114:../Libraries/XMCLib/src/xmc_i2s.c ****                                                  USIC_CH_TCSR_SELMD_Msk |
 115:../Libraries/XMCLib/src/xmc_i2s.c ****                                                  USIC_CH_TCSR_FLEMD_Msk |
 116:../Libraries/XMCLib/src/xmc_i2s.c ****                                                  USIC_CH_TCSR_HPCMD_Msk))) |
 117:../Libraries/XMCLib/src/xmc_i2s.c **** 				  USIC_CH_TCSR_WAMD_Msk |
 118:../Libraries/XMCLib/src/xmc_i2s.c ****                   (0x01UL  << USIC_CH_TCSR_TDEN_Pos) |
 119:../Libraries/XMCLib/src/xmc_i2s.c ****                   USIC_CH_TCSR_TDSSM_Msk);
 120:../Libraries/XMCLib/src/xmc_i2s.c **** 
 121:../Libraries/XMCLib/src/xmc_i2s.c ****   if(config->bus_mode == XMC_I2S_CH_BUS_MODE_MASTER)
 122:../Libraries/XMCLib/src/xmc_i2s.c ****   {
 123:../Libraries/XMCLib/src/xmc_i2s.c ****     /* Configuration of Protocol Control Register */
 124:../Libraries/XMCLib/src/xmc_i2s.c ****     channel->PCR_IISMode = (uint32_t)USIC_CH_PCR_IISMode_WAGEN_Msk;
 125:../Libraries/XMCLib/src/xmc_i2s.c ****   }
 126:../Libraries/XMCLib/src/xmc_i2s.c **** 
 127:../Libraries/XMCLib/src/xmc_i2s.c ****   /* Configuration of Protocol Control Register */
 128:../Libraries/XMCLib/src/xmc_i2s.c ****   channel->PCR_IISMode |= (uint32_t)(USIC_CH_PCR_IISMode_DTEN_Msk |
 129:../Libraries/XMCLib/src/xmc_i2s.c ****                           (uint32_t)config->wa_inversion) |
 130:../Libraries/XMCLib/src/xmc_i2s.c ****                           ((uint32_t)((uint32_t)config->data_delayed_sclk_periods - 1U) << USIC_CH_
 131:../Libraries/XMCLib/src/xmc_i2s.c **** 
 132:../Libraries/XMCLib/src/xmc_i2s.c ****   XMC_I2S_CH_SetSystemWordLength(channel, config->frame_length);
 133:../Libraries/XMCLib/src/xmc_i2s.c **** 
 134:../Libraries/XMCLib/src/xmc_i2s.c ****   /* Clear protocol status */
 135:../Libraries/XMCLib/src/xmc_i2s.c ****   channel->PSCR = 0xFFFFFFFFUL;
 136:../Libraries/XMCLib/src/xmc_i2s.c **** }
 137:../Libraries/XMCLib/src/xmc_i2s.c **** 
 138:../Libraries/XMCLib/src/xmc_i2s.c **** 
 139:../Libraries/XMCLib/src/xmc_i2s.c **** XMC_I2S_CH_STATUS_t XMC_I2S_CH_SetBaudrate(XMC_USIC_CH_t *const channel, const uint32_t rate)
 140:../Libraries/XMCLib/src/xmc_i2s.c **** {
  28              	 .loc 1 140 0
  29              	 .cfi_startproc
  30              	 
  31              	 
  32              	.LVL0:
  33 0000 38B5     	 push {r3,r4,r5,lr}
  34              	.LCFI0:
  35              	 .cfi_def_cfa_offset 16
  36              	 .cfi_offset 3,-16
  37              	 .cfi_offset 4,-12
  38              	 .cfi_offset 5,-8
  39              	 .cfi_offset 14,-4
  40              	 .loc 1 140 0
  41 0002 0D46     	 mov r5,r1
  42 0004 0446     	 mov r4,r0
 141:../Libraries/XMCLib/src/xmc_i2s.c ****   XMC_I2S_CH_STATUS_t status;
 142:../Libraries/XMCLib/src/xmc_i2s.c **** 
 143:../Libraries/XMCLib/src/xmc_i2s.c ****   status = XMC_I2S_CH_STATUS_ERROR;
 144:../Libraries/XMCLib/src/xmc_i2s.c **** 
 145:../Libraries/XMCLib/src/xmc_i2s.c ****   if (rate <= (XMC_SCU_CLOCK_GetPeripheralClockFrequency() >> 1U))
  43              	 .loc 1 145 0
  44 0006 FFF7FEFF 	 bl XMC_SCU_CLOCK_GetPeripheralClockFrequency
  45              	.LVL1:
  46 000a B5EB500F 	 cmp r5,r0,lsr#1
  47 000e 01D9     	 bls .L2
  48              	.L4:
 143:../Libraries/XMCLib/src/xmc_i2s.c **** 
  49              	 .loc 1 143 0
  50 0010 0120     	 movs r0,#1
  51 0012 38BD     	 pop {r3,r4,r5,pc}
  52              	.LVL2:
  53              	.L2:
 146:../Libraries/XMCLib/src/xmc_i2s.c ****   {
 147:../Libraries/XMCLib/src/xmc_i2s.c ****     if (XMC_USIC_CH_SetBaudrate(channel, rate, XMC_I2S_CH_OVERSAMPLING) == XMC_USIC_CH_STATUS_OK)
  54              	 .loc 1 147 0
  55 0014 2046     	 mov r0,r4
  56 0016 2946     	 mov r1,r5
  57 0018 0422     	 movs r2,#4
  58 001a FFF7FEFF 	 bl XMC_USIC_CH_SetBaudrate
  59              	.LVL3:
  60 001e 0028     	 cmp r0,#0
  61 0020 F6D1     	 bne .L4
 148:../Libraries/XMCLib/src/xmc_i2s.c ****     {
 149:../Libraries/XMCLib/src/xmc_i2s.c ****       channel->BRG = (uint32_t)((channel->BRG & ~(USIC_CH_BRG_CTQSEL_Msk)) |
  62              	 .loc 1 149 0
  63 0022 6369     	 ldr r3,[r4,#20]
 150:../Libraries/XMCLib/src/xmc_i2s.c ****                      (0x2UL << USIC_CH_BRG_CTQSEL_Pos)) |
  64              	 .loc 1 150 0
  65 0024 23F0D003 	 bic r3,r3,#208
  66 0028 43F09003 	 orr r3,r3,#144
 149:../Libraries/XMCLib/src/xmc_i2s.c ****                      (0x2UL << USIC_CH_BRG_CTQSEL_Pos)) |
  67              	 .loc 1 149 0
  68 002c 6361     	 str r3,[r4,#20]
  69              	.LVL4:
 151:../Libraries/XMCLib/src/xmc_i2s.c ****                      USIC_CH_BRG_PPPEN_Msk;
 152:../Libraries/XMCLib/src/xmc_i2s.c **** 
 153:../Libraries/XMCLib/src/xmc_i2s.c ****       status = XMC_I2S_CH_STATUS_OK;
 154:../Libraries/XMCLib/src/xmc_i2s.c ****     }
 155:../Libraries/XMCLib/src/xmc_i2s.c **** 
 156:../Libraries/XMCLib/src/xmc_i2s.c ****   }
 157:../Libraries/XMCLib/src/xmc_i2s.c ****   return status;
 158:../Libraries/XMCLib/src/xmc_i2s.c **** }
  70              	 .loc 1 158 0
  71 002e 38BD     	 pop {r3,r4,r5,pc}
  72              	 .cfi_endproc
  73              	.LFE258:
  75              	 .section .text.XMC_I2S_CH_SetBaudrateEx,"ax",%progbits
  76              	 .align 1
  77              	 .global XMC_I2S_CH_SetBaudrateEx
  78              	 .thumb
  79              	 .thumb_func
  81              	XMC_I2S_CH_SetBaudrateEx:
  82              	.LFB259:
 159:../Libraries/XMCLib/src/xmc_i2s.c **** 
 160:../Libraries/XMCLib/src/xmc_i2s.c **** XMC_I2S_CH_STATUS_t XMC_I2S_CH_SetBaudrateEx(XMC_USIC_CH_t *const channel, const uint32_t rate, boo
 161:../Libraries/XMCLib/src/xmc_i2s.c **** {
  83              	 .loc 1 161 0
  84              	 .cfi_startproc
  85              	 
  86              	 
  87              	.LVL5:
  88 0000 70B5     	 push {r4,r5,r6,lr}
  89              	.LCFI1:
  90              	 .cfi_def_cfa_offset 16
  91              	 .cfi_offset 4,-16
  92              	 .cfi_offset 5,-12
  93              	 .cfi_offset 6,-8
  94              	 .cfi_offset 14,-4
  95              	 .loc 1 161 0
  96 0002 0D46     	 mov r5,r1
  97 0004 0446     	 mov r4,r0
  98 0006 1646     	 mov r6,r2
 162:../Libraries/XMCLib/src/xmc_i2s.c ****   XMC_USIC_CH_STATUS_t status;
 163:../Libraries/XMCLib/src/xmc_i2s.c **** 
 164:../Libraries/XMCLib/src/xmc_i2s.c ****   if (rate <= (XMC_SCU_CLOCK_GetPeripheralClockFrequency() >> 1U))
  99              	 .loc 1 164 0
 100 0008 FFF7FEFF 	 bl XMC_SCU_CLOCK_GetPeripheralClockFrequency
 101              	.LVL6:
 102 000c B5EB500F 	 cmp r5,r0,lsr#1
 103 0010 10D8     	 bhi .L10
 104              	.LVL7:
 105              	.LBB12:
 106              	.LBB13:
 165:../Libraries/XMCLib/src/xmc_i2s.c ****   {
 166:../Libraries/XMCLib/src/xmc_i2s.c ****     if (normal_divider_mode)
 167:../Libraries/XMCLib/src/xmc_i2s.c ****     {
 168:../Libraries/XMCLib/src/xmc_i2s.c ****       status = XMC_USIC_CH_SetBaudrateEx(channel, rate, XMC_I2S_CH_OVERSAMPLING);
 107              	 .loc 1 168 0
 108 0012 2046     	 mov r0,r4
 109 0014 2946     	 mov r1,r5
 110 0016 0422     	 movs r2,#4
 166:../Libraries/XMCLib/src/xmc_i2s.c ****     {
 111              	 .loc 1 166 0
 112 0018 16B1     	 cbz r6,.L8
 113              	 .loc 1 168 0
 114 001a FFF7FEFF 	 bl XMC_USIC_CH_SetBaudrateEx
 115              	.LVL8:
 116 001e 01E0     	 b .L9
 117              	.LVL9:
 118              	.L8:
 169:../Libraries/XMCLib/src/xmc_i2s.c ****     }
 170:../Libraries/XMCLib/src/xmc_i2s.c ****     else
 171:../Libraries/XMCLib/src/xmc_i2s.c ****     {
 172:../Libraries/XMCLib/src/xmc_i2s.c ****       status = XMC_USIC_CH_SetBaudrate(channel, rate, XMC_I2S_CH_OVERSAMPLING);
 119              	 .loc 1 172 0
 120 0020 FFF7FEFF 	 bl XMC_USIC_CH_SetBaudrate
 121              	.LVL10:
 122              	.L9:
 173:../Libraries/XMCLib/src/xmc_i2s.c ****     }
 174:../Libraries/XMCLib/src/xmc_i2s.c ****     
 175:../Libraries/XMCLib/src/xmc_i2s.c ****     if (status == XMC_USIC_CH_STATUS_OK)
 123              	 .loc 1 175 0
 124 0024 38B9     	 cbnz r0,.L7
 176:../Libraries/XMCLib/src/xmc_i2s.c ****     {
 177:../Libraries/XMCLib/src/xmc_i2s.c ****       channel->BRG = (uint32_t)((channel->BRG & ~(USIC_CH_BRG_CTQSEL_Msk)) |
 125              	 .loc 1 177 0
 126 0026 6369     	 ldr r3,[r4,#20]
 178:../Libraries/XMCLib/src/xmc_i2s.c ****                      (0x2UL << USIC_CH_BRG_CTQSEL_Pos)) |
 127              	 .loc 1 178 0
 128 0028 23F0D003 	 bic r3,r3,#208
 129 002c 43F09003 	 orr r3,r3,#144
 177:../Libraries/XMCLib/src/xmc_i2s.c ****                      (0x2UL << USIC_CH_BRG_CTQSEL_Pos)) |
 130              	 .loc 1 177 0
 131 0030 6361     	 str r3,[r4,#20]
 132 0032 70BD     	 pop {r4,r5,r6,pc}
 133              	.LVL11:
 134              	.L10:
 135              	.LBE13:
 136              	.LBE12:
 179:../Libraries/XMCLib/src/xmc_i2s.c ****                      USIC_CH_BRG_PPPEN_Msk;
 180:../Libraries/XMCLib/src/xmc_i2s.c ****     }
 181:../Libraries/XMCLib/src/xmc_i2s.c ****   }
 182:../Libraries/XMCLib/src/xmc_i2s.c ****   else
 183:../Libraries/XMCLib/src/xmc_i2s.c ****   {
 184:../Libraries/XMCLib/src/xmc_i2s.c **** 	  status = XMC_USIC_CH_STATUS_ERROR;
 137              	 .loc 1 184 0
 138 0034 0120     	 movs r0,#1
 139              	.L7:
 140              	.LVL12:
 185:../Libraries/XMCLib/src/xmc_i2s.c ****   }
 186:../Libraries/XMCLib/src/xmc_i2s.c **** 
 187:../Libraries/XMCLib/src/xmc_i2s.c ****   return (XMC_I2S_CH_STATUS_t)status;
 188:../Libraries/XMCLib/src/xmc_i2s.c **** }
 141              	 .loc 1 188 0
 142 0036 70BD     	 pop {r4,r5,r6,pc}
 143              	 .cfi_endproc
 144              	.LFE259:
 146              	 .section .text.XMC_I2S_CH_SetSystemWordLength,"ax",%progbits
 147              	 .align 1
 148              	 .global XMC_I2S_CH_SetSystemWordLength
 149              	 .thumb
 150              	 .thumb_func
 152              	XMC_I2S_CH_SetSystemWordLength:
 153              	.LFB260:
 189:../Libraries/XMCLib/src/xmc_i2s.c **** 
 190:../Libraries/XMCLib/src/xmc_i2s.c **** void XMC_I2S_CH_SetSystemWordLength(XMC_USIC_CH_t *const channel,uint32_t sclk_cycles_system_word_l
 191:../Libraries/XMCLib/src/xmc_i2s.c **** {
 154              	 .loc 1 191 0
 155              	 .cfi_startproc
 156              	 
 157              	 
 158              	.LVL13:
 159 0000 0122     	 movs r2,#1
 160 0002 2DE9F047 	 push {r4,r5,r6,r7,r8,r9,r10,lr}
 161              	.LCFI2:
 162              	 .cfi_def_cfa_offset 32
 163              	 .cfi_offset 4,-32
 164              	 .cfi_offset 5,-28
 165              	 .cfi_offset 6,-24
 166              	 .cfi_offset 7,-20
 167              	 .cfi_offset 8,-16
 168              	 .cfi_offset 9,-12
 169              	 .cfi_offset 10,-8
 170              	 .cfi_offset 14,-4
 192:../Libraries/XMCLib/src/xmc_i2s.c ****   uint32_t sclk_cycles_system_word_length_temp;
 193:../Libraries/XMCLib/src/xmc_i2s.c ****   uint8_t dctq_temp;
 194:../Libraries/XMCLib/src/xmc_i2s.c ****   uint8_t pctq_temp;
 195:../Libraries/XMCLib/src/xmc_i2s.c ****   uint8_t dctq = 1U;
 196:../Libraries/XMCLib/src/xmc_i2s.c ****   uint8_t pctq = 1U;
 171              	 .loc 1 196 0
 172 0006 1346     	 mov r3,r2
 197:../Libraries/XMCLib/src/xmc_i2s.c ****   uint8_t best_error = 64U;
 173              	 .loc 1 197 0
 174 0008 4FF04009 	 mov r9,#64
 195:../Libraries/XMCLib/src/xmc_i2s.c ****   uint8_t pctq = 1U;
 175              	 .loc 1 195 0
 176 000c 1746     	 mov r7,r2
 177              	.LVL14:
 178              	.L12:
 179 000e 5FFA82FE 	 uxtb lr,r2
 180              	.LVL15:
 181 0012 5FFA81F8 	 uxtb r8,r1
 182 0016 CEF1000C 	 rsb ip,lr,#0
 183 001a CEEB0805 	 rsb r5,lr,r8
 184 001e 5FFA8CFC 	 uxtb ip,ip
 185 0022 EDB2     	 uxtb r5,r5
 191:../Libraries/XMCLib/src/xmc_i2s.c ****   uint32_t sclk_cycles_system_word_length_temp;
 186              	 .loc 1 191 0
 187 0024 9246     	 mov r10,r2
 188 0026 0124     	 movs r4,#1
 189              	.LVL16:
 190              	.L16:
 198:../Libraries/XMCLib/src/xmc_i2s.c ****   uint8_t error;
 199:../Libraries/XMCLib/src/xmc_i2s.c ****   XMC_ASSERT("XMC_I2S_CH_Init: data_delayed_sclk_periods value not valid",(sclk_cycles_system_word_
 200:../Libraries/XMCLib/src/xmc_i2s.c **** 
 201:../Libraries/XMCLib/src/xmc_i2s.c **** 
 202:../Libraries/XMCLib/src/xmc_i2s.c ****   for (dctq_temp =1U; dctq_temp < 33U ; dctq_temp++)
 203:../Libraries/XMCLib/src/xmc_i2s.c ****   {
 204:../Libraries/XMCLib/src/xmc_i2s.c ****     for (pctq_temp =1U; pctq_temp < 5U ; pctq_temp++)
 205:../Libraries/XMCLib/src/xmc_i2s.c ****     {
 206:../Libraries/XMCLib/src/xmc_i2s.c ****       sclk_cycles_system_word_length_temp = ((uint32_t)dctq_temp) * ((uint32_t)pctq_temp);
 207:../Libraries/XMCLib/src/xmc_i2s.c ****       if(sclk_cycles_system_word_length_temp == sclk_cycles_system_word_length)
 191              	 .loc 1 207 0
 192 0028 8A45     	 cmp r10,r1
 193 002a 13D0     	 beq .L18
 194 002c 8ABF     	 itet hi
 195 002e C8EB0A06 	 rsbhi r6,r8,r10
 208:../Libraries/XMCLib/src/xmc_i2s.c ****       {
 209:../Libraries/XMCLib/src/xmc_i2s.c ****         dctq = dctq_temp;
 210:../Libraries/XMCLib/src/xmc_i2s.c ****         pctq = pctq_temp;
 211:../Libraries/XMCLib/src/xmc_i2s.c ****         break;
 212:../Libraries/XMCLib/src/xmc_i2s.c ****       }
 213:../Libraries/XMCLib/src/xmc_i2s.c ****       if (sclk_cycles_system_word_length_temp > sclk_cycles_system_word_length)
 214:../Libraries/XMCLib/src/xmc_i2s.c ****       {
 215:../Libraries/XMCLib/src/xmc_i2s.c ****         error = (uint8_t)(sclk_cycles_system_word_length_temp  - sclk_cycles_system_word_length);
 216:../Libraries/XMCLib/src/xmc_i2s.c ****       }
 217:../Libraries/XMCLib/src/xmc_i2s.c ****       else
 218:../Libraries/XMCLib/src/xmc_i2s.c ****       {
 219:../Libraries/XMCLib/src/xmc_i2s.c ****         error = (uint8_t)(sclk_cycles_system_word_length - sclk_cycles_system_word_length_temp);
 196              	 .loc 1 219 0
 197 0032 2E46     	 movls r6,r5
 198 0034 F6B2     	 uxtbhi r6,r6
 199              	.LVL17:
 220:../Libraries/XMCLib/src/xmc_i2s.c ****       }
 221:../Libraries/XMCLib/src/xmc_i2s.c **** 
 222:../Libraries/XMCLib/src/xmc_i2s.c ****       if(error < best_error)
 200              	 .loc 1 222 0
 201 0036 4E45     	 cmp r6,r9
 202 0038 38BF     	 it cc
 203 003a 2346     	 movcc r3,r4
 204:../Libraries/XMCLib/src/xmc_i2s.c ****     {
 204              	 .loc 1 204 0
 205 003c 04F10104 	 add r4,r4,#1
 206              	.LVL18:
 207 0040 E4B2     	 uxtb r4,r4
 208              	 .loc 1 222 0
 209 0042 3CBF     	 itt cc
 210 0044 B146     	 movcc r9,r6
 211              	.LVL19:
 212 0046 7746     	 movcc r7,lr
 213              	.LVL20:
 214 0048 6544     	 add r5,r5,ip
 204:../Libraries/XMCLib/src/xmc_i2s.c ****     {
 215              	 .loc 1 204 0
 216 004a 052C     	 cmp r4,#5
 217 004c 9244     	 add r10,r10,r2
 218              	.LVL21:
 219 004e EDB2     	 uxtb r5,r5
 220 0050 EAD1     	 bne .L16
 221 0052 01E0     	 b .L13
 222              	.LVL22:
 223              	.L18:
 210:../Libraries/XMCLib/src/xmc_i2s.c ****         break;
 224              	 .loc 1 210 0
 225 0054 2346     	 mov r3,r4
 226 0056 7746     	 mov r7,lr
 227              	.LVL23:
 228              	.L13:
 229 0058 0132     	 adds r2,r2,#1
 230              	.LVL24:
 202:../Libraries/XMCLib/src/xmc_i2s.c ****   {
 231              	 .loc 1 202 0 discriminator 2
 232 005a 212A     	 cmp r2,#33
 233 005c D7D1     	 bne .L12
 223:../Libraries/XMCLib/src/xmc_i2s.c ****       {
 224:../Libraries/XMCLib/src/xmc_i2s.c ****          best_error = error;
 225:../Libraries/XMCLib/src/xmc_i2s.c ****          dctq =  dctq_temp;
 226:../Libraries/XMCLib/src/xmc_i2s.c ****          pctq = pctq_temp;
 227:../Libraries/XMCLib/src/xmc_i2s.c ****       }
 228:../Libraries/XMCLib/src/xmc_i2s.c ****     }
 229:../Libraries/XMCLib/src/xmc_i2s.c ****   }
 230:../Libraries/XMCLib/src/xmc_i2s.c ****   channel->BRG = (uint32_t)((channel->BRG & ~((uint32_t)(USIC_CH_BRG_DCTQ_Msk | 
 234              	 .loc 1 230 0
 235 005e 4269     	 ldr r2,[r0,#20]
 231:../Libraries/XMCLib/src/xmc_i2s.c ****                                                          USIC_CH_BRG_PCTQ_Msk))) |
 232:../Libraries/XMCLib/src/xmc_i2s.c ****                  (uint32_t)((uint32_t)((uint32_t)((uint32_t)dctq- 1U) << USIC_CH_BRG_DCTQ_Pos) |
 233:../Libraries/XMCLib/src/xmc_i2s.c ****                             (uint32_t)((uint32_t)((uint32_t)pctq- 1U) << USIC_CH_BRG_PCTQ_Pos)));
 236              	 .loc 1 233 0
 237 0060 013B     	 subs r3,r3,#1
 232:../Libraries/XMCLib/src/xmc_i2s.c ****                             (uint32_t)((uint32_t)((uint32_t)pctq- 1U) << USIC_CH_BRG_PCTQ_Pos)));
 238              	 .loc 1 232 0
 239 0062 791E     	 subs r1,r7,#1
 240              	.LVL25:
 241              	 .loc 1 233 0
 242 0064 1B02     	 lsls r3,r3,#8
 232:../Libraries/XMCLib/src/xmc_i2s.c ****                             (uint32_t)((uint32_t)((uint32_t)pctq- 1U) << USIC_CH_BRG_PCTQ_Pos)));
 243              	 .loc 1 232 0
 244 0066 43EA8123 	 orr r3,r3,r1,lsl#10
 230:../Libraries/XMCLib/src/xmc_i2s.c ****                                                          USIC_CH_BRG_PCTQ_Msk))) |
 245              	 .loc 1 230 0
 246 006a 22F4FE42 	 bic r2,r2,#32512
 247 006e 1343     	 orrs r3,r3,r2
 248 0070 4361     	 str r3,[r0,#20]
 249 0072 BDE8F087 	 pop {r4,r5,r6,r7,r8,r9,r10,pc}
 250              	 .cfi_endproc
 251              	.LFE260:
 253              	 .section .text.XMC_I2S_CH_Init,"ax",%progbits
 254              	 .align 1
 255              	 .global XMC_I2S_CH_Init
 256              	 .thumb
 257              	 .thumb_func
 259              	XMC_I2S_CH_Init:
 260              	.LFB257:
  92:../Libraries/XMCLib/src/xmc_i2s.c ****   XMC_ASSERT("XMC_I2S_CH_Init: data_delayed_sclk_periods value not valid",(config->data_delayed_scl
 261              	 .loc 1 92 0
 262              	 .cfi_startproc
 263              	 
 264              	 
 265              	.LVL26:
 266 0000 38B5     	 push {r3,r4,r5,lr}
 267              	.LCFI3:
 268              	 .cfi_def_cfa_offset 16
 269              	 .cfi_offset 3,-16
 270              	 .cfi_offset 4,-12
 271              	 .cfi_offset 5,-8
 272              	 .cfi_offset 14,-4
  92:../Libraries/XMCLib/src/xmc_i2s.c ****   XMC_ASSERT("XMC_I2S_CH_Init: data_delayed_sclk_periods value not valid",(config->data_delayed_scl
 273              	 .loc 1 92 0
 274 0002 0D46     	 mov r5,r1
 275 0004 0446     	 mov r4,r0
  95:../Libraries/XMCLib/src/xmc_i2s.c **** 
 276              	 .loc 1 95 0
 277 0006 FFF7FEFF 	 bl XMC_USIC_CH_Enable
 278              	.LVL27:
  97:../Libraries/XMCLib/src/xmc_i2s.c ****   {
 279              	 .loc 1 97 0
 280 000a 6B7A     	 ldrb r3,[r5,#9]
 281 000c 23B9     	 cbnz r3,.L22
 100:../Libraries/XMCLib/src/xmc_i2s.c ****   }
 282              	 .loc 1 100 0
 283 000e 2046     	 mov r0,r4
 284 0010 2968     	 ldr r1,[r5]
 285 0012 2A79     	 ldrb r2,[r5,#4]
 286 0014 FFF7FEFF 	 bl XMC_I2S_CH_SetBaudrateEx
 287              	.LVL28:
 288              	.L22:
 105:../Libraries/XMCLib/src/xmc_i2s.c ****                   (uint32_t)((config->data_bits - 1U) << USIC_CH_SCTR_WLE_Pos) |
 289              	 .loc 1 105 0
 290 0018 AB79     	 ldrb r3,[r5,#6]
 291 001a 5A1E     	 subs r2,r3,#1
 106:../Libraries/XMCLib/src/xmc_i2s.c ****                   USIC_CH_SCTR_SDIR_Msk;
 292              	 .loc 1 106 0
 293 001c 6B79     	 ldrb r3,[r5,#5]
 294 001e 013B     	 subs r3,r3,#1
 295 0020 1B06     	 lsls r3,r3,#24
 105:../Libraries/XMCLib/src/xmc_i2s.c ****                   (uint32_t)((config->data_bits - 1U) << USIC_CH_SCTR_WLE_Pos) |
 296              	 .loc 1 105 0
 297 0022 43EA0243 	 orr r3,r3,r2,lsl#16
 106:../Libraries/XMCLib/src/xmc_i2s.c ****                   USIC_CH_SCTR_SDIR_Msk;
 298              	 .loc 1 106 0
 299 0026 43F44073 	 orr r3,r3,#768
 300 002a 43F00103 	 orr r3,r3,#1
 104:../Libraries/XMCLib/src/xmc_i2s.c ****                   (uint32_t)((config->frame_length -1U) << USIC_CH_SCTR_FLE_Pos) |
 301              	 .loc 1 104 0
 302 002e 6363     	 str r3,[r4,#52]
 113:../Libraries/XMCLib/src/xmc_i2s.c ****                                                  USIC_CH_TCSR_SELMD_Msk |
 303              	 .loc 1 113 0
 304 0030 A36B     	 ldr r3,[r4,#56]
 305 0032 23F4A363 	 bic r3,r3,#1304
 306 0036 23F00703 	 bic r3,r3,#7
 307 003a 43F4A163 	 orr r3,r3,#1288
 308 003e A363     	 str r3,[r4,#56]
 121:../Libraries/XMCLib/src/xmc_i2s.c ****   {
 309              	 .loc 1 121 0
 310 0040 6B7A     	 ldrb r3,[r5,#9]
 311 0042 0BB9     	 cbnz r3,.L23
 124:../Libraries/XMCLib/src/xmc_i2s.c ****   }
 312              	 .loc 1 124 0
 313 0044 0123     	 movs r3,#1
 314 0046 E363     	 str r3,[r4,#60]
 315              	.L23:
 128:../Libraries/XMCLib/src/xmc_i2s.c ****                           (uint32_t)config->wa_inversion) |
 316              	 .loc 1 128 0
 317 0048 2B7A     	 ldrb r3,[r5,#8]
 318 004a E16B     	 ldr r1,[r4,#60]
 319 004c 43F00203 	 orr r3,r3,#2
 320 0050 43EA0102 	 orr r2,r3,r1
 130:../Libraries/XMCLib/src/xmc_i2s.c **** 
 321              	 .loc 1 130 0
 322 0054 EB79     	 ldrb r3,[r5,#7]
 323 0056 013B     	 subs r3,r3,#1
 128:../Libraries/XMCLib/src/xmc_i2s.c ****                           (uint32_t)config->wa_inversion) |
 324              	 .loc 1 128 0
 325 0058 42EA0343 	 orr r3,r2,r3,lsl#16
 326 005c E363     	 str r3,[r4,#60]
 132:../Libraries/XMCLib/src/xmc_i2s.c **** 
 327              	 .loc 1 132 0
 328 005e 2046     	 mov r0,r4
 329 0060 A979     	 ldrb r1,[r5,#6]
 330 0062 FFF7FEFF 	 bl XMC_I2S_CH_SetSystemWordLength
 331              	.LVL29:
 135:../Libraries/XMCLib/src/xmc_i2s.c **** }
 332              	 .loc 1 135 0
 333 0066 4FF0FF33 	 mov r3,#-1
 334 006a E364     	 str r3,[r4,#76]
 335 006c 38BD     	 pop {r3,r4,r5,pc}
 336              	 .cfi_endproc
 337              	.LFE257:
 339              	 .section .text.XMC_I2S_CH_Transmit,"ax",%progbits
 340              	 .align 1
 341              	 .global XMC_I2S_CH_Transmit
 342              	 .thumb
 343              	 .thumb_func
 345              	XMC_I2S_CH_Transmit:
 346              	.LFB261:
 234:../Libraries/XMCLib/src/xmc_i2s.c **** }
 235:../Libraries/XMCLib/src/xmc_i2s.c **** 
 236:../Libraries/XMCLib/src/xmc_i2s.c **** /* Puts the data into FIFO if FIFO mode is enabled or else into standard buffers, by setting the pr
 237:../Libraries/XMCLib/src/xmc_i2s.c **** void XMC_I2S_CH_Transmit(XMC_USIC_CH_t *const channel, const uint16_t data, const XMC_I2S_CH_CHANNE
 238:../Libraries/XMCLib/src/xmc_i2s.c **** {
 347              	 .loc 1 238 0
 348              	 .cfi_startproc
 349              	 
 350              	 
 351              	 
 352              	.LVL30:
 239:../Libraries/XMCLib/src/xmc_i2s.c ****   /* Check FIFO size */
 240:../Libraries/XMCLib/src/xmc_i2s.c ****   if ((channel->TBCTR & USIC_CH_TBCTR_SIZE_Msk) == 0U)
 353              	 .loc 1 240 0
 354 0000 D0F80831 	 ldr r3,[r0,#264]
 355 0004 13F0E06F 	 tst r3,#117440512
 356 0008 09D1     	 bne .L25
 357              	.L26:
 358              	.LVL31:
 359              	.LBB14:
 360              	.LBB15:
 361              	 .file 2 "G:/DT/dt_g1_balancing_plate_wise20192020/XMC/Libraries/XMCLib/inc/xmc_usic.h"
   1:G:/DT/dt_g1_balancing_plate_wise20192020/XMC/Libraries/XMCLib/inc\xmc_usic.h **** /**
   2:G:/DT/dt_g1_balancing_plate_wise20192020/XMC/Libraries/XMCLib/inc\xmc_usic.h ****  * @file xmc_usic.h
   3:G:/DT/dt_g1_balancing_plate_wise20192020/XMC/Libraries/XMCLib/inc\xmc_usic.h ****  * @date 2019-05-07
   4:G:/DT/dt_g1_balancing_plate_wise20192020/XMC/Libraries/XMCLib/inc\xmc_usic.h ****  *
   5:G:/DT/dt_g1_balancing_plate_wise20192020/XMC/Libraries/XMCLib/inc\xmc_usic.h ****  * @cond
   6:G:/DT/dt_g1_balancing_plate_wise20192020/XMC/Libraries/XMCLib/inc\xmc_usic.h ****  **************************************************************************************************
   7:G:/DT/dt_g1_balancing_plate_wise20192020/XMC/Libraries/XMCLib/inc\xmc_usic.h ****  * XMClib v2.1.22 - XMC Peripheral Driver Library 
   8:G:/DT/dt_g1_balancing_plate_wise20192020/XMC/Libraries/XMCLib/inc\xmc_usic.h ****  *
   9:G:/DT/dt_g1_balancing_plate_wise20192020/XMC/Libraries/XMCLib/inc\xmc_usic.h ****  * Copyright (c) 2015-2019, Infineon Technologies AG
  10:G:/DT/dt_g1_balancing_plate_wise20192020/XMC/Libraries/XMCLib/inc\xmc_usic.h ****  * All rights reserved.                        
  11:G:/DT/dt_g1_balancing_plate_wise20192020/XMC/Libraries/XMCLib/inc\xmc_usic.h ****  *                                             
  12:G:/DT/dt_g1_balancing_plate_wise20192020/XMC/Libraries/XMCLib/inc\xmc_usic.h ****  * Redistribution and use in source and binary forms, with or without modification,are permitted pr
  13:G:/DT/dt_g1_balancing_plate_wise20192020/XMC/Libraries/XMCLib/inc\xmc_usic.h ****  * following conditions are met:   
  14:G:/DT/dt_g1_balancing_plate_wise20192020/XMC/Libraries/XMCLib/inc\xmc_usic.h ****  *                                                                              
  15:G:/DT/dt_g1_balancing_plate_wise20192020/XMC/Libraries/XMCLib/inc\xmc_usic.h ****  * Redistributions of source code must retain the above copyright notice, this list of conditions a
  16:G:/DT/dt_g1_balancing_plate_wise20192020/XMC/Libraries/XMCLib/inc\xmc_usic.h ****  * disclaimer.                        
  17:G:/DT/dt_g1_balancing_plate_wise20192020/XMC/Libraries/XMCLib/inc\xmc_usic.h ****  * 
  18:G:/DT/dt_g1_balancing_plate_wise20192020/XMC/Libraries/XMCLib/inc\xmc_usic.h ****  * Redistributions in binary form must reproduce the above copyright notice, this list of condition
  19:G:/DT/dt_g1_balancing_plate_wise20192020/XMC/Libraries/XMCLib/inc\xmc_usic.h ****  * disclaimer in the documentation and/or other materials provided with the distribution.          
  20:G:/DT/dt_g1_balancing_plate_wise20192020/XMC/Libraries/XMCLib/inc\xmc_usic.h ****  * 
  21:G:/DT/dt_g1_balancing_plate_wise20192020/XMC/Libraries/XMCLib/inc\xmc_usic.h ****  * Neither the name of the copyright holders nor the names of its contributors may be used to endor
  22:G:/DT/dt_g1_balancing_plate_wise20192020/XMC/Libraries/XMCLib/inc\xmc_usic.h ****  * products derived from this software without specific prior written permission.                  
  23:G:/DT/dt_g1_balancing_plate_wise20192020/XMC/Libraries/XMCLib/inc\xmc_usic.h ****  *                                                                              
  24:G:/DT/dt_g1_balancing_plate_wise20192020/XMC/Libraries/XMCLib/inc\xmc_usic.h ****  * THIS SOFTWARE IS PROVIDED BY THE COPYRIGHT HOLDERS AND CONTRIBUTORS "AS IS" AND ANY EXPRESS OR I
  25:G:/DT/dt_g1_balancing_plate_wise20192020/XMC/Libraries/XMCLib/inc\xmc_usic.h ****  * INCLUDING, BUT NOT LIMITED TO, THE IMPLIED WARRANTIES OF MERCHANTABILITY AND FITNESS FOR A PARTI
  26:G:/DT/dt_g1_balancing_plate_wise20192020/XMC/Libraries/XMCLib/inc\xmc_usic.h ****  * DISCLAIMED. IN NO EVENT SHALL THE COPYRIGHT HOLDER OR CONTRIBUTORS BE LIABLE  FOR ANY DIRECT, IN
  27:G:/DT/dt_g1_balancing_plate_wise20192020/XMC/Libraries/XMCLib/inc\xmc_usic.h ****  * SPECIAL, EXEMPLARY, OR CONSEQUENTIAL DAMAGES (INCLUDING, BUT NOT LIMITED TO, PROCUREMENT OF SUBS
  28:G:/DT/dt_g1_balancing_plate_wise20192020/XMC/Libraries/XMCLib/inc\xmc_usic.h ****  * SERVICES; LOSS OF USE, DATA, OR PROFITS; OR BUSINESS INTERRUPTION) HOWEVER CAUSED AND ON ANY THE
  29:G:/DT/dt_g1_balancing_plate_wise20192020/XMC/Libraries/XMCLib/inc\xmc_usic.h ****  * WHETHER IN CONTRACT, STRICT LIABILITY,OR TORT (INCLUDING NEGLIGENCE OR OTHERWISE) ARISING IN ANY
  30:G:/DT/dt_g1_balancing_plate_wise20192020/XMC/Libraries/XMCLib/inc\xmc_usic.h ****  * OF THIS SOFTWARE, EVEN IF ADVISED OF THE POSSIBILITY OF SUCH DAMAGE.                            
  31:G:/DT/dt_g1_balancing_plate_wise20192020/XMC/Libraries/XMCLib/inc\xmc_usic.h ****  *                                                                              
  32:G:/DT/dt_g1_balancing_plate_wise20192020/XMC/Libraries/XMCLib/inc\xmc_usic.h ****  * To improve the quality of the software, users are encouraged to share modifications, enhancement
  33:G:/DT/dt_g1_balancing_plate_wise20192020/XMC/Libraries/XMCLib/inc\xmc_usic.h ****  * Infineon Technologies AG dave@infineon.com).                                                    
  34:G:/DT/dt_g1_balancing_plate_wise20192020/XMC/Libraries/XMCLib/inc\xmc_usic.h ****  **************************************************************************************************
  35:G:/DT/dt_g1_balancing_plate_wise20192020/XMC/Libraries/XMCLib/inc\xmc_usic.h ****  *
  36:G:/DT/dt_g1_balancing_plate_wise20192020/XMC/Libraries/XMCLib/inc\xmc_usic.h ****  * Change History
  37:G:/DT/dt_g1_balancing_plate_wise20192020/XMC/Libraries/XMCLib/inc\xmc_usic.h ****  * --------------
  38:G:/DT/dt_g1_balancing_plate_wise20192020/XMC/Libraries/XMCLib/inc\xmc_usic.h ****  *
  39:G:/DT/dt_g1_balancing_plate_wise20192020/XMC/Libraries/XMCLib/inc\xmc_usic.h ****  * 2015-02-20:
  40:G:/DT/dt_g1_balancing_plate_wise20192020/XMC/Libraries/XMCLib/inc\xmc_usic.h ****  *     - Initial draft<br>
  41:G:/DT/dt_g1_balancing_plate_wise20192020/XMC/Libraries/XMCLib/inc\xmc_usic.h ****  *     - Documentation improved <br>
  42:G:/DT/dt_g1_balancing_plate_wise20192020/XMC/Libraries/XMCLib/inc\xmc_usic.h ****  *
  43:G:/DT/dt_g1_balancing_plate_wise20192020/XMC/Libraries/XMCLib/inc\xmc_usic.h ****  * 2015-05-08:
  44:G:/DT/dt_g1_balancing_plate_wise20192020/XMC/Libraries/XMCLib/inc\xmc_usic.h ****  *     - Added XMC_USIC_CH_SetInputTriggerCombinationMode() and XMC_USIC_CH_SetTransmitBufferStatus
  45:G:/DT/dt_g1_balancing_plate_wise20192020/XMC/Libraries/XMCLib/inc\xmc_usic.h ****  *      
  46:G:/DT/dt_g1_balancing_plate_wise20192020/XMC/Libraries/XMCLib/inc\xmc_usic.h ****  * 2015-06-20:
  47:G:/DT/dt_g1_balancing_plate_wise20192020/XMC/Libraries/XMCLib/inc\xmc_usic.h ****  *     - Removed version macros and declaration of GetDriverVersion API
  48:G:/DT/dt_g1_balancing_plate_wise20192020/XMC/Libraries/XMCLib/inc\xmc_usic.h ****  * 
  49:G:/DT/dt_g1_balancing_plate_wise20192020/XMC/Libraries/XMCLib/inc\xmc_usic.h ****  * 2015-08-17:
  50:G:/DT/dt_g1_balancing_plate_wise20192020/XMC/Libraries/XMCLib/inc\xmc_usic.h ****  *     - Bug fixed in XMC_USIC_CH_SetTransmitBufferStatus API. OR operator removed.
  51:G:/DT/dt_g1_balancing_plate_wise20192020/XMC/Libraries/XMCLib/inc\xmc_usic.h ****  *
  52:G:/DT/dt_g1_balancing_plate_wise20192020/XMC/Libraries/XMCLib/inc\xmc_usic.h ****  * 2015-08-24:
  53:G:/DT/dt_g1_balancing_plate_wise20192020/XMC/Libraries/XMCLib/inc\xmc_usic.h ****  *     - Added APIs for enabling/disabling delay compensation XMC_USIC_CH_DisableDelayCompensation(
  54:G:/DT/dt_g1_balancing_plate_wise20192020/XMC/Libraries/XMCLib/inc\xmc_usic.h ****  *       XMC_USIC_CH_DisableDelayCompensation()
  55:G:/DT/dt_g1_balancing_plate_wise20192020/XMC/Libraries/XMCLib/inc\xmc_usic.h ****  *
  56:G:/DT/dt_g1_balancing_plate_wise20192020/XMC/Libraries/XMCLib/inc\xmc_usic.h ****  * 2015-08-25:
  57:G:/DT/dt_g1_balancing_plate_wise20192020/XMC/Libraries/XMCLib/inc\xmc_usic.h ****  *     - Added APIs for defining if the data shift unit input is derived
  58:G:/DT/dt_g1_balancing_plate_wise20192020/XMC/Libraries/XMCLib/inc\xmc_usic.h ****  *       from the input data path DXn or from the selected protocol pre-processors: XMC_USIC_CH_Con
  59:G:/DT/dt_g1_balancing_plate_wise20192020/XMC/Libraries/XMCLib/inc\xmc_usic.h ****  *       and XMC_USIC_CH_ConnectInputDataShiftToDataInput()
  60:G:/DT/dt_g1_balancing_plate_wise20192020/XMC/Libraries/XMCLib/inc\xmc_usic.h ****  *
  61:G:/DT/dt_g1_balancing_plate_wise20192020/XMC/Libraries/XMCLib/inc\xmc_usic.h ****  * 2015-08-27:
  62:G:/DT/dt_g1_balancing_plate_wise20192020/XMC/Libraries/XMCLib/inc\xmc_usic.h ****  *     - Fixed bug in XMC_USIC_CH_BRG_CLOCK_SOURCE_DX1T value.
  63:G:/DT/dt_g1_balancing_plate_wise20192020/XMC/Libraries/XMCLib/inc\xmc_usic.h ****  *     - Added APIs for direct TBUF access: XMC_USIC_CH_WriteToTBUF() and XMC_USIC_CH_WriteToTBUFTC
  64:G:/DT/dt_g1_balancing_plate_wise20192020/XMC/Libraries/XMCLib/inc\xmc_usic.h ****  *     - Added APIs for external input for BRG configuration:XMC_USIC_CH_ConfigExternalInputSignalT
  65:G:/DT/dt_g1_balancing_plate_wise20192020/XMC/Libraries/XMCLib/inc\xmc_usic.h ****  *
  66:G:/DT/dt_g1_balancing_plate_wise20192020/XMC/Libraries/XMCLib/inc\xmc_usic.h ****  * 2015-08-28:
  67:G:/DT/dt_g1_balancing_plate_wise20192020/XMC/Libraries/XMCLib/inc\xmc_usic.h ****  *     - Added API for enabling the transfer trigger unit to set bit TCSR.TE if the trigger signal 
  68:G:/DT/dt_g1_balancing_plate_wise20192020/XMC/Libraries/XMCLib/inc\xmc_usic.h ****  *       Clear to Send (CTS) signal: XMC_USIC_CH_EnableTBUFDataValidTrigger() and XMC_USIC_CH_Disab
  69:G:/DT/dt_g1_balancing_plate_wise20192020/XMC/Libraries/XMCLib/inc\xmc_usic.h ****  *
  70:G:/DT/dt_g1_balancing_plate_wise20192020/XMC/Libraries/XMCLib/inc\xmc_usic.h ****  * 2016-03-09:
  71:G:/DT/dt_g1_balancing_plate_wise20192020/XMC/Libraries/XMCLib/inc\xmc_usic.h ****  *     - Optimization of write only registers
  72:G:/DT/dt_g1_balancing_plate_wise20192020/XMC/Libraries/XMCLib/inc\xmc_usic.h ****  *
  73:G:/DT/dt_g1_balancing_plate_wise20192020/XMC/Libraries/XMCLib/inc\xmc_usic.h ****  * 2016-04-10:
  74:G:/DT/dt_g1_balancing_plate_wise20192020/XMC/Libraries/XMCLib/inc\xmc_usic.h ****  *     - Added an API to put the data into FIFO when hardware port control is enabled: XMC_USIC_CH_
  75:G:/DT/dt_g1_balancing_plate_wise20192020/XMC/Libraries/XMCLib/inc\xmc_usic.h ****  *
  76:G:/DT/dt_g1_balancing_plate_wise20192020/XMC/Libraries/XMCLib/inc\xmc_usic.h ****  * 2017-02-10:
  77:G:/DT/dt_g1_balancing_plate_wise20192020/XMC/Libraries/XMCLib/inc\xmc_usic.h ****  *     - Added XMC_USIC_CH_SetShiftDirection() to allow selection of shift direction of the data wo
  78:G:/DT/dt_g1_balancing_plate_wise20192020/XMC/Libraries/XMCLib/inc\xmc_usic.h ****  *     - Added XMC_USIC_CH_GetCaptureTimerValue() and XMC_USIC_CH_SetFractionalDivider()
  79:G:/DT/dt_g1_balancing_plate_wise20192020/XMC/Libraries/XMCLib/inc\xmc_usic.h ****  *
  80:G:/DT/dt_g1_balancing_plate_wise20192020/XMC/Libraries/XMCLib/inc\xmc_usic.h ****  * 2017-09-08:
  81:G:/DT/dt_g1_balancing_plate_wise20192020/XMC/Libraries/XMCLib/inc\xmc_usic.h ****  *     - Fixed value of macro XMC_USIC_CH_SHIFT_DIRECTION_MSB_FIRST used in XMC_USIC_CH_SetShiftDir
  82:G:/DT/dt_g1_balancing_plate_wise20192020/XMC/Libraries/XMCLib/inc\xmc_usic.h ****  *
  83:G:/DT/dt_g1_balancing_plate_wise20192020/XMC/Libraries/XMCLib/inc\xmc_usic.h ****  * 2018-09-29:
  84:G:/DT/dt_g1_balancing_plate_wise20192020/XMC/Libraries/XMCLib/inc\xmc_usic.h ****  *     - Added XMC_USIC_CH_SetBaudrateEx which uses the integer divider instead of the fractional d
  85:G:/DT/dt_g1_balancing_plate_wise20192020/XMC/Libraries/XMCLib/inc\xmc_usic.h ****  * 
  86:G:/DT/dt_g1_balancing_plate_wise20192020/XMC/Libraries/XMCLib/inc\xmc_usic.h ****  * 2019-05-07:
  87:G:/DT/dt_g1_balancing_plate_wise20192020/XMC/Libraries/XMCLib/inc\xmc_usic.h ****  *     - Added XMC_USIC_CH_GetBaudrate(), XMC_USIC_CH_GetSCLKFrequency() and XMC_USIC_CH_GetMCLKFre
  88:G:/DT/dt_g1_balancing_plate_wise20192020/XMC/Libraries/XMCLib/inc\xmc_usic.h ****  *
  89:G:/DT/dt_g1_balancing_plate_wise20192020/XMC/Libraries/XMCLib/inc\xmc_usic.h ****  * @endcond
  90:G:/DT/dt_g1_balancing_plate_wise20192020/XMC/Libraries/XMCLib/inc\xmc_usic.h ****  *
  91:G:/DT/dt_g1_balancing_plate_wise20192020/XMC/Libraries/XMCLib/inc\xmc_usic.h ****  */
  92:G:/DT/dt_g1_balancing_plate_wise20192020/XMC/Libraries/XMCLib/inc\xmc_usic.h **** 
  93:G:/DT/dt_g1_balancing_plate_wise20192020/XMC/Libraries/XMCLib/inc\xmc_usic.h **** #ifndef XMC_USIC_H
  94:G:/DT/dt_g1_balancing_plate_wise20192020/XMC/Libraries/XMCLib/inc\xmc_usic.h **** #define XMC_USIC_H
  95:G:/DT/dt_g1_balancing_plate_wise20192020/XMC/Libraries/XMCLib/inc\xmc_usic.h **** /*******************************************************************************
  96:G:/DT/dt_g1_balancing_plate_wise20192020/XMC/Libraries/XMCLib/inc\xmc_usic.h ****  * HEADER FILES
  97:G:/DT/dt_g1_balancing_plate_wise20192020/XMC/Libraries/XMCLib/inc\xmc_usic.h ****  *******************************************************************************/
  98:G:/DT/dt_g1_balancing_plate_wise20192020/XMC/Libraries/XMCLib/inc\xmc_usic.h **** 
  99:G:/DT/dt_g1_balancing_plate_wise20192020/XMC/Libraries/XMCLib/inc\xmc_usic.h **** #include "xmc_common.h"
 100:G:/DT/dt_g1_balancing_plate_wise20192020/XMC/Libraries/XMCLib/inc\xmc_usic.h **** 
 101:G:/DT/dt_g1_balancing_plate_wise20192020/XMC/Libraries/XMCLib/inc\xmc_usic.h **** /**
 102:G:/DT/dt_g1_balancing_plate_wise20192020/XMC/Libraries/XMCLib/inc\xmc_usic.h ****  * @addtogroup XMClib XMC Peripheral Library
 103:G:/DT/dt_g1_balancing_plate_wise20192020/XMC/Libraries/XMCLib/inc\xmc_usic.h ****  * @{
 104:G:/DT/dt_g1_balancing_plate_wise20192020/XMC/Libraries/XMCLib/inc\xmc_usic.h ****  */
 105:G:/DT/dt_g1_balancing_plate_wise20192020/XMC/Libraries/XMCLib/inc\xmc_usic.h **** 
 106:G:/DT/dt_g1_balancing_plate_wise20192020/XMC/Libraries/XMCLib/inc\xmc_usic.h **** /**
 107:G:/DT/dt_g1_balancing_plate_wise20192020/XMC/Libraries/XMCLib/inc\xmc_usic.h ****  * @addtogroup USIC
 108:G:/DT/dt_g1_balancing_plate_wise20192020/XMC/Libraries/XMCLib/inc\xmc_usic.h ****  * @brief Universal Serial Interface Channel(USIC) driver for serial communication.
 109:G:/DT/dt_g1_balancing_plate_wise20192020/XMC/Libraries/XMCLib/inc\xmc_usic.h ****  *
 110:G:/DT/dt_g1_balancing_plate_wise20192020/XMC/Libraries/XMCLib/inc\xmc_usic.h ****  * The Universal Serial Interface Channel(USIC) module is a flexible interface module
 111:G:/DT/dt_g1_balancing_plate_wise20192020/XMC/Libraries/XMCLib/inc\xmc_usic.h ****  * covering several serial communication protocols. A USIC module contains two
 112:G:/DT/dt_g1_balancing_plate_wise20192020/XMC/Libraries/XMCLib/inc\xmc_usic.h ****  * independent communication channels named USICx_CH0 and USICx_CH1, with x
 113:G:/DT/dt_g1_balancing_plate_wise20192020/XMC/Libraries/XMCLib/inc\xmc_usic.h ****  * being the number of the USIC module. The user can program, during run-time, which protocol will 
 114:G:/DT/dt_g1_balancing_plate_wise20192020/XMC/Libraries/XMCLib/inc\xmc_usic.h ****  * by each communication channel and which pins are used.
 115:G:/DT/dt_g1_balancing_plate_wise20192020/XMC/Libraries/XMCLib/inc\xmc_usic.h ****  * The driver provides APIs, configuration structures and enumerations to configure common features
 116:G:/DT/dt_g1_balancing_plate_wise20192020/XMC/Libraries/XMCLib/inc\xmc_usic.h ****  * communication protocols.
 117:G:/DT/dt_g1_balancing_plate_wise20192020/XMC/Libraries/XMCLib/inc\xmc_usic.h ****  * 
 118:G:/DT/dt_g1_balancing_plate_wise20192020/XMC/Libraries/XMCLib/inc\xmc_usic.h ****  * USIC driver features:
 119:G:/DT/dt_g1_balancing_plate_wise20192020/XMC/Libraries/XMCLib/inc\xmc_usic.h ****  * -# Allows configuration of FIFO for transmit and receive functions.
 120:G:/DT/dt_g1_balancing_plate_wise20192020/XMC/Libraries/XMCLib/inc\xmc_usic.h ****  * -# Provides a structure type XMC_USIC_CH_t to represent the USIC channel registers in a programm
 121:G:/DT/dt_g1_balancing_plate_wise20192020/XMC/Libraries/XMCLib/inc\xmc_usic.h ****  friendly format.
 122:G:/DT/dt_g1_balancing_plate_wise20192020/XMC/Libraries/XMCLib/inc\xmc_usic.h ****  * -# Allows configuration of automatic update for frame length, word length, slave select or slave
 123:G:/DT/dt_g1_balancing_plate_wise20192020/XMC/Libraries/XMCLib/inc\xmc_usic.h ****  * -# Allows transmission of data to FIFO using XMC_USIC_CH_TXFIFO_PutData() and XMC_USIC_CH_TXFIFO
 124:G:/DT/dt_g1_balancing_plate_wise20192020/XMC/Libraries/XMCLib/inc\xmc_usic.h ****  * -# Allows reading of received data in FIFO using XMC_USIC_CH_RXFIFO_GetData()
 125:G:/DT/dt_g1_balancing_plate_wise20192020/XMC/Libraries/XMCLib/inc\xmc_usic.h ****  * -# Allows configuration of baudrate using XMC_USIC_CH_SetBaudrate()
 126:G:/DT/dt_g1_balancing_plate_wise20192020/XMC/Libraries/XMCLib/inc\xmc_usic.h ****  * -# Provides API to trigger interrupts using XMC_USIC_CH_TriggerServiceRequest()
 127:G:/DT/dt_g1_balancing_plate_wise20192020/XMC/Libraries/XMCLib/inc\xmc_usic.h ****  * @{
 128:G:/DT/dt_g1_balancing_plate_wise20192020/XMC/Libraries/XMCLib/inc\xmc_usic.h ****  */
 129:G:/DT/dt_g1_balancing_plate_wise20192020/XMC/Libraries/XMCLib/inc\xmc_usic.h **** 
 130:G:/DT/dt_g1_balancing_plate_wise20192020/XMC/Libraries/XMCLib/inc\xmc_usic.h **** /*******************************************************************************
 131:G:/DT/dt_g1_balancing_plate_wise20192020/XMC/Libraries/XMCLib/inc\xmc_usic.h ****  * MACROS
 132:G:/DT/dt_g1_balancing_plate_wise20192020/XMC/Libraries/XMCLib/inc\xmc_usic.h ****  *******************************************************************************/
 133:G:/DT/dt_g1_balancing_plate_wise20192020/XMC/Libraries/XMCLib/inc\xmc_usic.h **** 
 134:G:/DT/dt_g1_balancing_plate_wise20192020/XMC/Libraries/XMCLib/inc\xmc_usic.h **** #define XMC_USIC0 ((XMC_USIC_t *)USIC0_BASE)			/**< USIC0 module base address */
 135:G:/DT/dt_g1_balancing_plate_wise20192020/XMC/Libraries/XMCLib/inc\xmc_usic.h **** #define XMC_USIC0_CH0 ((XMC_USIC_CH_t *)USIC0_CH0_BASE)	/**< USIC0 channel 0 base address */
 136:G:/DT/dt_g1_balancing_plate_wise20192020/XMC/Libraries/XMCLib/inc\xmc_usic.h **** #define XMC_USIC0_CH1 ((XMC_USIC_CH_t *)USIC0_CH1_BASE)	/**< USIC0 channel 1 base address */
 137:G:/DT/dt_g1_balancing_plate_wise20192020/XMC/Libraries/XMCLib/inc\xmc_usic.h **** 
 138:G:/DT/dt_g1_balancing_plate_wise20192020/XMC/Libraries/XMCLib/inc\xmc_usic.h **** #if defined(USIC1)
 139:G:/DT/dt_g1_balancing_plate_wise20192020/XMC/Libraries/XMCLib/inc\xmc_usic.h **** #define XMC_USIC1 ((XMC_USIC_t *)USIC1_BASE)			/**< USIC1 module base address */
 140:G:/DT/dt_g1_balancing_plate_wise20192020/XMC/Libraries/XMCLib/inc\xmc_usic.h **** #define XMC_USIC1_CH0 ((XMC_USIC_CH_t *)USIC1_CH0_BASE)	/**< USIC1 channel 0 base address */
 141:G:/DT/dt_g1_balancing_plate_wise20192020/XMC/Libraries/XMCLib/inc\xmc_usic.h **** #define XMC_USIC1_CH1 ((XMC_USIC_CH_t *)USIC1_CH1_BASE)	/**< USIC1 channel 1 base address */
 142:G:/DT/dt_g1_balancing_plate_wise20192020/XMC/Libraries/XMCLib/inc\xmc_usic.h **** #endif
 143:G:/DT/dt_g1_balancing_plate_wise20192020/XMC/Libraries/XMCLib/inc\xmc_usic.h **** 
 144:G:/DT/dt_g1_balancing_plate_wise20192020/XMC/Libraries/XMCLib/inc\xmc_usic.h **** #if defined(USIC2)
 145:G:/DT/dt_g1_balancing_plate_wise20192020/XMC/Libraries/XMCLib/inc\xmc_usic.h **** #define XMC_USIC2 ((XMC_USIC_t *)USIC2_BASE)			/**< USIC2 module base address */
 146:G:/DT/dt_g1_balancing_plate_wise20192020/XMC/Libraries/XMCLib/inc\xmc_usic.h **** #define XMC_USIC2_CH0 ((XMC_USIC_CH_t *)USIC2_CH0_BASE)	/**< USIC2 channel 0 base address */
 147:G:/DT/dt_g1_balancing_plate_wise20192020/XMC/Libraries/XMCLib/inc\xmc_usic.h **** #define XMC_USIC2_CH1 ((XMC_USIC_CH_t *)USIC2_CH1_BASE)	/**< USIC2 channel 1 base address */
 148:G:/DT/dt_g1_balancing_plate_wise20192020/XMC/Libraries/XMCLib/inc\xmc_usic.h **** #endif
 149:G:/DT/dt_g1_balancing_plate_wise20192020/XMC/Libraries/XMCLib/inc\xmc_usic.h **** 
 150:G:/DT/dt_g1_balancing_plate_wise20192020/XMC/Libraries/XMCLib/inc\xmc_usic.h **** #define USIC_CH_DXCR_DSEL_Msk  USIC_CH_DX0CR_DSEL_Msk   /**< Common mask for DSEL bitfield mask in 
 151:G:/DT/dt_g1_balancing_plate_wise20192020/XMC/Libraries/XMCLib/inc\xmc_usic.h **** #define USIC_CH_DXCR_DSEL_Pos  USIC_CH_DX0CR_DSEL_Pos   /**< Common mask for DSEL bitfield position
 152:G:/DT/dt_g1_balancing_plate_wise20192020/XMC/Libraries/XMCLib/inc\xmc_usic.h **** #define USIC_CH_DXCR_SFSEL_Pos USIC_CH_DX0CR_SFSEL_Pos  /**< Common mask for SFSEL bitfield positio
 153:G:/DT/dt_g1_balancing_plate_wise20192020/XMC/Libraries/XMCLib/inc\xmc_usic.h **** #define USIC_CH_DXCR_SFSEL_Msk USIC_CH_DX0CR_SFSEL_Msk  /**< Common mask for SFSEL bitfield mask in
 154:G:/DT/dt_g1_balancing_plate_wise20192020/XMC/Libraries/XMCLib/inc\xmc_usic.h **** #define USIC_CH_DXCR_DPOL_Msk  USIC_CH_DX0CR_DPOL_Msk   /**< Common mask for DPOL bitfield mask in 
 155:G:/DT/dt_g1_balancing_plate_wise20192020/XMC/Libraries/XMCLib/inc\xmc_usic.h **** #define USIC_CH_DXCR_DFEN_Msk  USIC_CH_DX0CR_DFEN_Msk   /**< Common mask for DFEN bitfield mask in 
 156:G:/DT/dt_g1_balancing_plate_wise20192020/XMC/Libraries/XMCLib/inc\xmc_usic.h **** #define USIC_CH_DXCR_DSEN_Msk  USIC_CH_DX0CR_DSEN_Msk   /**< Common mask for DSEN bitfield mask in 
 157:G:/DT/dt_g1_balancing_plate_wise20192020/XMC/Libraries/XMCLib/inc\xmc_usic.h **** #define USIC_CH_DXCR_CM_Pos    USIC_CH_DX0CR_CM_Pos     /**< Common mask for CM bitfield position i
 158:G:/DT/dt_g1_balancing_plate_wise20192020/XMC/Libraries/XMCLib/inc\xmc_usic.h **** #define USIC_CH_DXCR_CM_Msk    USIC_CH_DX0CR_CM_Msk     /**< Common mask for CM bitfield mask in DX
 159:G:/DT/dt_g1_balancing_plate_wise20192020/XMC/Libraries/XMCLib/inc\xmc_usic.h **** #define USIC_CH_DXCR_INSW_Msk  USIC_CH_DX0CR_INSW_Msk   /**< Common mask for INSW bitfield mask in 
 160:G:/DT/dt_g1_balancing_plate_wise20192020/XMC/Libraries/XMCLib/inc\xmc_usic.h **** #define USIC_CH_DXCR_INSW_pos  USIC_CH_DX0CR_INSW_Pos   /**< Common mask for INSW bitfield position
 161:G:/DT/dt_g1_balancing_plate_wise20192020/XMC/Libraries/XMCLib/inc\xmc_usic.h **** 
 162:G:/DT/dt_g1_balancing_plate_wise20192020/XMC/Libraries/XMCLib/inc\xmc_usic.h **** #if UC_FAMILY == XMC1
 163:G:/DT/dt_g1_balancing_plate_wise20192020/XMC/Libraries/XMCLib/inc\xmc_usic.h ****  #include "xmc1_usic_map.h"
 164:G:/DT/dt_g1_balancing_plate_wise20192020/XMC/Libraries/XMCLib/inc\xmc_usic.h **** #endif
 165:G:/DT/dt_g1_balancing_plate_wise20192020/XMC/Libraries/XMCLib/inc\xmc_usic.h **** 
 166:G:/DT/dt_g1_balancing_plate_wise20192020/XMC/Libraries/XMCLib/inc\xmc_usic.h **** #if UC_FAMILY == XMC4
 167:G:/DT/dt_g1_balancing_plate_wise20192020/XMC/Libraries/XMCLib/inc\xmc_usic.h ****  #include "xmc4_usic_map.h"
 168:G:/DT/dt_g1_balancing_plate_wise20192020/XMC/Libraries/XMCLib/inc\xmc_usic.h **** #endif
 169:G:/DT/dt_g1_balancing_plate_wise20192020/XMC/Libraries/XMCLib/inc\xmc_usic.h **** 
 170:G:/DT/dt_g1_balancing_plate_wise20192020/XMC/Libraries/XMCLib/inc\xmc_usic.h **** /*******************************************************************************
 171:G:/DT/dt_g1_balancing_plate_wise20192020/XMC/Libraries/XMCLib/inc\xmc_usic.h ****  * ENUMS
 172:G:/DT/dt_g1_balancing_plate_wise20192020/XMC/Libraries/XMCLib/inc\xmc_usic.h ****  *******************************************************************************/
 173:G:/DT/dt_g1_balancing_plate_wise20192020/XMC/Libraries/XMCLib/inc\xmc_usic.h **** 
 174:G:/DT/dt_g1_balancing_plate_wise20192020/XMC/Libraries/XMCLib/inc\xmc_usic.h **** /**
 175:G:/DT/dt_g1_balancing_plate_wise20192020/XMC/Libraries/XMCLib/inc\xmc_usic.h ****  * USIC channel driver status
 176:G:/DT/dt_g1_balancing_plate_wise20192020/XMC/Libraries/XMCLib/inc\xmc_usic.h ****  */
 177:G:/DT/dt_g1_balancing_plate_wise20192020/XMC/Libraries/XMCLib/inc\xmc_usic.h **** typedef enum XMC_USIC_CH_STATUS
 178:G:/DT/dt_g1_balancing_plate_wise20192020/XMC/Libraries/XMCLib/inc\xmc_usic.h **** {
 179:G:/DT/dt_g1_balancing_plate_wise20192020/XMC/Libraries/XMCLib/inc\xmc_usic.h ****   XMC_USIC_CH_STATUS_OK,    /**< USIC driver status : OK */
 180:G:/DT/dt_g1_balancing_plate_wise20192020/XMC/Libraries/XMCLib/inc\xmc_usic.h ****   XMC_USIC_CH_STATUS_ERROR, /**< USIC driver status : ERROR */
 181:G:/DT/dt_g1_balancing_plate_wise20192020/XMC/Libraries/XMCLib/inc\xmc_usic.h ****   XMC_USIC_CH_STATUS_BUSY   /**< USIC driver status : BUSY */
 182:G:/DT/dt_g1_balancing_plate_wise20192020/XMC/Libraries/XMCLib/inc\xmc_usic.h **** } XMC_USIC_CH_STATUS_t;
 183:G:/DT/dt_g1_balancing_plate_wise20192020/XMC/Libraries/XMCLib/inc\xmc_usic.h **** 
 184:G:/DT/dt_g1_balancing_plate_wise20192020/XMC/Libraries/XMCLib/inc\xmc_usic.h **** /**
 185:G:/DT/dt_g1_balancing_plate_wise20192020/XMC/Libraries/XMCLib/inc\xmc_usic.h **** * USIC channel kernel mode
 186:G:/DT/dt_g1_balancing_plate_wise20192020/XMC/Libraries/XMCLib/inc\xmc_usic.h **** */
 187:G:/DT/dt_g1_balancing_plate_wise20192020/XMC/Libraries/XMCLib/inc\xmc_usic.h **** typedef enum XMC_USIC_CH_KERNEL_MODE
 188:G:/DT/dt_g1_balancing_plate_wise20192020/XMC/Libraries/XMCLib/inc\xmc_usic.h **** {
 189:G:/DT/dt_g1_balancing_plate_wise20192020/XMC/Libraries/XMCLib/inc\xmc_usic.h ****   XMC_USIC_CH_KERNEL_MODE_RUN_0  = 0x0UL,  /**< Run mode 0 (transmission and reception possible)*/
 190:G:/DT/dt_g1_balancing_plate_wise20192020/XMC/Libraries/XMCLib/inc\xmc_usic.h ****   XMC_USIC_CH_KERNEL_MODE_RUN_1  = 0x1UL << USIC_CH_KSCFG_NOMCFG_Pos,  /**< Run mode 1 (transmissio
 191:G:/DT/dt_g1_balancing_plate_wise20192020/XMC/Libraries/XMCLib/inc\xmc_usic.h ****   XMC_USIC_CH_KERNEL_MODE_STOP_0 = 0x2UL << USIC_CH_KSCFG_NOMCFG_Pos,  /**< Stop mode 0 (no transmi
 192:G:/DT/dt_g1_balancing_plate_wise20192020/XMC/Libraries/XMCLib/inc\xmc_usic.h ****   XMC_USIC_CH_KERNEL_MODE_STOP_1 = 0x3UL << USIC_CH_KSCFG_NOMCFG_Pos   /**< Stop mode 1 (both trans
 193:G:/DT/dt_g1_balancing_plate_wise20192020/XMC/Libraries/XMCLib/inc\xmc_usic.h **** } XMC_USIC_CH_KERNEL_MODE_t;
 194:G:/DT/dt_g1_balancing_plate_wise20192020/XMC/Libraries/XMCLib/inc\xmc_usic.h **** 
 195:G:/DT/dt_g1_balancing_plate_wise20192020/XMC/Libraries/XMCLib/inc\xmc_usic.h **** /**
 196:G:/DT/dt_g1_balancing_plate_wise20192020/XMC/Libraries/XMCLib/inc\xmc_usic.h ****  * USIC channel operating mode
 197:G:/DT/dt_g1_balancing_plate_wise20192020/XMC/Libraries/XMCLib/inc\xmc_usic.h ****  */
 198:G:/DT/dt_g1_balancing_plate_wise20192020/XMC/Libraries/XMCLib/inc\xmc_usic.h **** typedef enum XMC_USIC_CH_OPERATING_MODE
 199:G:/DT/dt_g1_balancing_plate_wise20192020/XMC/Libraries/XMCLib/inc\xmc_usic.h **** {
 200:G:/DT/dt_g1_balancing_plate_wise20192020/XMC/Libraries/XMCLib/inc\xmc_usic.h ****   XMC_USIC_CH_OPERATING_MODE_IDLE = 0x0UL, /**< USIC channel idle */
 201:G:/DT/dt_g1_balancing_plate_wise20192020/XMC/Libraries/XMCLib/inc\xmc_usic.h ****   XMC_USIC_CH_OPERATING_MODE_SPI  = 0x1UL << USIC_CH_CCR_MODE_Pos, /**< SPI mode */
 202:G:/DT/dt_g1_balancing_plate_wise20192020/XMC/Libraries/XMCLib/inc\xmc_usic.h ****   XMC_USIC_CH_OPERATING_MODE_UART = 0x2UL << USIC_CH_CCR_MODE_Pos, /**< UART mode */
 203:G:/DT/dt_g1_balancing_plate_wise20192020/XMC/Libraries/XMCLib/inc\xmc_usic.h ****   XMC_USIC_CH_OPERATING_MODE_I2S  = 0x3UL << USIC_CH_CCR_MODE_Pos, /**< I2S mode */
 204:G:/DT/dt_g1_balancing_plate_wise20192020/XMC/Libraries/XMCLib/inc\xmc_usic.h ****   XMC_USIC_CH_OPERATING_MODE_I2C  = 0x4UL << USIC_CH_CCR_MODE_Pos  /**< I2C mode */
 205:G:/DT/dt_g1_balancing_plate_wise20192020/XMC/Libraries/XMCLib/inc\xmc_usic.h **** } XMC_USIC_CH_OPERATING_MODE_t;
 206:G:/DT/dt_g1_balancing_plate_wise20192020/XMC/Libraries/XMCLib/inc\xmc_usic.h **** 
 207:G:/DT/dt_g1_balancing_plate_wise20192020/XMC/Libraries/XMCLib/inc\xmc_usic.h **** /**
 208:G:/DT/dt_g1_balancing_plate_wise20192020/XMC/Libraries/XMCLib/inc\xmc_usic.h ****  * USIC channel inputs
 209:G:/DT/dt_g1_balancing_plate_wise20192020/XMC/Libraries/XMCLib/inc\xmc_usic.h ****  */
 210:G:/DT/dt_g1_balancing_plate_wise20192020/XMC/Libraries/XMCLib/inc\xmc_usic.h **** typedef enum XMC_USIC_CH_INPUT
 211:G:/DT/dt_g1_balancing_plate_wise20192020/XMC/Libraries/XMCLib/inc\xmc_usic.h **** {
 212:G:/DT/dt_g1_balancing_plate_wise20192020/XMC/Libraries/XMCLib/inc\xmc_usic.h ****   XMC_USIC_CH_INPUT_DX0, /**< DX0 input */
 213:G:/DT/dt_g1_balancing_plate_wise20192020/XMC/Libraries/XMCLib/inc\xmc_usic.h ****   XMC_USIC_CH_INPUT_DX1, /**< DX1 input */
 214:G:/DT/dt_g1_balancing_plate_wise20192020/XMC/Libraries/XMCLib/inc\xmc_usic.h ****   XMC_USIC_CH_INPUT_DX2, /**< DX2 input */
 215:G:/DT/dt_g1_balancing_plate_wise20192020/XMC/Libraries/XMCLib/inc\xmc_usic.h ****   XMC_USIC_CH_INPUT_DX3, /**< DX3 input */
 216:G:/DT/dt_g1_balancing_plate_wise20192020/XMC/Libraries/XMCLib/inc\xmc_usic.h ****   XMC_USIC_CH_INPUT_DX4, /**< DX4 input */
 217:G:/DT/dt_g1_balancing_plate_wise20192020/XMC/Libraries/XMCLib/inc\xmc_usic.h ****   XMC_USIC_CH_INPUT_DX5  /**< DX5 input */
 218:G:/DT/dt_g1_balancing_plate_wise20192020/XMC/Libraries/XMCLib/inc\xmc_usic.h **** } XMC_USIC_CH_INPUT_t;
 219:G:/DT/dt_g1_balancing_plate_wise20192020/XMC/Libraries/XMCLib/inc\xmc_usic.h **** 
 220:G:/DT/dt_g1_balancing_plate_wise20192020/XMC/Libraries/XMCLib/inc\xmc_usic.h **** /**
 221:G:/DT/dt_g1_balancing_plate_wise20192020/XMC/Libraries/XMCLib/inc\xmc_usic.h ****  * USIC channel input source sampling frequency
 222:G:/DT/dt_g1_balancing_plate_wise20192020/XMC/Libraries/XMCLib/inc\xmc_usic.h ****  */
 223:G:/DT/dt_g1_balancing_plate_wise20192020/XMC/Libraries/XMCLib/inc\xmc_usic.h **** typedef enum XMC_USIC_CH_INPUT_SAMPLING_FREQ
 224:G:/DT/dt_g1_balancing_plate_wise20192020/XMC/Libraries/XMCLib/inc\xmc_usic.h **** {
 225:G:/DT/dt_g1_balancing_plate_wise20192020/XMC/Libraries/XMCLib/inc\xmc_usic.h ****   XMC_USIC_CH_INPUT_SAMPLING_FREQ_FPERIPH            = 0x0UL, /**< Use fperiph frequency for input 
 226:G:/DT/dt_g1_balancing_plate_wise20192020/XMC/Libraries/XMCLib/inc\xmc_usic.h ****   XMC_USIC_CH_INPUT_SAMPLING_FREQ_FRACTIONAL_DIVIDER = 0x1UL << USIC_CH_DXCR_SFSEL_Pos  /**< Use fF
 227:G:/DT/dt_g1_balancing_plate_wise20192020/XMC/Libraries/XMCLib/inc\xmc_usic.h **** } XMC_USIC_CH_INPUT_SAMPLING_FREQ_t;
 228:G:/DT/dt_g1_balancing_plate_wise20192020/XMC/Libraries/XMCLib/inc\xmc_usic.h **** 
 229:G:/DT/dt_g1_balancing_plate_wise20192020/XMC/Libraries/XMCLib/inc\xmc_usic.h **** /**
 230:G:/DT/dt_g1_balancing_plate_wise20192020/XMC/Libraries/XMCLib/inc\xmc_usic.h ****  * USIC channel input combination mode
 231:G:/DT/dt_g1_balancing_plate_wise20192020/XMC/Libraries/XMCLib/inc\xmc_usic.h ****  */
 232:G:/DT/dt_g1_balancing_plate_wise20192020/XMC/Libraries/XMCLib/inc\xmc_usic.h **** typedef enum XMC_USIC_CH_INPUT_COMBINATION_MODE
 233:G:/DT/dt_g1_balancing_plate_wise20192020/XMC/Libraries/XMCLib/inc\xmc_usic.h **** {
 234:G:/DT/dt_g1_balancing_plate_wise20192020/XMC/Libraries/XMCLib/inc\xmc_usic.h ****   XMC_USIC_CH_INPUT_COMBINATION_MODE_TRIGGER_DISABLED = 0x0UL, /**< The trigger activation is disab
 235:G:/DT/dt_g1_balancing_plate_wise20192020/XMC/Libraries/XMCLib/inc\xmc_usic.h ****   XMC_USIC_CH_INPUT_COMBINATION_MODE_RISING_EDGE      = 0x1UL, /**< A rising edge activates DXnT*/
 236:G:/DT/dt_g1_balancing_plate_wise20192020/XMC/Libraries/XMCLib/inc\xmc_usic.h ****   XMC_USIC_CH_INPUT_COMBINATION_MODE_FALLING_EDGE     = 0x2UL, /**< A falling edge activates DXnT*/
 237:G:/DT/dt_g1_balancing_plate_wise20192020/XMC/Libraries/XMCLib/inc\xmc_usic.h ****   XMC_USIC_CH_INPUT_COMBINATION_MODE_BOTH_EDGES       = 0x3UL, /**< Both edges activate DXnT*/
 238:G:/DT/dt_g1_balancing_plate_wise20192020/XMC/Libraries/XMCLib/inc\xmc_usic.h **** } XMC_USIC_CH_INPUT_COMBINATION_MODE_t;
 239:G:/DT/dt_g1_balancing_plate_wise20192020/XMC/Libraries/XMCLib/inc\xmc_usic.h **** 
 240:G:/DT/dt_g1_balancing_plate_wise20192020/XMC/Libraries/XMCLib/inc\xmc_usic.h **** /**
 241:G:/DT/dt_g1_balancing_plate_wise20192020/XMC/Libraries/XMCLib/inc\xmc_usic.h ****  * USIC channel data transmission start modes.
 242:G:/DT/dt_g1_balancing_plate_wise20192020/XMC/Libraries/XMCLib/inc\xmc_usic.h ****  * Data shifted out of the transmit pin depends on the value configured for the
 243:G:/DT/dt_g1_balancing_plate_wise20192020/XMC/Libraries/XMCLib/inc\xmc_usic.h ****  * TDEN bitfield of the TCSR register. Following enum values are used for configuring
 244:G:/DT/dt_g1_balancing_plate_wise20192020/XMC/Libraries/XMCLib/inc\xmc_usic.h ****  * the TCSR->TDEN bitfield.
 245:G:/DT/dt_g1_balancing_plate_wise20192020/XMC/Libraries/XMCLib/inc\xmc_usic.h ****  */
 246:G:/DT/dt_g1_balancing_plate_wise20192020/XMC/Libraries/XMCLib/inc\xmc_usic.h **** typedef enum XMC_USIC_CH_START_TRANSMISION_MODE
 247:G:/DT/dt_g1_balancing_plate_wise20192020/XMC/Libraries/XMCLib/inc\xmc_usic.h **** {
 248:G:/DT/dt_g1_balancing_plate_wise20192020/XMC/Libraries/XMCLib/inc\xmc_usic.h ****   XMC_USIC_CH_START_TRANSMISION_DISABLED      = 0x0U, /**< Passive data level is sent out on transm
 249:G:/DT/dt_g1_balancing_plate_wise20192020/XMC/Libraries/XMCLib/inc\xmc_usic.h ****   XMC_USIC_CH_START_TRANSMISION_ON_TDV        = 0x1UL << USIC_CH_TCSR_TDEN_Pos, /**< Transmission o
 250:G:/DT/dt_g1_balancing_plate_wise20192020/XMC/Libraries/XMCLib/inc\xmc_usic.h ****   XMC_USIC_CH_START_TRANSMISION_ON_TDV_DX2S_0 = 0x2UL << USIC_CH_TCSR_TDEN_Pos, /**< Transmission o
 251:G:/DT/dt_g1_balancing_plate_wise20192020/XMC/Libraries/XMCLib/inc\xmc_usic.h ****   XMC_USIC_CH_START_TRANSMISION_ON_TDV_DX2S_1 = 0x3UL << USIC_CH_TCSR_TDEN_Pos  /**< Transmission o
 252:G:/DT/dt_g1_balancing_plate_wise20192020/XMC/Libraries/XMCLib/inc\xmc_usic.h **** } XMC_USIC_CH_START_TRANSMISION_MODE_t;
 253:G:/DT/dt_g1_balancing_plate_wise20192020/XMC/Libraries/XMCLib/inc\xmc_usic.h **** 
 254:G:/DT/dt_g1_balancing_plate_wise20192020/XMC/Libraries/XMCLib/inc\xmc_usic.h **** /**
 255:G:/DT/dt_g1_balancing_plate_wise20192020/XMC/Libraries/XMCLib/inc\xmc_usic.h ****  * USIC channel interrupt node pointers
 256:G:/DT/dt_g1_balancing_plate_wise20192020/XMC/Libraries/XMCLib/inc\xmc_usic.h ****  */
 257:G:/DT/dt_g1_balancing_plate_wise20192020/XMC/Libraries/XMCLib/inc\xmc_usic.h **** typedef enum XMC_USIC_CH_INTERRUPT_NODE_POINTER
 258:G:/DT/dt_g1_balancing_plate_wise20192020/XMC/Libraries/XMCLib/inc\xmc_usic.h **** {
 259:G:/DT/dt_g1_balancing_plate_wise20192020/XMC/Libraries/XMCLib/inc\xmc_usic.h ****   XMC_USIC_CH_INTERRUPT_NODE_POINTER_TRANSMIT_SHIFT      = USIC_CH_INPR_TSINP_Pos, /**< Node pointe
 260:G:/DT/dt_g1_balancing_plate_wise20192020/XMC/Libraries/XMCLib/inc\xmc_usic.h ****   XMC_USIC_CH_INTERRUPT_NODE_POINTER_TRANSMIT_BUFFER     = USIC_CH_INPR_TBINP_Pos, /**< Node pointe
 261:G:/DT/dt_g1_balancing_plate_wise20192020/XMC/Libraries/XMCLib/inc\xmc_usic.h ****   XMC_USIC_CH_INTERRUPT_NODE_POINTER_RECEIVE             = USIC_CH_INPR_RINP_Pos,  /**< Node pointe
 262:G:/DT/dt_g1_balancing_plate_wise20192020/XMC/Libraries/XMCLib/inc\xmc_usic.h ****   XMC_USIC_CH_INTERRUPT_NODE_POINTER_ALTERNATE_RECEIVE   = USIC_CH_INPR_AINP_Pos,  /**< Node pointe
 263:G:/DT/dt_g1_balancing_plate_wise20192020/XMC/Libraries/XMCLib/inc\xmc_usic.h ****   XMC_USIC_CH_INTERRUPT_NODE_POINTER_PROTOCOL            = USIC_CH_INPR_PINP_Pos   /**< Node pointe
 264:G:/DT/dt_g1_balancing_plate_wise20192020/XMC/Libraries/XMCLib/inc\xmc_usic.h **** } XMC_USIC_CH_INTERRUPT_NODE_POINTER_t;
 265:G:/DT/dt_g1_balancing_plate_wise20192020/XMC/Libraries/XMCLib/inc\xmc_usic.h **** 
 266:G:/DT/dt_g1_balancing_plate_wise20192020/XMC/Libraries/XMCLib/inc\xmc_usic.h **** /**
 267:G:/DT/dt_g1_balancing_plate_wise20192020/XMC/Libraries/XMCLib/inc\xmc_usic.h ****  * USIC channel events
 268:G:/DT/dt_g1_balancing_plate_wise20192020/XMC/Libraries/XMCLib/inc\xmc_usic.h ****  */
 269:G:/DT/dt_g1_balancing_plate_wise20192020/XMC/Libraries/XMCLib/inc\xmc_usic.h **** typedef enum XMC_USIC_CH_EVENT
 270:G:/DT/dt_g1_balancing_plate_wise20192020/XMC/Libraries/XMCLib/inc\xmc_usic.h **** {
 271:G:/DT/dt_g1_balancing_plate_wise20192020/XMC/Libraries/XMCLib/inc\xmc_usic.h ****   XMC_USIC_CH_EVENT_RECEIVE_START       = USIC_CH_CCR_RSIEN_Msk, /**< Receive start event */
 272:G:/DT/dt_g1_balancing_plate_wise20192020/XMC/Libraries/XMCLib/inc\xmc_usic.h ****   XMC_USIC_CH_EVENT_DATA_LOST           = USIC_CH_CCR_DLIEN_Msk, /**< Data lost event */
 273:G:/DT/dt_g1_balancing_plate_wise20192020/XMC/Libraries/XMCLib/inc\xmc_usic.h ****   XMC_USIC_CH_EVENT_TRANSMIT_SHIFT      = USIC_CH_CCR_TSIEN_Msk, /**< Transmit shift event */
 274:G:/DT/dt_g1_balancing_plate_wise20192020/XMC/Libraries/XMCLib/inc\xmc_usic.h ****   XMC_USIC_CH_EVENT_TRANSMIT_BUFFER     = USIC_CH_CCR_TBIEN_Msk, /**< Transmit buffer event */
 275:G:/DT/dt_g1_balancing_plate_wise20192020/XMC/Libraries/XMCLib/inc\xmc_usic.h ****   XMC_USIC_CH_EVENT_STANDARD_RECEIVE    = USIC_CH_CCR_RIEN_Msk,  /**< Receive event */
 276:G:/DT/dt_g1_balancing_plate_wise20192020/XMC/Libraries/XMCLib/inc\xmc_usic.h ****   XMC_USIC_CH_EVENT_ALTERNATIVE_RECEIVE = USIC_CH_CCR_AIEN_Msk,  /**< Alternate receive event */
 277:G:/DT/dt_g1_balancing_plate_wise20192020/XMC/Libraries/XMCLib/inc\xmc_usic.h ****   XMC_USIC_CH_EVENT_BAUD_RATE_GENERATOR = USIC_CH_CCR_BRGIEN_Msk /**< Baudrate generator event */
 278:G:/DT/dt_g1_balancing_plate_wise20192020/XMC/Libraries/XMCLib/inc\xmc_usic.h **** } XMC_USIC_CH_EVENT_t;
 279:G:/DT/dt_g1_balancing_plate_wise20192020/XMC/Libraries/XMCLib/inc\xmc_usic.h **** 
 280:G:/DT/dt_g1_balancing_plate_wise20192020/XMC/Libraries/XMCLib/inc\xmc_usic.h **** /**
 281:G:/DT/dt_g1_balancing_plate_wise20192020/XMC/Libraries/XMCLib/inc\xmc_usic.h **** * USIC channel parity mode
 282:G:/DT/dt_g1_balancing_plate_wise20192020/XMC/Libraries/XMCLib/inc\xmc_usic.h **** */
 283:G:/DT/dt_g1_balancing_plate_wise20192020/XMC/Libraries/XMCLib/inc\xmc_usic.h **** typedef enum XMC_USIC_CH_PARITY_MODE
 284:G:/DT/dt_g1_balancing_plate_wise20192020/XMC/Libraries/XMCLib/inc\xmc_usic.h **** {
 285:G:/DT/dt_g1_balancing_plate_wise20192020/XMC/Libraries/XMCLib/inc\xmc_usic.h ****   XMC_USIC_CH_PARITY_MODE_NONE     = 0x0UL,  /**< Disable parity mode */
 286:G:/DT/dt_g1_balancing_plate_wise20192020/XMC/Libraries/XMCLib/inc\xmc_usic.h ****   XMC_USIC_CH_PARITY_MODE_EVEN     = 0x2UL << USIC_CH_CCR_PM_Pos,  /**< Enable even parity mode */
 287:G:/DT/dt_g1_balancing_plate_wise20192020/XMC/Libraries/XMCLib/inc\xmc_usic.h ****   XMC_USIC_CH_PARITY_MODE_ODD      = 0x3UL << USIC_CH_CCR_PM_Pos   /**< Enable odd parity mode */
 288:G:/DT/dt_g1_balancing_plate_wise20192020/XMC/Libraries/XMCLib/inc\xmc_usic.h **** } XMC_USIC_CH_PARITY_MODE_t;
 289:G:/DT/dt_g1_balancing_plate_wise20192020/XMC/Libraries/XMCLib/inc\xmc_usic.h **** 
 290:G:/DT/dt_g1_balancing_plate_wise20192020/XMC/Libraries/XMCLib/inc\xmc_usic.h **** /**
 291:G:/DT/dt_g1_balancing_plate_wise20192020/XMC/Libraries/XMCLib/inc\xmc_usic.h **** * USIC channel data output mode
 292:G:/DT/dt_g1_balancing_plate_wise20192020/XMC/Libraries/XMCLib/inc\xmc_usic.h **** */
 293:G:/DT/dt_g1_balancing_plate_wise20192020/XMC/Libraries/XMCLib/inc\xmc_usic.h **** typedef enum XMC_USIC_CH_DATA_OUTPUT_MODE
 294:G:/DT/dt_g1_balancing_plate_wise20192020/XMC/Libraries/XMCLib/inc\xmc_usic.h **** {
 295:G:/DT/dt_g1_balancing_plate_wise20192020/XMC/Libraries/XMCLib/inc\xmc_usic.h ****   XMC_USIC_CH_DATA_OUTPUT_MODE_NORMAL   = 0x0UL,  /**< Data output normal mode */
 296:G:/DT/dt_g1_balancing_plate_wise20192020/XMC/Libraries/XMCLib/inc\xmc_usic.h ****   XMC_USIC_CH_DATA_OUTPUT_MODE_INVERTED = 0x1UL << USIC_CH_SCTR_DOCFG_Pos   /**< Data output invert
 297:G:/DT/dt_g1_balancing_plate_wise20192020/XMC/Libraries/XMCLib/inc\xmc_usic.h **** } XMC_USIC_CH_DATA_OUTPUT_MODE_t;
 298:G:/DT/dt_g1_balancing_plate_wise20192020/XMC/Libraries/XMCLib/inc\xmc_usic.h **** 
 299:G:/DT/dt_g1_balancing_plate_wise20192020/XMC/Libraries/XMCLib/inc\xmc_usic.h **** /**
 300:G:/DT/dt_g1_balancing_plate_wise20192020/XMC/Libraries/XMCLib/inc\xmc_usic.h **** * USIC channel data transmit buffer status
 301:G:/DT/dt_g1_balancing_plate_wise20192020/XMC/Libraries/XMCLib/inc\xmc_usic.h **** */
 302:G:/DT/dt_g1_balancing_plate_wise20192020/XMC/Libraries/XMCLib/inc\xmc_usic.h **** typedef enum XMC_USIC_CH_TBUF_STATUS
 303:G:/DT/dt_g1_balancing_plate_wise20192020/XMC/Libraries/XMCLib/inc\xmc_usic.h **** {
 304:G:/DT/dt_g1_balancing_plate_wise20192020/XMC/Libraries/XMCLib/inc\xmc_usic.h ****   XMC_USIC_CH_TBUF_STATUS_IDLE = 0x0UL,                 /**< Transfer buffer is currently idle*/
 305:G:/DT/dt_g1_balancing_plate_wise20192020/XMC/Libraries/XMCLib/inc\xmc_usic.h ****   XMC_USIC_CH_TBUF_STATUS_BUSY = USIC_CH_TCSR_TDV_Msk   /**< Transfer buffer is currently busy*/
 306:G:/DT/dt_g1_balancing_plate_wise20192020/XMC/Libraries/XMCLib/inc\xmc_usic.h **** } XMC_USIC_CH_TBUF_STATUS_t;
 307:G:/DT/dt_g1_balancing_plate_wise20192020/XMC/Libraries/XMCLib/inc\xmc_usic.h **** 
 308:G:/DT/dt_g1_balancing_plate_wise20192020/XMC/Libraries/XMCLib/inc\xmc_usic.h **** 
 309:G:/DT/dt_g1_balancing_plate_wise20192020/XMC/Libraries/XMCLib/inc\xmc_usic.h **** 
 310:G:/DT/dt_g1_balancing_plate_wise20192020/XMC/Libraries/XMCLib/inc\xmc_usic.h **** /**
 311:G:/DT/dt_g1_balancing_plate_wise20192020/XMC/Libraries/XMCLib/inc\xmc_usic.h **** * USIC channel data transmit buffer status modification
 312:G:/DT/dt_g1_balancing_plate_wise20192020/XMC/Libraries/XMCLib/inc\xmc_usic.h **** */
 313:G:/DT/dt_g1_balancing_plate_wise20192020/XMC/Libraries/XMCLib/inc\xmc_usic.h **** typedef enum XMC_USIC_CH_TBUF_STATUS_SET
 314:G:/DT/dt_g1_balancing_plate_wise20192020/XMC/Libraries/XMCLib/inc\xmc_usic.h **** {
 315:G:/DT/dt_g1_balancing_plate_wise20192020/XMC/Libraries/XMCLib/inc\xmc_usic.h ****   XMC_USIC_CH_TBUF_STATUS_SET_BUSY   = 0x1UL, /**< Set Transfer buffer status to busy*/
 316:G:/DT/dt_g1_balancing_plate_wise20192020/XMC/Libraries/XMCLib/inc\xmc_usic.h ****   XMC_USIC_CH_TBUF_STATUS_SET_IDLE   = 0x2UL  /**< Set Transfer buffer status to idle*/
 317:G:/DT/dt_g1_balancing_plate_wise20192020/XMC/Libraries/XMCLib/inc\xmc_usic.h **** } XMC_USIC_CH_TBUF_STATUS_SET_t;
 318:G:/DT/dt_g1_balancing_plate_wise20192020/XMC/Libraries/XMCLib/inc\xmc_usic.h **** 
 319:G:/DT/dt_g1_balancing_plate_wise20192020/XMC/Libraries/XMCLib/inc\xmc_usic.h **** /**
 320:G:/DT/dt_g1_balancing_plate_wise20192020/XMC/Libraries/XMCLib/inc\xmc_usic.h **** * USIC channel receive buffer status
 321:G:/DT/dt_g1_balancing_plate_wise20192020/XMC/Libraries/XMCLib/inc\xmc_usic.h **** */
 322:G:/DT/dt_g1_balancing_plate_wise20192020/XMC/Libraries/XMCLib/inc\xmc_usic.h **** typedef enum XMC_USIC_CH_RBUF_STATUS
 323:G:/DT/dt_g1_balancing_plate_wise20192020/XMC/Libraries/XMCLib/inc\xmc_usic.h **** {
 324:G:/DT/dt_g1_balancing_plate_wise20192020/XMC/Libraries/XMCLib/inc\xmc_usic.h ****   XMC_USIC_CH_RBUF_STATUS_DATA_VALID0 = USIC_CH_RBUFSR_RDV0_Msk, /**< RBUF0 data has not yet been r
 325:G:/DT/dt_g1_balancing_plate_wise20192020/XMC/Libraries/XMCLib/inc\xmc_usic.h ****   XMC_USIC_CH_RBUF_STATUS_DATA_VALID1 = USIC_CH_RBUFSR_RDV1_Msk  /**< RBUF1 data has not yet been r
 326:G:/DT/dt_g1_balancing_plate_wise20192020/XMC/Libraries/XMCLib/inc\xmc_usic.h **** } XMC_USIC_CH_RBUF_STATUS_t;
 327:G:/DT/dt_g1_balancing_plate_wise20192020/XMC/Libraries/XMCLib/inc\xmc_usic.h **** 
 328:G:/DT/dt_g1_balancing_plate_wise20192020/XMC/Libraries/XMCLib/inc\xmc_usic.h **** /**
 329:G:/DT/dt_g1_balancing_plate_wise20192020/XMC/Libraries/XMCLib/inc\xmc_usic.h ****  * USIC channel output signal passive data level
 330:G:/DT/dt_g1_balancing_plate_wise20192020/XMC/Libraries/XMCLib/inc\xmc_usic.h **** */
 331:G:/DT/dt_g1_balancing_plate_wise20192020/XMC/Libraries/XMCLib/inc\xmc_usic.h **** typedef enum XMC_USCI_CH_PASSIVE_DATA_LEVEL
 332:G:/DT/dt_g1_balancing_plate_wise20192020/XMC/Libraries/XMCLib/inc\xmc_usic.h **** {
 333:G:/DT/dt_g1_balancing_plate_wise20192020/XMC/Libraries/XMCLib/inc\xmc_usic.h ****   XMC_USIC_CH_PASSIVE_DATA_LEVEL0 = 0x0UL, /**< Passive level(idle mode signal level) 0 */
 334:G:/DT/dt_g1_balancing_plate_wise20192020/XMC/Libraries/XMCLib/inc\xmc_usic.h ****   XMC_USIC_CH_PASSIVE_DATA_LEVEL1 = 0x1UL << USIC_CH_SCTR_PDL_Pos  /**< Passive level(idle mode sig
 335:G:/DT/dt_g1_balancing_plate_wise20192020/XMC/Libraries/XMCLib/inc\xmc_usic.h **** } XMC_USIC_CH_PASSIVE_DATA_LEVEL_t;
 336:G:/DT/dt_g1_balancing_plate_wise20192020/XMC/Libraries/XMCLib/inc\xmc_usic.h **** 
 337:G:/DT/dt_g1_balancing_plate_wise20192020/XMC/Libraries/XMCLib/inc\xmc_usic.h **** /**
 338:G:/DT/dt_g1_balancing_plate_wise20192020/XMC/Libraries/XMCLib/inc\xmc_usic.h **** * USIC channel receive FIFO size
 339:G:/DT/dt_g1_balancing_plate_wise20192020/XMC/Libraries/XMCLib/inc\xmc_usic.h **** */
 340:G:/DT/dt_g1_balancing_plate_wise20192020/XMC/Libraries/XMCLib/inc\xmc_usic.h **** typedef enum XMC_USIC_CH_FIFO_SIZE
 341:G:/DT/dt_g1_balancing_plate_wise20192020/XMC/Libraries/XMCLib/inc\xmc_usic.h **** {
 342:G:/DT/dt_g1_balancing_plate_wise20192020/XMC/Libraries/XMCLib/inc\xmc_usic.h ****   XMC_USIC_CH_FIFO_DISABLED     = 0x0U,  /**< FIFO Disabled */
 343:G:/DT/dt_g1_balancing_plate_wise20192020/XMC/Libraries/XMCLib/inc\xmc_usic.h ****   XMC_USIC_CH_FIFO_SIZE_2WORDS  = 0x1U,  /**< FIFO size: 2 words */
 344:G:/DT/dt_g1_balancing_plate_wise20192020/XMC/Libraries/XMCLib/inc\xmc_usic.h ****   XMC_USIC_CH_FIFO_SIZE_4WORDS  = 0x2U,  /**< FIFO size: 4 words */
 345:G:/DT/dt_g1_balancing_plate_wise20192020/XMC/Libraries/XMCLib/inc\xmc_usic.h ****   XMC_USIC_CH_FIFO_SIZE_8WORDS  = 0x3U,  /**< FIFO size: 8 words */
 346:G:/DT/dt_g1_balancing_plate_wise20192020/XMC/Libraries/XMCLib/inc\xmc_usic.h ****   XMC_USIC_CH_FIFO_SIZE_16WORDS = 0x4U,  /**< FIFO size: 16 words */
 347:G:/DT/dt_g1_balancing_plate_wise20192020/XMC/Libraries/XMCLib/inc\xmc_usic.h ****   XMC_USIC_CH_FIFO_SIZE_32WORDS = 0x5U,  /**< FIFO size: 32 words */
 348:G:/DT/dt_g1_balancing_plate_wise20192020/XMC/Libraries/XMCLib/inc\xmc_usic.h ****   XMC_USIC_CH_FIFO_SIZE_64WORDS = 0x6U   /**< FIFO size: 64 words */
 349:G:/DT/dt_g1_balancing_plate_wise20192020/XMC/Libraries/XMCLib/inc\xmc_usic.h **** } XMC_USIC_CH_FIFO_SIZE_t;
 350:G:/DT/dt_g1_balancing_plate_wise20192020/XMC/Libraries/XMCLib/inc\xmc_usic.h **** 
 351:G:/DT/dt_g1_balancing_plate_wise20192020/XMC/Libraries/XMCLib/inc\xmc_usic.h **** /**
 352:G:/DT/dt_g1_balancing_plate_wise20192020/XMC/Libraries/XMCLib/inc\xmc_usic.h **** * USIC channel transmit FIFO interrupt node pointers
 353:G:/DT/dt_g1_balancing_plate_wise20192020/XMC/Libraries/XMCLib/inc\xmc_usic.h **** */
 354:G:/DT/dt_g1_balancing_plate_wise20192020/XMC/Libraries/XMCLib/inc\xmc_usic.h **** typedef enum XMC_USIC_CH_TXFIFO_INTERRUPT_NODE_POINTER
 355:G:/DT/dt_g1_balancing_plate_wise20192020/XMC/Libraries/XMCLib/inc\xmc_usic.h **** {
 356:G:/DT/dt_g1_balancing_plate_wise20192020/XMC/Libraries/XMCLib/inc\xmc_usic.h ****   XMC_USIC_CH_TXFIFO_INTERRUPT_NODE_POINTER_STANDARD  = USIC_CH_TBCTR_STBINP_Pos,  /**< Node pointe
 357:G:/DT/dt_g1_balancing_plate_wise20192020/XMC/Libraries/XMCLib/inc\xmc_usic.h ****   XMC_USIC_CH_TXFIFO_INTERRUPT_NODE_POINTER_ALTERNATE = USIC_CH_TBCTR_ATBINP_Pos   /**< Node pointe
 358:G:/DT/dt_g1_balancing_plate_wise20192020/XMC/Libraries/XMCLib/inc\xmc_usic.h **** } XMC_USIC_CH_TXFIFO_INTERRUPT_NODE_POINTER_t;
 359:G:/DT/dt_g1_balancing_plate_wise20192020/XMC/Libraries/XMCLib/inc\xmc_usic.h **** 
 360:G:/DT/dt_g1_balancing_plate_wise20192020/XMC/Libraries/XMCLib/inc\xmc_usic.h **** /**
 361:G:/DT/dt_g1_balancing_plate_wise20192020/XMC/Libraries/XMCLib/inc\xmc_usic.h **** * USIC channel transmit FIFO event configuration
 362:G:/DT/dt_g1_balancing_plate_wise20192020/XMC/Libraries/XMCLib/inc\xmc_usic.h **** */
 363:G:/DT/dt_g1_balancing_plate_wise20192020/XMC/Libraries/XMCLib/inc\xmc_usic.h **** typedef enum XMC_USIC_CH_TXFIFO_EVENT_CONF
 364:G:/DT/dt_g1_balancing_plate_wise20192020/XMC/Libraries/XMCLib/inc\xmc_usic.h **** {
 365:G:/DT/dt_g1_balancing_plate_wise20192020/XMC/Libraries/XMCLib/inc\xmc_usic.h ****   XMC_USIC_CH_TXFIFO_EVENT_CONF_STANDARD  = USIC_CH_TBCTR_STBIEN_Msk,   /**< Enable FIFO standard t
 366:G:/DT/dt_g1_balancing_plate_wise20192020/XMC/Libraries/XMCLib/inc\xmc_usic.h ****   XMC_USIC_CH_TXFIFO_EVENT_CONF_ERROR     = (int32_t)USIC_CH_TBCTR_TBERIEN_Msk  /**< Enable transmi
 367:G:/DT/dt_g1_balancing_plate_wise20192020/XMC/Libraries/XMCLib/inc\xmc_usic.h **** } XMC_USIC_CH_TXFIFO_EVENT_CONF_t;
 368:G:/DT/dt_g1_balancing_plate_wise20192020/XMC/Libraries/XMCLib/inc\xmc_usic.h **** 
 369:G:/DT/dt_g1_balancing_plate_wise20192020/XMC/Libraries/XMCLib/inc\xmc_usic.h **** /**
 370:G:/DT/dt_g1_balancing_plate_wise20192020/XMC/Libraries/XMCLib/inc\xmc_usic.h **** * USIC channel transmit FIFO status
 371:G:/DT/dt_g1_balancing_plate_wise20192020/XMC/Libraries/XMCLib/inc\xmc_usic.h **** */
 372:G:/DT/dt_g1_balancing_plate_wise20192020/XMC/Libraries/XMCLib/inc\xmc_usic.h **** typedef enum XMC_USIC_CH_TXFIFO_EVENT
 373:G:/DT/dt_g1_balancing_plate_wise20192020/XMC/Libraries/XMCLib/inc\xmc_usic.h **** {
 374:G:/DT/dt_g1_balancing_plate_wise20192020/XMC/Libraries/XMCLib/inc\xmc_usic.h ****   XMC_USIC_CH_TXFIFO_EVENT_STANDARD = USIC_CH_TRBSR_STBI_Msk,    /**< Transmit FIFO status: Standar
 375:G:/DT/dt_g1_balancing_plate_wise20192020/XMC/Libraries/XMCLib/inc\xmc_usic.h ****   XMC_USIC_CH_TXFIFO_EVENT_ERROR    = USIC_CH_TRBSR_TBERI_Msk    /**< Transmit FIFO status: Error e
 376:G:/DT/dt_g1_balancing_plate_wise20192020/XMC/Libraries/XMCLib/inc\xmc_usic.h **** } XMC_USIC_CH_TXFIFO_EVENT_t;
 377:G:/DT/dt_g1_balancing_plate_wise20192020/XMC/Libraries/XMCLib/inc\xmc_usic.h **** 
 378:G:/DT/dt_g1_balancing_plate_wise20192020/XMC/Libraries/XMCLib/inc\xmc_usic.h **** /**
 379:G:/DT/dt_g1_balancing_plate_wise20192020/XMC/Libraries/XMCLib/inc\xmc_usic.h **** * USIC channel receive FIFO interrupt node pointers
 380:G:/DT/dt_g1_balancing_plate_wise20192020/XMC/Libraries/XMCLib/inc\xmc_usic.h **** */
 381:G:/DT/dt_g1_balancing_plate_wise20192020/XMC/Libraries/XMCLib/inc\xmc_usic.h **** typedef enum XMC_USIC_CH_RXFIFO_INTERRUPT_NODE_POINTER
 382:G:/DT/dt_g1_balancing_plate_wise20192020/XMC/Libraries/XMCLib/inc\xmc_usic.h **** {
 383:G:/DT/dt_g1_balancing_plate_wise20192020/XMC/Libraries/XMCLib/inc\xmc_usic.h ****   XMC_USIC_CH_RXFIFO_INTERRUPT_NODE_POINTER_STANDARD  = USIC_CH_RBCTR_SRBINP_Pos, /**< Node pointer
 384:G:/DT/dt_g1_balancing_plate_wise20192020/XMC/Libraries/XMCLib/inc\xmc_usic.h ****   XMC_USIC_CH_RXFIFO_INTERRUPT_NODE_POINTER_ALTERNATE = USIC_CH_RBCTR_ARBINP_Pos  /**< Node pointer
 385:G:/DT/dt_g1_balancing_plate_wise20192020/XMC/Libraries/XMCLib/inc\xmc_usic.h **** } XMC_USIC_CH_RXFIFO_INTERRUPT_NODE_POINTER_t;
 386:G:/DT/dt_g1_balancing_plate_wise20192020/XMC/Libraries/XMCLib/inc\xmc_usic.h **** 
 387:G:/DT/dt_g1_balancing_plate_wise20192020/XMC/Libraries/XMCLib/inc\xmc_usic.h **** /**
 388:G:/DT/dt_g1_balancing_plate_wise20192020/XMC/Libraries/XMCLib/inc\xmc_usic.h **** * USIC channel receive FIFO event configuration
 389:G:/DT/dt_g1_balancing_plate_wise20192020/XMC/Libraries/XMCLib/inc\xmc_usic.h **** */
 390:G:/DT/dt_g1_balancing_plate_wise20192020/XMC/Libraries/XMCLib/inc\xmc_usic.h **** typedef enum XMC_USIC_CH_RXFIFO_EVENT_CONF
 391:G:/DT/dt_g1_balancing_plate_wise20192020/XMC/Libraries/XMCLib/inc\xmc_usic.h **** {
 392:G:/DT/dt_g1_balancing_plate_wise20192020/XMC/Libraries/XMCLib/inc\xmc_usic.h ****   XMC_USIC_CH_RXFIFO_EVENT_CONF_STANDARD  = USIC_CH_RBCTR_SRBIEN_Msk,   /**< Enable FIFO standard r
 393:G:/DT/dt_g1_balancing_plate_wise20192020/XMC/Libraries/XMCLib/inc\xmc_usic.h ****   XMC_USIC_CH_RXFIFO_EVENT_CONF_ERROR     = (int32_t)USIC_CH_RBCTR_RBERIEN_Msk,  /**< Enable receiv
 394:G:/DT/dt_g1_balancing_plate_wise20192020/XMC/Libraries/XMCLib/inc\xmc_usic.h ****   XMC_USIC_CH_RXFIFO_EVENT_CONF_ALTERNATE = USIC_CH_RBCTR_ARBIEN_Msk   /**< Enable FIFO alternative
 395:G:/DT/dt_g1_balancing_plate_wise20192020/XMC/Libraries/XMCLib/inc\xmc_usic.h **** } XMC_USIC_CH_RXFIFO_EVENT_CONF_t;
 396:G:/DT/dt_g1_balancing_plate_wise20192020/XMC/Libraries/XMCLib/inc\xmc_usic.h **** 
 397:G:/DT/dt_g1_balancing_plate_wise20192020/XMC/Libraries/XMCLib/inc\xmc_usic.h **** /**
 398:G:/DT/dt_g1_balancing_plate_wise20192020/XMC/Libraries/XMCLib/inc\xmc_usic.h **** * USIC channel receive FIFO status
 399:G:/DT/dt_g1_balancing_plate_wise20192020/XMC/Libraries/XMCLib/inc\xmc_usic.h **** */
 400:G:/DT/dt_g1_balancing_plate_wise20192020/XMC/Libraries/XMCLib/inc\xmc_usic.h **** typedef enum XMC_USIC_CH_RXFIFO_EVENT
 401:G:/DT/dt_g1_balancing_plate_wise20192020/XMC/Libraries/XMCLib/inc\xmc_usic.h **** {
 402:G:/DT/dt_g1_balancing_plate_wise20192020/XMC/Libraries/XMCLib/inc\xmc_usic.h ****   XMC_USIC_CH_RXFIFO_EVENT_STANDARD  = USIC_CH_TRBSR_SRBI_Msk,   /**< Receive FIFO status: Standard
 403:G:/DT/dt_g1_balancing_plate_wise20192020/XMC/Libraries/XMCLib/inc\xmc_usic.h ****   XMC_USIC_CH_RXFIFO_EVENT_ERROR     = USIC_CH_TRBSR_RBERI_Msk,  /**< Receive FIFO status: Error ev
 404:G:/DT/dt_g1_balancing_plate_wise20192020/XMC/Libraries/XMCLib/inc\xmc_usic.h ****   XMC_USIC_CH_RXFIFO_EVENT_ALTERNATE = USIC_CH_TRBSR_ARBI_Msk    /**< Receive FIFO status: Alternat
 405:G:/DT/dt_g1_balancing_plate_wise20192020/XMC/Libraries/XMCLib/inc\xmc_usic.h **** } XMC_USIC_CH_RXFIFO_EVENT_t;
 406:G:/DT/dt_g1_balancing_plate_wise20192020/XMC/Libraries/XMCLib/inc\xmc_usic.h **** 
 407:G:/DT/dt_g1_balancing_plate_wise20192020/XMC/Libraries/XMCLib/inc\xmc_usic.h **** /**
 408:G:/DT/dt_g1_balancing_plate_wise20192020/XMC/Libraries/XMCLib/inc\xmc_usic.h **** * USIC channel baudrate generator clock source
 409:G:/DT/dt_g1_balancing_plate_wise20192020/XMC/Libraries/XMCLib/inc\xmc_usic.h **** */
 410:G:/DT/dt_g1_balancing_plate_wise20192020/XMC/Libraries/XMCLib/inc\xmc_usic.h **** typedef enum XMC_USIC_CH_BRG_CLOCK_SOURCE
 411:G:/DT/dt_g1_balancing_plate_wise20192020/XMC/Libraries/XMCLib/inc\xmc_usic.h **** {
 412:G:/DT/dt_g1_balancing_plate_wise20192020/XMC/Libraries/XMCLib/inc\xmc_usic.h ****   XMC_USIC_CH_BRG_CLOCK_SOURCE_DIVIDER = 0x0UL, /**< Baudrate generator clock source : Source divid
 413:G:/DT/dt_g1_balancing_plate_wise20192020/XMC/Libraries/XMCLib/inc\xmc_usic.h ****   XMC_USIC_CH_BRG_CLOCK_SOURCE_DX1T    = 0x2UL << USIC_CH_BRG_CLKSEL_Pos  /**< Baudrate generator c
 414:G:/DT/dt_g1_balancing_plate_wise20192020/XMC/Libraries/XMCLib/inc\xmc_usic.h **** } XMC_USIC_CH_BRG_CLOCK_SOURCE_t;
 415:G:/DT/dt_g1_balancing_plate_wise20192020/XMC/Libraries/XMCLib/inc\xmc_usic.h **** 
 416:G:/DT/dt_g1_balancing_plate_wise20192020/XMC/Libraries/XMCLib/inc\xmc_usic.h **** /**
 417:G:/DT/dt_g1_balancing_plate_wise20192020/XMC/Libraries/XMCLib/inc\xmc_usic.h **** * USIC channel baudrate generator divider mode
 418:G:/DT/dt_g1_balancing_plate_wise20192020/XMC/Libraries/XMCLib/inc\xmc_usic.h **** */
 419:G:/DT/dt_g1_balancing_plate_wise20192020/XMC/Libraries/XMCLib/inc\xmc_usic.h **** typedef enum XMC_USIC_CH_BRG_CLOCK_DIVIDER_MODE
 420:G:/DT/dt_g1_balancing_plate_wise20192020/XMC/Libraries/XMCLib/inc\xmc_usic.h **** {
 421:G:/DT/dt_g1_balancing_plate_wise20192020/XMC/Libraries/XMCLib/inc\xmc_usic.h ****   XMC_USIC_CH_BRG_CLOCK_DIVIDER_MODE_DISABLED   = 0x0UL, /**< Baudrate generator clock divider: Dis
 422:G:/DT/dt_g1_balancing_plate_wise20192020/XMC/Libraries/XMCLib/inc\xmc_usic.h ****   XMC_USIC_CH_BRG_CLOCK_DIVIDER_MODE_NORMAL     = 0x1UL << USIC_CH_FDR_DM_Pos, /**< Baudrate genera
 423:G:/DT/dt_g1_balancing_plate_wise20192020/XMC/Libraries/XMCLib/inc\xmc_usic.h ****   XMC_USIC_CH_BRG_CLOCK_DIVIDER_MODE_FRACTIONAL = 0x2UL << USIC_CH_FDR_DM_Pos  /**< Baudrate genera
 424:G:/DT/dt_g1_balancing_plate_wise20192020/XMC/Libraries/XMCLib/inc\xmc_usic.h **** } XMC_USIC_CH_BRG_CLOCK_DIVIDER_MODE_t;
 425:G:/DT/dt_g1_balancing_plate_wise20192020/XMC/Libraries/XMCLib/inc\xmc_usic.h **** 
 426:G:/DT/dt_g1_balancing_plate_wise20192020/XMC/Libraries/XMCLib/inc\xmc_usic.h **** /**
 427:G:/DT/dt_g1_balancing_plate_wise20192020/XMC/Libraries/XMCLib/inc\xmc_usic.h **** * USIC channel baudrate generator master clock passive level
 428:G:/DT/dt_g1_balancing_plate_wise20192020/XMC/Libraries/XMCLib/inc\xmc_usic.h **** */
 429:G:/DT/dt_g1_balancing_plate_wise20192020/XMC/Libraries/XMCLib/inc\xmc_usic.h **** typedef enum XMC_USIC_CH_BRG_MASTER_CLOCK_PASSIVE_LEVEL
 430:G:/DT/dt_g1_balancing_plate_wise20192020/XMC/Libraries/XMCLib/inc\xmc_usic.h **** {
 431:G:/DT/dt_g1_balancing_plate_wise20192020/XMC/Libraries/XMCLib/inc\xmc_usic.h ****   XMC_USIC_CH_BRG_MASTER_CLOCK_PASSIVE_LEVEL_0 = 0x0UL, /**< Baudrate generator master clock passiv
 432:G:/DT/dt_g1_balancing_plate_wise20192020/XMC/Libraries/XMCLib/inc\xmc_usic.h ****   XMC_USIC_CH_BRG_MASTER_CLOCK_PASSIVE_LEVEL_1 = 0x1UL << USIC_CH_BRG_MCLKCFG_Pos  /**< Baudrate ge
 433:G:/DT/dt_g1_balancing_plate_wise20192020/XMC/Libraries/XMCLib/inc\xmc_usic.h **** } XMC_USIC_CH_BRG_MASTER_CLOCK_PASSIVE_LEVEL_t;
 434:G:/DT/dt_g1_balancing_plate_wise20192020/XMC/Libraries/XMCLib/inc\xmc_usic.h **** 
 435:G:/DT/dt_g1_balancing_plate_wise20192020/XMC/Libraries/XMCLib/inc\xmc_usic.h **** /**
 436:G:/DT/dt_g1_balancing_plate_wise20192020/XMC/Libraries/XMCLib/inc\xmc_usic.h **** * USIC channel baudrate generator shift clock passive level
 437:G:/DT/dt_g1_balancing_plate_wise20192020/XMC/Libraries/XMCLib/inc\xmc_usic.h **** */
 438:G:/DT/dt_g1_balancing_plate_wise20192020/XMC/Libraries/XMCLib/inc\xmc_usic.h **** typedef enum XMC_USIC_CH_BRG_SHIFT_CLOCK_PASSIVE_LEVEL
 439:G:/DT/dt_g1_balancing_plate_wise20192020/XMC/Libraries/XMCLib/inc\xmc_usic.h **** {
 440:G:/DT/dt_g1_balancing_plate_wise20192020/XMC/Libraries/XMCLib/inc\xmc_usic.h ****   XMC_USIC_CH_BRG_SHIFT_CLOCK_PASSIVE_LEVEL_0_DELAY_DISABLED = 0x0UL, /**< Shift clock passive leve
 441:G:/DT/dt_g1_balancing_plate_wise20192020/XMC/Libraries/XMCLib/inc\xmc_usic.h ****   XMC_USIC_CH_BRG_SHIFT_CLOCK_PASSIVE_LEVEL_1_DELAY_DISABLED = 0x1UL << USIC_CH_BRG_SCLKCFG_Pos, /*
 442:G:/DT/dt_g1_balancing_plate_wise20192020/XMC/Libraries/XMCLib/inc\xmc_usic.h ****   XMC_USIC_CH_BRG_SHIFT_CLOCK_PASSIVE_LEVEL_0_DELAY_ENABLED  = (int32_t)(0x2UL << USIC_CH_BRG_SCLKC
 443:G:/DT/dt_g1_balancing_plate_wise20192020/XMC/Libraries/XMCLib/inc\xmc_usic.h ****   XMC_USIC_CH_BRG_SHIFT_CLOCK_PASSIVE_LEVEL_1_DELAY_ENABLED  = (int32_t)(0x3UL << USIC_CH_BRG_SCLKC
 444:G:/DT/dt_g1_balancing_plate_wise20192020/XMC/Libraries/XMCLib/inc\xmc_usic.h **** } XMC_USIC_CH_BRG_SHIFT_CLOCK_PASSIVE_LEVEL_t;
 445:G:/DT/dt_g1_balancing_plate_wise20192020/XMC/Libraries/XMCLib/inc\xmc_usic.h **** 
 446:G:/DT/dt_g1_balancing_plate_wise20192020/XMC/Libraries/XMCLib/inc\xmc_usic.h **** /**
 447:G:/DT/dt_g1_balancing_plate_wise20192020/XMC/Libraries/XMCLib/inc\xmc_usic.h **** * USIC channel baudrate generator shift clock output
 448:G:/DT/dt_g1_balancing_plate_wise20192020/XMC/Libraries/XMCLib/inc\xmc_usic.h **** */
 449:G:/DT/dt_g1_balancing_plate_wise20192020/XMC/Libraries/XMCLib/inc\xmc_usic.h **** typedef enum XMC_USIC_CH_BRG_SHIFT_CLOCK_OUTPUT
 450:G:/DT/dt_g1_balancing_plate_wise20192020/XMC/Libraries/XMCLib/inc\xmc_usic.h **** {
 451:G:/DT/dt_g1_balancing_plate_wise20192020/XMC/Libraries/XMCLib/inc\xmc_usic.h ****   XMC_USIC_CH_BRG_SHIFT_CLOCK_OUTPUT_SCLK = 0x0UL, /**< Baudrate generator shift clock output: SCL.
 452:G:/DT/dt_g1_balancing_plate_wise20192020/XMC/Libraries/XMCLib/inc\xmc_usic.h ****   XMC_USIC_CH_BRG_SHIFT_CLOCK_OUTPUT_DX1 = 0x1UL << USIC_CH_BRG_SCLKOSEL_Pos   /**< Baudrate genera
 453:G:/DT/dt_g1_balancing_plate_wise20192020/XMC/Libraries/XMCLib/inc\xmc_usic.h **** } XMC_USIC_CH_BRG_SHIFT_CLOCK_OUTPUT_t;
 454:G:/DT/dt_g1_balancing_plate_wise20192020/XMC/Libraries/XMCLib/inc\xmc_usic.h **** 
 455:G:/DT/dt_g1_balancing_plate_wise20192020/XMC/Libraries/XMCLib/inc\xmc_usic.h **** /**
 456:G:/DT/dt_g1_balancing_plate_wise20192020/XMC/Libraries/XMCLib/inc\xmc_usic.h **** * USIC channel shift direction.
 457:G:/DT/dt_g1_balancing_plate_wise20192020/XMC/Libraries/XMCLib/inc\xmc_usic.h **** * Defines the shift direction of the data words for transmission and reception
 458:G:/DT/dt_g1_balancing_plate_wise20192020/XMC/Libraries/XMCLib/inc\xmc_usic.h **** */
 459:G:/DT/dt_g1_balancing_plate_wise20192020/XMC/Libraries/XMCLib/inc\xmc_usic.h **** typedef enum XMC_USIC_CH_SHIFT_DIRECTION
 460:G:/DT/dt_g1_balancing_plate_wise20192020/XMC/Libraries/XMCLib/inc\xmc_usic.h **** {
 461:G:/DT/dt_g1_balancing_plate_wise20192020/XMC/Libraries/XMCLib/inc\xmc_usic.h ****   XMC_USIC_CH_SHIFT_DIRECTION_LSB_FIRST = 0x0UL, /**< Shift LSB first. The first data bit of a data
 462:G:/DT/dt_g1_balancing_plate_wise20192020/XMC/Libraries/XMCLib/inc\xmc_usic.h ****   XMC_USIC_CH_SHIFT_DIRECTION_MSB_FIRST = 0x1UL << USIC_CH_SCTR_SDIR_Pos /**< Shift MSB first. The 
 463:G:/DT/dt_g1_balancing_plate_wise20192020/XMC/Libraries/XMCLib/inc\xmc_usic.h **** } XMC_USIC_CH_SHIFT_DIRECTION_t;
 464:G:/DT/dt_g1_balancing_plate_wise20192020/XMC/Libraries/XMCLib/inc\xmc_usic.h **** 
 465:G:/DT/dt_g1_balancing_plate_wise20192020/XMC/Libraries/XMCLib/inc\xmc_usic.h **** 
 466:G:/DT/dt_g1_balancing_plate_wise20192020/XMC/Libraries/XMCLib/inc\xmc_usic.h **** /*******************************************************************************
 467:G:/DT/dt_g1_balancing_plate_wise20192020/XMC/Libraries/XMCLib/inc\xmc_usic.h ****  * DATA STRUCTURES
 468:G:/DT/dt_g1_balancing_plate_wise20192020/XMC/Libraries/XMCLib/inc\xmc_usic.h ****  *******************************************************************************/
 469:G:/DT/dt_g1_balancing_plate_wise20192020/XMC/Libraries/XMCLib/inc\xmc_usic.h **** 
 470:G:/DT/dt_g1_balancing_plate_wise20192020/XMC/Libraries/XMCLib/inc\xmc_usic.h **** /*Anonymous structure/union guard start*/
 471:G:/DT/dt_g1_balancing_plate_wise20192020/XMC/Libraries/XMCLib/inc\xmc_usic.h **** #if defined(__CC_ARM)
 472:G:/DT/dt_g1_balancing_plate_wise20192020/XMC/Libraries/XMCLib/inc\xmc_usic.h ****   #pragma push
 473:G:/DT/dt_g1_balancing_plate_wise20192020/XMC/Libraries/XMCLib/inc\xmc_usic.h ****   #pragma anon_unions
 474:G:/DT/dt_g1_balancing_plate_wise20192020/XMC/Libraries/XMCLib/inc\xmc_usic.h **** #elif defined(__TASKING__)
 475:G:/DT/dt_g1_balancing_plate_wise20192020/XMC/Libraries/XMCLib/inc\xmc_usic.h ****   #pragma warning 586
 476:G:/DT/dt_g1_balancing_plate_wise20192020/XMC/Libraries/XMCLib/inc\xmc_usic.h **** #endif
 477:G:/DT/dt_g1_balancing_plate_wise20192020/XMC/Libraries/XMCLib/inc\xmc_usic.h **** 
 478:G:/DT/dt_g1_balancing_plate_wise20192020/XMC/Libraries/XMCLib/inc\xmc_usic.h **** /**
 479:G:/DT/dt_g1_balancing_plate_wise20192020/XMC/Libraries/XMCLib/inc\xmc_usic.h ****  * USIC module structure
 480:G:/DT/dt_g1_balancing_plate_wise20192020/XMC/Libraries/XMCLib/inc\xmc_usic.h ****  */
 481:G:/DT/dt_g1_balancing_plate_wise20192020/XMC/Libraries/XMCLib/inc\xmc_usic.h **** typedef USIC_GLOBAL_TypeDef XMC_USIC_t;
 482:G:/DT/dt_g1_balancing_plate_wise20192020/XMC/Libraries/XMCLib/inc\xmc_usic.h **** 
 483:G:/DT/dt_g1_balancing_plate_wise20192020/XMC/Libraries/XMCLib/inc\xmc_usic.h **** /**
 484:G:/DT/dt_g1_balancing_plate_wise20192020/XMC/Libraries/XMCLib/inc\xmc_usic.h ****  * USIC channel structure.<br> The members of the structure are same as in the device header file, 
 485:G:/DT/dt_g1_balancing_plate_wise20192020/XMC/Libraries/XMCLib/inc\xmc_usic.h ****  * except for some registers.
 486:G:/DT/dt_g1_balancing_plate_wise20192020/XMC/Libraries/XMCLib/inc\xmc_usic.h ****  * DX0CR, DX1CR, DX2CR, DX3CR, DX4CR and DX5CR are replaced with the array DXCR[6].
 487:G:/DT/dt_g1_balancing_plate_wise20192020/XMC/Libraries/XMCLib/inc\xmc_usic.h ****  * TBUF0 to TBUF31 are replaced with TBUF[32].
 488:G:/DT/dt_g1_balancing_plate_wise20192020/XMC/Libraries/XMCLib/inc\xmc_usic.h ****  * IN0 to IN31 are replaced with IN[32].
 489:G:/DT/dt_g1_balancing_plate_wise20192020/XMC/Libraries/XMCLib/inc\xmc_usic.h ****  */
 490:G:/DT/dt_g1_balancing_plate_wise20192020/XMC/Libraries/XMCLib/inc\xmc_usic.h **** typedef struct XMC_USIC_CH
 491:G:/DT/dt_g1_balancing_plate_wise20192020/XMC/Libraries/XMCLib/inc\xmc_usic.h **** {
 492:G:/DT/dt_g1_balancing_plate_wise20192020/XMC/Libraries/XMCLib/inc\xmc_usic.h ****   __I  uint32_t  RESERVED0;
 493:G:/DT/dt_g1_balancing_plate_wise20192020/XMC/Libraries/XMCLib/inc\xmc_usic.h ****   __I  uint32_t  CCFG;			/**< Channel configuration register*/
 494:G:/DT/dt_g1_balancing_plate_wise20192020/XMC/Libraries/XMCLib/inc\xmc_usic.h ****   __I  uint32_t  RESERVED1;
 495:G:/DT/dt_g1_balancing_plate_wise20192020/XMC/Libraries/XMCLib/inc\xmc_usic.h ****   __IO uint32_t  KSCFG;			/**< Kernel state configuration register*/
 496:G:/DT/dt_g1_balancing_plate_wise20192020/XMC/Libraries/XMCLib/inc\xmc_usic.h ****   __IO uint32_t  FDR;			/**< Fractional divider configuration register*/
 497:G:/DT/dt_g1_balancing_plate_wise20192020/XMC/Libraries/XMCLib/inc\xmc_usic.h ****   __IO uint32_t  BRG;			/**< Baud rate generator register*/
 498:G:/DT/dt_g1_balancing_plate_wise20192020/XMC/Libraries/XMCLib/inc\xmc_usic.h ****   __IO uint32_t  INPR;			/**< Interrupt node pointer register*/
 499:G:/DT/dt_g1_balancing_plate_wise20192020/XMC/Libraries/XMCLib/inc\xmc_usic.h ****   __IO uint32_t  DXCR[6];		/**< Input control registers DX0 to DX5.*/
 500:G:/DT/dt_g1_balancing_plate_wise20192020/XMC/Libraries/XMCLib/inc\xmc_usic.h ****   __IO uint32_t  SCTR;			/**< Shift control register*/
 501:G:/DT/dt_g1_balancing_plate_wise20192020/XMC/Libraries/XMCLib/inc\xmc_usic.h ****   __IO uint32_t  TCSR;
 502:G:/DT/dt_g1_balancing_plate_wise20192020/XMC/Libraries/XMCLib/inc\xmc_usic.h **** 
 503:G:/DT/dt_g1_balancing_plate_wise20192020/XMC/Libraries/XMCLib/inc\xmc_usic.h ****   union {
 504:G:/DT/dt_g1_balancing_plate_wise20192020/XMC/Libraries/XMCLib/inc\xmc_usic.h ****     __IO uint32_t  PCR_IICMode;	/**< I2C protocol configuration register*/
 505:G:/DT/dt_g1_balancing_plate_wise20192020/XMC/Libraries/XMCLib/inc\xmc_usic.h ****     __IO uint32_t  PCR_IISMode; /**< I2S protocol configuration register*/
 506:G:/DT/dt_g1_balancing_plate_wise20192020/XMC/Libraries/XMCLib/inc\xmc_usic.h ****     __IO uint32_t  PCR_SSCMode;	/**< SPI protocol configuration register*/
 507:G:/DT/dt_g1_balancing_plate_wise20192020/XMC/Libraries/XMCLib/inc\xmc_usic.h ****     __IO uint32_t  PCR;			/**< Protocol configuration register*/
 508:G:/DT/dt_g1_balancing_plate_wise20192020/XMC/Libraries/XMCLib/inc\xmc_usic.h ****     __IO uint32_t  PCR_ASCMode;	/**< UART protocol configuration register*/
 509:G:/DT/dt_g1_balancing_plate_wise20192020/XMC/Libraries/XMCLib/inc\xmc_usic.h ****   };
 510:G:/DT/dt_g1_balancing_plate_wise20192020/XMC/Libraries/XMCLib/inc\xmc_usic.h ****   __IO uint32_t  CCR;			/**< Channel control register*/
 511:G:/DT/dt_g1_balancing_plate_wise20192020/XMC/Libraries/XMCLib/inc\xmc_usic.h ****   __IO uint32_t  CMTR;			/**< Capture mode timer register*/
 512:G:/DT/dt_g1_balancing_plate_wise20192020/XMC/Libraries/XMCLib/inc\xmc_usic.h **** 
 513:G:/DT/dt_g1_balancing_plate_wise20192020/XMC/Libraries/XMCLib/inc\xmc_usic.h ****   union {
 514:G:/DT/dt_g1_balancing_plate_wise20192020/XMC/Libraries/XMCLib/inc\xmc_usic.h ****     __IO uint32_t  PSR_IICMode;	/**< I2C protocol status register*/
 515:G:/DT/dt_g1_balancing_plate_wise20192020/XMC/Libraries/XMCLib/inc\xmc_usic.h ****     __IO uint32_t  PSR_IISMode;	/**< I2S protocol status register*/
 516:G:/DT/dt_g1_balancing_plate_wise20192020/XMC/Libraries/XMCLib/inc\xmc_usic.h ****     __IO uint32_t  PSR_SSCMode;	/**< SPI protocol status register*/
 517:G:/DT/dt_g1_balancing_plate_wise20192020/XMC/Libraries/XMCLib/inc\xmc_usic.h ****     __IO uint32_t  PSR;			/**< Protocol status register*/
 518:G:/DT/dt_g1_balancing_plate_wise20192020/XMC/Libraries/XMCLib/inc\xmc_usic.h ****     __IO uint32_t  PSR_ASCMode;	/**< UART protocol status register*/
 519:G:/DT/dt_g1_balancing_plate_wise20192020/XMC/Libraries/XMCLib/inc\xmc_usic.h ****   };
 520:G:/DT/dt_g1_balancing_plate_wise20192020/XMC/Libraries/XMCLib/inc\xmc_usic.h ****   __O  uint32_t  PSCR;			/**< Protocol status clear register*/
 521:G:/DT/dt_g1_balancing_plate_wise20192020/XMC/Libraries/XMCLib/inc\xmc_usic.h ****   __I  uint32_t  RBUFSR;		/**< Receive buffer status register*/
 522:G:/DT/dt_g1_balancing_plate_wise20192020/XMC/Libraries/XMCLib/inc\xmc_usic.h ****   __I  uint32_t  RBUF;			/**< Receive buffer register*/
 523:G:/DT/dt_g1_balancing_plate_wise20192020/XMC/Libraries/XMCLib/inc\xmc_usic.h ****   __I  uint32_t  RBUFD;			/**< Debug mode receive buffer register*/
 524:G:/DT/dt_g1_balancing_plate_wise20192020/XMC/Libraries/XMCLib/inc\xmc_usic.h ****   __I  uint32_t  RBUF0;			/**< Receive buffer 0*/
 525:G:/DT/dt_g1_balancing_plate_wise20192020/XMC/Libraries/XMCLib/inc\xmc_usic.h ****   __I  uint32_t  RBUF1;			/**< Receive buffer 1*/
 526:G:/DT/dt_g1_balancing_plate_wise20192020/XMC/Libraries/XMCLib/inc\xmc_usic.h ****   __I  uint32_t  RBUF01SR;		/**< Receive buffer status register*/
 527:G:/DT/dt_g1_balancing_plate_wise20192020/XMC/Libraries/XMCLib/inc\xmc_usic.h ****   __O  uint32_t  FMR;			/**< Flag modification register*/
 528:G:/DT/dt_g1_balancing_plate_wise20192020/XMC/Libraries/XMCLib/inc\xmc_usic.h ****   __I  uint32_t  RESERVED2[5];
 529:G:/DT/dt_g1_balancing_plate_wise20192020/XMC/Libraries/XMCLib/inc\xmc_usic.h ****   __IO uint32_t  TBUF[32];		/**< Tranmsit buffer registers*/
 530:G:/DT/dt_g1_balancing_plate_wise20192020/XMC/Libraries/XMCLib/inc\xmc_usic.h ****   __IO uint32_t  BYP;			/**< FIFO bypass register*/
 531:G:/DT/dt_g1_balancing_plate_wise20192020/XMC/Libraries/XMCLib/inc\xmc_usic.h ****   __IO uint32_t  BYPCR;			/**< FIFO bypass control register*/
 532:G:/DT/dt_g1_balancing_plate_wise20192020/XMC/Libraries/XMCLib/inc\xmc_usic.h ****   __IO uint32_t  TBCTR;			/**< Transmit FIFO control register*/
 533:G:/DT/dt_g1_balancing_plate_wise20192020/XMC/Libraries/XMCLib/inc\xmc_usic.h ****   __IO uint32_t  RBCTR;			/**< Receive FIFO control register*/
 534:G:/DT/dt_g1_balancing_plate_wise20192020/XMC/Libraries/XMCLib/inc\xmc_usic.h ****   __I  uint32_t  TRBPTR;		/**< Transmit/recive buffer pointer register*/
 535:G:/DT/dt_g1_balancing_plate_wise20192020/XMC/Libraries/XMCLib/inc\xmc_usic.h ****   __IO uint32_t  TRBSR;			/**< Transmit/receive buffer status register*/
 536:G:/DT/dt_g1_balancing_plate_wise20192020/XMC/Libraries/XMCLib/inc\xmc_usic.h ****   __O  uint32_t  TRBSCR;		/**< Transmit/receive buffer status clear register*/
 537:G:/DT/dt_g1_balancing_plate_wise20192020/XMC/Libraries/XMCLib/inc\xmc_usic.h ****   __I  uint32_t  OUTR;			/**< Receive FIFO output register*/
 538:G:/DT/dt_g1_balancing_plate_wise20192020/XMC/Libraries/XMCLib/inc\xmc_usic.h ****   __I  uint32_t  OUTDR;			/**< Receive FIFO debug output register*/
 539:G:/DT/dt_g1_balancing_plate_wise20192020/XMC/Libraries/XMCLib/inc\xmc_usic.h ****   __I  uint32_t  RESERVED3[23];
 540:G:/DT/dt_g1_balancing_plate_wise20192020/XMC/Libraries/XMCLib/inc\xmc_usic.h ****   __O  uint32_t  IN[32];		/**< Transmit FIFO input register*/
 541:G:/DT/dt_g1_balancing_plate_wise20192020/XMC/Libraries/XMCLib/inc\xmc_usic.h **** } XMC_USIC_CH_t;
 542:G:/DT/dt_g1_balancing_plate_wise20192020/XMC/Libraries/XMCLib/inc\xmc_usic.h **** 
 543:G:/DT/dt_g1_balancing_plate_wise20192020/XMC/Libraries/XMCLib/inc\xmc_usic.h **** 
 544:G:/DT/dt_g1_balancing_plate_wise20192020/XMC/Libraries/XMCLib/inc\xmc_usic.h **** /*Anonymous structure/union guard end*/
 545:G:/DT/dt_g1_balancing_plate_wise20192020/XMC/Libraries/XMCLib/inc\xmc_usic.h **** #if defined(__CC_ARM)
 546:G:/DT/dt_g1_balancing_plate_wise20192020/XMC/Libraries/XMCLib/inc\xmc_usic.h ****   #pragma pop
 547:G:/DT/dt_g1_balancing_plate_wise20192020/XMC/Libraries/XMCLib/inc\xmc_usic.h **** #elif defined(__TASKING__)
 548:G:/DT/dt_g1_balancing_plate_wise20192020/XMC/Libraries/XMCLib/inc\xmc_usic.h ****   #pragma warning restore
 549:G:/DT/dt_g1_balancing_plate_wise20192020/XMC/Libraries/XMCLib/inc\xmc_usic.h **** #endif
 550:G:/DT/dt_g1_balancing_plate_wise20192020/XMC/Libraries/XMCLib/inc\xmc_usic.h **** 
 551:G:/DT/dt_g1_balancing_plate_wise20192020/XMC/Libraries/XMCLib/inc\xmc_usic.h **** /*******************************************************************************
 552:G:/DT/dt_g1_balancing_plate_wise20192020/XMC/Libraries/XMCLib/inc\xmc_usic.h ****  * API PROTOTYPES
 553:G:/DT/dt_g1_balancing_plate_wise20192020/XMC/Libraries/XMCLib/inc\xmc_usic.h ****  ******************************************************************************/
 554:G:/DT/dt_g1_balancing_plate_wise20192020/XMC/Libraries/XMCLib/inc\xmc_usic.h **** 
 555:G:/DT/dt_g1_balancing_plate_wise20192020/XMC/Libraries/XMCLib/inc\xmc_usic.h **** #ifdef __cplusplus
 556:G:/DT/dt_g1_balancing_plate_wise20192020/XMC/Libraries/XMCLib/inc\xmc_usic.h **** extern "C" {
 557:G:/DT/dt_g1_balancing_plate_wise20192020/XMC/Libraries/XMCLib/inc\xmc_usic.h **** #endif
 558:G:/DT/dt_g1_balancing_plate_wise20192020/XMC/Libraries/XMCLib/inc\xmc_usic.h **** 
 559:G:/DT/dt_g1_balancing_plate_wise20192020/XMC/Libraries/XMCLib/inc\xmc_usic.h **** __STATIC_INLINE bool XMC_USIC_IsModuleValid(const XMC_USIC_t *const module)
 560:G:/DT/dt_g1_balancing_plate_wise20192020/XMC/Libraries/XMCLib/inc\xmc_usic.h **** {
 561:G:/DT/dt_g1_balancing_plate_wise20192020/XMC/Libraries/XMCLib/inc\xmc_usic.h ****   bool tmp;
 562:G:/DT/dt_g1_balancing_plate_wise20192020/XMC/Libraries/XMCLib/inc\xmc_usic.h **** 
 563:G:/DT/dt_g1_balancing_plate_wise20192020/XMC/Libraries/XMCLib/inc\xmc_usic.h ****   tmp = (module == XMC_USIC0);
 564:G:/DT/dt_g1_balancing_plate_wise20192020/XMC/Libraries/XMCLib/inc\xmc_usic.h **** #if defined(XMC_USIC1)  
 565:G:/DT/dt_g1_balancing_plate_wise20192020/XMC/Libraries/XMCLib/inc\xmc_usic.h ****   tmp = tmp || (module == XMC_USIC1);
 566:G:/DT/dt_g1_balancing_plate_wise20192020/XMC/Libraries/XMCLib/inc\xmc_usic.h **** #endif
 567:G:/DT/dt_g1_balancing_plate_wise20192020/XMC/Libraries/XMCLib/inc\xmc_usic.h **** #if defined(XMC_USIC2)  
 568:G:/DT/dt_g1_balancing_plate_wise20192020/XMC/Libraries/XMCLib/inc\xmc_usic.h ****   tmp = tmp || (module == XMC_USIC2);
 569:G:/DT/dt_g1_balancing_plate_wise20192020/XMC/Libraries/XMCLib/inc\xmc_usic.h **** #endif
 570:G:/DT/dt_g1_balancing_plate_wise20192020/XMC/Libraries/XMCLib/inc\xmc_usic.h **** 
 571:G:/DT/dt_g1_balancing_plate_wise20192020/XMC/Libraries/XMCLib/inc\xmc_usic.h ****   return tmp;
 572:G:/DT/dt_g1_balancing_plate_wise20192020/XMC/Libraries/XMCLib/inc\xmc_usic.h **** }
 573:G:/DT/dt_g1_balancing_plate_wise20192020/XMC/Libraries/XMCLib/inc\xmc_usic.h **** 
 574:G:/DT/dt_g1_balancing_plate_wise20192020/XMC/Libraries/XMCLib/inc\xmc_usic.h **** __STATIC_INLINE bool XMC_USIC_IsChannelValid(const XMC_USIC_CH_t *const channel)
 575:G:/DT/dt_g1_balancing_plate_wise20192020/XMC/Libraries/XMCLib/inc\xmc_usic.h **** {
 576:G:/DT/dt_g1_balancing_plate_wise20192020/XMC/Libraries/XMCLib/inc\xmc_usic.h ****   bool tmp;
 577:G:/DT/dt_g1_balancing_plate_wise20192020/XMC/Libraries/XMCLib/inc\xmc_usic.h **** 
 578:G:/DT/dt_g1_balancing_plate_wise20192020/XMC/Libraries/XMCLib/inc\xmc_usic.h ****   tmp = ((channel == XMC_USIC0_CH0) || (channel == XMC_USIC0_CH1));
 579:G:/DT/dt_g1_balancing_plate_wise20192020/XMC/Libraries/XMCLib/inc\xmc_usic.h **** #if defined(XMC_USIC1)  
 580:G:/DT/dt_g1_balancing_plate_wise20192020/XMC/Libraries/XMCLib/inc\xmc_usic.h ****   tmp = tmp || ((channel == XMC_USIC1_CH0) || (channel == XMC_USIC1_CH1));
 581:G:/DT/dt_g1_balancing_plate_wise20192020/XMC/Libraries/XMCLib/inc\xmc_usic.h **** #endif
 582:G:/DT/dt_g1_balancing_plate_wise20192020/XMC/Libraries/XMCLib/inc\xmc_usic.h **** #if defined(XMC_USIC2)  
 583:G:/DT/dt_g1_balancing_plate_wise20192020/XMC/Libraries/XMCLib/inc\xmc_usic.h ****   tmp = tmp || ((channel == XMC_USIC2_CH0) || (channel == XMC_USIC2_CH1));
 584:G:/DT/dt_g1_balancing_plate_wise20192020/XMC/Libraries/XMCLib/inc\xmc_usic.h **** #endif
 585:G:/DT/dt_g1_balancing_plate_wise20192020/XMC/Libraries/XMCLib/inc\xmc_usic.h **** 
 586:G:/DT/dt_g1_balancing_plate_wise20192020/XMC/Libraries/XMCLib/inc\xmc_usic.h ****   return tmp;
 587:G:/DT/dt_g1_balancing_plate_wise20192020/XMC/Libraries/XMCLib/inc\xmc_usic.h **** }
 588:G:/DT/dt_g1_balancing_plate_wise20192020/XMC/Libraries/XMCLib/inc\xmc_usic.h **** 
 589:G:/DT/dt_g1_balancing_plate_wise20192020/XMC/Libraries/XMCLib/inc\xmc_usic.h **** /* Common APIs */
 590:G:/DT/dt_g1_balancing_plate_wise20192020/XMC/Libraries/XMCLib/inc\xmc_usic.h **** 
 591:G:/DT/dt_g1_balancing_plate_wise20192020/XMC/Libraries/XMCLib/inc\xmc_usic.h **** /**
 592:G:/DT/dt_g1_balancing_plate_wise20192020/XMC/Libraries/XMCLib/inc\xmc_usic.h ****  * @param  usic Pointer to USIC module handler of type @ref XMC_USIC_t.\n
 593:G:/DT/dt_g1_balancing_plate_wise20192020/XMC/Libraries/XMCLib/inc\xmc_usic.h ****  * 				\b Range: @ref XMC_USIC0 to @ref XMC_USIC2 based on device support.
 594:G:/DT/dt_g1_balancing_plate_wise20192020/XMC/Libraries/XMCLib/inc\xmc_usic.h ****  * @return None
 595:G:/DT/dt_g1_balancing_plate_wise20192020/XMC/Libraries/XMCLib/inc\xmc_usic.h ****  * 
 596:G:/DT/dt_g1_balancing_plate_wise20192020/XMC/Libraries/XMCLib/inc\xmc_usic.h ****  * \par<b>Description</b><br>
 597:G:/DT/dt_g1_balancing_plate_wise20192020/XMC/Libraries/XMCLib/inc\xmc_usic.h ****  * Enables the USIC module.\n\n
 598:G:/DT/dt_g1_balancing_plate_wise20192020/XMC/Libraries/XMCLib/inc\xmc_usic.h ****  * Enables the clock for the USIC module by following the
 599:G:/DT/dt_g1_balancing_plate_wise20192020/XMC/Libraries/XMCLib/inc\xmc_usic.h ****  * clock enabling sequence for the selected device.
 600:G:/DT/dt_g1_balancing_plate_wise20192020/XMC/Libraries/XMCLib/inc\xmc_usic.h ****  *
 601:G:/DT/dt_g1_balancing_plate_wise20192020/XMC/Libraries/XMCLib/inc\xmc_usic.h ****  * \par<b>Related APIs:</b><BR>
 602:G:/DT/dt_g1_balancing_plate_wise20192020/XMC/Libraries/XMCLib/inc\xmc_usic.h ****  * XMC_USIC_CH_Enable(), XMC_USIC_Disable() \n\n\n
 603:G:/DT/dt_g1_balancing_plate_wise20192020/XMC/Libraries/XMCLib/inc\xmc_usic.h ****  */
 604:G:/DT/dt_g1_balancing_plate_wise20192020/XMC/Libraries/XMCLib/inc\xmc_usic.h **** void XMC_USIC_Enable(XMC_USIC_t *const usic);
 605:G:/DT/dt_g1_balancing_plate_wise20192020/XMC/Libraries/XMCLib/inc\xmc_usic.h **** /**
 606:G:/DT/dt_g1_balancing_plate_wise20192020/XMC/Libraries/XMCLib/inc\xmc_usic.h ****  * @param  usic Pointer to USIC module handler of type @ref XMC_USIC_t.\n
 607:G:/DT/dt_g1_balancing_plate_wise20192020/XMC/Libraries/XMCLib/inc\xmc_usic.h ****  * 				\b Range: @ref XMC_USIC0 to @ref XMC_USIC2 based on device support.
 608:G:/DT/dt_g1_balancing_plate_wise20192020/XMC/Libraries/XMCLib/inc\xmc_usic.h ****  * @return None
 609:G:/DT/dt_g1_balancing_plate_wise20192020/XMC/Libraries/XMCLib/inc\xmc_usic.h ****  *
 610:G:/DT/dt_g1_balancing_plate_wise20192020/XMC/Libraries/XMCLib/inc\xmc_usic.h ****  * \par<b>Description</b><br>
 611:G:/DT/dt_g1_balancing_plate_wise20192020/XMC/Libraries/XMCLib/inc\xmc_usic.h ****  * Disables the USIC module.\n\n
 612:G:/DT/dt_g1_balancing_plate_wise20192020/XMC/Libraries/XMCLib/inc\xmc_usic.h ****  * Disables the clock for the USIC module by following the clock
 613:G:/DT/dt_g1_balancing_plate_wise20192020/XMC/Libraries/XMCLib/inc\xmc_usic.h ****  * disabling sequence for the selected device.
 614:G:/DT/dt_g1_balancing_plate_wise20192020/XMC/Libraries/XMCLib/inc\xmc_usic.h ****  *
 615:G:/DT/dt_g1_balancing_plate_wise20192020/XMC/Libraries/XMCLib/inc\xmc_usic.h ****  * \par<b>Related APIs:</b><BR>
 616:G:/DT/dt_g1_balancing_plate_wise20192020/XMC/Libraries/XMCLib/inc\xmc_usic.h ****  * XMC_USIC_CH_Disable(), XMC_USIC_Enable() \n\n\n
 617:G:/DT/dt_g1_balancing_plate_wise20192020/XMC/Libraries/XMCLib/inc\xmc_usic.h ****  */
 618:G:/DT/dt_g1_balancing_plate_wise20192020/XMC/Libraries/XMCLib/inc\xmc_usic.h **** void XMC_USIC_Disable(XMC_USIC_t *const usic);
 619:G:/DT/dt_g1_balancing_plate_wise20192020/XMC/Libraries/XMCLib/inc\xmc_usic.h **** /**
 620:G:/DT/dt_g1_balancing_plate_wise20192020/XMC/Libraries/XMCLib/inc\xmc_usic.h ****  * @param  channel Pointer to USIC channel handler of type @ref XMC_USIC_CH_t \n
 621:G:/DT/dt_g1_balancing_plate_wise20192020/XMC/Libraries/XMCLib/inc\xmc_usic.h ****  * 				   \b Range: @ref XMC_USIC0_CH0, @ref XMC_USIC0_CH1 to @ref XMC_USIC2_CH1 based on device su
 622:G:/DT/dt_g1_balancing_plate_wise20192020/XMC/Libraries/XMCLib/inc\xmc_usic.h ****  * @return None
 623:G:/DT/dt_g1_balancing_plate_wise20192020/XMC/Libraries/XMCLib/inc\xmc_usic.h ****  *
 624:G:/DT/dt_g1_balancing_plate_wise20192020/XMC/Libraries/XMCLib/inc\xmc_usic.h ****  * \par<b>Description</b><br>
 625:G:/DT/dt_g1_balancing_plate_wise20192020/XMC/Libraries/XMCLib/inc\xmc_usic.h ****  * Enables the USIC channel. \n\n
 626:G:/DT/dt_g1_balancing_plate_wise20192020/XMC/Libraries/XMCLib/inc\xmc_usic.h ****  * USIC channel is enabled by setting the module enable bit in KSCFG register bitfield MODEN.
 627:G:/DT/dt_g1_balancing_plate_wise20192020/XMC/Libraries/XMCLib/inc\xmc_usic.h ****  * On enabling, the channel is set to idle mode.
 628:G:/DT/dt_g1_balancing_plate_wise20192020/XMC/Libraries/XMCLib/inc\xmc_usic.h ****  *
 629:G:/DT/dt_g1_balancing_plate_wise20192020/XMC/Libraries/XMCLib/inc\xmc_usic.h ****  * \par<b>Related APIs:</b><BR>
 630:G:/DT/dt_g1_balancing_plate_wise20192020/XMC/Libraries/XMCLib/inc\xmc_usic.h ****  * XMC_USIC_CH_Disable(), XMC_USIC_Enable() \n\n\n
 631:G:/DT/dt_g1_balancing_plate_wise20192020/XMC/Libraries/XMCLib/inc\xmc_usic.h ****  */
 632:G:/DT/dt_g1_balancing_plate_wise20192020/XMC/Libraries/XMCLib/inc\xmc_usic.h **** void XMC_USIC_CH_Enable(XMC_USIC_CH_t *const channel);
 633:G:/DT/dt_g1_balancing_plate_wise20192020/XMC/Libraries/XMCLib/inc\xmc_usic.h **** /**
 634:G:/DT/dt_g1_balancing_plate_wise20192020/XMC/Libraries/XMCLib/inc\xmc_usic.h ****  * @param  channel Pointer to USIC channel handler of type @ref XMC_USIC_CH_t \n
 635:G:/DT/dt_g1_balancing_plate_wise20192020/XMC/Libraries/XMCLib/inc\xmc_usic.h ****  * 				   \b Range: @ref XMC_USIC0_CH0, @ref XMC_USIC0_CH1 to @ref XMC_USIC2_CH1 based on device su
 636:G:/DT/dt_g1_balancing_plate_wise20192020/XMC/Libraries/XMCLib/inc\xmc_usic.h ****  * @return None
 637:G:/DT/dt_g1_balancing_plate_wise20192020/XMC/Libraries/XMCLib/inc\xmc_usic.h ****  *
 638:G:/DT/dt_g1_balancing_plate_wise20192020/XMC/Libraries/XMCLib/inc\xmc_usic.h ****  * \par<b>Description</b><br>
 639:G:/DT/dt_g1_balancing_plate_wise20192020/XMC/Libraries/XMCLib/inc\xmc_usic.h ****  * Disables the USIC channel.\n\n
 640:G:/DT/dt_g1_balancing_plate_wise20192020/XMC/Libraries/XMCLib/inc\xmc_usic.h ****  * USIC channel is disabled by setting the module enable bit(MDEN) to 0 in the register KSCFG.
 641:G:/DT/dt_g1_balancing_plate_wise20192020/XMC/Libraries/XMCLib/inc\xmc_usic.h ****  *
 642:G:/DT/dt_g1_balancing_plate_wise20192020/XMC/Libraries/XMCLib/inc\xmc_usic.h ****  * \par<b>Related APIs:</b><BR>
 643:G:/DT/dt_g1_balancing_plate_wise20192020/XMC/Libraries/XMCLib/inc\xmc_usic.h ****  * XMC_USIC_CH_Enable(), XMC_USIC_Disable() \n\n\n
 644:G:/DT/dt_g1_balancing_plate_wise20192020/XMC/Libraries/XMCLib/inc\xmc_usic.h ****  */
 645:G:/DT/dt_g1_balancing_plate_wise20192020/XMC/Libraries/XMCLib/inc\xmc_usic.h **** void XMC_USIC_CH_Disable(XMC_USIC_CH_t *const channel);
 646:G:/DT/dt_g1_balancing_plate_wise20192020/XMC/Libraries/XMCLib/inc\xmc_usic.h **** 
 647:G:/DT/dt_g1_balancing_plate_wise20192020/XMC/Libraries/XMCLib/inc\xmc_usic.h **** /**
 648:G:/DT/dt_g1_balancing_plate_wise20192020/XMC/Libraries/XMCLib/inc\xmc_usic.h ****  * @param  channel Pointer to USIC channel handler of type @ref XMC_USIC_CH_t \n
 649:G:/DT/dt_g1_balancing_plate_wise20192020/XMC/Libraries/XMCLib/inc\xmc_usic.h ****  * 				   \b Range: @ref XMC_USIC0_CH0, @ref XMC_USIC0_CH1 to @ref XMC_USIC2_CH1 based on device su
 650:G:/DT/dt_g1_balancing_plate_wise20192020/XMC/Libraries/XMCLib/inc\xmc_usic.h ****  * @param  rate Desired baudrate. \b Range: minimum value = 100, maximum value depends on the perip
 651:G:/DT/dt_g1_balancing_plate_wise20192020/XMC/Libraries/XMCLib/inc\xmc_usic.h ****  * 				and \a oversampling. Maximum baudrate can be derived using the formula: (fperiph * 1023)/(10
 652:G:/DT/dt_g1_balancing_plate_wise20192020/XMC/Libraries/XMCLib/inc\xmc_usic.h ****  * @param  oversampling Required oversampling. The value indicates the number of time quanta for on
 653:G:/DT/dt_g1_balancing_plate_wise20192020/XMC/Libraries/XMCLib/inc\xmc_usic.h ****  * 						This can be related to the number of samples for each logic state of the data signal. \n
 654:G:/DT/dt_g1_balancing_plate_wise20192020/XMC/Libraries/XMCLib/inc\xmc_usic.h ****  * 						\b Range: 1 to 32. Value should be chosen based on the protocol used.
 655:G:/DT/dt_g1_balancing_plate_wise20192020/XMC/Libraries/XMCLib/inc\xmc_usic.h ****  * @return Status indicating the baudrate configuration.\n
 656:G:/DT/dt_g1_balancing_plate_wise20192020/XMC/Libraries/XMCLib/inc\xmc_usic.h ****  * 			\b Range: @ref XMC_USIC_CH_STATUS_OK if baudrate is successfully configured,
 657:G:/DT/dt_g1_balancing_plate_wise20192020/XMC/Libraries/XMCLib/inc\xmc_usic.h ****  * 					  @ref XMC_USIC_CH_STATUS_ERROR if desired baudrate or oversampling is invalid.
 658:G:/DT/dt_g1_balancing_plate_wise20192020/XMC/Libraries/XMCLib/inc\xmc_usic.h ****  *
 659:G:/DT/dt_g1_balancing_plate_wise20192020/XMC/Libraries/XMCLib/inc\xmc_usic.h ****  * \par<b>Description</b><br>
 660:G:/DT/dt_g1_balancing_plate_wise20192020/XMC/Libraries/XMCLib/inc\xmc_usic.h ****  * Configures the baudrate of the USIC channel. \n\n
 661:G:/DT/dt_g1_balancing_plate_wise20192020/XMC/Libraries/XMCLib/inc\xmc_usic.h ****  * Baudrate is configured by considering the peripheral frequency and the desired baudrate.
 662:G:/DT/dt_g1_balancing_plate_wise20192020/XMC/Libraries/XMCLib/inc\xmc_usic.h ****  * Optimum values of FDR->STEP and BRG->PDIV are calulated and used for generating the desired
 663:G:/DT/dt_g1_balancing_plate_wise20192020/XMC/Libraries/XMCLib/inc\xmc_usic.h ****  * baudrate.
 664:G:/DT/dt_g1_balancing_plate_wise20192020/XMC/Libraries/XMCLib/inc\xmc_usic.h ****  *
 665:G:/DT/dt_g1_balancing_plate_wise20192020/XMC/Libraries/XMCLib/inc\xmc_usic.h ****  * \par<b>Related APIs:</b><BR>
 666:G:/DT/dt_g1_balancing_plate_wise20192020/XMC/Libraries/XMCLib/inc\xmc_usic.h ****  * XMC_USIC_CH_SetStartTransmisionMode(), XMC_USIC_CH_SetInputSource() \n\n\n
 667:G:/DT/dt_g1_balancing_plate_wise20192020/XMC/Libraries/XMCLib/inc\xmc_usic.h ****  */
 668:G:/DT/dt_g1_balancing_plate_wise20192020/XMC/Libraries/XMCLib/inc\xmc_usic.h **** XMC_USIC_CH_STATUS_t XMC_USIC_CH_SetBaudrate(XMC_USIC_CH_t *const channel, uint32_t rate, uint32_t 
 669:G:/DT/dt_g1_balancing_plate_wise20192020/XMC/Libraries/XMCLib/inc\xmc_usic.h **** 
 670:G:/DT/dt_g1_balancing_plate_wise20192020/XMC/Libraries/XMCLib/inc\xmc_usic.h **** /**
 671:G:/DT/dt_g1_balancing_plate_wise20192020/XMC/Libraries/XMCLib/inc\xmc_usic.h ****  * @param  channel Pointer to USIC channel handler of type @ref XMC_USIC_CH_t \n
 672:G:/DT/dt_g1_balancing_plate_wise20192020/XMC/Libraries/XMCLib/inc\xmc_usic.h ****  *           \b Range: @ref XMC_USIC0_CH0, @ref XMC_USIC0_CH1 to @ref XMC_USIC2_CH1 based on device
 673:G:/DT/dt_g1_balancing_plate_wise20192020/XMC/Libraries/XMCLib/inc\xmc_usic.h ****  * @param  rate Desired baudrate. Only integer dividers of peripheral clock are achievable
 674:G:/DT/dt_g1_balancing_plate_wise20192020/XMC/Libraries/XMCLib/inc\xmc_usic.h ****  * @param  oversampling Required oversampling. The value indicates the number of time quanta for on
 675:G:/DT/dt_g1_balancing_plate_wise20192020/XMC/Libraries/XMCLib/inc\xmc_usic.h ****  *            This can be related to the number of samples for each logic state of the data signal.
 676:G:/DT/dt_g1_balancing_plate_wise20192020/XMC/Libraries/XMCLib/inc\xmc_usic.h ****  *            \b Range: 1 to 32. Value should be chosen based on the protocol used.
 677:G:/DT/dt_g1_balancing_plate_wise20192020/XMC/Libraries/XMCLib/inc\xmc_usic.h ****  * @return Status indicating the baudrate configuration.\n
 678:G:/DT/dt_g1_balancing_plate_wise20192020/XMC/Libraries/XMCLib/inc\xmc_usic.h ****  *      \b Range: @ref XMC_USIC_CH_STATUS_OK if baudrate is successfully configured,
 679:G:/DT/dt_g1_balancing_plate_wise20192020/XMC/Libraries/XMCLib/inc\xmc_usic.h ****  *            @ref XMC_USIC_CH_STATUS_ERROR if desired baudrate or oversampling is invalid.
 680:G:/DT/dt_g1_balancing_plate_wise20192020/XMC/Libraries/XMCLib/inc\xmc_usic.h ****  *
 681:G:/DT/dt_g1_balancing_plate_wise20192020/XMC/Libraries/XMCLib/inc\xmc_usic.h ****  * \par<b>Description</b><br>
 682:G:/DT/dt_g1_balancing_plate_wise20192020/XMC/Libraries/XMCLib/inc\xmc_usic.h ****  * Configures the baudrate of the USIC channel using the integer divider which restrics the achieva
 683:G:/DT/dt_g1_balancing_plate_wise20192020/XMC/Libraries/XMCLib/inc\xmc_usic.h ****  * Baudrate is configured by considering the peripheral frequency and the desired baudrate.
 684:G:/DT/dt_g1_balancing_plate_wise20192020/XMC/Libraries/XMCLib/inc\xmc_usic.h ****  * Optimum values of FDR->STEP and BRG->PDIV are calulated and used for generating the desired
 685:G:/DT/dt_g1_balancing_plate_wise20192020/XMC/Libraries/XMCLib/inc\xmc_usic.h ****  * baudrate.
 686:G:/DT/dt_g1_balancing_plate_wise20192020/XMC/Libraries/XMCLib/inc\xmc_usic.h ****  *
 687:G:/DT/dt_g1_balancing_plate_wise20192020/XMC/Libraries/XMCLib/inc\xmc_usic.h ****  * \par<b>Related APIs:</b><BR>
 688:G:/DT/dt_g1_balancing_plate_wise20192020/XMC/Libraries/XMCLib/inc\xmc_usic.h ****  * XMC_USIC_CH_SetStartTransmisionMode(), XMC_USIC_CH_SetInputSource() \n\n\n
 689:G:/DT/dt_g1_balancing_plate_wise20192020/XMC/Libraries/XMCLib/inc\xmc_usic.h ****  */
 690:G:/DT/dt_g1_balancing_plate_wise20192020/XMC/Libraries/XMCLib/inc\xmc_usic.h **** XMC_USIC_CH_STATUS_t XMC_USIC_CH_SetBaudrateEx(XMC_USIC_CH_t *const channel, uint32_t rate, uint32_
 691:G:/DT/dt_g1_balancing_plate_wise20192020/XMC/Libraries/XMCLib/inc\xmc_usic.h **** 
 692:G:/DT/dt_g1_balancing_plate_wise20192020/XMC/Libraries/XMCLib/inc\xmc_usic.h **** 
 693:G:/DT/dt_g1_balancing_plate_wise20192020/XMC/Libraries/XMCLib/inc\xmc_usic.h **** /**
 694:G:/DT/dt_g1_balancing_plate_wise20192020/XMC/Libraries/XMCLib/inc\xmc_usic.h ****  * @param  channel Pointer to USIC channel handler of type @ref XMC_USIC_CH_t \n
 695:G:/DT/dt_g1_balancing_plate_wise20192020/XMC/Libraries/XMCLib/inc\xmc_usic.h ****  *           \b Range: @ref XMC_USIC0_CH0, @ref XMC_USIC0_CH1 to @ref XMC_USIC2_CH1 based on device
 696:G:/DT/dt_g1_balancing_plate_wise20192020/XMC/Libraries/XMCLib/inc\xmc_usic.h ****  * @return baudrate currently used by USIC channel for .\n
 697:G:/DT/dt_g1_balancing_plate_wise20192020/XMC/Libraries/XMCLib/inc\xmc_usic.h ****  *
 698:G:/DT/dt_g1_balancing_plate_wise20192020/XMC/Libraries/XMCLib/inc\xmc_usic.h ****  * \par<b>Description</b><br>
 699:G:/DT/dt_g1_balancing_plate_wise20192020/XMC/Libraries/XMCLib/inc\xmc_usic.h ****  * Calculates the current used baudrate (fCTQIN) of a USIC channel. \n\n
 700:G:/DT/dt_g1_balancing_plate_wise20192020/XMC/Libraries/XMCLib/inc\xmc_usic.h ****  * @image html ../images/usic_brg.png	 
 701:G:/DT/dt_g1_balancing_plate_wise20192020/XMC/Libraries/XMCLib/inc\xmc_usic.h ****  * @image latex ../images/usic_brg.png	 
 702:G:/DT/dt_g1_balancing_plate_wise20192020/XMC/Libraries/XMCLib/inc\xmc_usic.h ****  *
 703:G:/DT/dt_g1_balancing_plate_wise20192020/XMC/Libraries/XMCLib/inc\xmc_usic.h ****  * \par<b>Related APIs:</b><BR>
 704:G:/DT/dt_g1_balancing_plate_wise20192020/XMC/Libraries/XMCLib/inc\xmc_usic.h ****  * XMC_USIC_CH_SetBaudrateMode(), XMC_USIC_CH_SetBaudrate(), XMC_USIC_CH_SetBaudrateEx() \n\n\n
 705:G:/DT/dt_g1_balancing_plate_wise20192020/XMC/Libraries/XMCLib/inc\xmc_usic.h ****  */
 706:G:/DT/dt_g1_balancing_plate_wise20192020/XMC/Libraries/XMCLib/inc\xmc_usic.h **** uint32_t XMC_USIC_CH_GetBaudrate(XMC_USIC_CH_t *const channel);
 707:G:/DT/dt_g1_balancing_plate_wise20192020/XMC/Libraries/XMCLib/inc\xmc_usic.h **** 
 708:G:/DT/dt_g1_balancing_plate_wise20192020/XMC/Libraries/XMCLib/inc\xmc_usic.h **** /**
 709:G:/DT/dt_g1_balancing_plate_wise20192020/XMC/Libraries/XMCLib/inc\xmc_usic.h ****  * @param  channel Pointer to USIC channel handler of type @ref XMC_USIC_CH_t \n
 710:G:/DT/dt_g1_balancing_plate_wise20192020/XMC/Libraries/XMCLib/inc\xmc_usic.h ****  *           \b Range: @ref XMC_USIC0_CH0, @ref XMC_USIC0_CH1 to @ref XMC_USIC2_CH1 based on device
 711:G:/DT/dt_g1_balancing_plate_wise20192020/XMC/Libraries/XMCLib/inc\xmc_usic.h ****  * @return baudrate currently used by USIC channel.\n
 712:G:/DT/dt_g1_balancing_plate_wise20192020/XMC/Libraries/XMCLib/inc\xmc_usic.h ****  *
 713:G:/DT/dt_g1_balancing_plate_wise20192020/XMC/Libraries/XMCLib/inc\xmc_usic.h ****  * \par<b>Description</b><br>
 714:G:/DT/dt_g1_balancing_plate_wise20192020/XMC/Libraries/XMCLib/inc\xmc_usic.h ****  * Calculates the current used SCLK frequency of a USIC channel. \n\n
 715:G:/DT/dt_g1_balancing_plate_wise20192020/XMC/Libraries/XMCLib/inc\xmc_usic.h ****  * @image html ../images/usic_brg.png	 
 716:G:/DT/dt_g1_balancing_plate_wise20192020/XMC/Libraries/XMCLib/inc\xmc_usic.h ****  * @image latex ../images/usic_brg.png	 
 717:G:/DT/dt_g1_balancing_plate_wise20192020/XMC/Libraries/XMCLib/inc\xmc_usic.h ****  *
 718:G:/DT/dt_g1_balancing_plate_wise20192020/XMC/Libraries/XMCLib/inc\xmc_usic.h ****  * \par<b>Related APIs:</b><BR>
 719:G:/DT/dt_g1_balancing_plate_wise20192020/XMC/Libraries/XMCLib/inc\xmc_usic.h ****  * XMC_USIC_CH_SetBaudrateMode(), XMC_USIC_CH_SetBaudrate(), XMC_USIC_CH_SetBaudrateEx() \n\n\n
 720:G:/DT/dt_g1_balancing_plate_wise20192020/XMC/Libraries/XMCLib/inc\xmc_usic.h ****  */
 721:G:/DT/dt_g1_balancing_plate_wise20192020/XMC/Libraries/XMCLib/inc\xmc_usic.h **** uint32_t XMC_USIC_CH_GetSCLKFrequency(XMC_USIC_CH_t *const channel);
 722:G:/DT/dt_g1_balancing_plate_wise20192020/XMC/Libraries/XMCLib/inc\xmc_usic.h **** 
 723:G:/DT/dt_g1_balancing_plate_wise20192020/XMC/Libraries/XMCLib/inc\xmc_usic.h **** /**
 724:G:/DT/dt_g1_balancing_plate_wise20192020/XMC/Libraries/XMCLib/inc\xmc_usic.h ****  * @param  channel Pointer to USIC channel handler of type @ref XMC_USIC_CH_t \n
 725:G:/DT/dt_g1_balancing_plate_wise20192020/XMC/Libraries/XMCLib/inc\xmc_usic.h ****  *           \b Range: @ref XMC_USIC0_CH0, @ref XMC_USIC0_CH1 to @ref XMC_USIC2_CH1 based on device
 726:G:/DT/dt_g1_balancing_plate_wise20192020/XMC/Libraries/XMCLib/inc\xmc_usic.h ****  * @return baudrate currently used by USIC channel.\n
 727:G:/DT/dt_g1_balancing_plate_wise20192020/XMC/Libraries/XMCLib/inc\xmc_usic.h ****  *
 728:G:/DT/dt_g1_balancing_plate_wise20192020/XMC/Libraries/XMCLib/inc\xmc_usic.h ****  * \par<b>Description</b><br>
 729:G:/DT/dt_g1_balancing_plate_wise20192020/XMC/Libraries/XMCLib/inc\xmc_usic.h ****  * Calculates the current used MCLK frequency of a USIC channel. \n\n
 730:G:/DT/dt_g1_balancing_plate_wise20192020/XMC/Libraries/XMCLib/inc\xmc_usic.h ****  * @image html ../images/usic_brg.png	 
 731:G:/DT/dt_g1_balancing_plate_wise20192020/XMC/Libraries/XMCLib/inc\xmc_usic.h ****  * @image latex ../images/usic_brg.png	 
 732:G:/DT/dt_g1_balancing_plate_wise20192020/XMC/Libraries/XMCLib/inc\xmc_usic.h ****  *
 733:G:/DT/dt_g1_balancing_plate_wise20192020/XMC/Libraries/XMCLib/inc\xmc_usic.h ****  * \par<b>Related APIs:</b><BR>
 734:G:/DT/dt_g1_balancing_plate_wise20192020/XMC/Libraries/XMCLib/inc\xmc_usic.h ****  * XMC_USIC_CH_SetBaudrateMode(), XMC_USIC_CH_SetBaudrate(), XMC_USIC_CH_SetBaudrateEx() \n\n\n
 735:G:/DT/dt_g1_balancing_plate_wise20192020/XMC/Libraries/XMCLib/inc\xmc_usic.h ****  */
 736:G:/DT/dt_g1_balancing_plate_wise20192020/XMC/Libraries/XMCLib/inc\xmc_usic.h **** uint32_t XMC_USIC_CH_GetMCLKFrequency(XMC_USIC_CH_t *const channel);
 737:G:/DT/dt_g1_balancing_plate_wise20192020/XMC/Libraries/XMCLib/inc\xmc_usic.h **** 
 738:G:/DT/dt_g1_balancing_plate_wise20192020/XMC/Libraries/XMCLib/inc\xmc_usic.h **** /**
 739:G:/DT/dt_g1_balancing_plate_wise20192020/XMC/Libraries/XMCLib/inc\xmc_usic.h ****  * @param  channel Pointer to USIC channel handler of type @ref XMC_USIC_CH_t \n
 740:G:/DT/dt_g1_balancing_plate_wise20192020/XMC/Libraries/XMCLib/inc\xmc_usic.h ****  * 				   \b Range: @ref XMC_USIC0_CH0, @ref XMC_USIC0_CH1 to @ref XMC_USIC2_CH1 based on device su
 741:G:/DT/dt_g1_balancing_plate_wise20192020/XMC/Libraries/XMCLib/inc\xmc_usic.h ****  * @param  pdiv Desired divider for the external frequency input. \b Range: minimum value = 1, maxi
 742:G:/DT/dt_g1_balancing_plate_wise20192020/XMC/Libraries/XMCLib/inc\xmc_usic.h ****  * @param  oversampling Required oversampling. The value indicates the number of time quanta for on
 743:G:/DT/dt_g1_balancing_plate_wise20192020/XMC/Libraries/XMCLib/inc\xmc_usic.h ****  * 						This can be related to the number of samples for each logic state of the data signal. \n
 744:G:/DT/dt_g1_balancing_plate_wise20192020/XMC/Libraries/XMCLib/inc\xmc_usic.h ****  * 						\b Range: 1 to 32. Value should be chosen based on the protocol used.
 745:G:/DT/dt_g1_balancing_plate_wise20192020/XMC/Libraries/XMCLib/inc\xmc_usic.h ****  * @param  combination_mode Selects which edge of the synchronized(and optionally filtered) signal 
 746:G:/DT/dt_g1_balancing_plate_wise20192020/XMC/Libraries/XMCLib/inc\xmc_usic.h ****  *                          output DXnT of the input stage.
 747:G:/DT/dt_g1_balancing_plate_wise20192020/XMC/Libraries/XMCLib/inc\xmc_usic.h ****  *
 748:G:/DT/dt_g1_balancing_plate_wise20192020/XMC/Libraries/XMCLib/inc\xmc_usic.h ****  * @return None
 749:G:/DT/dt_g1_balancing_plate_wise20192020/XMC/Libraries/XMCLib/inc\xmc_usic.h ****  *
 750:G:/DT/dt_g1_balancing_plate_wise20192020/XMC/Libraries/XMCLib/inc\xmc_usic.h ****  * \par<b>Description</b><br>
 751:G:/DT/dt_g1_balancing_plate_wise20192020/XMC/Libraries/XMCLib/inc\xmc_usic.h ****  * Enables the external frequency input for the Baudrate Generator and configures the divider, over
 752:G:/DT/dt_g1_balancing_plate_wise20192020/XMC/Libraries/XMCLib/inc\xmc_usic.h ****  * the combination mode of the USIC channel. \n\n
 753:G:/DT/dt_g1_balancing_plate_wise20192020/XMC/Libraries/XMCLib/inc\xmc_usic.h ****  *
 754:G:/DT/dt_g1_balancing_plate_wise20192020/XMC/Libraries/XMCLib/inc\xmc_usic.h ****  * \par<b>Related APIs:</b><BR>
 755:G:/DT/dt_g1_balancing_plate_wise20192020/XMC/Libraries/XMCLib/inc\xmc_usic.h ****  * XMC_USIC_CH_SetBRGInputClockSource(), XMC_USIC_CH_SetInputTriggerCombinationMode() \n\n\n
 756:G:/DT/dt_g1_balancing_plate_wise20192020/XMC/Libraries/XMCLib/inc\xmc_usic.h ****  */
 757:G:/DT/dt_g1_balancing_plate_wise20192020/XMC/Libraries/XMCLib/inc\xmc_usic.h **** void XMC_USIC_CH_ConfigExternalInputSignalToBRG(XMC_USIC_CH_t *const channel,
 758:G:/DT/dt_g1_balancing_plate_wise20192020/XMC/Libraries/XMCLib/inc\xmc_usic.h **** 		                                         const uint16_t pdiv,
 759:G:/DT/dt_g1_balancing_plate_wise20192020/XMC/Libraries/XMCLib/inc\xmc_usic.h **** 												 const uint32_t oversampling,
 760:G:/DT/dt_g1_balancing_plate_wise20192020/XMC/Libraries/XMCLib/inc\xmc_usic.h **** 												 const XMC_USIC_CH_INPUT_COMBINATION_MODE_t combination_mode);
 761:G:/DT/dt_g1_balancing_plate_wise20192020/XMC/Libraries/XMCLib/inc\xmc_usic.h **** 
 762:G:/DT/dt_g1_balancing_plate_wise20192020/XMC/Libraries/XMCLib/inc\xmc_usic.h **** /**
 763:G:/DT/dt_g1_balancing_plate_wise20192020/XMC/Libraries/XMCLib/inc\xmc_usic.h ****  * @param  channel Pointer to USIC channel handler of type @ref XMC_USIC_CH_t \n
 764:G:/DT/dt_g1_balancing_plate_wise20192020/XMC/Libraries/XMCLib/inc\xmc_usic.h ****  * 				   \b Range: @ref XMC_USIC0_CH0, @ref XMC_USIC0_CH1 to @ref XMC_USIC2_CH1 based on device su
 765:G:/DT/dt_g1_balancing_plate_wise20192020/XMC/Libraries/XMCLib/inc\xmc_usic.h ****  * @param  input USIC channel input stage of type @ref XMC_USIC_CH_INPUT_t. \n
 766:G:/DT/dt_g1_balancing_plate_wise20192020/XMC/Libraries/XMCLib/inc\xmc_usic.h ****  * 				 \b Range: @ref XMC_USIC_CH_INPUT_DX0 to @ref XMC_USIC_CH_INPUT_DX5
 767:G:/DT/dt_g1_balancing_plate_wise20192020/XMC/Libraries/XMCLib/inc\xmc_usic.h ****  * @param  source Input source select for the input stage. The table below maps the enum value with
 768:G:/DT/dt_g1_balancing_plate_wise20192020/XMC/Libraries/XMCLib/inc\xmc_usic.h ****  * <table><tr><td>0</td><td>DXnA</td></tr><tr><td>1</td><td>DXnB</td></tr><tr><td>2</td><td>DXnC</t
 769:G:/DT/dt_g1_balancing_plate_wise20192020/XMC/Libraries/XMCLib/inc\xmc_usic.h ****  * <tr><td>4</td><td>DXnE</td></tr><tr><td>5</td><td>DXnF</td></tr><tr><td>6</td><td>DXnG</td></tr>
 770:G:/DT/dt_g1_balancing_plate_wise20192020/XMC/Libraries/XMCLib/inc\xmc_usic.h ****  * </tr></table>
 771:G:/DT/dt_g1_balancing_plate_wise20192020/XMC/Libraries/XMCLib/inc\xmc_usic.h ****  * @return None
 772:G:/DT/dt_g1_balancing_plate_wise20192020/XMC/Libraries/XMCLib/inc\xmc_usic.h ****  *
 773:G:/DT/dt_g1_balancing_plate_wise20192020/XMC/Libraries/XMCLib/inc\xmc_usic.h ****  * \par<b>Description</b><br>
 774:G:/DT/dt_g1_balancing_plate_wise20192020/XMC/Libraries/XMCLib/inc\xmc_usic.h ****  * Selects the data source for USIC input stage.\n\n
 775:G:/DT/dt_g1_balancing_plate_wise20192020/XMC/Libraries/XMCLib/inc\xmc_usic.h ****  * Selects the input data signal source among DXnA, DXnB.. DXnG for the input stage. The API can be
 776:G:/DT/dt_g1_balancing_plate_wise20192020/XMC/Libraries/XMCLib/inc\xmc_usic.h ****  * like DX0CR, DX1CR etc. 
 777:G:/DT/dt_g1_balancing_plate_wise20192020/XMC/Libraries/XMCLib/inc\xmc_usic.h ****  *  
 778:G:/DT/dt_g1_balancing_plate_wise20192020/XMC/Libraries/XMCLib/inc\xmc_usic.h ****  * \par<b>Related APIs:</b><BR>
 779:G:/DT/dt_g1_balancing_plate_wise20192020/XMC/Libraries/XMCLib/inc\xmc_usic.h ****  * XMC_USIC_CH_EnableInputInversion(), XMC_USIC_CH_EnableInputDigitalFilter(), XMC_USIC_CH_EnableIn
 780:G:/DT/dt_g1_balancing_plate_wise20192020/XMC/Libraries/XMCLib/inc\xmc_usic.h ****  * XMC_USIC_CH_SetInputSamplingFreq()\n\n\n
 781:G:/DT/dt_g1_balancing_plate_wise20192020/XMC/Libraries/XMCLib/inc\xmc_usic.h ****  */
 782:G:/DT/dt_g1_balancing_plate_wise20192020/XMC/Libraries/XMCLib/inc\xmc_usic.h **** __STATIC_INLINE void XMC_USIC_CH_SetInputSource(XMC_USIC_CH_t *const channel, const XMC_USIC_CH_INP
 783:G:/DT/dt_g1_balancing_plate_wise20192020/XMC/Libraries/XMCLib/inc\xmc_usic.h **** {
 784:G:/DT/dt_g1_balancing_plate_wise20192020/XMC/Libraries/XMCLib/inc\xmc_usic.h ****   channel->DXCR[input] = (uint32_t)((channel->DXCR[input] & (uint32_t)(~USIC_CH_DXCR_DSEL_Msk)) |
 785:G:/DT/dt_g1_balancing_plate_wise20192020/XMC/Libraries/XMCLib/inc\xmc_usic.h ****                          ((uint32_t)source << USIC_CH_DXCR_DSEL_Pos));
 786:G:/DT/dt_g1_balancing_plate_wise20192020/XMC/Libraries/XMCLib/inc\xmc_usic.h **** }
 787:G:/DT/dt_g1_balancing_plate_wise20192020/XMC/Libraries/XMCLib/inc\xmc_usic.h **** /**
 788:G:/DT/dt_g1_balancing_plate_wise20192020/XMC/Libraries/XMCLib/inc\xmc_usic.h ****  * @param  channel Pointer to USIC channel handler of type @ref XMC_USIC_CH_t \n
 789:G:/DT/dt_g1_balancing_plate_wise20192020/XMC/Libraries/XMCLib/inc\xmc_usic.h ****  * 				   \b Range: @ref XMC_USIC0_CH0, @ref XMC_USIC0_CH1 to @ref XMC_USIC2_CH1 based on device su
 790:G:/DT/dt_g1_balancing_plate_wise20192020/XMC/Libraries/XMCLib/inc\xmc_usic.h ****  * @param  input USIC channel input stage of type @ref XMC_USIC_CH_INPUT_t. \n
 791:G:/DT/dt_g1_balancing_plate_wise20192020/XMC/Libraries/XMCLib/inc\xmc_usic.h ****  * 				 \b Range: @ref XMC_USIC_CH_INPUT_DX0 to @ref XMC_USIC_CH_INPUT_DX5
 792:G:/DT/dt_g1_balancing_plate_wise20192020/XMC/Libraries/XMCLib/inc\xmc_usic.h ****  * @return None
 793:G:/DT/dt_g1_balancing_plate_wise20192020/XMC/Libraries/XMCLib/inc\xmc_usic.h ****  *
 794:G:/DT/dt_g1_balancing_plate_wise20192020/XMC/Libraries/XMCLib/inc\xmc_usic.h ****  * \par<b>Description</b><br>
 795:G:/DT/dt_g1_balancing_plate_wise20192020/XMC/Libraries/XMCLib/inc\xmc_usic.h ****  * The input of the data shift unit is controlled by the
 796:G:/DT/dt_g1_balancing_plate_wise20192020/XMC/Libraries/XMCLib/inc\xmc_usic.h ****  * protocol pre-processor. \n\n
 797:G:/DT/dt_g1_balancing_plate_wise20192020/XMC/Libraries/XMCLib/inc\xmc_usic.h ****  *
 798:G:/DT/dt_g1_balancing_plate_wise20192020/XMC/Libraries/XMCLib/inc\xmc_usic.h ****  * \par<b>Related APIs:</b><BR>
 799:G:/DT/dt_g1_balancing_plate_wise20192020/XMC/Libraries/XMCLib/inc\xmc_usic.h ****  * XMC_USIC_CH_ConnectInputDataShiftToDataInput()\n\n\n
 800:G:/DT/dt_g1_balancing_plate_wise20192020/XMC/Libraries/XMCLib/inc\xmc_usic.h ****  */
 801:G:/DT/dt_g1_balancing_plate_wise20192020/XMC/Libraries/XMCLib/inc\xmc_usic.h **** __STATIC_INLINE void XMC_USIC_CH_ConnectInputDataShiftToPPP(XMC_USIC_CH_t *const channel, const XMC
 802:G:/DT/dt_g1_balancing_plate_wise20192020/XMC/Libraries/XMCLib/inc\xmc_usic.h **** {
 803:G:/DT/dt_g1_balancing_plate_wise20192020/XMC/Libraries/XMCLib/inc\xmc_usic.h ****   channel->DXCR[input] &=(uint32_t)~USIC_CH_DXCR_INSW_Msk;
 804:G:/DT/dt_g1_balancing_plate_wise20192020/XMC/Libraries/XMCLib/inc\xmc_usic.h **** }
 805:G:/DT/dt_g1_balancing_plate_wise20192020/XMC/Libraries/XMCLib/inc\xmc_usic.h **** 
 806:G:/DT/dt_g1_balancing_plate_wise20192020/XMC/Libraries/XMCLib/inc\xmc_usic.h **** /**
 807:G:/DT/dt_g1_balancing_plate_wise20192020/XMC/Libraries/XMCLib/inc\xmc_usic.h ****  * @param  channel Pointer to USIC channel handler of type @ref XMC_USIC_CH_t \n
 808:G:/DT/dt_g1_balancing_plate_wise20192020/XMC/Libraries/XMCLib/inc\xmc_usic.h ****  * 				   \b Range: @ref XMC_USIC0_CH0, @ref XMC_USIC0_CH1 to @ref XMC_USIC2_CH1 based on device su
 809:G:/DT/dt_g1_balancing_plate_wise20192020/XMC/Libraries/XMCLib/inc\xmc_usic.h ****  * @param  input USIC channel input stage of type @ref XMC_USIC_CH_INPUT_t. \n
 810:G:/DT/dt_g1_balancing_plate_wise20192020/XMC/Libraries/XMCLib/inc\xmc_usic.h ****  * 				 \b Range: @ref XMC_USIC_CH_INPUT_DX0 to @ref XMC_USIC_CH_INPUT_DX5
 811:G:/DT/dt_g1_balancing_plate_wise20192020/XMC/Libraries/XMCLib/inc\xmc_usic.h ****  * @return None
 812:G:/DT/dt_g1_balancing_plate_wise20192020/XMC/Libraries/XMCLib/inc\xmc_usic.h ****  *
 813:G:/DT/dt_g1_balancing_plate_wise20192020/XMC/Libraries/XMCLib/inc\xmc_usic.h ****  * \par<b>Description</b><br>
 814:G:/DT/dt_g1_balancing_plate_wise20192020/XMC/Libraries/XMCLib/inc\xmc_usic.h ****  * The input of the data shift unit is connected to
 815:G:/DT/dt_g1_balancing_plate_wise20192020/XMC/Libraries/XMCLib/inc\xmc_usic.h ****  * the selected data input line. \n\n
 816:G:/DT/dt_g1_balancing_plate_wise20192020/XMC/Libraries/XMCLib/inc\xmc_usic.h ****  *
 817:G:/DT/dt_g1_balancing_plate_wise20192020/XMC/Libraries/XMCLib/inc\xmc_usic.h ****  * This setting is used
 818:G:/DT/dt_g1_balancing_plate_wise20192020/XMC/Libraries/XMCLib/inc\xmc_usic.h ****  * if the signals are directly derived from an input
 819:G:/DT/dt_g1_balancing_plate_wise20192020/XMC/Libraries/XMCLib/inc\xmc_usic.h ****  * pin without treatment by the protocol preprocessor.
 820:G:/DT/dt_g1_balancing_plate_wise20192020/XMC/Libraries/XMCLib/inc\xmc_usic.h ****  * \par<b>Related APIs:</b><BR>
 821:G:/DT/dt_g1_balancing_plate_wise20192020/XMC/Libraries/XMCLib/inc\xmc_usic.h ****  * XMC_USIC_CH_ConnectInputDataShiftToPPP()\n\n\n
 822:G:/DT/dt_g1_balancing_plate_wise20192020/XMC/Libraries/XMCLib/inc\xmc_usic.h ****  */
 823:G:/DT/dt_g1_balancing_plate_wise20192020/XMC/Libraries/XMCLib/inc\xmc_usic.h **** __STATIC_INLINE void XMC_USIC_CH_ConnectInputDataShiftToDataInput(XMC_USIC_CH_t *const channel, con
 824:G:/DT/dt_g1_balancing_plate_wise20192020/XMC/Libraries/XMCLib/inc\xmc_usic.h **** {
 825:G:/DT/dt_g1_balancing_plate_wise20192020/XMC/Libraries/XMCLib/inc\xmc_usic.h ****   channel->DXCR[input] |= USIC_CH_DXCR_INSW_Msk;
 826:G:/DT/dt_g1_balancing_plate_wise20192020/XMC/Libraries/XMCLib/inc\xmc_usic.h **** }
 827:G:/DT/dt_g1_balancing_plate_wise20192020/XMC/Libraries/XMCLib/inc\xmc_usic.h **** 
 828:G:/DT/dt_g1_balancing_plate_wise20192020/XMC/Libraries/XMCLib/inc\xmc_usic.h **** /**
 829:G:/DT/dt_g1_balancing_plate_wise20192020/XMC/Libraries/XMCLib/inc\xmc_usic.h ****  * @param  channel Pointer to USIC channel handler of type @ref XMC_USIC_CH_t \n
 830:G:/DT/dt_g1_balancing_plate_wise20192020/XMC/Libraries/XMCLib/inc\xmc_usic.h ****  * 				   \b Range: @ref XMC_USIC0_CH0, @ref XMC_USIC0_CH1 to @ref XMC_USIC2_CH1 based on device su
 831:G:/DT/dt_g1_balancing_plate_wise20192020/XMC/Libraries/XMCLib/inc\xmc_usic.h ****  * @param  input USIC channel input stage of type @ref XMC_USIC_CH_INPUT_t. \n
 832:G:/DT/dt_g1_balancing_plate_wise20192020/XMC/Libraries/XMCLib/inc\xmc_usic.h ****  * 				 \b Range: @ref XMC_USIC_CH_INPUT_DX0 to @ref XMC_USIC_CH_INPUT_DX5
 833:G:/DT/dt_g1_balancing_plate_wise20192020/XMC/Libraries/XMCLib/inc\xmc_usic.h ****  * @return None
 834:G:/DT/dt_g1_balancing_plate_wise20192020/XMC/Libraries/XMCLib/inc\xmc_usic.h ****  *
 835:G:/DT/dt_g1_balancing_plate_wise20192020/XMC/Libraries/XMCLib/inc\xmc_usic.h ****  * \par<b>Description</b><br>
 836:G:/DT/dt_g1_balancing_plate_wise20192020/XMC/Libraries/XMCLib/inc\xmc_usic.h ****  * Enables input inversion for USIC channel input data signal. \n\n
 837:G:/DT/dt_g1_balancing_plate_wise20192020/XMC/Libraries/XMCLib/inc\xmc_usic.h ****  *
 838:G:/DT/dt_g1_balancing_plate_wise20192020/XMC/Libraries/XMCLib/inc\xmc_usic.h ****  * Polarity of the input source can be changed to provide inverted data input.
 839:G:/DT/dt_g1_balancing_plate_wise20192020/XMC/Libraries/XMCLib/inc\xmc_usic.h ****  * \par<b>Related APIs:</b><BR>
 840:G:/DT/dt_g1_balancing_plate_wise20192020/XMC/Libraries/XMCLib/inc\xmc_usic.h ****  * XMC_USIC_CH_DisableInputInversion()\n\n\n
 841:G:/DT/dt_g1_balancing_plate_wise20192020/XMC/Libraries/XMCLib/inc\xmc_usic.h ****  */
 842:G:/DT/dt_g1_balancing_plate_wise20192020/XMC/Libraries/XMCLib/inc\xmc_usic.h **** __STATIC_INLINE void XMC_USIC_CH_EnableInputInversion(XMC_USIC_CH_t *const channel, const XMC_USIC_
 843:G:/DT/dt_g1_balancing_plate_wise20192020/XMC/Libraries/XMCLib/inc\xmc_usic.h **** {
 844:G:/DT/dt_g1_balancing_plate_wise20192020/XMC/Libraries/XMCLib/inc\xmc_usic.h ****   channel->DXCR[input] |= USIC_CH_DXCR_DPOL_Msk;
 845:G:/DT/dt_g1_balancing_plate_wise20192020/XMC/Libraries/XMCLib/inc\xmc_usic.h **** }
 846:G:/DT/dt_g1_balancing_plate_wise20192020/XMC/Libraries/XMCLib/inc\xmc_usic.h **** 
 847:G:/DT/dt_g1_balancing_plate_wise20192020/XMC/Libraries/XMCLib/inc\xmc_usic.h **** /**
 848:G:/DT/dt_g1_balancing_plate_wise20192020/XMC/Libraries/XMCLib/inc\xmc_usic.h ****  * @param  channel Pointer to USIC channel handler of type @ref XMC_USIC_CH_t \n
 849:G:/DT/dt_g1_balancing_plate_wise20192020/XMC/Libraries/XMCLib/inc\xmc_usic.h ****  * 				   \b Range: @ref XMC_USIC0_CH0, @ref XMC_USIC0_CH1 to @ref XMC_USIC2_CH1 based on device su
 850:G:/DT/dt_g1_balancing_plate_wise20192020/XMC/Libraries/XMCLib/inc\xmc_usic.h ****  * @param  input USIC channel input stage of type @ref XMC_USIC_CH_INPUT_t. \n
 851:G:/DT/dt_g1_balancing_plate_wise20192020/XMC/Libraries/XMCLib/inc\xmc_usic.h ****  * 				 \b Range: @ref XMC_USIC_CH_INPUT_DX0 to @ref XMC_USIC_CH_INPUT_DX5
 852:G:/DT/dt_g1_balancing_plate_wise20192020/XMC/Libraries/XMCLib/inc\xmc_usic.h ****  * @return None
 853:G:/DT/dt_g1_balancing_plate_wise20192020/XMC/Libraries/XMCLib/inc\xmc_usic.h ****  *
 854:G:/DT/dt_g1_balancing_plate_wise20192020/XMC/Libraries/XMCLib/inc\xmc_usic.h ****  * \par<b>Description</b><br>
 855:G:/DT/dt_g1_balancing_plate_wise20192020/XMC/Libraries/XMCLib/inc\xmc_usic.h ****  * Disables input inversion for USIC channel. \n\n
 856:G:/DT/dt_g1_balancing_plate_wise20192020/XMC/Libraries/XMCLib/inc\xmc_usic.h ****  *
 857:G:/DT/dt_g1_balancing_plate_wise20192020/XMC/Libraries/XMCLib/inc\xmc_usic.h ****  * Resets the input data polarity for the USIC channel input data signal.
 858:G:/DT/dt_g1_balancing_plate_wise20192020/XMC/Libraries/XMCLib/inc\xmc_usic.h ****  * \par<b>Related APIs:</b><BR>
 859:G:/DT/dt_g1_balancing_plate_wise20192020/XMC/Libraries/XMCLib/inc\xmc_usic.h ****  * XMC_USIC_CH_EnableInputInversion()\n\n\n
 860:G:/DT/dt_g1_balancing_plate_wise20192020/XMC/Libraries/XMCLib/inc\xmc_usic.h ****  */
 861:G:/DT/dt_g1_balancing_plate_wise20192020/XMC/Libraries/XMCLib/inc\xmc_usic.h **** __STATIC_INLINE void XMC_USIC_CH_DisableInputInversion(XMC_USIC_CH_t *const channel, const XMC_USIC
 862:G:/DT/dt_g1_balancing_plate_wise20192020/XMC/Libraries/XMCLib/inc\xmc_usic.h **** {
 863:G:/DT/dt_g1_balancing_plate_wise20192020/XMC/Libraries/XMCLib/inc\xmc_usic.h ****   channel->DXCR[input] &=(uint32_t)~USIC_CH_DXCR_DPOL_Msk;
 864:G:/DT/dt_g1_balancing_plate_wise20192020/XMC/Libraries/XMCLib/inc\xmc_usic.h **** }
 865:G:/DT/dt_g1_balancing_plate_wise20192020/XMC/Libraries/XMCLib/inc\xmc_usic.h **** 
 866:G:/DT/dt_g1_balancing_plate_wise20192020/XMC/Libraries/XMCLib/inc\xmc_usic.h **** /**
 867:G:/DT/dt_g1_balancing_plate_wise20192020/XMC/Libraries/XMCLib/inc\xmc_usic.h ****  * @param  channel Pointer to USIC channel handler of type @ref XMC_USIC_CH_t \n
 868:G:/DT/dt_g1_balancing_plate_wise20192020/XMC/Libraries/XMCLib/inc\xmc_usic.h ****  * 				   \b Range: @ref XMC_USIC0_CH0, @ref XMC_USIC0_CH1 to @ref XMC_USIC2_CH1 based on device su
 869:G:/DT/dt_g1_balancing_plate_wise20192020/XMC/Libraries/XMCLib/inc\xmc_usic.h ****  * @return None
 870:G:/DT/dt_g1_balancing_plate_wise20192020/XMC/Libraries/XMCLib/inc\xmc_usic.h ****  *
 871:G:/DT/dt_g1_balancing_plate_wise20192020/XMC/Libraries/XMCLib/inc\xmc_usic.h ****  * \par<b>Description</b><br>
 872:G:/DT/dt_g1_balancing_plate_wise20192020/XMC/Libraries/XMCLib/inc\xmc_usic.h ****  * Enables delay compensation. \n\n
 873:G:/DT/dt_g1_balancing_plate_wise20192020/XMC/Libraries/XMCLib/inc\xmc_usic.h ****  *
 874:G:/DT/dt_g1_balancing_plate_wise20192020/XMC/Libraries/XMCLib/inc\xmc_usic.h ****  * Delay compensation can be applied to the receive path.
 875:G:/DT/dt_g1_balancing_plate_wise20192020/XMC/Libraries/XMCLib/inc\xmc_usic.h ****  * \par<b>Related APIs:</b><BR>
 876:G:/DT/dt_g1_balancing_plate_wise20192020/XMC/Libraries/XMCLib/inc\xmc_usic.h ****  * XMC_USIC_CH_DisableDelayCompensation()\n\n\n
 877:G:/DT/dt_g1_balancing_plate_wise20192020/XMC/Libraries/XMCLib/inc\xmc_usic.h ****  */
 878:G:/DT/dt_g1_balancing_plate_wise20192020/XMC/Libraries/XMCLib/inc\xmc_usic.h **** __STATIC_INLINE void XMC_USIC_CH_EnableDelayCompensation(XMC_USIC_CH_t *const channel)
 879:G:/DT/dt_g1_balancing_plate_wise20192020/XMC/Libraries/XMCLib/inc\xmc_usic.h **** {
 880:G:/DT/dt_g1_balancing_plate_wise20192020/XMC/Libraries/XMCLib/inc\xmc_usic.h ****   channel->DXCR[1U] |= USIC_CH_DX1CR_DCEN_Msk;
 881:G:/DT/dt_g1_balancing_plate_wise20192020/XMC/Libraries/XMCLib/inc\xmc_usic.h **** }
 882:G:/DT/dt_g1_balancing_plate_wise20192020/XMC/Libraries/XMCLib/inc\xmc_usic.h **** 
 883:G:/DT/dt_g1_balancing_plate_wise20192020/XMC/Libraries/XMCLib/inc\xmc_usic.h **** /**
 884:G:/DT/dt_g1_balancing_plate_wise20192020/XMC/Libraries/XMCLib/inc\xmc_usic.h ****  * @param  channel Pointer to USIC channel handler of type @ref XMC_USIC_CH_t \n
 885:G:/DT/dt_g1_balancing_plate_wise20192020/XMC/Libraries/XMCLib/inc\xmc_usic.h ****  * 				   \b Range: @ref XMC_USIC0_CH0, @ref XMC_USIC0_CH1 to @ref XMC_USIC2_CH1 based on device su
 886:G:/DT/dt_g1_balancing_plate_wise20192020/XMC/Libraries/XMCLib/inc\xmc_usic.h ****  * @return None
 887:G:/DT/dt_g1_balancing_plate_wise20192020/XMC/Libraries/XMCLib/inc\xmc_usic.h ****  *
 888:G:/DT/dt_g1_balancing_plate_wise20192020/XMC/Libraries/XMCLib/inc\xmc_usic.h ****  * \par<b>Description</b><br>
 889:G:/DT/dt_g1_balancing_plate_wise20192020/XMC/Libraries/XMCLib/inc\xmc_usic.h ****  * Disables delay compensation.. \n\n
 890:G:/DT/dt_g1_balancing_plate_wise20192020/XMC/Libraries/XMCLib/inc\xmc_usic.h ****  *
 891:G:/DT/dt_g1_balancing_plate_wise20192020/XMC/Libraries/XMCLib/inc\xmc_usic.h ****  * \par<b>Related APIs:</b><BR>
 892:G:/DT/dt_g1_balancing_plate_wise20192020/XMC/Libraries/XMCLib/inc\xmc_usic.h ****  * XMC_USIC_CH_EnableDelayCompensation()\n\n\n
 893:G:/DT/dt_g1_balancing_plate_wise20192020/XMC/Libraries/XMCLib/inc\xmc_usic.h ****  */
 894:G:/DT/dt_g1_balancing_plate_wise20192020/XMC/Libraries/XMCLib/inc\xmc_usic.h **** __STATIC_INLINE void XMC_USIC_CH_DisableDelayCompensation(XMC_USIC_CH_t *const channel)
 895:G:/DT/dt_g1_balancing_plate_wise20192020/XMC/Libraries/XMCLib/inc\xmc_usic.h **** {
 896:G:/DT/dt_g1_balancing_plate_wise20192020/XMC/Libraries/XMCLib/inc\xmc_usic.h ****   channel->DXCR[1U] &=(uint32_t)~USIC_CH_DX1CR_DCEN_Msk;
 897:G:/DT/dt_g1_balancing_plate_wise20192020/XMC/Libraries/XMCLib/inc\xmc_usic.h **** }
 898:G:/DT/dt_g1_balancing_plate_wise20192020/XMC/Libraries/XMCLib/inc\xmc_usic.h **** 
 899:G:/DT/dt_g1_balancing_plate_wise20192020/XMC/Libraries/XMCLib/inc\xmc_usic.h **** /**
 900:G:/DT/dt_g1_balancing_plate_wise20192020/XMC/Libraries/XMCLib/inc\xmc_usic.h ****  * @param  channel Pointer to USIC channel handler of type @ref XMC_USIC_CH_t \n
 901:G:/DT/dt_g1_balancing_plate_wise20192020/XMC/Libraries/XMCLib/inc\xmc_usic.h ****  * 				   \b Range: @ref XMC_USIC0_CH0, @ref XMC_USIC0_CH1 to @ref XMC_USIC2_CH1 based on device su
 902:G:/DT/dt_g1_balancing_plate_wise20192020/XMC/Libraries/XMCLib/inc\xmc_usic.h ****  * @param  input USIC channel input stage of type @ref XMC_USIC_CH_INPUT_t. \n
 903:G:/DT/dt_g1_balancing_plate_wise20192020/XMC/Libraries/XMCLib/inc\xmc_usic.h ****  * 				 \b Range: @ref XMC_USIC_CH_INPUT_DX0 to @ref XMC_USIC_CH_INPUT_DX5
 904:G:/DT/dt_g1_balancing_plate_wise20192020/XMC/Libraries/XMCLib/inc\xmc_usic.h ****  * @return None
 905:G:/DT/dt_g1_balancing_plate_wise20192020/XMC/Libraries/XMCLib/inc\xmc_usic.h ****  *
 906:G:/DT/dt_g1_balancing_plate_wise20192020/XMC/Libraries/XMCLib/inc\xmc_usic.h ****  * \par<b>Description</b><br>
 907:G:/DT/dt_g1_balancing_plate_wise20192020/XMC/Libraries/XMCLib/inc\xmc_usic.h ****  * Enables the input digital filter for USIC channel input data signal. \n\n
 908:G:/DT/dt_g1_balancing_plate_wise20192020/XMC/Libraries/XMCLib/inc\xmc_usic.h ****  * Input data signal from the selected multiplexer will be digitally filtered.
 909:G:/DT/dt_g1_balancing_plate_wise20192020/XMC/Libraries/XMCLib/inc\xmc_usic.h ****  *
 910:G:/DT/dt_g1_balancing_plate_wise20192020/XMC/Libraries/XMCLib/inc\xmc_usic.h ****  * \par<b>Related APIs:</b><BR>
 911:G:/DT/dt_g1_balancing_plate_wise20192020/XMC/Libraries/XMCLib/inc\xmc_usic.h ****  * XMC_USIC_CH_DisableInputDigitalFilter()\n\n\n
 912:G:/DT/dt_g1_balancing_plate_wise20192020/XMC/Libraries/XMCLib/inc\xmc_usic.h ****  */
 913:G:/DT/dt_g1_balancing_plate_wise20192020/XMC/Libraries/XMCLib/inc\xmc_usic.h **** __STATIC_INLINE void XMC_USIC_CH_EnableInputDigitalFilter(XMC_USIC_CH_t *const channel, const XMC_U
 914:G:/DT/dt_g1_balancing_plate_wise20192020/XMC/Libraries/XMCLib/inc\xmc_usic.h **** {
 915:G:/DT/dt_g1_balancing_plate_wise20192020/XMC/Libraries/XMCLib/inc\xmc_usic.h ****   channel->DXCR[input] |= (uint32_t)USIC_CH_DXCR_DFEN_Msk;
 916:G:/DT/dt_g1_balancing_plate_wise20192020/XMC/Libraries/XMCLib/inc\xmc_usic.h **** }
 917:G:/DT/dt_g1_balancing_plate_wise20192020/XMC/Libraries/XMCLib/inc\xmc_usic.h **** /**
 918:G:/DT/dt_g1_balancing_plate_wise20192020/XMC/Libraries/XMCLib/inc\xmc_usic.h ****  * @param  channel Pointer to USIC channel handler of type @ref XMC_USIC_CH_t \n
 919:G:/DT/dt_g1_balancing_plate_wise20192020/XMC/Libraries/XMCLib/inc\xmc_usic.h ****  * 				   \b Range: @ref XMC_USIC0_CH0, @ref XMC_USIC0_CH1 to @ref XMC_USIC2_CH1 based on device su
 920:G:/DT/dt_g1_balancing_plate_wise20192020/XMC/Libraries/XMCLib/inc\xmc_usic.h ****  * @param  input USIC channel input stage of type @ref XMC_USIC_CH_INPUT_t. \n
 921:G:/DT/dt_g1_balancing_plate_wise20192020/XMC/Libraries/XMCLib/inc\xmc_usic.h ****  * 				 \b Range: @ref XMC_USIC_CH_INPUT_DX0 to @ref XMC_USIC_CH_INPUT_DX5
 922:G:/DT/dt_g1_balancing_plate_wise20192020/XMC/Libraries/XMCLib/inc\xmc_usic.h ****  * @return None
 923:G:/DT/dt_g1_balancing_plate_wise20192020/XMC/Libraries/XMCLib/inc\xmc_usic.h ****  *
 924:G:/DT/dt_g1_balancing_plate_wise20192020/XMC/Libraries/XMCLib/inc\xmc_usic.h ****  * \par<b>Description</b><br>
 925:G:/DT/dt_g1_balancing_plate_wise20192020/XMC/Libraries/XMCLib/inc\xmc_usic.h ****  * Disables the input digital filter for USIC channel input data signal. \n\n
 926:G:/DT/dt_g1_balancing_plate_wise20192020/XMC/Libraries/XMCLib/inc\xmc_usic.h ****  * Input data signal from the selected multiplexer will not be digitally filtered.
 927:G:/DT/dt_g1_balancing_plate_wise20192020/XMC/Libraries/XMCLib/inc\xmc_usic.h ****  *
 928:G:/DT/dt_g1_balancing_plate_wise20192020/XMC/Libraries/XMCLib/inc\xmc_usic.h ****  * \par<b>Related APIs:</b><BR>
 929:G:/DT/dt_g1_balancing_plate_wise20192020/XMC/Libraries/XMCLib/inc\xmc_usic.h ****  * XMC_USIC_CH_EnableInputDigitalFilter()\n\n\n
 930:G:/DT/dt_g1_balancing_plate_wise20192020/XMC/Libraries/XMCLib/inc\xmc_usic.h ****  */
 931:G:/DT/dt_g1_balancing_plate_wise20192020/XMC/Libraries/XMCLib/inc\xmc_usic.h **** __STATIC_INLINE void XMC_USIC_CH_DisableInputDigitalFilter(XMC_USIC_CH_t *const channel, const XMC_
 932:G:/DT/dt_g1_balancing_plate_wise20192020/XMC/Libraries/XMCLib/inc\xmc_usic.h **** {
 933:G:/DT/dt_g1_balancing_plate_wise20192020/XMC/Libraries/XMCLib/inc\xmc_usic.h ****   channel->DXCR[input] &=(uint32_t)~USIC_CH_DXCR_DFEN_Msk;
 934:G:/DT/dt_g1_balancing_plate_wise20192020/XMC/Libraries/XMCLib/inc\xmc_usic.h **** }
 935:G:/DT/dt_g1_balancing_plate_wise20192020/XMC/Libraries/XMCLib/inc\xmc_usic.h **** /**
 936:G:/DT/dt_g1_balancing_plate_wise20192020/XMC/Libraries/XMCLib/inc\xmc_usic.h ****  * @param  channel Pointer to USIC channel handler of type @ref XMC_USIC_CH_t \n
 937:G:/DT/dt_g1_balancing_plate_wise20192020/XMC/Libraries/XMCLib/inc\xmc_usic.h ****  * 				   \b Range: @ref XMC_USIC0_CH0, @ref XMC_USIC0_CH1 to @ref XMC_USIC2_CH1 based on device su
 938:G:/DT/dt_g1_balancing_plate_wise20192020/XMC/Libraries/XMCLib/inc\xmc_usic.h ****  * @param  input USIC channel input stage of type @ref XMC_USIC_CH_INPUT_t. \n
 939:G:/DT/dt_g1_balancing_plate_wise20192020/XMC/Libraries/XMCLib/inc\xmc_usic.h ****  * 				 \b Range: @ref XMC_USIC_CH_INPUT_DX0 to @ref XMC_USIC_CH_INPUT_DX5
 940:G:/DT/dt_g1_balancing_plate_wise20192020/XMC/Libraries/XMCLib/inc\xmc_usic.h ****  * @return None
 941:G:/DT/dt_g1_balancing_plate_wise20192020/XMC/Libraries/XMCLib/inc\xmc_usic.h ****  *
 942:G:/DT/dt_g1_balancing_plate_wise20192020/XMC/Libraries/XMCLib/inc\xmc_usic.h ****  * \par<b>Description</b><br>
 943:G:/DT/dt_g1_balancing_plate_wise20192020/XMC/Libraries/XMCLib/inc\xmc_usic.h ****  * Enables input synchronization for the USIC channel input data signal. \n\n
 944:G:/DT/dt_g1_balancing_plate_wise20192020/XMC/Libraries/XMCLib/inc\xmc_usic.h ****  * Input data signal from the selected multiplexer will be synchronized with fPERIPH.
 945:G:/DT/dt_g1_balancing_plate_wise20192020/XMC/Libraries/XMCLib/inc\xmc_usic.h ****  * A noisy signal can be synchronized and filtered by enabling the digital filter.
 946:G:/DT/dt_g1_balancing_plate_wise20192020/XMC/Libraries/XMCLib/inc\xmc_usic.h ****  *
 947:G:/DT/dt_g1_balancing_plate_wise20192020/XMC/Libraries/XMCLib/inc\xmc_usic.h ****  * \par<b>Related APIs:</b><BR>
 948:G:/DT/dt_g1_balancing_plate_wise20192020/XMC/Libraries/XMCLib/inc\xmc_usic.h ****  * XMC_USIC_CH_DisableInputSync(), XMC_USIC_CH_EnableInputDigitalFilter()\n\n\n
 949:G:/DT/dt_g1_balancing_plate_wise20192020/XMC/Libraries/XMCLib/inc\xmc_usic.h ****  */
 950:G:/DT/dt_g1_balancing_plate_wise20192020/XMC/Libraries/XMCLib/inc\xmc_usic.h **** __STATIC_INLINE void XMC_USIC_CH_EnableInputSync(XMC_USIC_CH_t *const channel, const XMC_USIC_CH_IN
 951:G:/DT/dt_g1_balancing_plate_wise20192020/XMC/Libraries/XMCLib/inc\xmc_usic.h **** {
 952:G:/DT/dt_g1_balancing_plate_wise20192020/XMC/Libraries/XMCLib/inc\xmc_usic.h ****   channel->DXCR[input] |=(uint32_t)USIC_CH_DXCR_DSEN_Msk;
 953:G:/DT/dt_g1_balancing_plate_wise20192020/XMC/Libraries/XMCLib/inc\xmc_usic.h **** }
 954:G:/DT/dt_g1_balancing_plate_wise20192020/XMC/Libraries/XMCLib/inc\xmc_usic.h **** /**
 955:G:/DT/dt_g1_balancing_plate_wise20192020/XMC/Libraries/XMCLib/inc\xmc_usic.h ****  * @param  channel Pointer to USIC channel handler of type @ref XMC_USIC_CH_t \n
 956:G:/DT/dt_g1_balancing_plate_wise20192020/XMC/Libraries/XMCLib/inc\xmc_usic.h ****  * 				   \b Range: @ref XMC_USIC0_CH0, @ref XMC_USIC0_CH1 to @ref XMC_USIC2_CH1 based on device su
 957:G:/DT/dt_g1_balancing_plate_wise20192020/XMC/Libraries/XMCLib/inc\xmc_usic.h ****  * @param  input USIC channel input stage of type @ref XMC_USIC_CH_INPUT_t. \n
 958:G:/DT/dt_g1_balancing_plate_wise20192020/XMC/Libraries/XMCLib/inc\xmc_usic.h ****  * 				 \b Range: @ref XMC_USIC_CH_INPUT_DX0 to @ref XMC_USIC_CH_INPUT_DX5
 959:G:/DT/dt_g1_balancing_plate_wise20192020/XMC/Libraries/XMCLib/inc\xmc_usic.h ****  * @return None
 960:G:/DT/dt_g1_balancing_plate_wise20192020/XMC/Libraries/XMCLib/inc\xmc_usic.h ****  *
 961:G:/DT/dt_g1_balancing_plate_wise20192020/XMC/Libraries/XMCLib/inc\xmc_usic.h ****  * \par<b>Description</b><br>
 962:G:/DT/dt_g1_balancing_plate_wise20192020/XMC/Libraries/XMCLib/inc\xmc_usic.h ****  * Disables input synchronization for the USIC channel input data signal. \n\n
 963:G:/DT/dt_g1_balancing_plate_wise20192020/XMC/Libraries/XMCLib/inc\xmc_usic.h ****  * Input data signal from the selected multiplexer will not be synchronized.
 964:G:/DT/dt_g1_balancing_plate_wise20192020/XMC/Libraries/XMCLib/inc\xmc_usic.h ****  *
 965:G:/DT/dt_g1_balancing_plate_wise20192020/XMC/Libraries/XMCLib/inc\xmc_usic.h ****  * \par<b>Related APIs:</b><BR>
 966:G:/DT/dt_g1_balancing_plate_wise20192020/XMC/Libraries/XMCLib/inc\xmc_usic.h ****  * XMC_USIC_CH_EnableInputSync(), XMC_USIC_CH_DisableInputDigitalFilter() \n\n\n
 967:G:/DT/dt_g1_balancing_plate_wise20192020/XMC/Libraries/XMCLib/inc\xmc_usic.h ****  */
 968:G:/DT/dt_g1_balancing_plate_wise20192020/XMC/Libraries/XMCLib/inc\xmc_usic.h **** __STATIC_INLINE void XMC_USIC_CH_DisableInputSync(XMC_USIC_CH_t *const channel, const XMC_USIC_CH_I
 969:G:/DT/dt_g1_balancing_plate_wise20192020/XMC/Libraries/XMCLib/inc\xmc_usic.h **** {
 970:G:/DT/dt_g1_balancing_plate_wise20192020/XMC/Libraries/XMCLib/inc\xmc_usic.h ****   channel->DXCR[input] &=(uint32_t)~USIC_CH_DXCR_DSEN_Msk;
 971:G:/DT/dt_g1_balancing_plate_wise20192020/XMC/Libraries/XMCLib/inc\xmc_usic.h **** }
 972:G:/DT/dt_g1_balancing_plate_wise20192020/XMC/Libraries/XMCLib/inc\xmc_usic.h **** /**
 973:G:/DT/dt_g1_balancing_plate_wise20192020/XMC/Libraries/XMCLib/inc\xmc_usic.h ****  * @param  channel Pointer to USIC channel handler of type @ref XMC_USIC_CH_t \n
 974:G:/DT/dt_g1_balancing_plate_wise20192020/XMC/Libraries/XMCLib/inc\xmc_usic.h ****  * 				   \b Range: @ref XMC_USIC0_CH0, @ref XMC_USIC0_CH1 to @ref XMC_USIC2_CH1 based on device su
 975:G:/DT/dt_g1_balancing_plate_wise20192020/XMC/Libraries/XMCLib/inc\xmc_usic.h ****  * @param  input USIC channel input stage of type @ref XMC_USIC_CH_INPUT_t. \n
 976:G:/DT/dt_g1_balancing_plate_wise20192020/XMC/Libraries/XMCLib/inc\xmc_usic.h ****  * 				 \b Range: @ref XMC_USIC_CH_INPUT_DX0 to @ref XMC_USIC_CH_INPUT_DX5
 977:G:/DT/dt_g1_balancing_plate_wise20192020/XMC/Libraries/XMCLib/inc\xmc_usic.h ****  * @param  sampling_freq Sampling frequency value of type \a XMC_USIC_CH_INPUT_SAMPLING_FREQ_t.
 978:G:/DT/dt_g1_balancing_plate_wise20192020/XMC/Libraries/XMCLib/inc\xmc_usic.h ****  * @return None
 979:G:/DT/dt_g1_balancing_plate_wise20192020/XMC/Libraries/XMCLib/inc\xmc_usic.h ****  *
 980:G:/DT/dt_g1_balancing_plate_wise20192020/XMC/Libraries/XMCLib/inc\xmc_usic.h ****  * \par<b>Description</b><br>
 981:G:/DT/dt_g1_balancing_plate_wise20192020/XMC/Libraries/XMCLib/inc\xmc_usic.h ****  * Sets sampling frequency for USIC channel input data signal. \n\n
 982:G:/DT/dt_g1_balancing_plate_wise20192020/XMC/Libraries/XMCLib/inc\xmc_usic.h ****  *
 983:G:/DT/dt_g1_balancing_plate_wise20192020/XMC/Libraries/XMCLib/inc\xmc_usic.h ****  * \par<b>Related APIs:</b><BR>
 984:G:/DT/dt_g1_balancing_plate_wise20192020/XMC/Libraries/XMCLib/inc\xmc_usic.h ****  * XMC_USIC_CH_SetInputSource(), XMC_USIC_CH_EnableInputSync(), XMC_USIC_CH_EnableInputDigitalFilte
 985:G:/DT/dt_g1_balancing_plate_wise20192020/XMC/Libraries/XMCLib/inc\xmc_usic.h ****  */
 986:G:/DT/dt_g1_balancing_plate_wise20192020/XMC/Libraries/XMCLib/inc\xmc_usic.h **** __STATIC_INLINE void XMC_USIC_CH_SetInputSamplingFreq(XMC_USIC_CH_t *const channel,
 987:G:/DT/dt_g1_balancing_plate_wise20192020/XMC/Libraries/XMCLib/inc\xmc_usic.h **** 		                                              const XMC_USIC_CH_INPUT_t input,
 988:G:/DT/dt_g1_balancing_plate_wise20192020/XMC/Libraries/XMCLib/inc\xmc_usic.h **** 		                                              const XMC_USIC_CH_INPUT_SAMPLING_FREQ_t sampling_fr
 989:G:/DT/dt_g1_balancing_plate_wise20192020/XMC/Libraries/XMCLib/inc\xmc_usic.h **** {
 990:G:/DT/dt_g1_balancing_plate_wise20192020/XMC/Libraries/XMCLib/inc\xmc_usic.h ****   channel->DXCR[input] = (uint32_t)(channel->DXCR[input] & (~USIC_CH_DXCR_SFSEL_Msk)) |
 991:G:/DT/dt_g1_balancing_plate_wise20192020/XMC/Libraries/XMCLib/inc\xmc_usic.h ****                          ((uint32_t)sampling_freq);
 992:G:/DT/dt_g1_balancing_plate_wise20192020/XMC/Libraries/XMCLib/inc\xmc_usic.h **** }
 993:G:/DT/dt_g1_balancing_plate_wise20192020/XMC/Libraries/XMCLib/inc\xmc_usic.h **** 
 994:G:/DT/dt_g1_balancing_plate_wise20192020/XMC/Libraries/XMCLib/inc\xmc_usic.h **** /**
 995:G:/DT/dt_g1_balancing_plate_wise20192020/XMC/Libraries/XMCLib/inc\xmc_usic.h ****  * @param  channel Pointer to USIC channel handler of type @ref XMC_USIC_CH_t \n
 996:G:/DT/dt_g1_balancing_plate_wise20192020/XMC/Libraries/XMCLib/inc\xmc_usic.h ****  * 				   \b Range: @ref XMC_USIC0_CH0, @ref XMC_USIC0_CH1 to @ref XMC_USIC2_CH1 based on device su
 997:G:/DT/dt_g1_balancing_plate_wise20192020/XMC/Libraries/XMCLib/inc\xmc_usic.h ****  * @param  input USIC channel input stage of type @ref XMC_USIC_CH_INPUT_t. \n
 998:G:/DT/dt_g1_balancing_plate_wise20192020/XMC/Libraries/XMCLib/inc\xmc_usic.h ****  * 				 \b Range: @ref XMC_USIC_CH_INPUT_DX0 to @ref XMC_USIC_CH_INPUT_DX5
 999:G:/DT/dt_g1_balancing_plate_wise20192020/XMC/Libraries/XMCLib/inc\xmc_usic.h ****  * @param  combination_mode Combination mode value of type \a XMC_USIC_CH_INPUT_COMBINATION_MODE_t.
1000:G:/DT/dt_g1_balancing_plate_wise20192020/XMC/Libraries/XMCLib/inc\xmc_usic.h ****  * @return None
1001:G:/DT/dt_g1_balancing_plate_wise20192020/XMC/Libraries/XMCLib/inc\xmc_usic.h ****  *
1002:G:/DT/dt_g1_balancing_plate_wise20192020/XMC/Libraries/XMCLib/inc\xmc_usic.h ****  * \par<b>Description</b><br>
1003:G:/DT/dt_g1_balancing_plate_wise20192020/XMC/Libraries/XMCLib/inc\xmc_usic.h ****  * Selects which edge of the synchronized signal DXnS activates the trigger output DXnT of the inpu
1004:G:/DT/dt_g1_balancing_plate_wise20192020/XMC/Libraries/XMCLib/inc\xmc_usic.h ****  *
1005:G:/DT/dt_g1_balancing_plate_wise20192020/XMC/Libraries/XMCLib/inc\xmc_usic.h ****  * \par<b>Related APIs:</b><BR>
1006:G:/DT/dt_g1_balancing_plate_wise20192020/XMC/Libraries/XMCLib/inc\xmc_usic.h ****  * XMC_USIC_CH_SetInputSource(), XMC_USIC_CH_EnableInputSync(), XMC_USIC_CH_EnableInputDigitalFilte
1007:G:/DT/dt_g1_balancing_plate_wise20192020/XMC/Libraries/XMCLib/inc\xmc_usic.h ****  */
1008:G:/DT/dt_g1_balancing_plate_wise20192020/XMC/Libraries/XMCLib/inc\xmc_usic.h **** __STATIC_INLINE void XMC_USIC_CH_SetInputTriggerCombinationMode(XMC_USIC_CH_t *const channel,
1009:G:/DT/dt_g1_balancing_plate_wise20192020/XMC/Libraries/XMCLib/inc\xmc_usic.h **** 		                                                        const XMC_USIC_CH_INPUT_t input,
1010:G:/DT/dt_g1_balancing_plate_wise20192020/XMC/Libraries/XMCLib/inc\xmc_usic.h **** 		                                                        const XMC_USIC_CH_INPUT_COMBINATION_MODE_
1011:G:/DT/dt_g1_balancing_plate_wise20192020/XMC/Libraries/XMCLib/inc\xmc_usic.h **** {
1012:G:/DT/dt_g1_balancing_plate_wise20192020/XMC/Libraries/XMCLib/inc\xmc_usic.h ****   channel->DXCR[input] = (uint32_t)(channel->DXCR[input] & (~USIC_CH_DXCR_CM_Msk)) |
1013:G:/DT/dt_g1_balancing_plate_wise20192020/XMC/Libraries/XMCLib/inc\xmc_usic.h ****                          ((uint32_t)combination_mode << USIC_CH_DXCR_CM_Pos);
1014:G:/DT/dt_g1_balancing_plate_wise20192020/XMC/Libraries/XMCLib/inc\xmc_usic.h **** }
1015:G:/DT/dt_g1_balancing_plate_wise20192020/XMC/Libraries/XMCLib/inc\xmc_usic.h **** 
1016:G:/DT/dt_g1_balancing_plate_wise20192020/XMC/Libraries/XMCLib/inc\xmc_usic.h **** /**
1017:G:/DT/dt_g1_balancing_plate_wise20192020/XMC/Libraries/XMCLib/inc\xmc_usic.h ****  * @param  channel Pointer to USIC channel handler of type @ref XMC_USIC_CH_t \n
1018:G:/DT/dt_g1_balancing_plate_wise20192020/XMC/Libraries/XMCLib/inc\xmc_usic.h ****  * 				   \b Range: @ref XMC_USIC0_CH0, @ref XMC_USIC0_CH1 to @ref XMC_USIC2_CH1 based on device su
1019:G:/DT/dt_g1_balancing_plate_wise20192020/XMC/Libraries/XMCLib/inc\xmc_usic.h ****  * @param  clock_source clock source for the BRG.
1020:G:/DT/dt_g1_balancing_plate_wise20192020/XMC/Libraries/XMCLib/inc\xmc_usic.h ****  * @return None
1021:G:/DT/dt_g1_balancing_plate_wise20192020/XMC/Libraries/XMCLib/inc\xmc_usic.h ****  *
1022:G:/DT/dt_g1_balancing_plate_wise20192020/XMC/Libraries/XMCLib/inc\xmc_usic.h ****  * \par<b>Description</b><br>
1023:G:/DT/dt_g1_balancing_plate_wise20192020/XMC/Libraries/XMCLib/inc\xmc_usic.h ****  * Sets the clock source for the BRG. \n\n
1024:G:/DT/dt_g1_balancing_plate_wise20192020/XMC/Libraries/XMCLib/inc\xmc_usic.h ****  *
1025:G:/DT/dt_g1_balancing_plate_wise20192020/XMC/Libraries/XMCLib/inc\xmc_usic.h ****  * \par<b>Related APIs:</b><BR>
1026:G:/DT/dt_g1_balancing_plate_wise20192020/XMC/Libraries/XMCLib/inc\xmc_usic.h ****  * XMC_USIC_CH_SetInputTriggerCombinationMode(), XMC_USIC_CH_SetExternalClockBRGDivider()\n\n\n
1027:G:/DT/dt_g1_balancing_plate_wise20192020/XMC/Libraries/XMCLib/inc\xmc_usic.h ****  */
1028:G:/DT/dt_g1_balancing_plate_wise20192020/XMC/Libraries/XMCLib/inc\xmc_usic.h **** __STATIC_INLINE void XMC_USIC_CH_SetBRGInputClockSource(XMC_USIC_CH_t *const channel, const XMC_USI
1029:G:/DT/dt_g1_balancing_plate_wise20192020/XMC/Libraries/XMCLib/inc\xmc_usic.h **** {
1030:G:/DT/dt_g1_balancing_plate_wise20192020/XMC/Libraries/XMCLib/inc\xmc_usic.h ****   channel->BRG = (uint32_t)(channel->BRG & (~USIC_CH_BRG_CLKSEL_Msk)) | (uint32_t)(clock_source);
1031:G:/DT/dt_g1_balancing_plate_wise20192020/XMC/Libraries/XMCLib/inc\xmc_usic.h **** }
1032:G:/DT/dt_g1_balancing_plate_wise20192020/XMC/Libraries/XMCLib/inc\xmc_usic.h **** 
1033:G:/DT/dt_g1_balancing_plate_wise20192020/XMC/Libraries/XMCLib/inc\xmc_usic.h **** /**
1034:G:/DT/dt_g1_balancing_plate_wise20192020/XMC/Libraries/XMCLib/inc\xmc_usic.h ****  * @param channel Pointer to USIC channel handler of type @ref XMC_USIC_CH_t \n
1035:G:/DT/dt_g1_balancing_plate_wise20192020/XMC/Libraries/XMCLib/inc\xmc_usic.h ****  * 				   \b Range: @ref XMC_USIC0_CH0, @ref XMC_USIC0_CH1 to @ref XMC_USIC2_CH1 based on device su
1036:G:/DT/dt_g1_balancing_plate_wise20192020/XMC/Libraries/XMCLib/inc\xmc_usic.h ****  * @param data Data to be transmitted. \n
1037:G:/DT/dt_g1_balancing_plate_wise20192020/XMC/Libraries/XMCLib/inc\xmc_usic.h ****  *           \b Range: 16bit unsigned data. minimum= 0, maximum= 65535
1038:G:/DT/dt_g1_balancing_plate_wise20192020/XMC/Libraries/XMCLib/inc\xmc_usic.h ****  * @return None
1039:G:/DT/dt_g1_balancing_plate_wise20192020/XMC/Libraries/XMCLib/inc\xmc_usic.h ****  *
1040:G:/DT/dt_g1_balancing_plate_wise20192020/XMC/Libraries/XMCLib/inc\xmc_usic.h ****  * \par<b>Description</b><br>
1041:G:/DT/dt_g1_balancing_plate_wise20192020/XMC/Libraries/XMCLib/inc\xmc_usic.h ****  * Writes data into the transmit buffer. \n\n
1042:G:/DT/dt_g1_balancing_plate_wise20192020/XMC/Libraries/XMCLib/inc\xmc_usic.h ****  * The data provided is placed in TBUF[0U].
1043:G:/DT/dt_g1_balancing_plate_wise20192020/XMC/Libraries/XMCLib/inc\xmc_usic.h ****  *
1044:G:/DT/dt_g1_balancing_plate_wise20192020/XMC/Libraries/XMCLib/inc\xmc_usic.h ****  *
1045:G:/DT/dt_g1_balancing_plate_wise20192020/XMC/Libraries/XMCLib/inc\xmc_usic.h ****  * \par<b>Related APIs:</b><BR>
1046:G:/DT/dt_g1_balancing_plate_wise20192020/XMC/Libraries/XMCLib/inc\xmc_usic.h ****  * XMC_USIC_CH_WriteToTBUFTCI() \n\n\n
1047:G:/DT/dt_g1_balancing_plate_wise20192020/XMC/Libraries/XMCLib/inc\xmc_usic.h ****  */
1048:G:/DT/dt_g1_balancing_plate_wise20192020/XMC/Libraries/XMCLib/inc\xmc_usic.h **** __STATIC_INLINE void XMC_USIC_CH_WriteToTBUF(XMC_USIC_CH_t *const channel, const uint16_t data)
1049:G:/DT/dt_g1_balancing_plate_wise20192020/XMC/Libraries/XMCLib/inc\xmc_usic.h **** {
1050:G:/DT/dt_g1_balancing_plate_wise20192020/XMC/Libraries/XMCLib/inc\xmc_usic.h ****   channel->TBUF[0U] = data;
1051:G:/DT/dt_g1_balancing_plate_wise20192020/XMC/Libraries/XMCLib/inc\xmc_usic.h **** }
1052:G:/DT/dt_g1_balancing_plate_wise20192020/XMC/Libraries/XMCLib/inc\xmc_usic.h **** 
1053:G:/DT/dt_g1_balancing_plate_wise20192020/XMC/Libraries/XMCLib/inc\xmc_usic.h **** /**
1054:G:/DT/dt_g1_balancing_plate_wise20192020/XMC/Libraries/XMCLib/inc\xmc_usic.h ****  * @param channel Pointer to USIC channel handler of type @ref XMC_USIC_CH_t \n
1055:G:/DT/dt_g1_balancing_plate_wise20192020/XMC/Libraries/XMCLib/inc\xmc_usic.h ****  * 				   \b Range: @ref XMC_USIC0_CH0, @ref XMC_USIC0_CH1 to @ref XMC_USIC2_CH1 based on device su
1056:G:/DT/dt_g1_balancing_plate_wise20192020/XMC/Libraries/XMCLib/inc\xmc_usic.h ****  * @param data Data to be transmitted.
1057:G:/DT/dt_g1_balancing_plate_wise20192020/XMC/Libraries/XMCLib/inc\xmc_usic.h ****  * @param transmit_control_information transmit control information to be configured while transmit
1058:G:/DT/dt_g1_balancing_plate_wise20192020/XMC/Libraries/XMCLib/inc\xmc_usic.h ****  * 			\b Range: minimum= 0, maximum= 31.
1059:G:/DT/dt_g1_balancing_plate_wise20192020/XMC/Libraries/XMCLib/inc\xmc_usic.h ****  * @return None
1060:G:/DT/dt_g1_balancing_plate_wise20192020/XMC/Libraries/XMCLib/inc\xmc_usic.h ****  *
1061:G:/DT/dt_g1_balancing_plate_wise20192020/XMC/Libraries/XMCLib/inc\xmc_usic.h ****  * \par<b>Description</b><br>
1062:G:/DT/dt_g1_balancing_plate_wise20192020/XMC/Libraries/XMCLib/inc\xmc_usic.h ****  * Writes data to the transmit buffer in a control mode. \n\n
1063:G:/DT/dt_g1_balancing_plate_wise20192020/XMC/Libraries/XMCLib/inc\xmc_usic.h ****  * When the respective control mode is enabled , this API can be used.
1064:G:/DT/dt_g1_balancing_plate_wise20192020/XMC/Libraries/XMCLib/inc\xmc_usic.h ****  *
1065:G:/DT/dt_g1_balancing_plate_wise20192020/XMC/Libraries/XMCLib/inc\xmc_usic.h ****  *
1066:G:/DT/dt_g1_balancing_plate_wise20192020/XMC/Libraries/XMCLib/inc\xmc_usic.h ****  * \par<b>Related APIs:</b><BR>
1067:G:/DT/dt_g1_balancing_plate_wise20192020/XMC/Libraries/XMCLib/inc\xmc_usic.h ****  * XMC_USIC_CH_WriteToTBUF() \n\n\n
1068:G:/DT/dt_g1_balancing_plate_wise20192020/XMC/Libraries/XMCLib/inc\xmc_usic.h ****  */
1069:G:/DT/dt_g1_balancing_plate_wise20192020/XMC/Libraries/XMCLib/inc\xmc_usic.h **** __STATIC_INLINE void XMC_USIC_CH_WriteToTBUFTCI(XMC_USIC_CH_t *const channel,
1070:G:/DT/dt_g1_balancing_plate_wise20192020/XMC/Libraries/XMCLib/inc\xmc_usic.h ****                                              const uint16_t data,
1071:G:/DT/dt_g1_balancing_plate_wise20192020/XMC/Libraries/XMCLib/inc\xmc_usic.h ****                                              const uint32_t transmit_control_information)
1072:G:/DT/dt_g1_balancing_plate_wise20192020/XMC/Libraries/XMCLib/inc\xmc_usic.h **** {
1073:G:/DT/dt_g1_balancing_plate_wise20192020/XMC/Libraries/XMCLib/inc\xmc_usic.h ****   channel->TBUF[transmit_control_information] = data;
1074:G:/DT/dt_g1_balancing_plate_wise20192020/XMC/Libraries/XMCLib/inc\xmc_usic.h **** }
1075:G:/DT/dt_g1_balancing_plate_wise20192020/XMC/Libraries/XMCLib/inc\xmc_usic.h **** 
1076:G:/DT/dt_g1_balancing_plate_wise20192020/XMC/Libraries/XMCLib/inc\xmc_usic.h **** /**
1077:G:/DT/dt_g1_balancing_plate_wise20192020/XMC/Libraries/XMCLib/inc\xmc_usic.h ****  * @param  channel Pointer to USIC channel handler of type @ref XMC_USIC_CH_t \n
1078:G:/DT/dt_g1_balancing_plate_wise20192020/XMC/Libraries/XMCLib/inc\xmc_usic.h ****  * 				   \b Range: @ref XMC_USIC0_CH0, @ref XMC_USIC0_CH1 to @ref XMC_USIC2_CH1 based on device su
1079:G:/DT/dt_g1_balancing_plate_wise20192020/XMC/Libraries/XMCLib/inc\xmc_usic.h ****  * @param  word_length Number of bits to be configured for a data word. \n
1080:G:/DT/dt_g1_balancing_plate_wise20192020/XMC/Libraries/XMCLib/inc\xmc_usic.h ****  * 					   \b Range: minimum= 1, maximum= 16. \n
1081:G:/DT/dt_g1_balancing_plate_wise20192020/XMC/Libraries/XMCLib/inc\xmc_usic.h ****  * 					   e.g: For word length of 8, \a word_length should be provided as 8.
1082:G:/DT/dt_g1_balancing_plate_wise20192020/XMC/Libraries/XMCLib/inc\xmc_usic.h ****  * @return None
1083:G:/DT/dt_g1_balancing_plate_wise20192020/XMC/Libraries/XMCLib/inc\xmc_usic.h ****  *
1084:G:/DT/dt_g1_balancing_plate_wise20192020/XMC/Libraries/XMCLib/inc\xmc_usic.h ****  * \par<b>Description</b><br>
1085:G:/DT/dt_g1_balancing_plate_wise20192020/XMC/Libraries/XMCLib/inc\xmc_usic.h ****  * Sets the data word length in number of bits. \n\n
1086:G:/DT/dt_g1_balancing_plate_wise20192020/XMC/Libraries/XMCLib/inc\xmc_usic.h ****  * Sets the number of bits to represent a data word. Frame length should be a multiple of word leng
1087:G:/DT/dt_g1_balancing_plate_wise20192020/XMC/Libraries/XMCLib/inc\xmc_usic.h ****  *
1088:G:/DT/dt_g1_balancing_plate_wise20192020/XMC/Libraries/XMCLib/inc\xmc_usic.h ****  * \par<b>Related APIs:</b><BR>
1089:G:/DT/dt_g1_balancing_plate_wise20192020/XMC/Libraries/XMCLib/inc\xmc_usic.h ****  * XMC_USIC_CH_SetFrameLength()\n\n\n
1090:G:/DT/dt_g1_balancing_plate_wise20192020/XMC/Libraries/XMCLib/inc\xmc_usic.h ****  */
1091:G:/DT/dt_g1_balancing_plate_wise20192020/XMC/Libraries/XMCLib/inc\xmc_usic.h **** __STATIC_INLINE void XMC_USIC_CH_SetWordLength(XMC_USIC_CH_t *const channel, const uint8_t word_len
1092:G:/DT/dt_g1_balancing_plate_wise20192020/XMC/Libraries/XMCLib/inc\xmc_usic.h **** {
1093:G:/DT/dt_g1_balancing_plate_wise20192020/XMC/Libraries/XMCLib/inc\xmc_usic.h ****   channel->SCTR = (uint32_t)(channel->SCTR & (~USIC_CH_SCTR_WLE_Msk)) |
1094:G:/DT/dt_g1_balancing_plate_wise20192020/XMC/Libraries/XMCLib/inc\xmc_usic.h ****                   (uint32_t)(((uint32_t)word_length - 1UL)  << USIC_CH_SCTR_WLE_Pos);
1095:G:/DT/dt_g1_balancing_plate_wise20192020/XMC/Libraries/XMCLib/inc\xmc_usic.h **** }
1096:G:/DT/dt_g1_balancing_plate_wise20192020/XMC/Libraries/XMCLib/inc\xmc_usic.h **** 
1097:G:/DT/dt_g1_balancing_plate_wise20192020/XMC/Libraries/XMCLib/inc\xmc_usic.h **** /**
1098:G:/DT/dt_g1_balancing_plate_wise20192020/XMC/Libraries/XMCLib/inc\xmc_usic.h ****  * @param  channel Pointer to USIC channel handler of type @ref XMC_USIC_CH_t \n
1099:G:/DT/dt_g1_balancing_plate_wise20192020/XMC/Libraries/XMCLib/inc\xmc_usic.h ****  *           \b Range: @ref XMC_USIC0_CH0, @ref XMC_USIC0_CH1 to @ref XMC_USIC2_CH1 based on device
1100:G:/DT/dt_g1_balancing_plate_wise20192020/XMC/Libraries/XMCLib/inc\xmc_usic.h ****  * @param  word_length Number of bits to be configured for a data word. \n
1101:G:/DT/dt_g1_balancing_plate_wise20192020/XMC/Libraries/XMCLib/inc\xmc_usic.h ****  *             \b Range: minimum= 1, maximum= 16. \n
1102:G:/DT/dt_g1_balancing_plate_wise20192020/XMC/Libraries/XMCLib/inc\xmc_usic.h ****  *             e.g: For word length of 8, \a word_length should be provided as 8.
1103:G:/DT/dt_g1_balancing_plate_wise20192020/XMC/Libraries/XMCLib/inc\xmc_usic.h ****  * @return None
1104:G:/DT/dt_g1_balancing_plate_wise20192020/XMC/Libraries/XMCLib/inc\xmc_usic.h ****  *
1105:G:/DT/dt_g1_balancing_plate_wise20192020/XMC/Libraries/XMCLib/inc\xmc_usic.h ****  * \par<b>Description</b><br>
1106:G:/DT/dt_g1_balancing_plate_wise20192020/XMC/Libraries/XMCLib/inc\xmc_usic.h ****  * Sets the data word length in number of bits. \n\n
1107:G:/DT/dt_g1_balancing_plate_wise20192020/XMC/Libraries/XMCLib/inc\xmc_usic.h ****  * Sets the number of bits to represent a data word. Frame length should be a multiple of word leng
1108:G:/DT/dt_g1_balancing_plate_wise20192020/XMC/Libraries/XMCLib/inc\xmc_usic.h ****  *
1109:G:/DT/dt_g1_balancing_plate_wise20192020/XMC/Libraries/XMCLib/inc\xmc_usic.h ****  * \par<b>Related APIs:</b><BR>
1110:G:/DT/dt_g1_balancing_plate_wise20192020/XMC/Libraries/XMCLib/inc\xmc_usic.h ****  * XMC_USIC_CH_SetFrameLength()\n\n\n
1111:G:/DT/dt_g1_balancing_plate_wise20192020/XMC/Libraries/XMCLib/inc\xmc_usic.h ****  */
1112:G:/DT/dt_g1_balancing_plate_wise20192020/XMC/Libraries/XMCLib/inc\xmc_usic.h **** __STATIC_INLINE void XMC_USIC_CH_SetShiftDirection(XMC_USIC_CH_t *const channel, const XMC_USIC_CH_
1113:G:/DT/dt_g1_balancing_plate_wise20192020/XMC/Libraries/XMCLib/inc\xmc_usic.h **** {
1114:G:/DT/dt_g1_balancing_plate_wise20192020/XMC/Libraries/XMCLib/inc\xmc_usic.h ****   channel->SCTR = (uint32_t)(channel->SCTR & (~USIC_CH_SCTR_SDIR_Msk)) | (uint32_t)shift_direction;
1115:G:/DT/dt_g1_balancing_plate_wise20192020/XMC/Libraries/XMCLib/inc\xmc_usic.h **** }
1116:G:/DT/dt_g1_balancing_plate_wise20192020/XMC/Libraries/XMCLib/inc\xmc_usic.h **** 
1117:G:/DT/dt_g1_balancing_plate_wise20192020/XMC/Libraries/XMCLib/inc\xmc_usic.h **** 
1118:G:/DT/dt_g1_balancing_plate_wise20192020/XMC/Libraries/XMCLib/inc\xmc_usic.h **** /**
1119:G:/DT/dt_g1_balancing_plate_wise20192020/XMC/Libraries/XMCLib/inc\xmc_usic.h ****  * @param  channel Pointer to USIC channel handler of type @ref XMC_USIC_CH_t \n
1120:G:/DT/dt_g1_balancing_plate_wise20192020/XMC/Libraries/XMCLib/inc\xmc_usic.h ****  *           \b Range: @ref XMC_USIC0_CH0, @ref XMC_USIC0_CH1 to @ref XMC_USIC2_CH1 based on device
1121:G:/DT/dt_g1_balancing_plate_wise20192020/XMC/Libraries/XMCLib/inc\xmc_usic.h ****  * @return Captured counter value 
1122:G:/DT/dt_g1_balancing_plate_wise20192020/XMC/Libraries/XMCLib/inc\xmc_usic.h ****  *
1123:G:/DT/dt_g1_balancing_plate_wise20192020/XMC/Libraries/XMCLib/inc\xmc_usic.h ****  *
1124:G:/DT/dt_g1_balancing_plate_wise20192020/XMC/Libraries/XMCLib/inc\xmc_usic.h ****  * \par<b>Description</b><br>
1125:G:/DT/dt_g1_balancing_plate_wise20192020/XMC/Libraries/XMCLib/inc\xmc_usic.h ****  * The value of the counter is captured if one of the trigger signals DX0T or DX1T are activated by
1126:G:/DT/dt_g1_balancing_plate_wise20192020/XMC/Libraries/XMCLib/inc\xmc_usic.h ****  */
1127:G:/DT/dt_g1_balancing_plate_wise20192020/XMC/Libraries/XMCLib/inc\xmc_usic.h **** __STATIC_INLINE uint32_t XMC_USIC_CH_GetCaptureTimerValue(const XMC_USIC_CH_t *const channel)
1128:G:/DT/dt_g1_balancing_plate_wise20192020/XMC/Libraries/XMCLib/inc\xmc_usic.h **** {
1129:G:/DT/dt_g1_balancing_plate_wise20192020/XMC/Libraries/XMCLib/inc\xmc_usic.h ****   return channel->CMTR;
1130:G:/DT/dt_g1_balancing_plate_wise20192020/XMC/Libraries/XMCLib/inc\xmc_usic.h **** }
1131:G:/DT/dt_g1_balancing_plate_wise20192020/XMC/Libraries/XMCLib/inc\xmc_usic.h **** 
1132:G:/DT/dt_g1_balancing_plate_wise20192020/XMC/Libraries/XMCLib/inc\xmc_usic.h **** /**
1133:G:/DT/dt_g1_balancing_plate_wise20192020/XMC/Libraries/XMCLib/inc\xmc_usic.h ****  * @param  channel Pointer to USIC channel handler of type @ref XMC_USIC_CH_t \n
1134:G:/DT/dt_g1_balancing_plate_wise20192020/XMC/Libraries/XMCLib/inc\xmc_usic.h ****  *           \b Range: @ref XMC_USIC0_CH0, @ref XMC_USIC0_CH1 to @ref XMC_USIC2_CH1 based on device
1135:G:/DT/dt_g1_balancing_plate_wise20192020/XMC/Libraries/XMCLib/inc\xmc_usic.h ****  * @param  mode divider mode ::XMC_USIC_CH_BRG_CLOCK_DIVIDER_MODE_t \n
1136:G:/DT/dt_g1_balancing_plate_wise20192020/XMC/Libraries/XMCLib/inc\xmc_usic.h ****  * @param  step divider \n
1137:G:/DT/dt_g1_balancing_plate_wise20192020/XMC/Libraries/XMCLib/inc\xmc_usic.h ****  *             \b XMC_USIC_CH_BRG_CLOCK_DIVIDER_MODE_NORMAL resulting divider = 1023 - step \n
1138:G:/DT/dt_g1_balancing_plate_wise20192020/XMC/Libraries/XMCLib/inc\xmc_usic.h ****  *             \b XMC_USIC_CH_BRG_CLOCK_DIVIDER_MODE_FRACTIONAL resulting divider = 1023 / step \n
1139:G:/DT/dt_g1_balancing_plate_wise20192020/XMC/Libraries/XMCLib/inc\xmc_usic.h ****  * 
1140:G:/DT/dt_g1_balancing_plate_wise20192020/XMC/Libraries/XMCLib/inc\xmc_usic.h ****  * @return None
1141:G:/DT/dt_g1_balancing_plate_wise20192020/XMC/Libraries/XMCLib/inc\xmc_usic.h ****  * 
1142:G:/DT/dt_g1_balancing_plate_wise20192020/XMC/Libraries/XMCLib/inc\xmc_usic.h ****  * \par<b>Description</b><br>
1143:G:/DT/dt_g1_balancing_plate_wise20192020/XMC/Libraries/XMCLib/inc\xmc_usic.h ****  * The fractional divider generates its output frequency fFD by either dividing the input frequency
1144:G:/DT/dt_g1_balancing_plate_wise20192020/XMC/Libraries/XMCLib/inc\xmc_usic.h ****  *
1145:G:/DT/dt_g1_balancing_plate_wise20192020/XMC/Libraries/XMCLib/inc\xmc_usic.h ****  */
1146:G:/DT/dt_g1_balancing_plate_wise20192020/XMC/Libraries/XMCLib/inc\xmc_usic.h **** __STATIC_INLINE void XMC_USIC_CH_SetFractionalDivider(XMC_USIC_CH_t *const channel, const XMC_USIC_
1147:G:/DT/dt_g1_balancing_plate_wise20192020/XMC/Libraries/XMCLib/inc\xmc_usic.h **** {
1148:G:/DT/dt_g1_balancing_plate_wise20192020/XMC/Libraries/XMCLib/inc\xmc_usic.h ****   channel->FDR = mode | step;
1149:G:/DT/dt_g1_balancing_plate_wise20192020/XMC/Libraries/XMCLib/inc\xmc_usic.h **** }
1150:G:/DT/dt_g1_balancing_plate_wise20192020/XMC/Libraries/XMCLib/inc\xmc_usic.h **** 
1151:G:/DT/dt_g1_balancing_plate_wise20192020/XMC/Libraries/XMCLib/inc\xmc_usic.h **** /**
1152:G:/DT/dt_g1_balancing_plate_wise20192020/XMC/Libraries/XMCLib/inc\xmc_usic.h ****  * @param  channel Pointer to USIC channel handler of type @ref XMC_USIC_CH_t \n
1153:G:/DT/dt_g1_balancing_plate_wise20192020/XMC/Libraries/XMCLib/inc\xmc_usic.h ****  * 				   \b Range: @ref XMC_USIC0_CH0, @ref XMC_USIC0_CH1 to @ref XMC_USIC2_CH1 based on device su
1154:G:/DT/dt_g1_balancing_plate_wise20192020/XMC/Libraries/XMCLib/inc\xmc_usic.h ****  * @param  frame_length Number of bits in a frame. \n
1155:G:/DT/dt_g1_balancing_plate_wise20192020/XMC/Libraries/XMCLib/inc\xmc_usic.h ****  * 						\b Range: minimum= 1, maximum= 0x3f. The maximum value for fixed frame size is 0x3f. \n
1156:G:/DT/dt_g1_balancing_plate_wise20192020/XMC/Libraries/XMCLib/inc\xmc_usic.h ****  * 						e.g: For a frame length of 16, \a frame_length should be provided as 16.
1157:G:/DT/dt_g1_balancing_plate_wise20192020/XMC/Libraries/XMCLib/inc\xmc_usic.h ****  * @return None
1158:G:/DT/dt_g1_balancing_plate_wise20192020/XMC/Libraries/XMCLib/inc\xmc_usic.h ****  *
1159:G:/DT/dt_g1_balancing_plate_wise20192020/XMC/Libraries/XMCLib/inc\xmc_usic.h ****  * \par<b>Description</b><br>
1160:G:/DT/dt_g1_balancing_plate_wise20192020/XMC/Libraries/XMCLib/inc\xmc_usic.h ****  * Define the data frame length.\n\n
1161:G:/DT/dt_g1_balancing_plate_wise20192020/XMC/Libraries/XMCLib/inc\xmc_usic.h ****  * Set the number of bits to be serially transmitted in a frame.
1162:G:/DT/dt_g1_balancing_plate_wise20192020/XMC/Libraries/XMCLib/inc\xmc_usic.h ****  * The frame length should be multiples of word length. If the value is set to 0x40, the frame leng
1163:G:/DT/dt_g1_balancing_plate_wise20192020/XMC/Libraries/XMCLib/inc\xmc_usic.h ****  * has to be controlled explicitly. 
1164:G:/DT/dt_g1_balancing_plate_wise20192020/XMC/Libraries/XMCLib/inc\xmc_usic.h ****  *
1165:G:/DT/dt_g1_balancing_plate_wise20192020/XMC/Libraries/XMCLib/inc\xmc_usic.h ****  * \par<b>Related APIs:</b><BR>
1166:G:/DT/dt_g1_balancing_plate_wise20192020/XMC/Libraries/XMCLib/inc\xmc_usic.h ****  * XMC_USIC_CH_SetWordLength(), XMC_USIC_CH_EnableFrameLengthControl() \n\n\n
1167:G:/DT/dt_g1_balancing_plate_wise20192020/XMC/Libraries/XMCLib/inc\xmc_usic.h ****  */
1168:G:/DT/dt_g1_balancing_plate_wise20192020/XMC/Libraries/XMCLib/inc\xmc_usic.h **** __STATIC_INLINE void XMC_USIC_CH_SetFrameLength(XMC_USIC_CH_t *const channel, const uint8_t frame_l
1169:G:/DT/dt_g1_balancing_plate_wise20192020/XMC/Libraries/XMCLib/inc\xmc_usic.h **** {
1170:G:/DT/dt_g1_balancing_plate_wise20192020/XMC/Libraries/XMCLib/inc\xmc_usic.h ****   channel->SCTR = (uint32_t)(channel->SCTR & (~USIC_CH_SCTR_FLE_Msk)) |
1171:G:/DT/dt_g1_balancing_plate_wise20192020/XMC/Libraries/XMCLib/inc\xmc_usic.h ****                   (((uint32_t)frame_length - 0x1U)  << USIC_CH_SCTR_FLE_Pos);
1172:G:/DT/dt_g1_balancing_plate_wise20192020/XMC/Libraries/XMCLib/inc\xmc_usic.h **** }
1173:G:/DT/dt_g1_balancing_plate_wise20192020/XMC/Libraries/XMCLib/inc\xmc_usic.h **** 
1174:G:/DT/dt_g1_balancing_plate_wise20192020/XMC/Libraries/XMCLib/inc\xmc_usic.h **** /**
1175:G:/DT/dt_g1_balancing_plate_wise20192020/XMC/Libraries/XMCLib/inc\xmc_usic.h ****  * @param channel Pointer to USIC channel handler of type @ref XMC_USIC_CH_t \n
1176:G:/DT/dt_g1_balancing_plate_wise20192020/XMC/Libraries/XMCLib/inc\xmc_usic.h ****  * 				   \b Range: @ref XMC_USIC0_CH0, @ref XMC_USIC0_CH1 to @ref XMC_USIC2_CH1 based on device su
1177:G:/DT/dt_g1_balancing_plate_wise20192020/XMC/Libraries/XMCLib/inc\xmc_usic.h ****  * @param event Bit mask of the channel events to be enabled. Use @ref XMC_USIC_CH_EVENT_t for the 
1178:G:/DT/dt_g1_balancing_plate_wise20192020/XMC/Libraries/XMCLib/inc\xmc_usic.h ****  * 				\b Range: @ref XMC_USIC_CH_EVENT_RECEIVE_START, @ref XMC_USIC_CH_EVENT_DATA_LOST etc. Multip
1179:G:/DT/dt_g1_balancing_plate_wise20192020/XMC/Libraries/XMCLib/inc\xmc_usic.h ****  * 				can be combined using \a OR operation.
1180:G:/DT/dt_g1_balancing_plate_wise20192020/XMC/Libraries/XMCLib/inc\xmc_usic.h ****  * @return None
1181:G:/DT/dt_g1_balancing_plate_wise20192020/XMC/Libraries/XMCLib/inc\xmc_usic.h ****  *
1182:G:/DT/dt_g1_balancing_plate_wise20192020/XMC/Libraries/XMCLib/inc\xmc_usic.h ****  * \par<b>Description</b><br>
1183:G:/DT/dt_g1_balancing_plate_wise20192020/XMC/Libraries/XMCLib/inc\xmc_usic.h ****  * Enable the channel interrupt events.\n\n
1184:G:/DT/dt_g1_balancing_plate_wise20192020/XMC/Libraries/XMCLib/inc\xmc_usic.h ****  * Common channel events related to serial communication can be configured using this API.
1185:G:/DT/dt_g1_balancing_plate_wise20192020/XMC/Libraries/XMCLib/inc\xmc_usic.h ****  * Multiple events can be combined using the bitwise OR operation and configured in one function ca
1186:G:/DT/dt_g1_balancing_plate_wise20192020/XMC/Libraries/XMCLib/inc\xmc_usic.h ****  * XMC_USIC_CH_EVENT_t enumerates multiple protocol event bitmasks. These enumerations can be used 
1187:G:/DT/dt_g1_balancing_plate_wise20192020/XMC/Libraries/XMCLib/inc\xmc_usic.h ****  *
1188:G:/DT/dt_g1_balancing_plate_wise20192020/XMC/Libraries/XMCLib/inc\xmc_usic.h ****  * \par<b>Related APIs:</b><BR>
1189:G:/DT/dt_g1_balancing_plate_wise20192020/XMC/Libraries/XMCLib/inc\xmc_usic.h ****  * XMC_USIC_CH_DisableEvent(), XMC_USIC_CH_SetInterruptNodePointer() \n\n\n
1190:G:/DT/dt_g1_balancing_plate_wise20192020/XMC/Libraries/XMCLib/inc\xmc_usic.h ****  */
1191:G:/DT/dt_g1_balancing_plate_wise20192020/XMC/Libraries/XMCLib/inc\xmc_usic.h **** __STATIC_INLINE void XMC_USIC_CH_EnableEvent(XMC_USIC_CH_t *const channel, const uint32_t event)
1192:G:/DT/dt_g1_balancing_plate_wise20192020/XMC/Libraries/XMCLib/inc\xmc_usic.h **** {
1193:G:/DT/dt_g1_balancing_plate_wise20192020/XMC/Libraries/XMCLib/inc\xmc_usic.h ****   channel->CCR |= event;
1194:G:/DT/dt_g1_balancing_plate_wise20192020/XMC/Libraries/XMCLib/inc\xmc_usic.h **** }
1195:G:/DT/dt_g1_balancing_plate_wise20192020/XMC/Libraries/XMCLib/inc\xmc_usic.h **** 
1196:G:/DT/dt_g1_balancing_plate_wise20192020/XMC/Libraries/XMCLib/inc\xmc_usic.h **** /**
1197:G:/DT/dt_g1_balancing_plate_wise20192020/XMC/Libraries/XMCLib/inc\xmc_usic.h ****  * @param channel Pointer to USIC channel handler of type @ref XMC_USIC_CH_t \n
1198:G:/DT/dt_g1_balancing_plate_wise20192020/XMC/Libraries/XMCLib/inc\xmc_usic.h ****  * 				  \b Range: @ref XMC_USIC0_CH0, @ref XMC_USIC0_CH1 to @ref XMC_USIC2_CH1 based on device sup
1199:G:/DT/dt_g1_balancing_plate_wise20192020/XMC/Libraries/XMCLib/inc\xmc_usic.h ****  * @param event Bit mask of the channel events to be disabled. Use @ref XMC_USIC_CH_EVENT_t for the
1200:G:/DT/dt_g1_balancing_plate_wise20192020/XMC/Libraries/XMCLib/inc\xmc_usic.h ****  * 				\b Range: @ref XMC_USIC_CH_EVENT_RECEIVE_START, @ref XMC_USIC_CH_EVENT_DATA_LOST etc. Multip
1201:G:/DT/dt_g1_balancing_plate_wise20192020/XMC/Libraries/XMCLib/inc\xmc_usic.h ****  * 				can be combined using \a OR operation.
1202:G:/DT/dt_g1_balancing_plate_wise20192020/XMC/Libraries/XMCLib/inc\xmc_usic.h ****  * @return None
1203:G:/DT/dt_g1_balancing_plate_wise20192020/XMC/Libraries/XMCLib/inc\xmc_usic.h ****  *
1204:G:/DT/dt_g1_balancing_plate_wise20192020/XMC/Libraries/XMCLib/inc\xmc_usic.h ****  * \par<b>Description</b><br>
1205:G:/DT/dt_g1_balancing_plate_wise20192020/XMC/Libraries/XMCLib/inc\xmc_usic.h ****  * Disable the channel interrupt events. \n\n
1206:G:/DT/dt_g1_balancing_plate_wise20192020/XMC/Libraries/XMCLib/inc\xmc_usic.h ****  * Multiple events can be combined using the bitwise OR operation and configured in one function ca
1207:G:/DT/dt_g1_balancing_plate_wise20192020/XMC/Libraries/XMCLib/inc\xmc_usic.h ****  * XMC_USIC_CH_EVENT_t enumerates multiple protocol event bitmasks. These enumerations can be used 
1208:G:/DT/dt_g1_balancing_plate_wise20192020/XMC/Libraries/XMCLib/inc\xmc_usic.h ****  *
1209:G:/DT/dt_g1_balancing_plate_wise20192020/XMC/Libraries/XMCLib/inc\xmc_usic.h ****  * \par<b>Related APIs:</b><BR>
1210:G:/DT/dt_g1_balancing_plate_wise20192020/XMC/Libraries/XMCLib/inc\xmc_usic.h ****  * XMC_USIC_CH_EnableEvent(), XMC_USIC_CH_SetInterruptNodePointer() \n\n\n
1211:G:/DT/dt_g1_balancing_plate_wise20192020/XMC/Libraries/XMCLib/inc\xmc_usic.h **** */
1212:G:/DT/dt_g1_balancing_plate_wise20192020/XMC/Libraries/XMCLib/inc\xmc_usic.h **** __STATIC_INLINE void XMC_USIC_CH_DisableEvent(XMC_USIC_CH_t *const channel, const uint32_t event)
1213:G:/DT/dt_g1_balancing_plate_wise20192020/XMC/Libraries/XMCLib/inc\xmc_usic.h **** {
1214:G:/DT/dt_g1_balancing_plate_wise20192020/XMC/Libraries/XMCLib/inc\xmc_usic.h ****   channel->CCR &= (uint32_t)~event;
1215:G:/DT/dt_g1_balancing_plate_wise20192020/XMC/Libraries/XMCLib/inc\xmc_usic.h **** }
1216:G:/DT/dt_g1_balancing_plate_wise20192020/XMC/Libraries/XMCLib/inc\xmc_usic.h **** 
1217:G:/DT/dt_g1_balancing_plate_wise20192020/XMC/Libraries/XMCLib/inc\xmc_usic.h **** /**
1218:G:/DT/dt_g1_balancing_plate_wise20192020/XMC/Libraries/XMCLib/inc\xmc_usic.h ****  * @param channel Pointer to USIC channel handler of type @ref XMC_USIC_CH_t \n
1219:G:/DT/dt_g1_balancing_plate_wise20192020/XMC/Libraries/XMCLib/inc\xmc_usic.h ****  * 				  \b Range: @ref XMC_USIC0_CH0, @ref XMC_USIC0_CH1 to @ref XMC_USIC2_CH1 based on device sup
1220:G:/DT/dt_g1_balancing_plate_wise20192020/XMC/Libraries/XMCLib/inc\xmc_usic.h ****  * @param  interrupt_node Interrupt node pointer to be configured. \n
1221:G:/DT/dt_g1_balancing_plate_wise20192020/XMC/Libraries/XMCLib/inc\xmc_usic.h ****  * 						  \b Range: @ref XMC_USIC_CH_INTERRUPT_NODE_POINTER_TRANSMIT_SHIFT,
1222:G:/DT/dt_g1_balancing_plate_wise20192020/XMC/Libraries/XMCLib/inc\xmc_usic.h ****  * 						  			@ref XMC_USIC_CH_INTERRUPT_NODE_POINTER_TRANSMIT_BUFFER etc.
1223:G:/DT/dt_g1_balancing_plate_wise20192020/XMC/Libraries/XMCLib/inc\xmc_usic.h ****  * @param service_request Service request number.\n
1224:G:/DT/dt_g1_balancing_plate_wise20192020/XMC/Libraries/XMCLib/inc\xmc_usic.h ****  * 						  \b Range: 0 to 5.
1225:G:/DT/dt_g1_balancing_plate_wise20192020/XMC/Libraries/XMCLib/inc\xmc_usic.h ****  * @return None
1226:G:/DT/dt_g1_balancing_plate_wise20192020/XMC/Libraries/XMCLib/inc\xmc_usic.h ****  *
1227:G:/DT/dt_g1_balancing_plate_wise20192020/XMC/Libraries/XMCLib/inc\xmc_usic.h ****  * \par<b>Description</b><br>
1228:G:/DT/dt_g1_balancing_plate_wise20192020/XMC/Libraries/XMCLib/inc\xmc_usic.h ****  * Sets the interrupt node for USIC channel events. \n\n
1229:G:/DT/dt_g1_balancing_plate_wise20192020/XMC/Libraries/XMCLib/inc\xmc_usic.h ****  * For an event to generate interrupt, node pointer should be configured with service request(SR0, 
1230:G:/DT/dt_g1_balancing_plate_wise20192020/XMC/Libraries/XMCLib/inc\xmc_usic.h ****  * The NVIC node gets linked to the interrupt event by doing so.<br>
1231:G:/DT/dt_g1_balancing_plate_wise20192020/XMC/Libraries/XMCLib/inc\xmc_usic.h ****  * Note: NVIC node should be separately enabled to generate the interrupt.
1232:G:/DT/dt_g1_balancing_plate_wise20192020/XMC/Libraries/XMCLib/inc\xmc_usic.h ****  *
1233:G:/DT/dt_g1_balancing_plate_wise20192020/XMC/Libraries/XMCLib/inc\xmc_usic.h ****  * \par<b>Related APIs:</b><BR>
1234:G:/DT/dt_g1_balancing_plate_wise20192020/XMC/Libraries/XMCLib/inc\xmc_usic.h ****  * XMC_USIC_CH_EnableEvent() \n\n\n
1235:G:/DT/dt_g1_balancing_plate_wise20192020/XMC/Libraries/XMCLib/inc\xmc_usic.h ****  */
1236:G:/DT/dt_g1_balancing_plate_wise20192020/XMC/Libraries/XMCLib/inc\xmc_usic.h **** void XMC_USIC_CH_SetInterruptNodePointer(XMC_USIC_CH_t *const channel,
1237:G:/DT/dt_g1_balancing_plate_wise20192020/XMC/Libraries/XMCLib/inc\xmc_usic.h ****                                          const XMC_USIC_CH_INTERRUPT_NODE_POINTER_t interrupt_node,
1238:G:/DT/dt_g1_balancing_plate_wise20192020/XMC/Libraries/XMCLib/inc\xmc_usic.h ****                                          const uint32_t service_request);
1239:G:/DT/dt_g1_balancing_plate_wise20192020/XMC/Libraries/XMCLib/inc\xmc_usic.h **** 
1240:G:/DT/dt_g1_balancing_plate_wise20192020/XMC/Libraries/XMCLib/inc\xmc_usic.h **** /**
1241:G:/DT/dt_g1_balancing_plate_wise20192020/XMC/Libraries/XMCLib/inc\xmc_usic.h ****  * @param  channel Pointer to USIC channel handler of type @ref XMC_USIC_CH_t \n
1242:G:/DT/dt_g1_balancing_plate_wise20192020/XMC/Libraries/XMCLib/inc\xmc_usic.h ****  * 				   \b Range: @ref XMC_USIC0_CH0, @ref XMC_USIC0_CH1 to @ref XMC_USIC2_CH1 based on device su
1243:G:/DT/dt_g1_balancing_plate_wise20192020/XMC/Libraries/XMCLib/inc\xmc_usic.h ****  * @return Stataus @ref XMC_USIC_CH_TBUF_STATUS_IDLE if transmit buffer is free,
1244:G:/DT/dt_g1_balancing_plate_wise20192020/XMC/Libraries/XMCLib/inc\xmc_usic.h ****  *                 @ref XMC_USIC_CH_TBUF_STATUS_BUSY if transmit buffer is busy.
1245:G:/DT/dt_g1_balancing_plate_wise20192020/XMC/Libraries/XMCLib/inc\xmc_usic.h ****  *
1246:G:/DT/dt_g1_balancing_plate_wise20192020/XMC/Libraries/XMCLib/inc\xmc_usic.h ****  * \par<b>Description</b><br>
1247:G:/DT/dt_g1_balancing_plate_wise20192020/XMC/Libraries/XMCLib/inc\xmc_usic.h ****  * Gets transmit buffer status. \n\n
1248:G:/DT/dt_g1_balancing_plate_wise20192020/XMC/Libraries/XMCLib/inc\xmc_usic.h ****  * Status indicates whether the transmit buffer is free, or busy transmitting data.
1249:G:/DT/dt_g1_balancing_plate_wise20192020/XMC/Libraries/XMCLib/inc\xmc_usic.h ****  * The status depends on the value of TDV flag in TCSR register.
1250:G:/DT/dt_g1_balancing_plate_wise20192020/XMC/Libraries/XMCLib/inc\xmc_usic.h ****  * This status can be used while transmitting data. Transmit data when the transmit buffer
1251:G:/DT/dt_g1_balancing_plate_wise20192020/XMC/Libraries/XMCLib/inc\xmc_usic.h ****  * status is @ref XMC_USIC_CH_TBUF_STATUS_IDLE.
1252:G:/DT/dt_g1_balancing_plate_wise20192020/XMC/Libraries/XMCLib/inc\xmc_usic.h ****  *
1253:G:/DT/dt_g1_balancing_plate_wise20192020/XMC/Libraries/XMCLib/inc\xmc_usic.h ****  * \par<b>Related APIs:</b><BR>
1254:G:/DT/dt_g1_balancing_plate_wise20192020/XMC/Libraries/XMCLib/inc\xmc_usic.h ****  * XMC_USIC_CH_SetDataOutputMode() \n\n\n
1255:G:/DT/dt_g1_balancing_plate_wise20192020/XMC/Libraries/XMCLib/inc\xmc_usic.h ****  */
1256:G:/DT/dt_g1_balancing_plate_wise20192020/XMC/Libraries/XMCLib/inc\xmc_usic.h **** __STATIC_INLINE XMC_USIC_CH_TBUF_STATUS_t XMC_USIC_CH_GetTransmitBufferStatus(XMC_USIC_CH_t *const 
1257:G:/DT/dt_g1_balancing_plate_wise20192020/XMC/Libraries/XMCLib/inc\xmc_usic.h **** {
1258:G:/DT/dt_g1_balancing_plate_wise20192020/XMC/Libraries/XMCLib/inc\xmc_usic.h ****   return (XMC_USIC_CH_TBUF_STATUS_t)(channel->TCSR & USIC_CH_TCSR_TDV_Msk);
 362              	 .loc 2 1258 0 discriminator 1
 363 000a 836B     	 ldr r3,[r0,#56]
 364              	.LBE15:
 365              	.LBE14:
 241:../Libraries/XMCLib/src/xmc_i2s.c ****   {
 242:../Libraries/XMCLib/src/xmc_i2s.c ****     while((uint32_t)XMC_USIC_CH_GetTransmitBufferStatus(channel) == (uint32_t)XMC_USIC_CH_TBUF_STAT
 366              	 .loc 1 242 0 discriminator 1
 367 000c 1B06     	 lsls r3,r3,#24
 368 000e FCD4     	 bmi .L26
 369              	.LVL32:
 370              	.LBB16:
 371              	.LBB17:
 372              	 .file 3 "G:/DT/dt_g1_balancing_plate_wise20192020/XMC/Libraries/XMCLib/inc/xmc_i2s.h"
   1:G:/DT/dt_g1_balancing_plate_wise20192020/XMC/Libraries/XMCLib/inc\xmc_i2s.h **** /**
   2:G:/DT/dt_g1_balancing_plate_wise20192020/XMC/Libraries/XMCLib/inc\xmc_i2s.h ****  * @file xmc_i2s.h
   3:G:/DT/dt_g1_balancing_plate_wise20192020/XMC/Libraries/XMCLib/inc\xmc_i2s.h ****  * @date 2019-05-07
   4:G:/DT/dt_g1_balancing_plate_wise20192020/XMC/Libraries/XMCLib/inc\xmc_i2s.h ****  *
   5:G:/DT/dt_g1_balancing_plate_wise20192020/XMC/Libraries/XMCLib/inc\xmc_i2s.h ****  * @cond
   6:G:/DT/dt_g1_balancing_plate_wise20192020/XMC/Libraries/XMCLib/inc\xmc_i2s.h ****  **************************************************************************************************
   7:G:/DT/dt_g1_balancing_plate_wise20192020/XMC/Libraries/XMCLib/inc\xmc_i2s.h ****  * XMClib v2.1.22 - XMC Peripheral Driver Library 
   8:G:/DT/dt_g1_balancing_plate_wise20192020/XMC/Libraries/XMCLib/inc\xmc_i2s.h ****  *
   9:G:/DT/dt_g1_balancing_plate_wise20192020/XMC/Libraries/XMCLib/inc\xmc_i2s.h ****  * Copyright (c) 2015-2019, Infineon Technologies AG
  10:G:/DT/dt_g1_balancing_plate_wise20192020/XMC/Libraries/XMCLib/inc\xmc_i2s.h ****  * All rights reserved.
  11:G:/DT/dt_g1_balancing_plate_wise20192020/XMC/Libraries/XMCLib/inc\xmc_i2s.h ****  *
  12:G:/DT/dt_g1_balancing_plate_wise20192020/XMC/Libraries/XMCLib/inc\xmc_i2s.h ****  * Redistribution and use in source and binary forms, with or without modification,are permitted pr
  13:G:/DT/dt_g1_balancing_plate_wise20192020/XMC/Libraries/XMCLib/inc\xmc_i2s.h ****  * following conditions are met:
  14:G:/DT/dt_g1_balancing_plate_wise20192020/XMC/Libraries/XMCLib/inc\xmc_i2s.h ****  *
  15:G:/DT/dt_g1_balancing_plate_wise20192020/XMC/Libraries/XMCLib/inc\xmc_i2s.h ****  * Redistributions of source code must retain the above copyright notice, this list of conditions a
  16:G:/DT/dt_g1_balancing_plate_wise20192020/XMC/Libraries/XMCLib/inc\xmc_i2s.h ****  * disclaimer.
  17:G:/DT/dt_g1_balancing_plate_wise20192020/XMC/Libraries/XMCLib/inc\xmc_i2s.h ****  *
  18:G:/DT/dt_g1_balancing_plate_wise20192020/XMC/Libraries/XMCLib/inc\xmc_i2s.h ****  * Redistributions in binary form must reproduce the above copyright notice, this list of condition
  19:G:/DT/dt_g1_balancing_plate_wise20192020/XMC/Libraries/XMCLib/inc\xmc_i2s.h ****  * disclaimer in the documentation and/or other materials provided with the distribution.
  20:G:/DT/dt_g1_balancing_plate_wise20192020/XMC/Libraries/XMCLib/inc\xmc_i2s.h ****  *
  21:G:/DT/dt_g1_balancing_plate_wise20192020/XMC/Libraries/XMCLib/inc\xmc_i2s.h ****  * Neither the name of the copyright holders nor the names of its contributors may be used to endor
  22:G:/DT/dt_g1_balancing_plate_wise20192020/XMC/Libraries/XMCLib/inc\xmc_i2s.h ****  * products derived from this software without specific prior written permission.
  23:G:/DT/dt_g1_balancing_plate_wise20192020/XMC/Libraries/XMCLib/inc\xmc_i2s.h ****  *
  24:G:/DT/dt_g1_balancing_plate_wise20192020/XMC/Libraries/XMCLib/inc\xmc_i2s.h ****  * THIS SOFTWARE IS PROVIDED BY THE COPYRIGHT HOLDERS AND CONTRIBUTORS "AS IS" AND ANY EXPRESS OR I
  25:G:/DT/dt_g1_balancing_plate_wise20192020/XMC/Libraries/XMCLib/inc\xmc_i2s.h ****  * INCLUDING, BUT NOT LIMITED TO, THE IMPLIED WARRANTIES OF MERCHANTABILITY AND FITNESS FOR A PARTI
  26:G:/DT/dt_g1_balancing_plate_wise20192020/XMC/Libraries/XMCLib/inc\xmc_i2s.h ****  * DISCLAIMED. IN NO EVENT SHALL THE COPYRIGHT HOLDER OR CONTRIBUTORS BE LIABLE  FOR ANY DIRECT, IN
  27:G:/DT/dt_g1_balancing_plate_wise20192020/XMC/Libraries/XMCLib/inc\xmc_i2s.h ****  * SPECIAL, EXEMPLARY, OR CONSEQUENTIAL DAMAGES (INCLUDING, BUT NOT LIMITED TO, PROCUREMENT OF SUBS
  28:G:/DT/dt_g1_balancing_plate_wise20192020/XMC/Libraries/XMCLib/inc\xmc_i2s.h ****  * SERVICES; LOSS OF USE, DATA, OR PROFITS; OR BUSINESS INTERRUPTION) HOWEVER CAUSED AND ON ANY THE
  29:G:/DT/dt_g1_balancing_plate_wise20192020/XMC/Libraries/XMCLib/inc\xmc_i2s.h ****  * WHETHER IN CONTRACT, STRICT LIABILITY,OR TORT (INCLUDING NEGLIGENCE OR OTHERWISE) ARISING IN ANY
  30:G:/DT/dt_g1_balancing_plate_wise20192020/XMC/Libraries/XMCLib/inc\xmc_i2s.h ****  * OF THIS SOFTWARE, EVEN IF ADVISED OF THE POSSIBILITY OF SUCH DAMAGE.
  31:G:/DT/dt_g1_balancing_plate_wise20192020/XMC/Libraries/XMCLib/inc\xmc_i2s.h ****  *
  32:G:/DT/dt_g1_balancing_plate_wise20192020/XMC/Libraries/XMCLib/inc\xmc_i2s.h ****  * To improve the quality of the software, users are encouraged to share modifications, enhancement
  33:G:/DT/dt_g1_balancing_plate_wise20192020/XMC/Libraries/XMCLib/inc\xmc_i2s.h ****  * Infineon Technologies AG dave@infineon.com).
  34:G:/DT/dt_g1_balancing_plate_wise20192020/XMC/Libraries/XMCLib/inc\xmc_i2s.h ****  **************************************************************************************************
  35:G:/DT/dt_g1_balancing_plate_wise20192020/XMC/Libraries/XMCLib/inc\xmc_i2s.h ****  *
  36:G:/DT/dt_g1_balancing_plate_wise20192020/XMC/Libraries/XMCLib/inc\xmc_i2s.h ****  * Change History
  37:G:/DT/dt_g1_balancing_plate_wise20192020/XMC/Libraries/XMCLib/inc\xmc_i2s.h ****  * --------------
  38:G:/DT/dt_g1_balancing_plate_wise20192020/XMC/Libraries/XMCLib/inc\xmc_i2s.h ****  *
  39:G:/DT/dt_g1_balancing_plate_wise20192020/XMC/Libraries/XMCLib/inc\xmc_i2s.h ****  * 2015-08-21:
  40:G:/DT/dt_g1_balancing_plate_wise20192020/XMC/Libraries/XMCLib/inc\xmc_i2s.h ****  *     - Initial <br>
  41:G:/DT/dt_g1_balancing_plate_wise20192020/XMC/Libraries/XMCLib/inc\xmc_i2s.h ****  *
  42:G:/DT/dt_g1_balancing_plate_wise20192020/XMC/Libraries/XMCLib/inc\xmc_i2s.h ****  * 2015-08-24:
  43:G:/DT/dt_g1_balancing_plate_wise20192020/XMC/Libraries/XMCLib/inc\xmc_i2s.h ****  *     - Added APIs for enabling/disabling delay compensation XMC_I2S_CH_DisableDelayCompensation()
  44:G:/DT/dt_g1_balancing_plate_wise20192020/XMC/Libraries/XMCLib/inc\xmc_i2s.h ****  *       XMC_I2S_CH_EnableDelayCompensation() <br>
  45:G:/DT/dt_g1_balancing_plate_wise20192020/XMC/Libraries/XMCLib/inc\xmc_i2s.h ****  *
  46:G:/DT/dt_g1_balancing_plate_wise20192020/XMC/Libraries/XMCLib/inc\xmc_i2s.h ****  * 2015-09-01:
  47:G:/DT/dt_g1_balancing_plate_wise20192020/XMC/Libraries/XMCLib/inc\xmc_i2s.h ****  *     - Modified XMC_I2S_CH_SetInputSource() for avoiding complete DXCR register overwriting. <br>
  48:G:/DT/dt_g1_balancing_plate_wise20192020/XMC/Libraries/XMCLib/inc\xmc_i2s.h ****  *     - Modified XMC_I2S_CH_EVENT_t enum for supporting XMC_I2S_CH_EnableEvent() and XMC_I2S_CH_Di
  49:G:/DT/dt_g1_balancing_plate_wise20192020/XMC/Libraries/XMCLib/inc\xmc_i2s.h ****  *       for supporting multiple events configuration <br>
  50:G:/DT/dt_g1_balancing_plate_wise20192020/XMC/Libraries/XMCLib/inc\xmc_i2s.h ****  *
  51:G:/DT/dt_g1_balancing_plate_wise20192020/XMC/Libraries/XMCLib/inc\xmc_i2s.h ****  * 2015-09-14:
  52:G:/DT/dt_g1_balancing_plate_wise20192020/XMC/Libraries/XMCLib/inc\xmc_i2s.h ****  *     - Modified XMC_I2S_CH_SetSystemWordLength for supporting up to 63 system word length<br>
  53:G:/DT/dt_g1_balancing_plate_wise20192020/XMC/Libraries/XMCLib/inc\xmc_i2s.h ****  *
  54:G:/DT/dt_g1_balancing_plate_wise20192020/XMC/Libraries/XMCLib/inc\xmc_i2s.h ****  * 2016-05-20:
  55:G:/DT/dt_g1_balancing_plate_wise20192020/XMC/Libraries/XMCLib/inc\xmc_i2s.h ****  *     - Added XMC_I2S_CH_EnableDataTransmission() and XMC_I2S_CH_DisableDataTransmission()
  56:G:/DT/dt_g1_balancing_plate_wise20192020/XMC/Libraries/XMCLib/inc\xmc_i2s.h ****  *
  57:G:/DT/dt_g1_balancing_plate_wise20192020/XMC/Libraries/XMCLib/inc\xmc_i2s.h ****  * 2016-06-30:
  58:G:/DT/dt_g1_balancing_plate_wise20192020/XMC/Libraries/XMCLib/inc\xmc_i2s.h ****  *     - Documentation updates.
  59:G:/DT/dt_g1_balancing_plate_wise20192020/XMC/Libraries/XMCLib/inc\xmc_i2s.h ****  *
  60:G:/DT/dt_g1_balancing_plate_wise20192020/XMC/Libraries/XMCLib/inc\xmc_i2s.h ****  * 2019-05-07:
  61:G:/DT/dt_g1_balancing_plate_wise20192020/XMC/Libraries/XMCLib/inc\xmc_i2s.h ****  *     - Added normal_divider_mode to XMC_I2S_CH_CONFIG_t configuration structure.
  62:G:/DT/dt_g1_balancing_plate_wise20192020/XMC/Libraries/XMCLib/inc\xmc_i2s.h ****  *       It selects normal divider mode for baudrate generator instead of default fractional divide
  63:G:/DT/dt_g1_balancing_plate_wise20192020/XMC/Libraries/XMCLib/inc\xmc_i2s.h ****  *     - Added XMC_I2S_CH_SetBaudrateEx()
  64:G:/DT/dt_g1_balancing_plate_wise20192020/XMC/Libraries/XMCLib/inc\xmc_i2s.h ****  *
  65:G:/DT/dt_g1_balancing_plate_wise20192020/XMC/Libraries/XMCLib/inc\xmc_i2s.h ****  *
  66:G:/DT/dt_g1_balancing_plate_wise20192020/XMC/Libraries/XMCLib/inc\xmc_i2s.h ****  * @endcond
  67:G:/DT/dt_g1_balancing_plate_wise20192020/XMC/Libraries/XMCLib/inc\xmc_i2s.h ****  *
  68:G:/DT/dt_g1_balancing_plate_wise20192020/XMC/Libraries/XMCLib/inc\xmc_i2s.h ****  */
  69:G:/DT/dt_g1_balancing_plate_wise20192020/XMC/Libraries/XMCLib/inc\xmc_i2s.h **** 
  70:G:/DT/dt_g1_balancing_plate_wise20192020/XMC/Libraries/XMCLib/inc\xmc_i2s.h **** #ifndef XMC_I2S_H_
  71:G:/DT/dt_g1_balancing_plate_wise20192020/XMC/Libraries/XMCLib/inc\xmc_i2s.h **** #define XMC_I2S_H_
  72:G:/DT/dt_g1_balancing_plate_wise20192020/XMC/Libraries/XMCLib/inc\xmc_i2s.h **** 
  73:G:/DT/dt_g1_balancing_plate_wise20192020/XMC/Libraries/XMCLib/inc\xmc_i2s.h **** /**************************************************************************************************
  74:G:/DT/dt_g1_balancing_plate_wise20192020/XMC/Libraries/XMCLib/inc\xmc_i2s.h ****  * HEADER FILES
  75:G:/DT/dt_g1_balancing_plate_wise20192020/XMC/Libraries/XMCLib/inc\xmc_i2s.h ****  **************************************************************************************************
  76:G:/DT/dt_g1_balancing_plate_wise20192020/XMC/Libraries/XMCLib/inc\xmc_i2s.h **** #include "xmc_usic.h"
  77:G:/DT/dt_g1_balancing_plate_wise20192020/XMC/Libraries/XMCLib/inc\xmc_i2s.h **** 
  78:G:/DT/dt_g1_balancing_plate_wise20192020/XMC/Libraries/XMCLib/inc\xmc_i2s.h **** /**
  79:G:/DT/dt_g1_balancing_plate_wise20192020/XMC/Libraries/XMCLib/inc\xmc_i2s.h ****  * @addtogroup XMClib XMC Peripheral Library
  80:G:/DT/dt_g1_balancing_plate_wise20192020/XMC/Libraries/XMCLib/inc\xmc_i2s.h ****  * @{
  81:G:/DT/dt_g1_balancing_plate_wise20192020/XMC/Libraries/XMCLib/inc\xmc_i2s.h ****  */
  82:G:/DT/dt_g1_balancing_plate_wise20192020/XMC/Libraries/XMCLib/inc\xmc_i2s.h **** 
  83:G:/DT/dt_g1_balancing_plate_wise20192020/XMC/Libraries/XMCLib/inc\xmc_i2s.h **** /**
  84:G:/DT/dt_g1_balancing_plate_wise20192020/XMC/Libraries/XMCLib/inc\xmc_i2s.h ****  * @addtogroup I2S
  85:G:/DT/dt_g1_balancing_plate_wise20192020/XMC/Libraries/XMCLib/inc\xmc_i2s.h ****  * @brief (IIS) driver for the XMC microcontroller family.
  86:G:/DT/dt_g1_balancing_plate_wise20192020/XMC/Libraries/XMCLib/inc\xmc_i2s.h ****  *
  87:G:/DT/dt_g1_balancing_plate_wise20192020/XMC/Libraries/XMCLib/inc\xmc_i2s.h ****  * USIC IIS Features: <br>
  88:G:/DT/dt_g1_balancing_plate_wise20192020/XMC/Libraries/XMCLib/inc\xmc_i2s.h ****  * @{
  89:G:/DT/dt_g1_balancing_plate_wise20192020/XMC/Libraries/XMCLib/inc\xmc_i2s.h ****  */
  90:G:/DT/dt_g1_balancing_plate_wise20192020/XMC/Libraries/XMCLib/inc\xmc_i2s.h **** 
  91:G:/DT/dt_g1_balancing_plate_wise20192020/XMC/Libraries/XMCLib/inc\xmc_i2s.h **** /*******************************************************************************
  92:G:/DT/dt_g1_balancing_plate_wise20192020/XMC/Libraries/XMCLib/inc\xmc_i2s.h ****  * MACROS
  93:G:/DT/dt_g1_balancing_plate_wise20192020/XMC/Libraries/XMCLib/inc\xmc_i2s.h ****  *******************************************************************************/
  94:G:/DT/dt_g1_balancing_plate_wise20192020/XMC/Libraries/XMCLib/inc\xmc_i2s.h **** 
  95:G:/DT/dt_g1_balancing_plate_wise20192020/XMC/Libraries/XMCLib/inc\xmc_i2s.h **** #if defined(USIC0)
  96:G:/DT/dt_g1_balancing_plate_wise20192020/XMC/Libraries/XMCLib/inc\xmc_i2s.h **** #define XMC_I2S0_CH0 XMC_USIC0_CH0                   /**< USIC0 channel 0 base address */
  97:G:/DT/dt_g1_balancing_plate_wise20192020/XMC/Libraries/XMCLib/inc\xmc_i2s.h **** #define XMC_I2S0_CH1 XMC_USIC0_CH1                   /**< USIC0 channel 1 base address */
  98:G:/DT/dt_g1_balancing_plate_wise20192020/XMC/Libraries/XMCLib/inc\xmc_i2s.h **** #endif
  99:G:/DT/dt_g1_balancing_plate_wise20192020/XMC/Libraries/XMCLib/inc\xmc_i2s.h **** 
 100:G:/DT/dt_g1_balancing_plate_wise20192020/XMC/Libraries/XMCLib/inc\xmc_i2s.h **** #if defined(USIC1)
 101:G:/DT/dt_g1_balancing_plate_wise20192020/XMC/Libraries/XMCLib/inc\xmc_i2s.h **** #define XMC_I2S1_CH0 XMC_USIC1_CH0                   /**< USIC1 channel 0 base address */
 102:G:/DT/dt_g1_balancing_plate_wise20192020/XMC/Libraries/XMCLib/inc\xmc_i2s.h **** #define XMC_I2S1_CH1 XMC_USIC1_CH1                   /**< USIC1 channel 1 base address */
 103:G:/DT/dt_g1_balancing_plate_wise20192020/XMC/Libraries/XMCLib/inc\xmc_i2s.h **** #endif
 104:G:/DT/dt_g1_balancing_plate_wise20192020/XMC/Libraries/XMCLib/inc\xmc_i2s.h **** 
 105:G:/DT/dt_g1_balancing_plate_wise20192020/XMC/Libraries/XMCLib/inc\xmc_i2s.h **** #if defined(USIC2)
 106:G:/DT/dt_g1_balancing_plate_wise20192020/XMC/Libraries/XMCLib/inc\xmc_i2s.h **** #define XMC_I2S2_CH0 XMC_USIC2_CH0                   /**< USIC2 channel 0 base address */
 107:G:/DT/dt_g1_balancing_plate_wise20192020/XMC/Libraries/XMCLib/inc\xmc_i2s.h **** #define XMC_I2S2_CH1 XMC_USIC2_CH1                   /**< USIC2 channel 1 base address */
 108:G:/DT/dt_g1_balancing_plate_wise20192020/XMC/Libraries/XMCLib/inc\xmc_i2s.h **** #endif
 109:G:/DT/dt_g1_balancing_plate_wise20192020/XMC/Libraries/XMCLib/inc\xmc_i2s.h **** /*******************************************************************************
 110:G:/DT/dt_g1_balancing_plate_wise20192020/XMC/Libraries/XMCLib/inc\xmc_i2s.h ****  * ENUMS
 111:G:/DT/dt_g1_balancing_plate_wise20192020/XMC/Libraries/XMCLib/inc\xmc_i2s.h ****  *******************************************************************************/
 112:G:/DT/dt_g1_balancing_plate_wise20192020/XMC/Libraries/XMCLib/inc\xmc_i2s.h **** 
 113:G:/DT/dt_g1_balancing_plate_wise20192020/XMC/Libraries/XMCLib/inc\xmc_i2s.h **** /**
 114:G:/DT/dt_g1_balancing_plate_wise20192020/XMC/Libraries/XMCLib/inc\xmc_i2s.h ****  * @brief I2S Status
 115:G:/DT/dt_g1_balancing_plate_wise20192020/XMC/Libraries/XMCLib/inc\xmc_i2s.h ****  */
 116:G:/DT/dt_g1_balancing_plate_wise20192020/XMC/Libraries/XMCLib/inc\xmc_i2s.h **** typedef enum XMC_I2S_CH_STATUS
 117:G:/DT/dt_g1_balancing_plate_wise20192020/XMC/Libraries/XMCLib/inc\xmc_i2s.h **** {
 118:G:/DT/dt_g1_balancing_plate_wise20192020/XMC/Libraries/XMCLib/inc\xmc_i2s.h ****   XMC_I2S_CH_STATUS_OK,      /**< Status OK */
 119:G:/DT/dt_g1_balancing_plate_wise20192020/XMC/Libraries/XMCLib/inc\xmc_i2s.h ****   XMC_I2S_CH_STATUS_ERROR,   /**< Status ERROR */
 120:G:/DT/dt_g1_balancing_plate_wise20192020/XMC/Libraries/XMCLib/inc\xmc_i2s.h ****   XMC_I2S_CH_STATUS_BUSY     /**< Status BUSY */
 121:G:/DT/dt_g1_balancing_plate_wise20192020/XMC/Libraries/XMCLib/inc\xmc_i2s.h **** } XMC_I2S_CH_STATUS_t;
 122:G:/DT/dt_g1_balancing_plate_wise20192020/XMC/Libraries/XMCLib/inc\xmc_i2s.h **** 
 123:G:/DT/dt_g1_balancing_plate_wise20192020/XMC/Libraries/XMCLib/inc\xmc_i2s.h **** /**
 124:G:/DT/dt_g1_balancing_plate_wise20192020/XMC/Libraries/XMCLib/inc\xmc_i2s.h ****  * @brief I2S status flag
 125:G:/DT/dt_g1_balancing_plate_wise20192020/XMC/Libraries/XMCLib/inc\xmc_i2s.h ****  */
 126:G:/DT/dt_g1_balancing_plate_wise20192020/XMC/Libraries/XMCLib/inc\xmc_i2s.h **** typedef enum XMC_I2S_CH_STATUS_FLAG
 127:G:/DT/dt_g1_balancing_plate_wise20192020/XMC/Libraries/XMCLib/inc\xmc_i2s.h **** {
 128:G:/DT/dt_g1_balancing_plate_wise20192020/XMC/Libraries/XMCLib/inc\xmc_i2s.h ****   XMC_I2S_CH_STATUS_FLAG_WORD_ADDRESS = USIC_CH_PSR_IISMode_WA_Msk,                     /**< Word A
 129:G:/DT/dt_g1_balancing_plate_wise20192020/XMC/Libraries/XMCLib/inc\xmc_i2s.h ****   XMC_I2S_CH_STATUS_FLAG_DX2S = USIC_CH_PSR_IISMode_DX2S_Msk,                           /**< Status
 130:G:/DT/dt_g1_balancing_plate_wise20192020/XMC/Libraries/XMCLib/inc\xmc_i2s.h ****   XMC_I2S_CH_STATUS_FLAG_DX2T_EVENT_DETECTED = USIC_CH_PSR_IISMode_DX2TEV_Msk,          /**< Status
 131:G:/DT/dt_g1_balancing_plate_wise20192020/XMC/Libraries/XMCLib/inc\xmc_i2s.h ****   XMC_I2S_CH_STATUS_FLAG_WA_FALLING_EDGE_EVENT = USIC_CH_PSR_IISMode_WAFE_Msk,          /**< Fallin
 132:G:/DT/dt_g1_balancing_plate_wise20192020/XMC/Libraries/XMCLib/inc\xmc_i2s.h ****                                                                                              signal
 133:G:/DT/dt_g1_balancing_plate_wise20192020/XMC/Libraries/XMCLib/inc\xmc_i2s.h ****   XMC_I2S_CH_STATUS_FLAG_WA_RISING_EDGE_EVENT = USIC_CH_PSR_IISMode_WARE_Msk,           /**< Rising
 134:G:/DT/dt_g1_balancing_plate_wise20192020/XMC/Libraries/XMCLib/inc\xmc_i2s.h ****                                                                                              signal
 135:G:/DT/dt_g1_balancing_plate_wise20192020/XMC/Libraries/XMCLib/inc\xmc_i2s.h ****   XMC_I2S_CH_STATUS_FLAG_WA_GENERATION_END = USIC_CH_PSR_IISMode_END_Msk,               /**< The WA
 136:G:/DT/dt_g1_balancing_plate_wise20192020/XMC/Libraries/XMCLib/inc\xmc_i2s.h ****   XMC_I2S_CH_STATUS_FLAG_RECEIVER_START_INDICATION = USIC_CH_PSR_IISMode_RSIF_Msk,      /**< Receiv
 137:G:/DT/dt_g1_balancing_plate_wise20192020/XMC/Libraries/XMCLib/inc\xmc_i2s.h ****   XMC_I2S_CH_STATUS_FLAG_DATA_LOST_INDICATION = USIC_CH_PSR_IISMode_DLIF_Msk,           /**< Data l
 138:G:/DT/dt_g1_balancing_plate_wise20192020/XMC/Libraries/XMCLib/inc\xmc_i2s.h ****   XMC_I2S_CH_STATUS_FLAG_TRANSMIT_SHIFT_INDICATION = USIC_CH_PSR_IISMode_TSIF_Msk,      /**< Transm
 139:G:/DT/dt_g1_balancing_plate_wise20192020/XMC/Libraries/XMCLib/inc\xmc_i2s.h ****   XMC_I2S_CH_STATUS_FLAG_TRANSMIT_BUFFER_INDICATION = USIC_CH_PSR_IISMode_TBIF_Msk,     /**< Transm
 140:G:/DT/dt_g1_balancing_plate_wise20192020/XMC/Libraries/XMCLib/inc\xmc_i2s.h ****   XMC_I2S_CH_STATUS_FLAG_RECEIVE_INDICATION = USIC_CH_PSR_IISMode_RIF_Msk,              /**< Receiv
 141:G:/DT/dt_g1_balancing_plate_wise20192020/XMC/Libraries/XMCLib/inc\xmc_i2s.h ****   XMC_I2S_CH_STATUS_FLAG_ALTERNATIVE_RECEIVE_INDICATION = USIC_CH_PSR_IISMode_AIF_Msk,  /**< Altern
 142:G:/DT/dt_g1_balancing_plate_wise20192020/XMC/Libraries/XMCLib/inc\xmc_i2s.h ****   XMC_I2S_CH_STATUS_FLAG_BAUD_RATE_GENERATOR_INDICATION = USIC_CH_PSR_IISMode_BRGIF_Msk /**< Baud r
 143:G:/DT/dt_g1_balancing_plate_wise20192020/XMC/Libraries/XMCLib/inc\xmc_i2s.h **** } XMC_I2S_CH_STATUS_FLAG_t;
 144:G:/DT/dt_g1_balancing_plate_wise20192020/XMC/Libraries/XMCLib/inc\xmc_i2s.h **** 
 145:G:/DT/dt_g1_balancing_plate_wise20192020/XMC/Libraries/XMCLib/inc\xmc_i2s.h **** /**
 146:G:/DT/dt_g1_balancing_plate_wise20192020/XMC/Libraries/XMCLib/inc\xmc_i2s.h ****  *  @brief I2S Baudrate Generator shift clock output
 147:G:/DT/dt_g1_balancing_plate_wise20192020/XMC/Libraries/XMCLib/inc\xmc_i2s.h **** */
 148:G:/DT/dt_g1_balancing_plate_wise20192020/XMC/Libraries/XMCLib/inc\xmc_i2s.h **** typedef enum XMC_I2S_CH_BRG_SHIFT_CLOCK_OUTPUT
 149:G:/DT/dt_g1_balancing_plate_wise20192020/XMC/Libraries/XMCLib/inc\xmc_i2s.h **** {
 150:G:/DT/dt_g1_balancing_plate_wise20192020/XMC/Libraries/XMCLib/inc\xmc_i2s.h ****   XMC_I2S_CH_BRG_SHIFT_CLOCK_OUTPUT_SCLK = XMC_USIC_CH_BRG_SHIFT_CLOCK_OUTPUT_SCLK, /**< Baudrate G
 151:G:/DT/dt_g1_balancing_plate_wise20192020/XMC/Libraries/XMCLib/inc\xmc_i2s.h ****   XMC_I2S_CH_BRG_SHIFT_CLOCK_OUTPUT_DX1  = XMC_USIC_CH_BRG_SHIFT_CLOCK_OUTPUT_DX1   /**< Clock obta
 152:G:/DT/dt_g1_balancing_plate_wise20192020/XMC/Libraries/XMCLib/inc\xmc_i2s.h **** } XMC_I2S_CH_BRG_SHIFT_CLOCK_OUTPUT_t;
 153:G:/DT/dt_g1_balancing_plate_wise20192020/XMC/Libraries/XMCLib/inc\xmc_i2s.h **** 
 154:G:/DT/dt_g1_balancing_plate_wise20192020/XMC/Libraries/XMCLib/inc\xmc_i2s.h **** /**
 155:G:/DT/dt_g1_balancing_plate_wise20192020/XMC/Libraries/XMCLib/inc\xmc_i2s.h ****  *  @brief I2S channel interrupt node pointers
 156:G:/DT/dt_g1_balancing_plate_wise20192020/XMC/Libraries/XMCLib/inc\xmc_i2s.h ****  */
 157:G:/DT/dt_g1_balancing_plate_wise20192020/XMC/Libraries/XMCLib/inc\xmc_i2s.h **** typedef enum XMC_I2S_CH_INTERRUPT_NODE_POINTER
 158:G:/DT/dt_g1_balancing_plate_wise20192020/XMC/Libraries/XMCLib/inc\xmc_i2s.h **** {
 159:G:/DT/dt_g1_balancing_plate_wise20192020/XMC/Libraries/XMCLib/inc\xmc_i2s.h ****   XMC_I2S_CH_INTERRUPT_NODE_POINTER_TRANSMIT_SHIFT    = XMC_USIC_CH_INTERRUPT_NODE_POINTER_TRANSMIT
 160:G:/DT/dt_g1_balancing_plate_wise20192020/XMC/Libraries/XMCLib/inc\xmc_i2s.h ****   XMC_I2S_CH_INTERRUPT_NODE_POINTER_TRANSMIT_BUFFER   = XMC_USIC_CH_INTERRUPT_NODE_POINTER_TRANSMIT
 161:G:/DT/dt_g1_balancing_plate_wise20192020/XMC/Libraries/XMCLib/inc\xmc_i2s.h ****   XMC_I2S_CH_INTERRUPT_NODE_POINTER_RECEIVE           = XMC_USIC_CH_INTERRUPT_NODE_POINTER_RECEIVE,
 162:G:/DT/dt_g1_balancing_plate_wise20192020/XMC/Libraries/XMCLib/inc\xmc_i2s.h ****   XMC_I2S_CH_INTERRUPT_NODE_POINTER_ALTERNATE_RECEIVE = XMC_USIC_CH_INTERRUPT_NODE_POINTER_ALTERNAT
 163:G:/DT/dt_g1_balancing_plate_wise20192020/XMC/Libraries/XMCLib/inc\xmc_i2s.h ****   XMC_I2S_CH_INTERRUPT_NODE_POINTER_PROTOCOL          = XMC_USIC_CH_INTERRUPT_NODE_POINTER_PROTOCOL
 164:G:/DT/dt_g1_balancing_plate_wise20192020/XMC/Libraries/XMCLib/inc\xmc_i2s.h **** } XMC_I2S_CH_INTERRUPT_NODE_POINTER_t;
 165:G:/DT/dt_g1_balancing_plate_wise20192020/XMC/Libraries/XMCLib/inc\xmc_i2s.h **** 
 166:G:/DT/dt_g1_balancing_plate_wise20192020/XMC/Libraries/XMCLib/inc\xmc_i2s.h **** /**
 167:G:/DT/dt_g1_balancing_plate_wise20192020/XMC/Libraries/XMCLib/inc\xmc_i2s.h ****  * @brief I2S events
 168:G:/DT/dt_g1_balancing_plate_wise20192020/XMC/Libraries/XMCLib/inc\xmc_i2s.h ****  */
 169:G:/DT/dt_g1_balancing_plate_wise20192020/XMC/Libraries/XMCLib/inc\xmc_i2s.h **** typedef enum XMC_I2S_CH_EVENT
 170:G:/DT/dt_g1_balancing_plate_wise20192020/XMC/Libraries/XMCLib/inc\xmc_i2s.h **** {
 171:G:/DT/dt_g1_balancing_plate_wise20192020/XMC/Libraries/XMCLib/inc\xmc_i2s.h ****   XMC_I2S_CH_EVENT_RECEIVE_START       = USIC_CH_CCR_RSIEN_Msk,  /**< Receive start event */
 172:G:/DT/dt_g1_balancing_plate_wise20192020/XMC/Libraries/XMCLib/inc\xmc_i2s.h ****   XMC_I2S_CH_EVENT_DATA_LOST           = USIC_CH_CCR_DLIEN_Msk,  /**< Data lost event */
 173:G:/DT/dt_g1_balancing_plate_wise20192020/XMC/Libraries/XMCLib/inc\xmc_i2s.h ****   XMC_I2S_CH_EVENT_TRANSMIT_SHIFT      = USIC_CH_CCR_TSIEN_Msk,  /**< Transmit shift event */
 174:G:/DT/dt_g1_balancing_plate_wise20192020/XMC/Libraries/XMCLib/inc\xmc_i2s.h ****   XMC_I2S_CH_EVENT_TRANSMIT_BUFFER     = USIC_CH_CCR_TBIEN_Msk,  /**< Transmit buffer event */
 175:G:/DT/dt_g1_balancing_plate_wise20192020/XMC/Libraries/XMCLib/inc\xmc_i2s.h ****   XMC_I2S_CH_EVENT_STANDARD_RECEIVE    = USIC_CH_CCR_RIEN_Msk,   /**< Receive event */
 176:G:/DT/dt_g1_balancing_plate_wise20192020/XMC/Libraries/XMCLib/inc\xmc_i2s.h ****   XMC_I2S_CH_EVENT_ALTERNATIVE_RECEIVE = USIC_CH_CCR_AIEN_Msk,   /**< Alternate receive event */
 177:G:/DT/dt_g1_balancing_plate_wise20192020/XMC/Libraries/XMCLib/inc\xmc_i2s.h ****   XMC_I2S_CH_EVENT_BAUD_RATE_GENERATOR = USIC_CH_CCR_BRGIEN_Msk, /**< Baudrate generator event */
 178:G:/DT/dt_g1_balancing_plate_wise20192020/XMC/Libraries/XMCLib/inc\xmc_i2s.h **** 
 179:G:/DT/dt_g1_balancing_plate_wise20192020/XMC/Libraries/XMCLib/inc\xmc_i2s.h ****   XMC_I2S_CH_EVENT_WA_FALLING_EDGE     = USIC_CH_PCR_IISMode_WAFEIEN_Msk << 2U,  /**< WA falling ed
 180:G:/DT/dt_g1_balancing_plate_wise20192020/XMC/Libraries/XMCLib/inc\xmc_i2s.h ****   XMC_I2S_CH_EVENT_WA_RISING_EDGE      = USIC_CH_PCR_IISMode_WAREIEN_Msk << 2U,  /**< WA rising edg
 181:G:/DT/dt_g1_balancing_plate_wise20192020/XMC/Libraries/XMCLib/inc\xmc_i2s.h ****   XMC_I2S_CH_EVENT_WA_GENERATION_END   = USIC_CH_PCR_IISMode_ENDIEN_Msk << 2U,   /**< END event */
 182:G:/DT/dt_g1_balancing_plate_wise20192020/XMC/Libraries/XMCLib/inc\xmc_i2s.h ****   XMC_I2S_CH_EVENT_DX2TIEN_ACTIVATED   = USIC_CH_PCR_IISMode_DX2TIEN_Msk << 2U   /**< WA input sign
 183:G:/DT/dt_g1_balancing_plate_wise20192020/XMC/Libraries/XMCLib/inc\xmc_i2s.h **** } XMC_I2S_CH_EVENT_t;
 184:G:/DT/dt_g1_balancing_plate_wise20192020/XMC/Libraries/XMCLib/inc\xmc_i2s.h **** 
 185:G:/DT/dt_g1_balancing_plate_wise20192020/XMC/Libraries/XMCLib/inc\xmc_i2s.h **** /**
 186:G:/DT/dt_g1_balancing_plate_wise20192020/XMC/Libraries/XMCLib/inc\xmc_i2s.h ****  * @brief Defines the Polarity of the WA in the SELO output lines in relation to the internal WA si
 187:G:/DT/dt_g1_balancing_plate_wise20192020/XMC/Libraries/XMCLib/inc\xmc_i2s.h ****  */
 188:G:/DT/dt_g1_balancing_plate_wise20192020/XMC/Libraries/XMCLib/inc\xmc_i2s.h **** typedef enum XMC_I2S_CH_WA_POLARITY
 189:G:/DT/dt_g1_balancing_plate_wise20192020/XMC/Libraries/XMCLib/inc\xmc_i2s.h **** {
 190:G:/DT/dt_g1_balancing_plate_wise20192020/XMC/Libraries/XMCLib/inc\xmc_i2s.h ****   XMC_I2S_CH_WA_POLARITY_DIRECT = 0x0UL,                                    /**< The SELO outputs h
 191:G:/DT/dt_g1_balancing_plate_wise20192020/XMC/Libraries/XMCLib/inc\xmc_i2s.h ****                                                                                   as the WA signal 
 192:G:/DT/dt_g1_balancing_plate_wise20192020/XMC/Libraries/XMCLib/inc\xmc_i2s.h ****   XMC_I2S_CH_WA_POLARITY_INVERTED = 0x1UL << USIC_CH_PCR_IISMode_SELINV_Pos /**< The SELO outputs h
 193:G:/DT/dt_g1_balancing_plate_wise20192020/XMC/Libraries/XMCLib/inc\xmc_i2s.h ****                                                                                  polarity to the WA
 194:G:/DT/dt_g1_balancing_plate_wise20192020/XMC/Libraries/XMCLib/inc\xmc_i2s.h **** } XMC_I2S_CH_WA_POLARITY_t;
 195:G:/DT/dt_g1_balancing_plate_wise20192020/XMC/Libraries/XMCLib/inc\xmc_i2s.h **** 
 196:G:/DT/dt_g1_balancing_plate_wise20192020/XMC/Libraries/XMCLib/inc\xmc_i2s.h **** /**
 197:G:/DT/dt_g1_balancing_plate_wise20192020/XMC/Libraries/XMCLib/inc\xmc_i2s.h ****  * @brief Defines the Polarity of the WA in the SELO output lines in relation to the internal WA si
 198:G:/DT/dt_g1_balancing_plate_wise20192020/XMC/Libraries/XMCLib/inc\xmc_i2s.h ****  */
 199:G:/DT/dt_g1_balancing_plate_wise20192020/XMC/Libraries/XMCLib/inc\xmc_i2s.h **** typedef enum XMC_I2S_CH_CHANNEL
 200:G:/DT/dt_g1_balancing_plate_wise20192020/XMC/Libraries/XMCLib/inc\xmc_i2s.h **** {
 201:G:/DT/dt_g1_balancing_plate_wise20192020/XMC/Libraries/XMCLib/inc\xmc_i2s.h ****   XMC_I2S_CH_CHANNEL_1_LEFT = 0U,  /**< Channel 1 (left) */
 202:G:/DT/dt_g1_balancing_plate_wise20192020/XMC/Libraries/XMCLib/inc\xmc_i2s.h ****   XMC_I2S_CH_CHANNEL_2_RIGHT = 1U  /**< Channel 2 (right) */
 203:G:/DT/dt_g1_balancing_plate_wise20192020/XMC/Libraries/XMCLib/inc\xmc_i2s.h **** } XMC_I2S_CH_CHANNEL_t;
 204:G:/DT/dt_g1_balancing_plate_wise20192020/XMC/Libraries/XMCLib/inc\xmc_i2s.h **** 
 205:G:/DT/dt_g1_balancing_plate_wise20192020/XMC/Libraries/XMCLib/inc\xmc_i2s.h **** /**
 206:G:/DT/dt_g1_balancing_plate_wise20192020/XMC/Libraries/XMCLib/inc\xmc_i2s.h ****  * @brief I2S input stage selection
 207:G:/DT/dt_g1_balancing_plate_wise20192020/XMC/Libraries/XMCLib/inc\xmc_i2s.h ****  */
 208:G:/DT/dt_g1_balancing_plate_wise20192020/XMC/Libraries/XMCLib/inc\xmc_i2s.h **** typedef enum XMC_I2S_CH_INPUT
 209:G:/DT/dt_g1_balancing_plate_wise20192020/XMC/Libraries/XMCLib/inc\xmc_i2s.h **** {
 210:G:/DT/dt_g1_balancing_plate_wise20192020/XMC/Libraries/XMCLib/inc\xmc_i2s.h ****   XMC_I2S_CH_INPUT_DIN0 = 0UL,         /**< Data input stage 0 */
 211:G:/DT/dt_g1_balancing_plate_wise20192020/XMC/Libraries/XMCLib/inc\xmc_i2s.h ****   XMC_I2S_CH_INPUT_SLAVE_SCLKIN = 1UL, /**< Clock input stage */
 212:G:/DT/dt_g1_balancing_plate_wise20192020/XMC/Libraries/XMCLib/inc\xmc_i2s.h ****   XMC_I2S_CH_INPUT_SLAVE_WA = 2UL,     /**< WA input stage */
 213:G:/DT/dt_g1_balancing_plate_wise20192020/XMC/Libraries/XMCLib/inc\xmc_i2s.h **** #if UC_FAMILY == XMC1
 214:G:/DT/dt_g1_balancing_plate_wise20192020/XMC/Libraries/XMCLib/inc\xmc_i2s.h ****   XMC_I2S_CH_INPUT_DIN1 = 3UL,         /**< Data input stage 1 */
 215:G:/DT/dt_g1_balancing_plate_wise20192020/XMC/Libraries/XMCLib/inc\xmc_i2s.h ****   XMC_I2S_CH_INPUT_DIN2 = 4UL,         /**< Data input stage 2 */
 216:G:/DT/dt_g1_balancing_plate_wise20192020/XMC/Libraries/XMCLib/inc\xmc_i2s.h ****   XMC_I2S_CH_INPUT_DIN3 = 5UL          /**< Data input stage 3 */
 217:G:/DT/dt_g1_balancing_plate_wise20192020/XMC/Libraries/XMCLib/inc\xmc_i2s.h **** #endif
 218:G:/DT/dt_g1_balancing_plate_wise20192020/XMC/Libraries/XMCLib/inc\xmc_i2s.h **** } XMC_I2S_CH_INPUT_t;
 219:G:/DT/dt_g1_balancing_plate_wise20192020/XMC/Libraries/XMCLib/inc\xmc_i2s.h **** 
 220:G:/DT/dt_g1_balancing_plate_wise20192020/XMC/Libraries/XMCLib/inc\xmc_i2s.h **** /**
 221:G:/DT/dt_g1_balancing_plate_wise20192020/XMC/Libraries/XMCLib/inc\xmc_i2s.h ****  * @brief Defines the I2S bus mode
 222:G:/DT/dt_g1_balancing_plate_wise20192020/XMC/Libraries/XMCLib/inc\xmc_i2s.h ****  */
 223:G:/DT/dt_g1_balancing_plate_wise20192020/XMC/Libraries/XMCLib/inc\xmc_i2s.h **** typedef enum XMC_I2S_CH_BUS_MODE
 224:G:/DT/dt_g1_balancing_plate_wise20192020/XMC/Libraries/XMCLib/inc\xmc_i2s.h **** {
 225:G:/DT/dt_g1_balancing_plate_wise20192020/XMC/Libraries/XMCLib/inc\xmc_i2s.h ****   XMC_I2S_CH_BUS_MODE_MASTER, /**< I2S Master */
 226:G:/DT/dt_g1_balancing_plate_wise20192020/XMC/Libraries/XMCLib/inc\xmc_i2s.h ****   XMC_I2S_CH_BUS_MODE_SLAVE   /**< I2S Slave */
 227:G:/DT/dt_g1_balancing_plate_wise20192020/XMC/Libraries/XMCLib/inc\xmc_i2s.h **** } XMC_I2S_CH_BUS_MODE_t;
 228:G:/DT/dt_g1_balancing_plate_wise20192020/XMC/Libraries/XMCLib/inc\xmc_i2s.h **** 
 229:G:/DT/dt_g1_balancing_plate_wise20192020/XMC/Libraries/XMCLib/inc\xmc_i2s.h **** /*******************************************************************************
 230:G:/DT/dt_g1_balancing_plate_wise20192020/XMC/Libraries/XMCLib/inc\xmc_i2s.h ****  * DATA STRUCTURES
 231:G:/DT/dt_g1_balancing_plate_wise20192020/XMC/Libraries/XMCLib/inc\xmc_i2s.h ****  *******************************************************************************/
 232:G:/DT/dt_g1_balancing_plate_wise20192020/XMC/Libraries/XMCLib/inc\xmc_i2s.h **** /**
 233:G:/DT/dt_g1_balancing_plate_wise20192020/XMC/Libraries/XMCLib/inc\xmc_i2s.h ****  * @brief I2S_CH configuration structure
 234:G:/DT/dt_g1_balancing_plate_wise20192020/XMC/Libraries/XMCLib/inc\xmc_i2s.h ****  */
 235:G:/DT/dt_g1_balancing_plate_wise20192020/XMC/Libraries/XMCLib/inc\xmc_i2s.h **** typedef struct XMC_I2S_CH_CONFIG
 236:G:/DT/dt_g1_balancing_plate_wise20192020/XMC/Libraries/XMCLib/inc\xmc_i2s.h **** {
 237:G:/DT/dt_g1_balancing_plate_wise20192020/XMC/Libraries/XMCLib/inc\xmc_i2s.h ****   uint32_t baudrate;					             /**< Module baud rate for communication */
 238:G:/DT/dt_g1_balancing_plate_wise20192020/XMC/Libraries/XMCLib/inc\xmc_i2s.h ****   bool normal_divider_mode;                /**< Selects normal divider mode for baudrate generator 
 239:G:/DT/dt_g1_balancing_plate_wise20192020/XMC/Libraries/XMCLib/inc\xmc_i2s.h ****   uint8_t data_bits;                       /**< Data word length. A data frame can consists of seve
 240:G:/DT/dt_g1_balancing_plate_wise20192020/XMC/Libraries/XMCLib/inc\xmc_i2s.h ****                                                 Value configured as USIC channel word length. \n
 241:G:/DT/dt_g1_balancing_plate_wise20192020/XMC/Libraries/XMCLib/inc\xmc_i2s.h ****                                                   \b Range: minimum= 1, maximum= 16*/
 242:G:/DT/dt_g1_balancing_plate_wise20192020/XMC/Libraries/XMCLib/inc\xmc_i2s.h ****   uint8_t frame_length;                    /**< Number of data bits transferred after a change of s
 243:G:/DT/dt_g1_balancing_plate_wise20192020/XMC/Libraries/XMCLib/inc\xmc_i2s.h ****                                                 Configured as USIC channel frame length. \n
 244:G:/DT/dt_g1_balancing_plate_wise20192020/XMC/Libraries/XMCLib/inc\xmc_i2s.h ****                                                   \b Range: minimum= 1, maximum= 63*/
 245:G:/DT/dt_g1_balancing_plate_wise20192020/XMC/Libraries/XMCLib/inc\xmc_i2s.h ****   uint8_t data_delayed_sclk_periods;       /**< Data delay defined in sclk periods */
 246:G:/DT/dt_g1_balancing_plate_wise20192020/XMC/Libraries/XMCLib/inc\xmc_i2s.h ****   XMC_I2S_CH_WA_POLARITY_t wa_inversion;   /**< Enable inversion of Slave select signal relative to
 247:G:/DT/dt_g1_balancing_plate_wise20192020/XMC/Libraries/XMCLib/inc\xmc_i2s.h ****   XMC_I2S_CH_BUS_MODE_t	bus_mode;          /**< Bus mode MASTER/SLAVE */
 248:G:/DT/dt_g1_balancing_plate_wise20192020/XMC/Libraries/XMCLib/inc\xmc_i2s.h **** } XMC_I2S_CH_CONFIG_t;
 249:G:/DT/dt_g1_balancing_plate_wise20192020/XMC/Libraries/XMCLib/inc\xmc_i2s.h **** 
 250:G:/DT/dt_g1_balancing_plate_wise20192020/XMC/Libraries/XMCLib/inc\xmc_i2s.h **** /*******************************************************************************
 251:G:/DT/dt_g1_balancing_plate_wise20192020/XMC/Libraries/XMCLib/inc\xmc_i2s.h ****  * API PROTOTYPES
 252:G:/DT/dt_g1_balancing_plate_wise20192020/XMC/Libraries/XMCLib/inc\xmc_i2s.h ****  *******************************************************************************/
 253:G:/DT/dt_g1_balancing_plate_wise20192020/XMC/Libraries/XMCLib/inc\xmc_i2s.h **** 
 254:G:/DT/dt_g1_balancing_plate_wise20192020/XMC/Libraries/XMCLib/inc\xmc_i2s.h **** #ifdef __cplusplus
 255:G:/DT/dt_g1_balancing_plate_wise20192020/XMC/Libraries/XMCLib/inc\xmc_i2s.h **** extern "C" {
 256:G:/DT/dt_g1_balancing_plate_wise20192020/XMC/Libraries/XMCLib/inc\xmc_i2s.h **** #endif
 257:G:/DT/dt_g1_balancing_plate_wise20192020/XMC/Libraries/XMCLib/inc\xmc_i2s.h **** 
 258:G:/DT/dt_g1_balancing_plate_wise20192020/XMC/Libraries/XMCLib/inc\xmc_i2s.h **** /**
 259:G:/DT/dt_g1_balancing_plate_wise20192020/XMC/Libraries/XMCLib/inc\xmc_i2s.h ****  * @param channel Constant pointer to USIC channel handle of type @ref XMC_USIC_CH_t \n
 260:G:/DT/dt_g1_balancing_plate_wise20192020/XMC/Libraries/XMCLib/inc\xmc_i2s.h ****  *          \b Range: @ref XMC_I2S0_CH0, XMC_I2S0_CH1,XMC_I2S1_CH0, XMC_I2S1_CH1,XMC_I2S2_CH0, XMC_
 261:G:/DT/dt_g1_balancing_plate_wise20192020/XMC/Libraries/XMCLib/inc\xmc_i2s.h ****  * @param config Constant pointer to I2S configuration structure of type @ref XMC_I2S_CH_CONFIG_t.
 262:G:/DT/dt_g1_balancing_plate_wise20192020/XMC/Libraries/XMCLib/inc\xmc_i2s.h ****  * @return XMC_I2S_CH_STATUS_t Status of initializing the USIC channel for I2S protocol.\n
 263:G:/DT/dt_g1_balancing_plate_wise20192020/XMC/Libraries/XMCLib/inc\xmc_i2s.h ****  *          \b Range: @ref XMC_I2S_CH_STATUS_OK if initialization is successful.\n
 264:G:/DT/dt_g1_balancing_plate_wise20192020/XMC/Libraries/XMCLib/inc\xmc_i2s.h ****  *                    @ref XMC_I2S_CH_STATUS_ERROR if configuration of baudrate failed.
 265:G:/DT/dt_g1_balancing_plate_wise20192020/XMC/Libraries/XMCLib/inc\xmc_i2s.h ****  *
 266:G:/DT/dt_g1_balancing_plate_wise20192020/XMC/Libraries/XMCLib/inc\xmc_i2s.h ****  * \par<b>Description</b><br>
 267:G:/DT/dt_g1_balancing_plate_wise20192020/XMC/Libraries/XMCLib/inc\xmc_i2s.h ****  * Initializes the USIC channel for I2S protocol.\n\n
 268:G:/DT/dt_g1_balancing_plate_wise20192020/XMC/Libraries/XMCLib/inc\xmc_i2s.h ****  * During the initialization, USIC channel is enabled and baudrate is configured.
 269:G:/DT/dt_g1_balancing_plate_wise20192020/XMC/Libraries/XMCLib/inc\xmc_i2s.h ****  * After each change of the WA signal, a complete data frame is intended to be transferred (frame l
 270:G:/DT/dt_g1_balancing_plate_wise20192020/XMC/Libraries/XMCLib/inc\xmc_i2s.h ****  * The number of data bits transferred after a change of signal WA is defined by config->frame_leng
 271:G:/DT/dt_g1_balancing_plate_wise20192020/XMC/Libraries/XMCLib/inc\xmc_i2s.h ****  * A data frame can consist of several data words with a data word length defined by config->data_b
 272:G:/DT/dt_g1_balancing_plate_wise20192020/XMC/Libraries/XMCLib/inc\xmc_i2s.h ****  * The changes of signal WA define the system word length as the number of SCLK cycles between two 
 273:G:/DT/dt_g1_balancing_plate_wise20192020/XMC/Libraries/XMCLib/inc\xmc_i2s.h ****  * The system word length is set by default to the frame length defined by config->frame_length.
 274:G:/DT/dt_g1_balancing_plate_wise20192020/XMC/Libraries/XMCLib/inc\xmc_i2s.h ****  *
 275:G:/DT/dt_g1_balancing_plate_wise20192020/XMC/Libraries/XMCLib/inc\xmc_i2s.h ****  * XMC_I2S_CH_Start() should be invoked after the initialization to enable the channel.
 276:G:/DT/dt_g1_balancing_plate_wise20192020/XMC/Libraries/XMCLib/inc\xmc_i2s.h ****  *
 277:G:/DT/dt_g1_balancing_plate_wise20192020/XMC/Libraries/XMCLib/inc\xmc_i2s.h ****  * \par<b>Related APIs:</b><BR>
 278:G:/DT/dt_g1_balancing_plate_wise20192020/XMC/Libraries/XMCLib/inc\xmc_i2s.h ****  * XMC_I2S_CH_Start(), XMC_I2S_CH_Stop(), XMC_I2S_CH_Transmit(), XMC_I2S_CH_SetSystemWordLength()\n
 279:G:/DT/dt_g1_balancing_plate_wise20192020/XMC/Libraries/XMCLib/inc\xmc_i2s.h ****  */
 280:G:/DT/dt_g1_balancing_plate_wise20192020/XMC/Libraries/XMCLib/inc\xmc_i2s.h **** void XMC_I2S_CH_Init(XMC_USIC_CH_t *const channel, const XMC_I2S_CH_CONFIG_t *const config);
 281:G:/DT/dt_g1_balancing_plate_wise20192020/XMC/Libraries/XMCLib/inc\xmc_i2s.h **** 
 282:G:/DT/dt_g1_balancing_plate_wise20192020/XMC/Libraries/XMCLib/inc\xmc_i2s.h **** /**
 283:G:/DT/dt_g1_balancing_plate_wise20192020/XMC/Libraries/XMCLib/inc\xmc_i2s.h ****  * @param channel A constant pointer to XMC_USIC_CH_t, pointing to the USIC channel base address.
 284:G:/DT/dt_g1_balancing_plate_wise20192020/XMC/Libraries/XMCLib/inc\xmc_i2s.h ****  *
 285:G:/DT/dt_g1_balancing_plate_wise20192020/XMC/Libraries/XMCLib/inc\xmc_i2s.h ****  * @return None
 286:G:/DT/dt_g1_balancing_plate_wise20192020/XMC/Libraries/XMCLib/inc\xmc_i2s.h ****  *
 287:G:/DT/dt_g1_balancing_plate_wise20192020/XMC/Libraries/XMCLib/inc\xmc_i2s.h ****  * \par<b>Description:</b><br>
 288:G:/DT/dt_g1_balancing_plate_wise20192020/XMC/Libraries/XMCLib/inc\xmc_i2s.h ****  * Set the selected USIC channel to operate in I2S mode, by setting CCR.MODE bits.\n\n
 289:G:/DT/dt_g1_balancing_plate_wise20192020/XMC/Libraries/XMCLib/inc\xmc_i2s.h ****  * It should be executed after XMC_I2S_CH_Init() during initialization. By invoking XMC_I2S_CH_Stop
 290:G:/DT/dt_g1_balancing_plate_wise20192020/XMC/Libraries/XMCLib/inc\xmc_i2s.h ****  * to IDLE state. Call XMC_I2S_CH_Start() to set the I2S mode again, as needed later in the program
 291:G:/DT/dt_g1_balancing_plate_wise20192020/XMC/Libraries/XMCLib/inc\xmc_i2s.h ****  *
 292:G:/DT/dt_g1_balancing_plate_wise20192020/XMC/Libraries/XMCLib/inc\xmc_i2s.h ****  * \par<b>Related APIs:</b><BR>
 293:G:/DT/dt_g1_balancing_plate_wise20192020/XMC/Libraries/XMCLib/inc\xmc_i2s.h ****  * XMC_I2S_CH_Init(), XMC_I2S_CH_Stop()
 294:G:/DT/dt_g1_balancing_plate_wise20192020/XMC/Libraries/XMCLib/inc\xmc_i2s.h ****  */
 295:G:/DT/dt_g1_balancing_plate_wise20192020/XMC/Libraries/XMCLib/inc\xmc_i2s.h **** __STATIC_INLINE void XMC_I2S_CH_Start(XMC_USIC_CH_t *const channel)
 296:G:/DT/dt_g1_balancing_plate_wise20192020/XMC/Libraries/XMCLib/inc\xmc_i2s.h **** {
 297:G:/DT/dt_g1_balancing_plate_wise20192020/XMC/Libraries/XMCLib/inc\xmc_i2s.h ****   /* USIC channel in I2S mode */
 298:G:/DT/dt_g1_balancing_plate_wise20192020/XMC/Libraries/XMCLib/inc\xmc_i2s.h ****   XMC_USIC_CH_SetMode(channel, XMC_USIC_CH_OPERATING_MODE_I2S);
 299:G:/DT/dt_g1_balancing_plate_wise20192020/XMC/Libraries/XMCLib/inc\xmc_i2s.h **** }
 300:G:/DT/dt_g1_balancing_plate_wise20192020/XMC/Libraries/XMCLib/inc\xmc_i2s.h **** 
 301:G:/DT/dt_g1_balancing_plate_wise20192020/XMC/Libraries/XMCLib/inc\xmc_i2s.h **** /**
 302:G:/DT/dt_g1_balancing_plate_wise20192020/XMC/Libraries/XMCLib/inc\xmc_i2s.h ****  * @param channel A constant pointer to XMC_USIC_CH_t, pointing to the USIC channel base address.
 303:G:/DT/dt_g1_balancing_plate_wise20192020/XMC/Libraries/XMCLib/inc\xmc_i2s.h ****  *
 304:G:/DT/dt_g1_balancing_plate_wise20192020/XMC/Libraries/XMCLib/inc\xmc_i2s.h ****  * @return XMC_I2S_CH_STATUS_t Status of the I2S driver after the request for stopping is processed
 305:G:/DT/dt_g1_balancing_plate_wise20192020/XMC/Libraries/XMCLib/inc\xmc_i2s.h ****  *        XMC_I2S_CH_STATUS_OK- If the USIC channel is successfully put to IDLE mode. \n
 306:G:/DT/dt_g1_balancing_plate_wise20192020/XMC/Libraries/XMCLib/inc\xmc_i2s.h ****  *        XMC_I2S_CH_STATUS_BUSY- If the USIC channel is busy transmitting data.
 307:G:/DT/dt_g1_balancing_plate_wise20192020/XMC/Libraries/XMCLib/inc\xmc_i2s.h ****  *
 308:G:/DT/dt_g1_balancing_plate_wise20192020/XMC/Libraries/XMCLib/inc\xmc_i2s.h ****  * \par<b>Description:</b><br>
 309:G:/DT/dt_g1_balancing_plate_wise20192020/XMC/Libraries/XMCLib/inc\xmc_i2s.h ****  * Set the selected I2S channel to IDLE mode, by clearing CCR.MODE bits.\n\n
 310:G:/DT/dt_g1_balancing_plate_wise20192020/XMC/Libraries/XMCLib/inc\xmc_i2s.h ****  * After calling XMC_I2S_CH_Stop, channel is IDLE mode. So no communication is supported. XMC_I2S_C
 311:G:/DT/dt_g1_balancing_plate_wise20192020/XMC/Libraries/XMCLib/inc\xmc_i2s.h ****  * invoked to start the communication again.
 312:G:/DT/dt_g1_balancing_plate_wise20192020/XMC/Libraries/XMCLib/inc\xmc_i2s.h ****  *
 313:G:/DT/dt_g1_balancing_plate_wise20192020/XMC/Libraries/XMCLib/inc\xmc_i2s.h ****  * \par<b>Related APIs:</b><BR>
 314:G:/DT/dt_g1_balancing_plate_wise20192020/XMC/Libraries/XMCLib/inc\xmc_i2s.h ****  * XMC_I2S_CH_Start()
 315:G:/DT/dt_g1_balancing_plate_wise20192020/XMC/Libraries/XMCLib/inc\xmc_i2s.h ****  */
 316:G:/DT/dt_g1_balancing_plate_wise20192020/XMC/Libraries/XMCLib/inc\xmc_i2s.h **** XMC_I2S_CH_STATUS_t XMC_I2S_CH_Stop(XMC_USIC_CH_t *const channel);
 317:G:/DT/dt_g1_balancing_plate_wise20192020/XMC/Libraries/XMCLib/inc\xmc_i2s.h **** 
 318:G:/DT/dt_g1_balancing_plate_wise20192020/XMC/Libraries/XMCLib/inc\xmc_i2s.h **** /**
 319:G:/DT/dt_g1_balancing_plate_wise20192020/XMC/Libraries/XMCLib/inc\xmc_i2s.h ****  * @param channel A constant pointer to XMC_USIC_CH_t, pointing to the USIC channel base address.
 320:G:/DT/dt_g1_balancing_plate_wise20192020/XMC/Libraries/XMCLib/inc\xmc_i2s.h ****  * @param rate Bus speed in bits per second
 321:G:/DT/dt_g1_balancing_plate_wise20192020/XMC/Libraries/XMCLib/inc\xmc_i2s.h ****  *
 322:G:/DT/dt_g1_balancing_plate_wise20192020/XMC/Libraries/XMCLib/inc\xmc_i2s.h ****  * @return XMC_I2S_CH_STATUS_t Status of the I2S driver after the request for setting baudrate is p
 323:G:/DT/dt_g1_balancing_plate_wise20192020/XMC/Libraries/XMCLib/inc\xmc_i2s.h ****  *        XMC_I2S_CH_STATUS_OK- If the baudrate is successfully changed. \n
 324:G:/DT/dt_g1_balancing_plate_wise20192020/XMC/Libraries/XMCLib/inc\xmc_i2s.h ****  *        XMC_I2S_CH_STATUS_ERROR- If the new baudrate value is out of range.
 325:G:/DT/dt_g1_balancing_plate_wise20192020/XMC/Libraries/XMCLib/inc\xmc_i2s.h ****  *
 326:G:/DT/dt_g1_balancing_plate_wise20192020/XMC/Libraries/XMCLib/inc\xmc_i2s.h ****  * \par<b>Description:</b><br>
 327:G:/DT/dt_g1_balancing_plate_wise20192020/XMC/Libraries/XMCLib/inc\xmc_i2s.h ****  * Sets the bus speed in bits per second
 328:G:/DT/dt_g1_balancing_plate_wise20192020/XMC/Libraries/XMCLib/inc\xmc_i2s.h ****  *
 329:G:/DT/dt_g1_balancing_plate_wise20192020/XMC/Libraries/XMCLib/inc\xmc_i2s.h ****  * \par<b>Related APIs:</b><BR>
 330:G:/DT/dt_g1_balancing_plate_wise20192020/XMC/Libraries/XMCLib/inc\xmc_i2s.h ****  * XMC_I2S_CH_Init(), XMC_I2S_CH_Stop()
 331:G:/DT/dt_g1_balancing_plate_wise20192020/XMC/Libraries/XMCLib/inc\xmc_i2s.h ****  */
 332:G:/DT/dt_g1_balancing_plate_wise20192020/XMC/Libraries/XMCLib/inc\xmc_i2s.h **** XMC_I2S_CH_STATUS_t XMC_I2S_CH_SetBaudrate(XMC_USIC_CH_t *const channel, const uint32_t rate);
 333:G:/DT/dt_g1_balancing_plate_wise20192020/XMC/Libraries/XMCLib/inc\xmc_i2s.h **** 
 334:G:/DT/dt_g1_balancing_plate_wise20192020/XMC/Libraries/XMCLib/inc\xmc_i2s.h **** /**
 335:G:/DT/dt_g1_balancing_plate_wise20192020/XMC/Libraries/XMCLib/inc\xmc_i2s.h ****  * @param channel A constant pointer to XMC_USIC_CH_t, pointing to the USIC channel base address.
 336:G:/DT/dt_g1_balancing_plate_wise20192020/XMC/Libraries/XMCLib/inc\xmc_i2s.h ****  * @param rate Bus speed in bits per second
 337:G:/DT/dt_g1_balancing_plate_wise20192020/XMC/Libraries/XMCLib/inc\xmc_i2s.h ****  * @param normal_divider_mode Selects normal divider mode for baudrate generator instead of default
 338:G:/DT/dt_g1_balancing_plate_wise20192020/XMC/Libraries/XMCLib/inc\xmc_i2s.h ****  *
 339:G:/DT/dt_g1_balancing_plate_wise20192020/XMC/Libraries/XMCLib/inc\xmc_i2s.h ****  * @return XMC_I2S_CH_STATUS_t Status of the I2S driver after the request for setting baudrate is p
 340:G:/DT/dt_g1_balancing_plate_wise20192020/XMC/Libraries/XMCLib/inc\xmc_i2s.h ****  *        XMC_I2S_CH_STATUS_OK- If the baudrate is successfully changed. \n
 341:G:/DT/dt_g1_balancing_plate_wise20192020/XMC/Libraries/XMCLib/inc\xmc_i2s.h ****  *        XMC_I2S_CH_STATUS_ERROR- If the new baudrate value is out of range.
 342:G:/DT/dt_g1_balancing_plate_wise20192020/XMC/Libraries/XMCLib/inc\xmc_i2s.h ****  *
 343:G:/DT/dt_g1_balancing_plate_wise20192020/XMC/Libraries/XMCLib/inc\xmc_i2s.h ****  * \par<b>Description:</b><br>
 344:G:/DT/dt_g1_balancing_plate_wise20192020/XMC/Libraries/XMCLib/inc\xmc_i2s.h ****  * Sets the bus speed in bits per second
 345:G:/DT/dt_g1_balancing_plate_wise20192020/XMC/Libraries/XMCLib/inc\xmc_i2s.h ****  *
 346:G:/DT/dt_g1_balancing_plate_wise20192020/XMC/Libraries/XMCLib/inc\xmc_i2s.h ****  * \par<b>Related APIs:</b><BR>
 347:G:/DT/dt_g1_balancing_plate_wise20192020/XMC/Libraries/XMCLib/inc\xmc_i2s.h ****  * XMC_I2S_CH_Init(), XMC_I2S_CH_Stop()
 348:G:/DT/dt_g1_balancing_plate_wise20192020/XMC/Libraries/XMCLib/inc\xmc_i2s.h ****  */
 349:G:/DT/dt_g1_balancing_plate_wise20192020/XMC/Libraries/XMCLib/inc\xmc_i2s.h **** XMC_I2S_CH_STATUS_t XMC_I2S_CH_SetBaudrateEx(XMC_USIC_CH_t *const channel, const uint32_t rate, boo
 350:G:/DT/dt_g1_balancing_plate_wise20192020/XMC/Libraries/XMCLib/inc\xmc_i2s.h **** 
 351:G:/DT/dt_g1_balancing_plate_wise20192020/XMC/Libraries/XMCLib/inc\xmc_i2s.h **** /**
 352:G:/DT/dt_g1_balancing_plate_wise20192020/XMC/Libraries/XMCLib/inc\xmc_i2s.h ****  * @param channel A constant pointer to XMC_USIC_CH_t, pointing to the USIC channel base address.
 353:G:/DT/dt_g1_balancing_plate_wise20192020/XMC/Libraries/XMCLib/inc\xmc_i2s.h ****  * @param sclk_cycles_system_word_length system word length in terms of sclk clock cycles.
 354:G:/DT/dt_g1_balancing_plate_wise20192020/XMC/Libraries/XMCLib/inc\xmc_i2s.h ****  *
 355:G:/DT/dt_g1_balancing_plate_wise20192020/XMC/Libraries/XMCLib/inc\xmc_i2s.h ****  * @return None
 356:G:/DT/dt_g1_balancing_plate_wise20192020/XMC/Libraries/XMCLib/inc\xmc_i2s.h ****  *
 357:G:/DT/dt_g1_balancing_plate_wise20192020/XMC/Libraries/XMCLib/inc\xmc_i2s.h ****  * \par<b>Description:</b><br>
 358:G:/DT/dt_g1_balancing_plate_wise20192020/XMC/Libraries/XMCLib/inc\xmc_i2s.h ****  * Configures the system word length by setting BRG.DCTQ bit field.\n\n
 359:G:/DT/dt_g1_balancing_plate_wise20192020/XMC/Libraries/XMCLib/inc\xmc_i2s.h ****  * This value has to be always higher than 1U and lower than the data with (SCTR.FLE)
 360:G:/DT/dt_g1_balancing_plate_wise20192020/XMC/Libraries/XMCLib/inc\xmc_i2s.h ****  *
 361:G:/DT/dt_g1_balancing_plate_wise20192020/XMC/Libraries/XMCLib/inc\xmc_i2s.h ****  */
 362:G:/DT/dt_g1_balancing_plate_wise20192020/XMC/Libraries/XMCLib/inc\xmc_i2s.h **** void XMC_I2S_CH_SetSystemWordLength(XMC_USIC_CH_t *const channel,uint32_t sclk_cycles_system_word_l
 363:G:/DT/dt_g1_balancing_plate_wise20192020/XMC/Libraries/XMCLib/inc\xmc_i2s.h **** 
 364:G:/DT/dt_g1_balancing_plate_wise20192020/XMC/Libraries/XMCLib/inc\xmc_i2s.h **** /**
 365:G:/DT/dt_g1_balancing_plate_wise20192020/XMC/Libraries/XMCLib/inc\xmc_i2s.h ****  * @param channel A constant pointer to XMC_USIC_CH_t, pointing to the USIC channel base address.
 366:G:/DT/dt_g1_balancing_plate_wise20192020/XMC/Libraries/XMCLib/inc\xmc_i2s.h ****  * @param data Data to be transmitted
 367:G:/DT/dt_g1_balancing_plate_wise20192020/XMC/Libraries/XMCLib/inc\xmc_i2s.h ****  * @param channel_number Communication output channel of the I2S, based on this channel selection T
 368:G:/DT/dt_g1_balancing_plate_wise20192020/XMC/Libraries/XMCLib/inc\xmc_i2s.h ****  *             Refer @ref XMC_I2S_CH_CHANNEL_t for valid values.
 369:G:/DT/dt_g1_balancing_plate_wise20192020/XMC/Libraries/XMCLib/inc\xmc_i2s.h ****  *
 370:G:/DT/dt_g1_balancing_plate_wise20192020/XMC/Libraries/XMCLib/inc\xmc_i2s.h ****  * @return None
 371:G:/DT/dt_g1_balancing_plate_wise20192020/XMC/Libraries/XMCLib/inc\xmc_i2s.h ****  *
 372:G:/DT/dt_g1_balancing_plate_wise20192020/XMC/Libraries/XMCLib/inc\xmc_i2s.h ****  * \par<b>Description:</b><br>
 373:G:/DT/dt_g1_balancing_plate_wise20192020/XMC/Libraries/XMCLib/inc\xmc_i2s.h ****  * Puts the data into FIFO, if FIFO mode is enabled or else into standard buffer, by setting the pr
 374:G:/DT/dt_g1_balancing_plate_wise20192020/XMC/Libraries/XMCLib/inc\xmc_i2s.h ****  * TCI(Transmit Control Information) allows dynamic control of output channel during data transfers
 375:G:/DT/dt_g1_balancing_plate_wise20192020/XMC/Libraries/XMCLib/inc\xmc_i2s.h ****  * update, TCSR.WAMD(Automatic WA mode) will be enabled during the initialization using XMC_I2S_CH_
 376:G:/DT/dt_g1_balancing_plate_wise20192020/XMC/Libraries/XMCLib/inc\xmc_i2s.h ****  *
 377:G:/DT/dt_g1_balancing_plate_wise20192020/XMC/Libraries/XMCLib/inc\xmc_i2s.h ****  *
 378:G:/DT/dt_g1_balancing_plate_wise20192020/XMC/Libraries/XMCLib/inc\xmc_i2s.h ****  * \par<b>Related APIs:</b><BR>
 379:G:/DT/dt_g1_balancing_plate_wise20192020/XMC/Libraries/XMCLib/inc\xmc_i2s.h ****  * XMC_I2S_CH_Receive()
 380:G:/DT/dt_g1_balancing_plate_wise20192020/XMC/Libraries/XMCLib/inc\xmc_i2s.h ****  */
 381:G:/DT/dt_g1_balancing_plate_wise20192020/XMC/Libraries/XMCLib/inc\xmc_i2s.h **** void XMC_I2S_CH_Transmit(XMC_USIC_CH_t *const channel, const uint16_t data, const XMC_I2S_CH_CHANNE
 382:G:/DT/dt_g1_balancing_plate_wise20192020/XMC/Libraries/XMCLib/inc\xmc_i2s.h **** 
 383:G:/DT/dt_g1_balancing_plate_wise20192020/XMC/Libraries/XMCLib/inc\xmc_i2s.h **** /**
 384:G:/DT/dt_g1_balancing_plate_wise20192020/XMC/Libraries/XMCLib/inc\xmc_i2s.h ****  * @param channel A constant pointer to XMC_USIC_CH_t, pointing to the USIC channel base address.
 385:G:/DT/dt_g1_balancing_plate_wise20192020/XMC/Libraries/XMCLib/inc\xmc_i2s.h ****  * @param channel_number Communication output channel of the I2S, based on this mode TCI(Transmit c
 386:G:/DT/dt_g1_balancing_plate_wise20192020/XMC/Libraries/XMCLib/inc\xmc_i2s.h ****  *             Refer @ref XMC_I2S_CH_CHANNEL_t for valid values.
 387:G:/DT/dt_g1_balancing_plate_wise20192020/XMC/Libraries/XMCLib/inc\xmc_i2s.h ****  *
 388:G:/DT/dt_g1_balancing_plate_wise20192020/XMC/Libraries/XMCLib/inc\xmc_i2s.h ****  * @return None
 389:G:/DT/dt_g1_balancing_plate_wise20192020/XMC/Libraries/XMCLib/inc\xmc_i2s.h ****  *
 390:G:/DT/dt_g1_balancing_plate_wise20192020/XMC/Libraries/XMCLib/inc\xmc_i2s.h ****  * \par<b>Description:</b><br>
 391:G:/DT/dt_g1_balancing_plate_wise20192020/XMC/Libraries/XMCLib/inc\xmc_i2s.h ****  * Transmits a dummy data(FFFFH) to provide clock for slave and receives the data from the slave.\n
