   1              	 .syntax unified
   2              	 .cpu cortex-m4
   3              	 .eabi_attribute 27,3
   4              	 .fpu fpv4-sp-d16
   5              	 .eabi_attribute 20,1
   6              	 .eabi_attribute 21,1
   7              	 .eabi_attribute 23,3
   8              	 .eabi_attribute 24,1
   9              	 .eabi_attribute 25,1
  10              	 .eabi_attribute 26,1
  11              	 .eabi_attribute 30,4
  12              	 .eabi_attribute 34,1
  13              	 .eabi_attribute 18,4
  14              	 .thumb
  15              	 .file "xmc_vadc.c"
  16              	 .text
  17              	.Ltext0:
  18              	 .cfi_sections .debug_frame
  19              	 .section .text.XMC_VADC_GLOBAL_EnableModule,"ax",%progbits
  20              	 .align 1
  21              	 .global XMC_VADC_GLOBAL_EnableModule
  22              	 .thumb
  23              	 .thumb_func
  25              	XMC_VADC_GLOBAL_EnableModule:
  26              	.LFB255:
  27              	 .file 1 "../Libraries/XMCLib/src/xmc_vadc.c"
   1:../Libraries/XMCLib/src/xmc_vadc.c **** /**
   2:../Libraries/XMCLib/src/xmc_vadc.c ****  * @file xmc_vadc.c
   3:../Libraries/XMCLib/src/xmc_vadc.c ****  * @date 2019-05-07
   4:../Libraries/XMCLib/src/xmc_vadc.c ****  *
   5:../Libraries/XMCLib/src/xmc_vadc.c ****  * @cond
   6:../Libraries/XMCLib/src/xmc_vadc.c ****  **************************************************************************************************
   7:../Libraries/XMCLib/src/xmc_vadc.c ****  * XMClib v2.1.22 - XMC Peripheral Driver Library 
   8:../Libraries/XMCLib/src/xmc_vadc.c ****  *
   9:../Libraries/XMCLib/src/xmc_vadc.c ****  * Copyright (c) 2015-2019, Infineon Technologies AG
  10:../Libraries/XMCLib/src/xmc_vadc.c ****  * All rights reserved.                        
  11:../Libraries/XMCLib/src/xmc_vadc.c ****  *                                             
  12:../Libraries/XMCLib/src/xmc_vadc.c ****  * Redistribution and use in source and binary forms, with or without modification,are permitted pr
  13:../Libraries/XMCLib/src/xmc_vadc.c ****  * following conditions are met:   
  14:../Libraries/XMCLib/src/xmc_vadc.c ****  *                                                                              
  15:../Libraries/XMCLib/src/xmc_vadc.c ****  * Redistributions of source code must retain the above copyright notice, this list of conditions a
  16:../Libraries/XMCLib/src/xmc_vadc.c ****  * disclaimer.                        
  17:../Libraries/XMCLib/src/xmc_vadc.c ****  * 
  18:../Libraries/XMCLib/src/xmc_vadc.c ****  * Redistributions in binary form must reproduce the above copyright notice, this list of condition
  19:../Libraries/XMCLib/src/xmc_vadc.c ****  * disclaimer in the documentation and/or other materials provided with the distribution.          
  20:../Libraries/XMCLib/src/xmc_vadc.c ****  * 
  21:../Libraries/XMCLib/src/xmc_vadc.c ****  * Neither the name of the copyright holders nor the names of its contributors may be used to endor
  22:../Libraries/XMCLib/src/xmc_vadc.c ****  * products derived from this software without specific prior written permission.                  
  23:../Libraries/XMCLib/src/xmc_vadc.c ****  *                                                                              
  24:../Libraries/XMCLib/src/xmc_vadc.c ****  * THIS SOFTWARE IS PROVIDED BY THE COPYRIGHT HOLDERS AND CONTRIBUTORS "AS IS" AND ANY EXPRESS OR I
  25:../Libraries/XMCLib/src/xmc_vadc.c ****  * INCLUDING, BUT NOT LIMITED TO, THE IMPLIED WARRANTIES OF MERCHANTABILITY AND FITNESS FOR A PARTI
  26:../Libraries/XMCLib/src/xmc_vadc.c ****  * DISCLAIMED. IN NO EVENT SHALL THE COPYRIGHT HOLDER OR CONTRIBUTORS BE LIABLE  FOR ANY DIRECT, IN
  27:../Libraries/XMCLib/src/xmc_vadc.c ****  * SPECIAL, EXEMPLARY, OR CONSEQUENTIAL DAMAGES (INCLUDING, BUT NOT LIMITED TO, PROCUREMENT OF SUBS
  28:../Libraries/XMCLib/src/xmc_vadc.c ****  * SERVICES; LOSS OF USE, DATA, OR PROFITS; OR BUSINESS INTERRUPTION) HOWEVER CAUSED AND ON ANY THE
  29:../Libraries/XMCLib/src/xmc_vadc.c ****  * WHETHER IN CONTRACT, STRICT LIABILITY,OR TORT (INCLUDING NEGLIGENCE OR OTHERWISE) ARISING IN ANY
  30:../Libraries/XMCLib/src/xmc_vadc.c ****  * OF THIS SOFTWARE, EVEN IF ADVISED OF THE POSSIBILITY OF SUCH DAMAGE.                            
  31:../Libraries/XMCLib/src/xmc_vadc.c ****  *                                                                              
  32:../Libraries/XMCLib/src/xmc_vadc.c ****  * To improve the quality of the software, users are encouraged to share modifications, enhancement
  33:../Libraries/XMCLib/src/xmc_vadc.c ****  * Infineon Technologies AG dave@infineon.com).                                                    
  34:../Libraries/XMCLib/src/xmc_vadc.c ****  **************************************************************************************************
  35:../Libraries/XMCLib/src/xmc_vadc.c ****  *
  36:../Libraries/XMCLib/src/xmc_vadc.c ****  * Change History
  37:../Libraries/XMCLib/src/xmc_vadc.c ****  * --------------
  38:../Libraries/XMCLib/src/xmc_vadc.c ****  *
  39:../Libraries/XMCLib/src/xmc_vadc.c ****  * 2015-02-15:
  40:../Libraries/XMCLib/src/xmc_vadc.c ****  *     - Initial <br>
  41:../Libraries/XMCLib/src/xmc_vadc.c ****  *      
  42:../Libraries/XMCLib/src/xmc_vadc.c ****  * 2015-02-20:
  43:../Libraries/XMCLib/src/xmc_vadc.c ****  *     - Revised for XMC1201 device.<br>
  44:../Libraries/XMCLib/src/xmc_vadc.c ****  *   
  45:../Libraries/XMCLib/src/xmc_vadc.c ****  * 2015-04-27:
  46:../Libraries/XMCLib/src/xmc_vadc.c ****  *     - Added new APIs for SHS.<br>
  47:../Libraries/XMCLib/src/xmc_vadc.c ****  *     - Added New APIs for trigger edge selection.<BR>
  48:../Libraries/XMCLib/src/xmc_vadc.c ****  *     - Added new APIs for Queue flush entries, boundary selection, Boundary node pointer.<BR>
  49:../Libraries/XMCLib/src/xmc_vadc.c ****  *     - Revised GatingMode APIs and EMUX Control Init API.<BR>
  50:../Libraries/XMCLib/src/xmc_vadc.c ****  *
  51:../Libraries/XMCLib/src/xmc_vadc.c ****  * 2015-06-20:
  52:../Libraries/XMCLib/src/xmc_vadc.c ****  *     - Removed version macros and declaration of GetDriverVersion API
  53:../Libraries/XMCLib/src/xmc_vadc.c ****  *
  54:../Libraries/XMCLib/src/xmc_vadc.c ****  * 2015-06-25:
  55:../Libraries/XMCLib/src/xmc_vadc.c ****  *     - BFL configuration in channel initialization fixed.
  56:../Libraries/XMCLib/src/xmc_vadc.c ****  *
  57:../Libraries/XMCLib/src/xmc_vadc.c ****  * 2015-07-28:
  58:../Libraries/XMCLib/src/xmc_vadc.c ****  *     - CLOCK_GATING_SUPPORTED and PERIPHERAL_RESET_SUPPORTED macros used
  59:../Libraries/XMCLib/src/xmc_vadc.c ****  *     - Clubbed the macro definitions for XMC13 XMC12 and XMC14
  60:../Libraries/XMCLib/src/xmc_vadc.c ****  *     - Clubbed the macro definitions for XMC44 XMC47 and XMC48
  61:../Libraries/XMCLib/src/xmc_vadc.c ****  *     - New APIs Created.
  62:../Libraries/XMCLib/src/xmc_vadc.c ****  *           - XMC_VADC_GLOBAL_SetIndividualBoundary
  63:../Libraries/XMCLib/src/xmc_vadc.c ****  *           - XMC_VADC_GROUP_SetIndividualBoundary
  64:../Libraries/XMCLib/src/xmc_vadc.c ****  *           - XMC_VADC_GROUP_GetAlias
  65:../Libraries/XMCLib/src/xmc_vadc.c ****  *           - XMC_VADC_GROUP_GetInputClass
  66:../Libraries/XMCLib/src/xmc_vadc.c ****  *           - XMC_VADC_GROUP_ChannelSetIclass
  67:../Libraries/XMCLib/src/xmc_vadc.c ****  *           - XMC_VADC_GROUP_ChannelGetResultAlignment
  68:../Libraries/XMCLib/src/xmc_vadc.c ****  *           - XMC_VADC_GROUP_ChannelGetInputClass
  69:../Libraries/XMCLib/src/xmc_vadc.c ****  *           - XMC_VADC_GROUP_SetResultSubtractionValue
  70:../Libraries/XMCLib/src/xmc_vadc.c ****  *
  71:../Libraries/XMCLib/src/xmc_vadc.c ****  * 2015-12-01:
  72:../Libraries/XMCLib/src/xmc_vadc.c ****  *     - Fixed the analog calibration voltage for XMC1100 to external reference upper supply range.
  73:../Libraries/XMCLib/src/xmc_vadc.c ****  *     - Fixed the XMC_VADC_GLOBAL_StartupCalibration() for XMC1100.
  74:../Libraries/XMCLib/src/xmc_vadc.c ****  *
  75:../Libraries/XMCLib/src/xmc_vadc.c ****  * 2016-06-17:
  76:../Libraries/XMCLib/src/xmc_vadc.c ****  *     - New macros added XMC_VADC_SHS_FULL_SET_REG, XMC_VADC_RESULT_PRIORITY_AVAILABLE 
  77:../Libraries/XMCLib/src/xmc_vadc.c ****  *       and XMC_VADC_SYNCTR_START_LOCATION
  78:../Libraries/XMCLib/src/xmc_vadc.c ****  *     - New Enum added XMC_VADC_SHS_GAIN_LEVEL_t and XMC_VADC_SYNCTR_EVAL_t
  79:../Libraries/XMCLib/src/xmc_vadc.c ****  *     - Fixed the EVAL configuration in API XMC_VADC_GROUP_CheckSlaveReadiness and XMC_VADC_GROUP_
  80:../Libraries/XMCLib/src/xmc_vadc.c ****  *     - New APIs added are:
  81:../Libraries/XMCLib/src/xmc_vadc.c ****  *           - XMC_VADC_GROUP_SetSyncSlaveReadySignal
  82:../Libraries/XMCLib/src/xmc_vadc.c ****  *           - XMC_VADC_GROUP_ChannelGetAssertedEvents
  83:../Libraries/XMCLib/src/xmc_vadc.c ****  *           - XMC_VADC_GROUP_GetAssertedResultEvents
  84:../Libraries/XMCLib/src/xmc_vadc.c ****  *           - XMC_VADC_GROUP_SetResultRegPriority
  85:../Libraries/XMCLib/src/xmc_vadc.c ****  *           - XMC_VADC_GROUP_SetSyncReadySignal
  86:../Libraries/XMCLib/src/xmc_vadc.c ****  *           - XMC_VADC_GROUP_GetSyncReadySignal
  87:../Libraries/XMCLib/src/xmc_vadc.c ****  *           - XMC_VADC_GROUP_GetResultRegPriority
  88:../Libraries/XMCLib/src/xmc_vadc.c ****  *
  89:../Libraries/XMCLib/src/xmc_vadc.c ****  * 2017-01-11:
  90:../Libraries/XMCLib/src/xmc_vadc.c ****  *     - Fix assertion in XMC_VADC_GROUP_CheckSlaveReadiness() and XMC_VADC_GROUP_IgnoreSlaveReadin
  91:../Libraries/XMCLib/src/xmc_vadc.c ****  *
  92:../Libraries/XMCLib/src/xmc_vadc.c ****  * 2018-06-26:
  93:../Libraries/XMCLib/src/xmc_vadc.c ****  *     - Fixed XMC_VADC_GLOBAL_StartupCalibration(), added wait until calibration is started
  94:../Libraries/XMCLib/src/xmc_vadc.c ****  *
  95:../Libraries/XMCLib/src/xmc_vadc.c ****  * 2019-03-30:
  96:../Libraries/XMCLib/src/xmc_vadc.c ****  *     - Changed XMC_VADC_GROUP_SetChannelAlias() to inline function
  97:../Libraries/XMCLib/src/xmc_vadc.c ****  *
  98:../Libraries/XMCLib/src/xmc_vadc.c ****  * 2019-05-07:
  99:../Libraries/XMCLib/src/xmc_vadc.c ****  *     - Fix compilation warnings
 100:../Libraries/XMCLib/src/xmc_vadc.c ****  * 
 101:../Libraries/XMCLib/src/xmc_vadc.c ****  * @endcond 
 102:../Libraries/XMCLib/src/xmc_vadc.c ****  *
 103:../Libraries/XMCLib/src/xmc_vadc.c ****  */
 104:../Libraries/XMCLib/src/xmc_vadc.c **** 
 105:../Libraries/XMCLib/src/xmc_vadc.c **** /**************************************************************************************************
 106:../Libraries/XMCLib/src/xmc_vadc.c ****  * HEADER FILES
 107:../Libraries/XMCLib/src/xmc_vadc.c ****  **************************************************************************************************
 108:../Libraries/XMCLib/src/xmc_vadc.c **** #include <xmc_vadc.h>
 109:../Libraries/XMCLib/src/xmc_vadc.c **** 
 110:../Libraries/XMCLib/src/xmc_vadc.c **** /**************************************************************************************************
 111:../Libraries/XMCLib/src/xmc_vadc.c ****  * MACROS
 112:../Libraries/XMCLib/src/xmc_vadc.c ****  **************************************************************************************************
 113:../Libraries/XMCLib/src/xmc_vadc.c **** #define XMC_VADC_MAX_ICLASS_SET          (2U)  /**< Defines the maximum number of conversion parame
 114:../Libraries/XMCLib/src/xmc_vadc.c **** #define XMC_VADC_NUM_EMUX_INTERFACES     (2U)  /**< Defines the maximum number of external multiple
 115:../Libraries/XMCLib/src/xmc_vadc.c **** 
 116:../Libraries/XMCLib/src/xmc_vadc.c **** #define XMC_VADC_RESULT_LEFT_ALIGN_10BIT (2U)  /**< Defines the 10 bit converted result register le
 117:../Libraries/XMCLib/src/xmc_vadc.c ****                                                     is used in the XMC_VADC_GLOBAL_SetCompareValue(
 118:../Libraries/XMCLib/src/xmc_vadc.c **** 
 119:../Libraries/XMCLib/src/xmc_vadc.c **** #define XMC_VADC_SYNCTR_START_LOCATION (3U)  /**< Defines the location in SYNCTR needed for calcula
 120:../Libraries/XMCLib/src/xmc_vadc.c **** /**************************************************************************************************
 121:../Libraries/XMCLib/src/xmc_vadc.c ****  * ENUMS
 122:../Libraries/XMCLib/src/xmc_vadc.c ****  **************************************************************************************************
 123:../Libraries/XMCLib/src/xmc_vadc.c **** 
 124:../Libraries/XMCLib/src/xmc_vadc.c **** /**************************************************************************************************
 125:../Libraries/XMCLib/src/xmc_vadc.c ****  * DATA STRUCTURES
 126:../Libraries/XMCLib/src/xmc_vadc.c ****  **************************************************************************************************
 127:../Libraries/XMCLib/src/xmc_vadc.c **** 
 128:../Libraries/XMCLib/src/xmc_vadc.c **** /**************************************************************************************************
 129:../Libraries/XMCLib/src/xmc_vadc.c ****  * GLOBAL DATA
 130:../Libraries/XMCLib/src/xmc_vadc.c ****  **************************************************************************************************
 131:../Libraries/XMCLib/src/xmc_vadc.c **** 
 132:../Libraries/XMCLib/src/xmc_vadc.c **** #if (XMC_VADC_GROUP_AVAILABLE == 1U)
 133:../Libraries/XMCLib/src/xmc_vadc.c **** 
 134:../Libraries/XMCLib/src/xmc_vadc.c **** #if (XMC_VADC_MAXIMUM_NUM_GROUPS == 4U) 
 135:../Libraries/XMCLib/src/xmc_vadc.c **** static VADC_G_TypeDef *const g_xmc_vadc_group_array[XMC_VADC_MAXIMUM_NUM_GROUPS] = {(VADC_G_TypeDef
 136:../Libraries/XMCLib/src/xmc_vadc.c ****                                                                                     (VADC_G_TypeDef
 137:../Libraries/XMCLib/src/xmc_vadc.c ****                                                                                     (VADC_G_TypeDef
 138:../Libraries/XMCLib/src/xmc_vadc.c ****                                                                                     (VADC_G_TypeDef
 139:../Libraries/XMCLib/src/xmc_vadc.c **** #else
 140:../Libraries/XMCLib/src/xmc_vadc.c **** static VADC_G_TypeDef *const g_xmc_vadc_group_array[XMC_VADC_MAXIMUM_NUM_GROUPS] = {(VADC_G_TypeDef
 141:../Libraries/XMCLib/src/xmc_vadc.c ****                                                                                     (VADC_G_TypeDef
 142:../Libraries/XMCLib/src/xmc_vadc.c **** #endif
 143:../Libraries/XMCLib/src/xmc_vadc.c **** 
 144:../Libraries/XMCLib/src/xmc_vadc.c **** #endif 
 145:../Libraries/XMCLib/src/xmc_vadc.c **** 
 146:../Libraries/XMCLib/src/xmc_vadc.c **** /**************************************************************************************************
 147:../Libraries/XMCLib/src/xmc_vadc.c ****  * LOCAL ROUTINES
 148:../Libraries/XMCLib/src/xmc_vadc.c ****  **************************************************************************************************
 149:../Libraries/XMCLib/src/xmc_vadc.c **** 
 150:../Libraries/XMCLib/src/xmc_vadc.c **** /**************************************************************************************************
 151:../Libraries/XMCLib/src/xmc_vadc.c ****  * API IMPLEMENTATION
 152:../Libraries/XMCLib/src/xmc_vadc.c ****  **************************************************************************************************
 153:../Libraries/XMCLib/src/xmc_vadc.c **** 
 154:../Libraries/XMCLib/src/xmc_vadc.c **** /*API to enable the VADC Module*/
 155:../Libraries/XMCLib/src/xmc_vadc.c **** void XMC_VADC_GLOBAL_EnableModule(void)
 156:../Libraries/XMCLib/src/xmc_vadc.c **** {
  28              	 .loc 1 156 0
  29              	 .cfi_startproc
  30              	 
  31              	 
  32              	 
 157:../Libraries/XMCLib/src/xmc_vadc.c ****   /*
 158:../Libraries/XMCLib/src/xmc_vadc.c ****    * Enable Out of Range Comparator for ADC channels pins P2.2to P2.9. This hack is applicable only
 159:../Libraries/XMCLib/src/xmc_vadc.c ****    * and in particular the G11 step.
 160:../Libraries/XMCLib/src/xmc_vadc.c ****    *
 161:../Libraries/XMCLib/src/xmc_vadc.c ****    * Please refer to the XMC1000 Errata sheet V1.4 released 2014-06 Errata ID : ADC_AI.003 Additona
 162:../Libraries/XMCLib/src/xmc_vadc.c ****    * function
 163:../Libraries/XMCLib/src/xmc_vadc.c ****    */
 164:../Libraries/XMCLib/src/xmc_vadc.c **** 
 165:../Libraries/XMCLib/src/xmc_vadc.c **** #if defined (COMPARATOR)
 166:../Libraries/XMCLib/src/xmc_vadc.c ****   COMPARATOR->ORCCTRL = (uint32_t)0xFF;
 167:../Libraries/XMCLib/src/xmc_vadc.c **** #endif
 168:../Libraries/XMCLib/src/xmc_vadc.c **** 
 169:../Libraries/XMCLib/src/xmc_vadc.c **** #if defined(CLOCK_GATING_SUPPORTED)
 170:../Libraries/XMCLib/src/xmc_vadc.c ****     XMC_SCU_CLOCK_UngatePeripheralClock(XMC_SCU_PERIPHERAL_CLOCK_VADC);
 171:../Libraries/XMCLib/src/xmc_vadc.c **** #endif
 172:../Libraries/XMCLib/src/xmc_vadc.c **** 
 173:../Libraries/XMCLib/src/xmc_vadc.c **** #if defined(PERIPHERAL_RESET_SUPPORTED)
 174:../Libraries/XMCLib/src/xmc_vadc.c ****   /* Reset the Hardware */
 175:../Libraries/XMCLib/src/xmc_vadc.c ****   XMC_SCU_RESET_DeassertPeripheralReset((XMC_SCU_PERIPHERAL_RESET_t)XMC_SCU_PERIPHERAL_RESET_VADC )
  33              	 .loc 1 175 0
  34 0000 0120     	 movs r0,#1
  35 0002 FFF7FEBF 	 b XMC_SCU_RESET_DeassertPeripheralReset
  36              	.LVL0:
  37              	 .cfi_endproc
  38              	.LFE255:
  40              	 .section .text.XMC_VADC_GLOBAL_DisableModule,"ax",%progbits
  41              	 .align 1
  42              	 .global XMC_VADC_GLOBAL_DisableModule
  43              	 .thumb
  44              	 .thumb_func
  46              	XMC_VADC_GLOBAL_DisableModule:
  47              	.LFB256:
 176:../Libraries/XMCLib/src/xmc_vadc.c **** #endif
 177:../Libraries/XMCLib/src/xmc_vadc.c **** }
 178:../Libraries/XMCLib/src/xmc_vadc.c **** 
 179:../Libraries/XMCLib/src/xmc_vadc.c **** /*API to Disable the VADC Module*/
 180:../Libraries/XMCLib/src/xmc_vadc.c **** void XMC_VADC_GLOBAL_DisableModule(void)
 181:../Libraries/XMCLib/src/xmc_vadc.c **** {
  48              	 .loc 1 181 0
  49              	 .cfi_startproc
  50              	 
  51              	 
  52              	 
 182:../Libraries/XMCLib/src/xmc_vadc.c **** #if defined(PERIPHERAL_RESET_SUPPORTED)
 183:../Libraries/XMCLib/src/xmc_vadc.c ****   /* Reset the Hardware */
 184:../Libraries/XMCLib/src/xmc_vadc.c ****   XMC_SCU_RESET_AssertPeripheralReset((XMC_SCU_PERIPHERAL_RESET_t)XMC_SCU_PERIPHERAL_RESET_VADC );
  53              	 .loc 1 184 0
  54 0000 0120     	 movs r0,#1
  55 0002 FFF7FEBF 	 b XMC_SCU_RESET_AssertPeripheralReset
  56              	.LVL1:
  57              	 .cfi_endproc
  58              	.LFE256:
  60              	 .section .text.XMC_VADC_GLOBAL_Init,"ax",%progbits
  61              	 .align 1
  62              	 .global XMC_VADC_GLOBAL_Init
  63              	 .thumb
  64              	 .thumb_func
  66              	XMC_VADC_GLOBAL_Init:
  67              	.LFB257:
 185:../Libraries/XMCLib/src/xmc_vadc.c **** #endif
 186:../Libraries/XMCLib/src/xmc_vadc.c **** 
 187:../Libraries/XMCLib/src/xmc_vadc.c **** #if defined(CLOCK_GATING_SUPPORTED)
 188:../Libraries/XMCLib/src/xmc_vadc.c ****   XMC_SCU_CLOCK_GatePeripheralClock(XMC_SCU_PERIPHERAL_CLOCK_VADC);
 189:../Libraries/XMCLib/src/xmc_vadc.c **** #endif
 190:../Libraries/XMCLib/src/xmc_vadc.c **** 
 191:../Libraries/XMCLib/src/xmc_vadc.c **** }
 192:../Libraries/XMCLib/src/xmc_vadc.c **** 
 193:../Libraries/XMCLib/src/xmc_vadc.c **** 
 194:../Libraries/XMCLib/src/xmc_vadc.c **** /* API to initialize global resources */
 195:../Libraries/XMCLib/src/xmc_vadc.c **** void XMC_VADC_GLOBAL_Init(XMC_VADC_GLOBAL_t *const global_ptr, const XMC_VADC_GLOBAL_CONFIG_t *conf
 196:../Libraries/XMCLib/src/xmc_vadc.c **** {
  68              	 .loc 1 196 0
  69              	 .cfi_startproc
  70              	 
  71              	 
  72              	.LVL2:
  73 0000 38B5     	 push {r3,r4,r5,lr}
  74              	.LCFI0:
  75              	 .cfi_def_cfa_offset 16
  76              	 .cfi_offset 3,-16
  77              	 .cfi_offset 4,-12
  78              	 .cfi_offset 5,-8
  79              	 .cfi_offset 14,-4
  80              	 .loc 1 196 0
  81 0002 0D46     	 mov r5,r1
  82 0004 0446     	 mov r4,r0
 197:../Libraries/XMCLib/src/xmc_vadc.c **** #if (XMC_VADC_GROUP_AVAILABLE == 0U)
 198:../Libraries/XMCLib/src/xmc_vadc.c ****   uint32_t reg;
 199:../Libraries/XMCLib/src/xmc_vadc.c **** #endif
 200:../Libraries/XMCLib/src/xmc_vadc.c ****   XMC_ASSERT("XMC_VADC_GLOBAL_Init:Wrong Module Pointer", (global_ptr == VADC))
 201:../Libraries/XMCLib/src/xmc_vadc.c **** 
 202:../Libraries/XMCLib/src/xmc_vadc.c ****   /* Enable the VADC module*/
 203:../Libraries/XMCLib/src/xmc_vadc.c ****   XMC_VADC_GLOBAL_EnableModule();
  83              	 .loc 1 203 0
  84 0006 FFF7FEFF 	 bl XMC_VADC_GLOBAL_EnableModule
  85              	.LVL3:
 204:../Libraries/XMCLib/src/xmc_vadc.c **** 
 205:../Libraries/XMCLib/src/xmc_vadc.c ****   global_ptr->CLC = (uint32_t)(config->clc);
  86              	 .loc 1 205 0
  87 000a 6B69     	 ldr r3,[r5,#20]
  88 000c 2360     	 str r3,[r4]
 206:../Libraries/XMCLib/src/xmc_vadc.c **** 
 207:../Libraries/XMCLib/src/xmc_vadc.c ****   /* Clock configuration */
 208:../Libraries/XMCLib/src/xmc_vadc.c **** 
 209:../Libraries/XMCLib/src/xmc_vadc.c **** #if (XMC_VADC_GROUP_AVAILABLE == 1U)
 210:../Libraries/XMCLib/src/xmc_vadc.c ****   global_ptr->GLOBCFG  = (uint32_t)(config->clock_config.globcfg | (uint32_t)(VADC_GLOBCFG_DIVWC_Ms
  89              	 .loc 1 210 0
  90 000e 6B68     	 ldr r3,[r5,#4]
  91 0010 43F40043 	 orr r3,r3,#32768
  92 0014 C4F88030 	 str r3,[r4,#128]
 211:../Libraries/XMCLib/src/xmc_vadc.c **** #endif
 212:../Libraries/XMCLib/src/xmc_vadc.c **** 
 213:../Libraries/XMCLib/src/xmc_vadc.c ****   /* ICLASS-0 configuration */
 214:../Libraries/XMCLib/src/xmc_vadc.c ****   global_ptr->GLOBICLASS[0] = (uint32_t)(config->class0.globiclass);
  93              	 .loc 1 214 0
  94 0018 AB68     	 ldr r3,[r5,#8]
  95 001a C4F8A030 	 str r3,[r4,#160]
 215:../Libraries/XMCLib/src/xmc_vadc.c **** 
 216:../Libraries/XMCLib/src/xmc_vadc.c ****   /* ICLASS-1 configuration */
 217:../Libraries/XMCLib/src/xmc_vadc.c ****   global_ptr->GLOBICLASS[1] = (uint32_t)(config->class1.globiclass);
  96              	 .loc 1 217 0
  97 001e EB68     	 ldr r3,[r5,#12]
  98 0020 C4F8A430 	 str r3,[r4,#164]
 218:../Libraries/XMCLib/src/xmc_vadc.c **** 
 219:../Libraries/XMCLib/src/xmc_vadc.c **** 
 220:../Libraries/XMCLib/src/xmc_vadc.c ****   /*Result generation related configuration */
 221:../Libraries/XMCLib/src/xmc_vadc.c ****   global_ptr->GLOBRCR = (uint32_t)(config->globrcr);
  99              	 .loc 1 221 0
 100 0024 2B69     	 ldr r3,[r5,#16]
 101 0026 C4F88032 	 str r3,[r4,#640]
 222:../Libraries/XMCLib/src/xmc_vadc.c **** 
 223:../Libraries/XMCLib/src/xmc_vadc.c **** #if (XMC_VADC_BOUNDARY_AVAILABLE == 1U)
 224:../Libraries/XMCLib/src/xmc_vadc.c **** 
 225:../Libraries/XMCLib/src/xmc_vadc.c ****   /* Boundaries */
 226:../Libraries/XMCLib/src/xmc_vadc.c ****   global_ptr->GLOBBOUND = (uint32_t)(config->globbound);
 102              	 .loc 1 226 0
 103 002a 2B68     	 ldr r3,[r5]
 104 002c C4F8B830 	 str r3,[r4,#184]
 105 0030 38BD     	 pop {r3,r4,r5,pc}
 106              	 .cfi_endproc
 107              	.LFE257:
 109              	 .section .text.XMC_VADC_GLOBAL_InputClassInit,"ax",%progbits
 110              	 .align 1
 111              	 .global XMC_VADC_GLOBAL_InputClassInit
 112              	 .thumb
 113              	 .thumb_func
 115              	XMC_VADC_GLOBAL_InputClassInit:
 116              	.LFB258:
 227:../Libraries/XMCLib/src/xmc_vadc.c **** 
 228:../Libraries/XMCLib/src/xmc_vadc.c **** #endif
 229:../Libraries/XMCLib/src/xmc_vadc.c **** 
 230:../Libraries/XMCLib/src/xmc_vadc.c ****   /* Configure the SHS register that are needed for XMC11xx devices*/
 231:../Libraries/XMCLib/src/xmc_vadc.c **** #if (XMC_VADC_GROUP_AVAILABLE == 0U)
 232:../Libraries/XMCLib/src/xmc_vadc.c **** 
 233:../Libraries/XMCLib/src/xmc_vadc.c ****   /* Enabling the Analog part of the converter*/
 234:../Libraries/XMCLib/src/xmc_vadc.c ****   reg = SHS0->SHSCFG  | SHS_SHSCFG_SCWC_Msk;
 235:../Libraries/XMCLib/src/xmc_vadc.c ****   reg &= ~(SHS_SHSCFG_ANOFF_Msk);
 236:../Libraries/XMCLib/src/xmc_vadc.c ****   SHS0->SHSCFG = reg;
 237:../Libraries/XMCLib/src/xmc_vadc.c **** 
 238:../Libraries/XMCLib/src/xmc_vadc.c ****   /* From the Errata sheet of XMC1100 V1.7*/
 239:../Libraries/XMCLib/src/xmc_vadc.c ****   XMC_VADC_CONV_ENABLE_FOR_XMC11 = 1U;
 240:../Libraries/XMCLib/src/xmc_vadc.c **** #endif
 241:../Libraries/XMCLib/src/xmc_vadc.c **** 
 242:../Libraries/XMCLib/src/xmc_vadc.c **** }
 243:../Libraries/XMCLib/src/xmc_vadc.c **** 
 244:../Libraries/XMCLib/src/xmc_vadc.c **** /* API to Set the Global IClass registers*/
 245:../Libraries/XMCLib/src/xmc_vadc.c **** void XMC_VADC_GLOBAL_InputClassInit(XMC_VADC_GLOBAL_t *const global_ptr, const XMC_VADC_GLOBAL_CLAS
 246:../Libraries/XMCLib/src/xmc_vadc.c ****                                           const XMC_VADC_GROUP_CONV_t conv_type, const uint32_t set
 247:../Libraries/XMCLib/src/xmc_vadc.c **** {
 117              	 .loc 1 247 0
 118              	 .cfi_startproc
 119              	 
 120              	 
 121              	 
 122              	.LVL4:
 123 0000 2833     	 adds r3,r3,#40
 124              	.LVL5:
 248:../Libraries/XMCLib/src/xmc_vadc.c **** 
 249:../Libraries/XMCLib/src/xmc_vadc.c ****   XMC_ASSERT("XMC_VADC_GLOBAL_InputClassInit:Wrong Module Pointer", (global_ptr == VADC))
 250:../Libraries/XMCLib/src/xmc_vadc.c ****   XMC_ASSERT("XMC_VADC_GLOBAL_InputClassInit:Wrong Conversion Type", ((conv_type) <= XMC_VADC_GROUP
 251:../Libraries/XMCLib/src/xmc_vadc.c ****   XMC_ASSERT("XMC_VADC_GLOBAL_InputClassInit:Wrong ICLASS set number", (set_num < XMC_VADC_MAX_ICLA
 252:../Libraries/XMCLib/src/xmc_vadc.c **** 
 253:../Libraries/XMCLib/src/xmc_vadc.c **** #if(XMC_VADC_EMUX_AVAILABLE == 1U)
 254:../Libraries/XMCLib/src/xmc_vadc.c ****   if (conv_type == XMC_VADC_GROUP_CONV_STD )
 125              	 .loc 1 254 0
 126 0002 12B9     	 cbnz r2,.L5
 255:../Libraries/XMCLib/src/xmc_vadc.c ****   {
 256:../Libraries/XMCLib/src/xmc_vadc.c **** #endif
 257:../Libraries/XMCLib/src/xmc_vadc.c **** 	XMC_UNUSED_ARG(conv_type);
 258:../Libraries/XMCLib/src/xmc_vadc.c ****     global_ptr->GLOBICLASS[set_num] = config.globiclass &
 127              	 .loc 1 258 0
 128 0004 40F21F72 	 movw r2,#1823
 129              	.LVL6:
 130 0008 00E0     	 b .L7
 131              	.LVL7:
 132              	.L5:
 259:../Libraries/XMCLib/src/xmc_vadc.c ****                                       (uint32_t)(VADC_GLOBICLASS_CMS_Msk | VADC_GLOBICLASS_STCS_Msk
 260:../Libraries/XMCLib/src/xmc_vadc.c **** #if(XMC_VADC_EMUX_AVAILABLE == 1U)
 261:../Libraries/XMCLib/src/xmc_vadc.c ****   }
 262:../Libraries/XMCLib/src/xmc_vadc.c ****   else
 263:../Libraries/XMCLib/src/xmc_vadc.c ****   {
 264:../Libraries/XMCLib/src/xmc_vadc.c ****     global_ptr->GLOBICLASS[set_num] = config.globiclass & (uint32_t)(VADC_GLOBICLASS_CME_Msk | VADC
 133              	 .loc 1 264 0
 134 000a 024A     	 ldr r2,.L9
 135              	.LVL8:
 136              	.L7:
 137 000c 0A40     	 ands r2,r2,r1
 138 000e 40F82320 	 str r2,[r0,r3,lsl#2]
 139 0012 7047     	 bx lr
 140              	.L10:
 141              	 .align 2
 142              	.L9:
 143 0014 00001F07 	 .word 119472128
 144              	 .cfi_endproc
 145              	.LFE258:
 147              	 .section .text.XMC_VADC_GLOBAL_StartupCalibration,"ax",%progbits
 148              	 .align 1
 149              	 .global XMC_VADC_GLOBAL_StartupCalibration
 150              	 .thumb
 151              	 .thumb_func
 153              	XMC_VADC_GLOBAL_StartupCalibration:
 154              	.LFB259:
 265:../Libraries/XMCLib/src/xmc_vadc.c ****   }
 266:../Libraries/XMCLib/src/xmc_vadc.c **** #endif
 267:../Libraries/XMCLib/src/xmc_vadc.c **** }
 268:../Libraries/XMCLib/src/xmc_vadc.c **** 
 269:../Libraries/XMCLib/src/xmc_vadc.c **** /* API to enable startup calibration feature */
 270:../Libraries/XMCLib/src/xmc_vadc.c **** void XMC_VADC_GLOBAL_StartupCalibration(XMC_VADC_GLOBAL_t *const global_ptr)
 271:../Libraries/XMCLib/src/xmc_vadc.c **** {
 155              	 .loc 1 271 0
 156              	 .cfi_startproc
 157              	 
 158              	 
 159              	 
 160              	.LVL9:
 272:../Libraries/XMCLib/src/xmc_vadc.c **** #if (XMC_VADC_GROUP_AVAILABLE == 1U)
 273:../Libraries/XMCLib/src/xmc_vadc.c ****   uint8_t i;
 274:../Libraries/XMCLib/src/xmc_vadc.c ****   VADC_G_TypeDef *group_ptr;
 275:../Libraries/XMCLib/src/xmc_vadc.c **** #endif
 276:../Libraries/XMCLib/src/xmc_vadc.c ****   
 277:../Libraries/XMCLib/src/xmc_vadc.c ****   XMC_ASSERT("XMC_VADC_GLOBAL_StartupCalibration:Wrong Module Pointer", (global_ptr == VADC))
 278:../Libraries/XMCLib/src/xmc_vadc.c **** 
 279:../Libraries/XMCLib/src/xmc_vadc.c ****   global_ptr->GLOBCFG |= (uint32_t)VADC_GLOBCFG_SUCAL_Msk;
 161              	 .loc 1 279 0
 162 0000 D0F88030 	 ldr r3,[r0,#128]
 163 0004 43F00043 	 orr r3,r3,#-2147483648
 164 0008 C0F88030 	 str r3,[r0,#128]
 165              	.LVL10:
 166 000c 0023     	 movs r3,#0
 167              	.LVL11:
 168              	.L15:
 280:../Libraries/XMCLib/src/xmc_vadc.c **** 
 281:../Libraries/XMCLib/src/xmc_vadc.c **** #if (XMC_VADC_GROUP_AVAILABLE == 1U)
 282:../Libraries/XMCLib/src/xmc_vadc.c ****   /* Loop until all active groups finish calibration */
 283:../Libraries/XMCLib/src/xmc_vadc.c ****   for(i=0U; i<XMC_VADC_MAXIMUM_NUM_GROUPS; i++)
 284:../Libraries/XMCLib/src/xmc_vadc.c ****   {
 285:../Libraries/XMCLib/src/xmc_vadc.c ****     group_ptr = g_xmc_vadc_group_array[i];
 169              	 .loc 1 285 0
 170 000e 094A     	 ldr r2,.L18
 171 0010 52F82320 	 ldr r2,[r2,r3,lsl#2]
 172              	.LVL12:
 286:../Libraries/XMCLib/src/xmc_vadc.c ****     if ( (group_ptr->ARBCFG) & (uint32_t)VADC_G_ARBCFG_ANONS_Msk)
 173              	 .loc 1 286 0
 174 0014 D2F88010 	 ldr r1,[r2,#128]
 175 0018 11F4403F 	 tst r1,#196608
 176 001c 05D0     	 beq .L13
 177              	.L17:
 287:../Libraries/XMCLib/src/xmc_vadc.c ****     {
 288:../Libraries/XMCLib/src/xmc_vadc.c ****       /* This group is active. Loop until it finishes calibration */
 289:../Libraries/XMCLib/src/xmc_vadc.c ****       while((group_ptr->ARBCFG) & (uint32_t)VADC_G_ARBCFG_CAL_Msk)
 178              	 .loc 1 289 0
 179 001e D2F88010 	 ldr r1,[r2,#128]
 180 0022 C900     	 lsls r1,r1,#3
 181 0024 01D5     	 bpl .L13
 290:../Libraries/XMCLib/src/xmc_vadc.c ****       {
 291:../Libraries/XMCLib/src/xmc_vadc.c ****         __NOP();
 182              	 .loc 1 291 0
 183              	
 184 0026 00BF     	 nop
 185              	
 186              	 .thumb
 187 0028 F9E7     	 b .L17
 188              	.L13:
 189              	.LVL13:
 190 002a 0133     	 adds r3,r3,#1
 191              	.LVL14:
 283:../Libraries/XMCLib/src/xmc_vadc.c ****   {
 192              	 .loc 1 283 0 discriminator 2
 193 002c 042B     	 cmp r3,#4
 194 002e EED1     	 bne .L15
 292:../Libraries/XMCLib/src/xmc_vadc.c ****       }
 293:../Libraries/XMCLib/src/xmc_vadc.c ****     }
 294:../Libraries/XMCLib/src/xmc_vadc.c ****   }
 295:../Libraries/XMCLib/src/xmc_vadc.c **** #else
 296:../Libraries/XMCLib/src/xmc_vadc.c **** 
 297:../Libraries/XMCLib/src/xmc_vadc.c ****   /* Loop until calibration is started */
 298:../Libraries/XMCLib/src/xmc_vadc.c ****   while ((((SHS0->SHSCFG) & (uint32_t)SHS_SHSCFG_STATE_Msk) >> (uint32_t)SHS_SHSCFG_STATE_Pos) !=
 299:../Libraries/XMCLib/src/xmc_vadc.c **** 		  XMC_VADC_SHS_START_UP_CAL_ACTIVE  )
 300:../Libraries/XMCLib/src/xmc_vadc.c ****    {
 301:../Libraries/XMCLib/src/xmc_vadc.c ****      __NOP();
 302:../Libraries/XMCLib/src/xmc_vadc.c ****    }
 303:../Libraries/XMCLib/src/xmc_vadc.c ****   /* Loop until it finishes calibration */
 304:../Libraries/XMCLib/src/xmc_vadc.c ****   while ((((SHS0->SHSCFG) & (uint32_t)SHS_SHSCFG_STATE_Msk) >> (uint32_t)SHS_SHSCFG_STATE_Pos) ==
 305:../Libraries/XMCLib/src/xmc_vadc.c ****          XMC_VADC_SHS_START_UP_CAL_ACTIVE )
 306:../Libraries/XMCLib/src/xmc_vadc.c ****   {
 307:../Libraries/XMCLib/src/xmc_vadc.c ****     __NOP();
 308:../Libraries/XMCLib/src/xmc_vadc.c ****   }
 309:../Libraries/XMCLib/src/xmc_vadc.c **** #endif
 310:../Libraries/XMCLib/src/xmc_vadc.c **** }
 195              	 .loc 1 310 0
 196 0030 7047     	 bx lr
 197              	.L19:
 198 0032 00BF     	 .align 2
 199              	.L18:
 200 0034 00000000 	 .word .LANCHOR0
 201              	 .cfi_endproc
 202              	.LFE259:
 204              	 .section .text.XMC_VADC_GLOBAL_SetBoundaries,"ax",%progbits
 205              	 .align 1
 206              	 .global XMC_VADC_GLOBAL_SetBoundaries
 207              	 .thumb
 208              	 .thumb_func
 210              	XMC_VADC_GLOBAL_SetBoundaries:
 211              	.LFB260:
 311:../Libraries/XMCLib/src/xmc_vadc.c **** 
 312:../Libraries/XMCLib/src/xmc_vadc.c **** /* API to set boudaries for result of conversion. Should the boundaries be violated, interrupts are
 313:../Libraries/XMCLib/src/xmc_vadc.c **** #if (XMC_VADC_BOUNDARY_AVAILABLE == 1U)
 314:../Libraries/XMCLib/src/xmc_vadc.c **** void XMC_VADC_GLOBAL_SetBoundaries(XMC_VADC_GLOBAL_t *const global_ptr,
 315:../Libraries/XMCLib/src/xmc_vadc.c ****                                    const uint32_t boundary0,
 316:../Libraries/XMCLib/src/xmc_vadc.c ****                                    const uint32_t boundary1)
 317:../Libraries/XMCLib/src/xmc_vadc.c **** {
 212              	 .loc 1 317 0
 213              	 .cfi_startproc
 214              	 
 215              	 
 216              	 
 217              	.LVL15:
 318:../Libraries/XMCLib/src/xmc_vadc.c ****   uint32_t globbound;
 319:../Libraries/XMCLib/src/xmc_vadc.c **** 
 320:../Libraries/XMCLib/src/xmc_vadc.c ****   XMC_ASSERT("XMC_VADC_GLOBAL_SetBoundaries:Wrong Module Pointer", (global_ptr == VADC))
 321:../Libraries/XMCLib/src/xmc_vadc.c **** 
 322:../Libraries/XMCLib/src/xmc_vadc.c ****   globbound = 0U;
 323:../Libraries/XMCLib/src/xmc_vadc.c ****   globbound |= (uint32_t) (boundary0 << VADC_GLOBBOUND_BOUNDARY0_Pos);
 324:../Libraries/XMCLib/src/xmc_vadc.c ****   globbound |= (uint32_t) (boundary1 << VADC_GLOBBOUND_BOUNDARY1_Pos);
 218              	 .loc 1 324 0
 219 0000 41EA0242 	 orr r2,r1,r2,lsl#16
 220              	.LVL16:
 325:../Libraries/XMCLib/src/xmc_vadc.c **** 
 326:../Libraries/XMCLib/src/xmc_vadc.c ****   global_ptr->GLOBBOUND = globbound;
 221              	 .loc 1 326 0
 222 0004 C0F8B820 	 str r2,[r0,#184]
 223 0008 7047     	 bx lr
 224              	 .cfi_endproc
 225              	.LFE260:
 227              	 .section .text.XMC_VADC_GLOBAL_SetIndividualBoundary,"ax",%progbits
 228              	 .align 1
 229              	 .global XMC_VADC_GLOBAL_SetIndividualBoundary
 230              	 .thumb
 231              	 .thumb_func
 233              	XMC_VADC_GLOBAL_SetIndividualBoundary:
 234              	.LFB261:
 327:../Libraries/XMCLib/src/xmc_vadc.c **** }
 328:../Libraries/XMCLib/src/xmc_vadc.c **** 
 329:../Libraries/XMCLib/src/xmc_vadc.c **** /* API to set an individual boundary for conversion results */
 330:../Libraries/XMCLib/src/xmc_vadc.c **** void XMC_VADC_GLOBAL_SetIndividualBoundary(XMC_VADC_GLOBAL_t *const global_ptr,
 331:../Libraries/XMCLib/src/xmc_vadc.c ****                                            const XMC_VADC_CHANNEL_BOUNDARY_t selection,
 332:../Libraries/XMCLib/src/xmc_vadc.c ****                                            const uint16_t boundary_value)
 333:../Libraries/XMCLib/src/xmc_vadc.c **** {
 235              	 .loc 1 333 0
 236              	 .cfi_startproc
 237              	 
 238              	 
 239              	 
 240              	.LVL17:
 334:../Libraries/XMCLib/src/xmc_vadc.c **** 
 335:../Libraries/XMCLib/src/xmc_vadc.c ****   uint32_t globbound;
 336:../Libraries/XMCLib/src/xmc_vadc.c **** 
 337:../Libraries/XMCLib/src/xmc_vadc.c ****   XMC_ASSERT("XMC_VADC_GLOBAL_SetBoundaries:Wrong Module Pointer", (global_ptr == VADC))
 338:../Libraries/XMCLib/src/xmc_vadc.c ****   XMC_ASSERT("XMC_VADC_GLOBAL_SetBoundaries:Wrong Boundary Selection",
 339:../Libraries/XMCLib/src/xmc_vadc.c ****              ((XMC_VADC_CHANNEL_BOUNDARY_GLOBAL_BOUND0 == selection) ||
 340:../Libraries/XMCLib/src/xmc_vadc.c ****               (XMC_VADC_CHANNEL_BOUNDARY_GLOBAL_BOUND1 == selection)))
 341:../Libraries/XMCLib/src/xmc_vadc.c **** 
 342:../Libraries/XMCLib/src/xmc_vadc.c ****   /* Program the Boundary registers */
 343:../Libraries/XMCLib/src/xmc_vadc.c ****   globbound = global_ptr->GLOBBOUND;
 344:../Libraries/XMCLib/src/xmc_vadc.c **** 
 345:../Libraries/XMCLib/src/xmc_vadc.c ****   if (XMC_VADC_CHANNEL_BOUNDARY_GLOBAL_BOUND0 == selection)
 241              	 .loc 1 345 0
 242 0000 0229     	 cmp r1,#2
 343:../Libraries/XMCLib/src/xmc_vadc.c **** 
 243              	 .loc 1 343 0
 244 0002 D0F8B830 	 ldr r3,[r0,#184]
 245              	.LVL18:
 246              	 .loc 1 345 0
 247 0006 05D1     	 bne .L22
 346:../Libraries/XMCLib/src/xmc_vadc.c ****   {
 347:../Libraries/XMCLib/src/xmc_vadc.c ****     globbound &= ~((uint32_t) VADC_GLOBBOUND_BOUNDARY0_Msk);
 248              	 .loc 1 347 0
 249 0008 23F47F63 	 bic r3,r3,#4080
 250              	.LVL19:
 251 000c 23F00F03 	 bic r3,r3,#15
 252              	.LVL20:
 348:../Libraries/XMCLib/src/xmc_vadc.c ****     globbound |= (uint32_t) ((uint32_t) boundary_value << VADC_GLOBBOUND_BOUNDARY0_Pos);
 253              	 .loc 1 348 0
 254 0010 1343     	 orrs r3,r3,r2
 255              	.LVL21:
 256 0012 07E0     	 b .L23
 257              	.L22:
 349:../Libraries/XMCLib/src/xmc_vadc.c ****   }
 350:../Libraries/XMCLib/src/xmc_vadc.c ****   else if (XMC_VADC_CHANNEL_BOUNDARY_GLOBAL_BOUND1 == selection)
 258              	 .loc 1 350 0
 259 0014 0329     	 cmp r1,#3
 351:../Libraries/XMCLib/src/xmc_vadc.c ****   {
 352:../Libraries/XMCLib/src/xmc_vadc.c ****     globbound &= ~((uint32_t) VADC_GLOBBOUND_BOUNDARY1_Msk);
 260              	 .loc 1 352 0
 261 0016 02BF     	 ittt eq
 262 0018 23F07F63 	 biceq r3,r3,#267386880
 263              	.LVL22:
 264 001c 23F47023 	 biceq r3,r3,#983040
 265              	.LVL23:
 353:../Libraries/XMCLib/src/xmc_vadc.c ****     globbound |= (uint32_t) ((uint32_t) boundary_value << VADC_GLOBBOUND_BOUNDARY1_Pos);
 266              	 .loc 1 353 0
 267 0020 43EA0243 	 orreq r3,r3,r2,lsl#16
 268              	.LVL24:
 269              	.L23:
 354:../Libraries/XMCLib/src/xmc_vadc.c ****   }
 355:../Libraries/XMCLib/src/xmc_vadc.c ****   else
 356:../Libraries/XMCLib/src/xmc_vadc.c ****   {
 357:../Libraries/XMCLib/src/xmc_vadc.c ****     /* For MISRA*/
 358:../Libraries/XMCLib/src/xmc_vadc.c ****   }
 359:../Libraries/XMCLib/src/xmc_vadc.c ****   global_ptr->GLOBBOUND = globbound;
 270              	 .loc 1 359 0
 271 0024 C0F8B830 	 str r3,[r0,#184]
 272 0028 7047     	 bx lr
 273              	 .cfi_endproc
 274              	.LFE261:
 276              	 .section .text.XMC_VADC_GLOBAL_SetCompareValue,"ax",%progbits
 277              	 .align 1
 278              	 .global XMC_VADC_GLOBAL_SetCompareValue
 279              	 .thumb
 280              	 .thumb_func
 282              	XMC_VADC_GLOBAL_SetCompareValue:
 283              	.LFB262:
 360:../Libraries/XMCLib/src/xmc_vadc.c **** 
 361:../Libraries/XMCLib/src/xmc_vadc.c **** }
 362:../Libraries/XMCLib/src/xmc_vadc.c **** 
 363:../Libraries/XMCLib/src/xmc_vadc.c **** #endif
 364:../Libraries/XMCLib/src/xmc_vadc.c **** 
 365:../Libraries/XMCLib/src/xmc_vadc.c **** /* API to set compare value for the result register. Result of conversion is compared against this 
 366:../Libraries/XMCLib/src/xmc_vadc.c **** void XMC_VADC_GLOBAL_SetCompareValue(XMC_VADC_GLOBAL_t *const global_ptr, const XMC_VADC_RESULT_SIZ
 367:../Libraries/XMCLib/src/xmc_vadc.c **** {
 284              	 .loc 1 367 0
 285              	 .cfi_startproc
 286              	 
 287              	 
 288              	 
 289              	.LVL25:
 368:../Libraries/XMCLib/src/xmc_vadc.c ****   XMC_ASSERT("XMC_VADC_GLOBAL_SetCompareValue:Wrong Module Pointer", (global_ptr == VADC))
 369:../Libraries/XMCLib/src/xmc_vadc.c **** 
 370:../Libraries/XMCLib/src/xmc_vadc.c ****   global_ptr->GLOBRES &= ~((uint32_t)VADC_GLOBRES_RESULT_Msk);
 290              	 .loc 1 370 0
 291 0000 D0F80033 	 ldr r3,[r0,#768]
 292 0004 1B0C     	 lsrs r3,r3,#16
 293 0006 1B04     	 lsls r3,r3,#16
 294 0008 C0F80033 	 str r3,[r0,#768]
 371:../Libraries/XMCLib/src/xmc_vadc.c ****   global_ptr->GLOBRES |= (uint32_t)((uint32_t)compare_val << XMC_VADC_RESULT_LEFT_ALIGN_10BIT);
 295              	 .loc 1 371 0
 296 000c D0F80033 	 ldr r3,[r0,#768]
 297 0010 43EA8101 	 orr r1,r3,r1,lsl#2
 298              	.LVL26:
 299 0014 C0F80013 	 str r1,[r0,#768]
 300 0018 7047     	 bx lr
 301              	 .cfi_endproc
 302              	.LFE262:
 304              	 .section .text.XMC_VADC_GLOBAL_GetCompareResult,"ax",%progbits
 305              	 .align 1
 306              	 .global XMC_VADC_GLOBAL_GetCompareResult
 307              	 .thumb
 308              	 .thumb_func
 310              	XMC_VADC_GLOBAL_GetCompareResult:
 311              	.LFB263:
 372:../Libraries/XMCLib/src/xmc_vadc.c **** }
 373:../Libraries/XMCLib/src/xmc_vadc.c **** 
 374:../Libraries/XMCLib/src/xmc_vadc.c **** /* API to retrieve the result of comparison */
 375:../Libraries/XMCLib/src/xmc_vadc.c **** XMC_VADC_FAST_COMPARE_t XMC_VADC_GLOBAL_GetCompareResult(XMC_VADC_GLOBAL_t *const global_ptr)
 376:../Libraries/XMCLib/src/xmc_vadc.c **** {
 312              	 .loc 1 376 0
 313              	 .cfi_startproc
 314              	 
 315              	 
 316              	 
 317              	.LVL27:
 377:../Libraries/XMCLib/src/xmc_vadc.c ****   XMC_VADC_FAST_COMPARE_t result;
 378:../Libraries/XMCLib/src/xmc_vadc.c ****   uint32_t res;
 379:../Libraries/XMCLib/src/xmc_vadc.c **** 
 380:../Libraries/XMCLib/src/xmc_vadc.c ****   XMC_ASSERT("XMC_VADC_GLOBAL_GetCompareResult:Wrong Module Pointer", (global_ptr == VADC))
 381:../Libraries/XMCLib/src/xmc_vadc.c **** 
 382:../Libraries/XMCLib/src/xmc_vadc.c ****   res = global_ptr->GLOBRES;
 318              	 .loc 1 382 0
 319 0000 D0F80003 	 ldr r0,[r0,#768]
 320              	.LVL28:
 383:../Libraries/XMCLib/src/xmc_vadc.c **** 
 384:../Libraries/XMCLib/src/xmc_vadc.c ****   if (res & (uint32_t)VADC_GLOBRES_VF_Msk)
 321              	 .loc 1 384 0
 322 0004 0028     	 cmp r0,#0
 385:../Libraries/XMCLib/src/xmc_vadc.c ****   {
 386:../Libraries/XMCLib/src/xmc_vadc.c ****     result = (XMC_VADC_FAST_COMPARE_t)((uint32_t)(res >> (uint32_t)VADC_GLOBRES_FCR_Pos) & (uint32_
 323              	 .loc 1 386 0
 324 0006 B4BF     	 ite lt
 325 0008 C0F38070 	 ubfxlt r0,r0,#30,#1
 326              	.LVL29:
 387:../Libraries/XMCLib/src/xmc_vadc.c ****   }
 388:../Libraries/XMCLib/src/xmc_vadc.c ****   else
 389:../Libraries/XMCLib/src/xmc_vadc.c ****   {
 390:../Libraries/XMCLib/src/xmc_vadc.c ****     result = XMC_VADC_FAST_COMPARE_UNKNOWN;
 327              	 .loc 1 390 0
 328 000c 0220     	 movge r0,#2
 329              	.LVL30:
 391:../Libraries/XMCLib/src/xmc_vadc.c ****   }
 392:../Libraries/XMCLib/src/xmc_vadc.c **** 
 393:../Libraries/XMCLib/src/xmc_vadc.c ****   return result;
 394:../Libraries/XMCLib/src/xmc_vadc.c **** }
 330              	 .loc 1 394 0
 331 000e 7047     	 bx lr
 332              	 .cfi_endproc
 333              	.LFE263:
 335              	 .section .text.XMC_VADC_GLOBAL_BindGroupToEMux,"ax",%progbits
 336              	 .align 1
 337              	 .global XMC_VADC_GLOBAL_BindGroupToEMux
 338              	 .thumb
 339              	 .thumb_func
 341              	XMC_VADC_GLOBAL_BindGroupToEMux:
 342              	.LFB264:
 395:../Libraries/XMCLib/src/xmc_vadc.c **** 
 396:../Libraries/XMCLib/src/xmc_vadc.c **** /* Bind one of the four groups to one of the two EMUX interfaces */
 397:../Libraries/XMCLib/src/xmc_vadc.c **** #if (XMC_VADC_EMUX_AVAILABLE == 1U)
 398:../Libraries/XMCLib/src/xmc_vadc.c **** void XMC_VADC_GLOBAL_BindGroupToEMux(XMC_VADC_GLOBAL_t *const global_ptr, const uint32_t emuxif, co
 399:../Libraries/XMCLib/src/xmc_vadc.c **** {
 343              	 .loc 1 399 0
 344              	 .cfi_startproc
 345              	 
 346              	 
 347              	.LVL31:
 400:../Libraries/XMCLib/src/xmc_vadc.c ****   uint32_t mask;
 401:../Libraries/XMCLib/src/xmc_vadc.c ****   uint32_t pos;
 402:../Libraries/XMCLib/src/xmc_vadc.c **** 
 403:../Libraries/XMCLib/src/xmc_vadc.c ****   XMC_ASSERT("XMC_VADC_GLOBAL_BindGroupToEMux:Wrong Module Pointer", (global_ptr == VADC))
 404:../Libraries/XMCLib/src/xmc_vadc.c ****   XMC_ASSERT("XMC_VADC_GLOBAL_BindGroupToEMux:Wrong EMUX Group", (emuxif < XMC_VADC_NUM_EMUX_INTERF
 405:../Libraries/XMCLib/src/xmc_vadc.c ****   XMC_ASSERT("XMC_VADC_GLOBAL_BindGroupToEMux:Wrong VADC Group", (group < XMC_VADC_MAXIMUM_NUM_GROU
 406:../Libraries/XMCLib/src/xmc_vadc.c **** 
 407:../Libraries/XMCLib/src/xmc_vadc.c ****   if (0U == emuxif)
 348              	 .loc 1 407 0
 349 0000 0029     	 cmp r1,#0
 408:../Libraries/XMCLib/src/xmc_vadc.c ****   {
 409:../Libraries/XMCLib/src/xmc_vadc.c ****     pos  = (uint32_t)VADC_EMUXSEL_EMUXGRP0_Pos;
 410:../Libraries/XMCLib/src/xmc_vadc.c ****     mask = (uint32_t)VADC_EMUXSEL_EMUXGRP0_Msk;
 411:../Libraries/XMCLib/src/xmc_vadc.c ****   }
 412:../Libraries/XMCLib/src/xmc_vadc.c ****   else
 413:../Libraries/XMCLib/src/xmc_vadc.c ****   {
 414:../Libraries/XMCLib/src/xmc_vadc.c ****     pos  = (uint32_t)VADC_EMUXSEL_EMUXGRP1_Pos;
 415:../Libraries/XMCLib/src/xmc_vadc.c ****     mask = (uint32_t)VADC_EMUXSEL_EMUXGRP1_Msk;
 416:../Libraries/XMCLib/src/xmc_vadc.c ****   }
 417:../Libraries/XMCLib/src/xmc_vadc.c **** 
 418:../Libraries/XMCLib/src/xmc_vadc.c ****   global_ptr->EMUXSEL &= ~(mask);
 350              	 .loc 1 418 0
 351 0002 D0F8F033 	 ldr r3,[r0,#1008]
 399:../Libraries/XMCLib/src/xmc_vadc.c ****   uint32_t mask;
 352              	 .loc 1 399 0
 353 0006 10B5     	 push {r4,lr}
 354              	.LCFI1:
 355              	 .cfi_def_cfa_offset 8
 356              	 .cfi_offset 4,-8
 357              	 .cfi_offset 14,-4
 358              	 .loc 1 418 0
 359 0008 14BF     	 ite ne
 360 000a 6FF0F004 	 mvnne r4,#240
 361 000e 6FF00F04 	 mvneq r4,#15
 362 0012 03EA0403 	 and r3,r3,r4
 363 0016 C0F8F033 	 str r3,[r0,#1008]
 419:../Libraries/XMCLib/src/xmc_vadc.c ****   global_ptr->EMUXSEL |= (uint32_t) (group << pos);
 364              	 .loc 1 419 0
 365 001a D0F8F033 	 ldr r3,[r0,#1008]
 414:../Libraries/XMCLib/src/xmc_vadc.c ****     mask = (uint32_t)VADC_EMUXSEL_EMUXGRP1_Msk;
 366              	 .loc 1 414 0
 367 001e 0CBF     	 ite eq
 368 0020 0021     	 moveq r1,#0
 369              	.LVL32:
 370 0022 0421     	 movne r1,#4
 371              	.LVL33:
 372              	 .loc 1 419 0
 373 0024 8A40     	 lsls r2,r2,r1
 374              	.LVL34:
 375 0026 1343     	 orrs r3,r3,r2
 376 0028 C0F8F033 	 str r3,[r0,#1008]
 377 002c 10BD     	 pop {r4,pc}
 378              	 .cfi_endproc
 379              	.LFE264:
 381              	 .section .text.XMC_VADC_GLOBAL_SetResultEventInterruptNode,"ax",%progbits
 382              	 .align 1
 383              	 .global XMC_VADC_GLOBAL_SetResultEventInterruptNode
 384              	 .thumb
 385              	 .thumb_func
 387              	XMC_VADC_GLOBAL_SetResultEventInterruptNode:
 388              	.LFB265:
 420:../Libraries/XMCLib/src/xmc_vadc.c **** 
 421:../Libraries/XMCLib/src/xmc_vadc.c **** }
 422:../Libraries/XMCLib/src/xmc_vadc.c **** #endif 
 423:../Libraries/XMCLib/src/xmc_vadc.c **** 
 424:../Libraries/XMCLib/src/xmc_vadc.c **** /* API to bind result event with a service request line */
 425:../Libraries/XMCLib/src/xmc_vadc.c **** void XMC_VADC_GLOBAL_SetResultEventInterruptNode(XMC_VADC_GLOBAL_t *const global_ptr, XMC_VADC_SR_t
 426:../Libraries/XMCLib/src/xmc_vadc.c **** {
 389              	 .loc 1 426 0
 390              	 .cfi_startproc
 391              	 
 392              	 
 393              	 
 394              	.LVL35:
 427:../Libraries/XMCLib/src/xmc_vadc.c ****   uint32_t node;
 428:../Libraries/XMCLib/src/xmc_vadc.c ****   
 429:../Libraries/XMCLib/src/xmc_vadc.c ****   XMC_ASSERT("XMC_VADC_GLOBAL_SetResultEventInterruptNode:Wrong Module Pointer", (global_ptr == VAD
 430:../Libraries/XMCLib/src/xmc_vadc.c ****   XMC_ASSERT("XMC_VADC_GLOBAL_SetResultEventInterruptNode:Wrong SR Number", (sr <= XMC_VADC_SR_SHAR
 431:../Libraries/XMCLib/src/xmc_vadc.c **** 
 432:../Libraries/XMCLib/src/xmc_vadc.c ****   if (sr >= XMC_VADC_SR_SHARED_SR0)
 433:../Libraries/XMCLib/src/xmc_vadc.c ****   {
 434:../Libraries/XMCLib/src/xmc_vadc.c ****     node = (uint32_t)sr - (uint32_t)XMC_VADC_SR_SHARED_SR0;
 435:../Libraries/XMCLib/src/xmc_vadc.c ****   }
 436:../Libraries/XMCLib/src/xmc_vadc.c ****   else
 437:../Libraries/XMCLib/src/xmc_vadc.c ****   {
 438:../Libraries/XMCLib/src/xmc_vadc.c ****     node = (uint32_t)sr;
 439:../Libraries/XMCLib/src/xmc_vadc.c ****   }
 440:../Libraries/XMCLib/src/xmc_vadc.c **** 
 441:../Libraries/XMCLib/src/xmc_vadc.c ****   global_ptr->GLOBEVNP &= ~((uint32_t)VADC_GLOBEVNP_REV0NP_Msk);
 395              	 .loc 1 441 0
 396 0000 D0F84031 	 ldr r3,[r0,#320]
 397 0004 23F47023 	 bic r3,r3,#983040
 398 0008 C0F84031 	 str r3,[r0,#320]
 432:../Libraries/XMCLib/src/xmc_vadc.c ****   {
 399              	 .loc 1 432 0
 400 000c 0329     	 cmp r1,#3
 442:../Libraries/XMCLib/src/xmc_vadc.c ****   global_ptr->GLOBEVNP |= (uint32_t)(node << VADC_GLOBEVNP_REV0NP_Pos);
 401              	 .loc 1 442 0
 402 000e D0F84031 	 ldr r3,[r0,#320]
 434:../Libraries/XMCLib/src/xmc_vadc.c ****   }
 403              	 .loc 1 434 0
 404 0012 88BF     	 it hi
 405 0014 0439     	 subhi r1,r1,#4
 406              	.LVL36:
 407              	 .loc 1 442 0
 408 0016 43EA0141 	 orr r1,r3,r1,lsl#16
 409              	.LVL37:
 410 001a C0F84011 	 str r1,[r0,#320]
 411 001e 7047     	 bx lr
 412              	 .cfi_endproc
 413              	.LFE265:
 415              	 .section .text.XMC_VADC_GLOBAL_BackgroundSetReqSrcEventInterruptNode,"ax",%progbits
 416              	 .align 1
 417              	 .global XMC_VADC_GLOBAL_BackgroundSetReqSrcEventInterruptNode
 418              	 .thumb
 419              	 .thumb_func
 421              	XMC_VADC_GLOBAL_BackgroundSetReqSrcEventInterruptNode:
 422              	.LFB266:
 443:../Libraries/XMCLib/src/xmc_vadc.c **** }
 444:../Libraries/XMCLib/src/xmc_vadc.c **** 
 445:../Libraries/XMCLib/src/xmc_vadc.c **** /* API to bind request source event with a service request line */
 446:../Libraries/XMCLib/src/xmc_vadc.c **** void XMC_VADC_GLOBAL_BackgroundSetReqSrcEventInterruptNode(XMC_VADC_GLOBAL_t *const global_ptr, XMC
 447:../Libraries/XMCLib/src/xmc_vadc.c **** {
 423              	 .loc 1 447 0
 424              	 .cfi_startproc
 425              	 
 426              	 
 427              	 
 428              	.LVL38:
 448:../Libraries/XMCLib/src/xmc_vadc.c ****   uint32_t node;
 449:../Libraries/XMCLib/src/xmc_vadc.c ****   
 450:../Libraries/XMCLib/src/xmc_vadc.c ****   XMC_ASSERT("XMC_VADC_GLOBAL_BackgroundSetReqSrcEventInterruptNode:Wrong Module Pointer", (global_
 451:../Libraries/XMCLib/src/xmc_vadc.c **** 
 452:../Libraries/XMCLib/src/xmc_vadc.c ****   if (sr >= XMC_VADC_SR_SHARED_SR0)
 453:../Libraries/XMCLib/src/xmc_vadc.c ****   {
 454:../Libraries/XMCLib/src/xmc_vadc.c ****     node = (uint32_t)sr - (uint32_t)XMC_VADC_SR_SHARED_SR0;
 455:../Libraries/XMCLib/src/xmc_vadc.c ****   }
 456:../Libraries/XMCLib/src/xmc_vadc.c ****   else
 457:../Libraries/XMCLib/src/xmc_vadc.c ****   {
 458:../Libraries/XMCLib/src/xmc_vadc.c ****     node = (uint32_t)sr;
 459:../Libraries/XMCLib/src/xmc_vadc.c ****   }
 460:../Libraries/XMCLib/src/xmc_vadc.c **** 
 461:../Libraries/XMCLib/src/xmc_vadc.c ****   global_ptr->GLOBEVNP &= ~((uint32_t)VADC_GLOBEVNP_SEV0NP_Msk);
 429              	 .loc 1 461 0
 430 0000 D0F84031 	 ldr r3,[r0,#320]
 431 0004 23F00F03 	 bic r3,r3,#15
 432 0008 C0F84031 	 str r3,[r0,#320]
 452:../Libraries/XMCLib/src/xmc_vadc.c ****   {
 433              	 .loc 1 452 0
 434 000c 0329     	 cmp r1,#3
 462:../Libraries/XMCLib/src/xmc_vadc.c ****   global_ptr->GLOBEVNP |= (uint32_t) (node << VADC_GLOBEVNP_SEV0NP_Pos);
 435              	 .loc 1 462 0
 436 000e D0F84031 	 ldr r3,[r0,#320]
 454:../Libraries/XMCLib/src/xmc_vadc.c ****   }
 437              	 .loc 1 454 0
 438 0012 88BF     	 it hi
 439 0014 0439     	 subhi r1,r1,#4
 440              	.LVL39:
 441              	 .loc 1 462 0
 442 0016 1943     	 orrs r1,r1,r3
 443              	.LVL40:
 444 0018 C0F84011 	 str r1,[r0,#320]
 445 001c 7047     	 bx lr
 446              	 .cfi_endproc
 447              	.LFE266:
 449              	 .section .text.XMC_VADC_GROUP_InputClassInit,"ax",%progbits
 450              	 .align 1
 451              	 .global XMC_VADC_GROUP_InputClassInit
 452              	 .thumb
 453              	 .thumb_func
 455              	XMC_VADC_GROUP_InputClassInit:
 456              	.LFB268:
 463:../Libraries/XMCLib/src/xmc_vadc.c **** }
 464:../Libraries/XMCLib/src/xmc_vadc.c **** 
 465:../Libraries/XMCLib/src/xmc_vadc.c **** /* API to initialize an instance of group of VADC hardware */
 466:../Libraries/XMCLib/src/xmc_vadc.c **** #if (XMC_VADC_GROUP_AVAILABLE == 1U)  
 467:../Libraries/XMCLib/src/xmc_vadc.c **** void XMC_VADC_GROUP_Init( XMC_VADC_GROUP_t *const group_ptr, const XMC_VADC_GROUP_CONFIG_t *config)
 468:../Libraries/XMCLib/src/xmc_vadc.c **** {
 469:../Libraries/XMCLib/src/xmc_vadc.c ****   XMC_ASSERT("XMC_VADC_GROUP_Init:Wrong Group Pointer", XMC_VADC_CHECK_GROUP_PTR(group_ptr))
 470:../Libraries/XMCLib/src/xmc_vadc.c **** 
 471:../Libraries/XMCLib/src/xmc_vadc.c ****   /* Program the input classes */
 472:../Libraries/XMCLib/src/xmc_vadc.c ****   XMC_VADC_GROUP_InputClassInit(group_ptr, config->class0, XMC_VADC_GROUP_CONV_STD, 0U);
 473:../Libraries/XMCLib/src/xmc_vadc.c ****   XMC_VADC_GROUP_InputClassInit(group_ptr, config->class0, XMC_VADC_GROUP_CONV_EMUX, 0U);
 474:../Libraries/XMCLib/src/xmc_vadc.c ****   XMC_VADC_GROUP_InputClassInit(group_ptr, config->class1, XMC_VADC_GROUP_CONV_STD, 1U);
 475:../Libraries/XMCLib/src/xmc_vadc.c ****   XMC_VADC_GROUP_InputClassInit(group_ptr, config->class1, XMC_VADC_GROUP_CONV_EMUX, 1U);
 476:../Libraries/XMCLib/src/xmc_vadc.c **** 
 477:../Libraries/XMCLib/src/xmc_vadc.c ****   group_ptr->ARBCFG = config->g_arbcfg;
 478:../Libraries/XMCLib/src/xmc_vadc.c **** 
 479:../Libraries/XMCLib/src/xmc_vadc.c ****   group_ptr->BOUND = config->g_bound;
 480:../Libraries/XMCLib/src/xmc_vadc.c **** 
 481:../Libraries/XMCLib/src/xmc_vadc.c ****   /* External mux configuration */
 482:../Libraries/XMCLib/src/xmc_vadc.c ****   XMC_VADC_GROUP_ExternalMuxControlInit(group_ptr,config->emux_config);
 483:../Libraries/XMCLib/src/xmc_vadc.c **** 
 484:../Libraries/XMCLib/src/xmc_vadc.c **** }
 485:../Libraries/XMCLib/src/xmc_vadc.c **** 
 486:../Libraries/XMCLib/src/xmc_vadc.c **** /* API to program conversion characteristics */
 487:../Libraries/XMCLib/src/xmc_vadc.c **** void XMC_VADC_GROUP_InputClassInit(XMC_VADC_GROUP_t *const group_ptr, const XMC_VADC_GROUP_CLASS_t 
 488:../Libraries/XMCLib/src/xmc_vadc.c ****                                           const XMC_VADC_GROUP_CONV_t conv_type, const uint32_t set
 489:../Libraries/XMCLib/src/xmc_vadc.c **** {
 457              	 .loc 1 489 0
 458              	 .cfi_startproc
 459              	 
 460              	 
 461              	.LVL41:
 462 0000 F0B5     	 push {r4,r5,r6,r7,lr}
 463              	.LCFI2:
 464              	 .cfi_def_cfa_offset 20
 465              	 .cfi_offset 4,-20
 466              	 .cfi_offset 5,-16
 467              	 .cfi_offset 6,-12
 468              	 .cfi_offset 7,-8
 469              	 .cfi_offset 14,-4
 490:../Libraries/XMCLib/src/xmc_vadc.c ****   uint32_t        conv_class;
 491:../Libraries/XMCLib/src/xmc_vadc.c ****   uint32_t        conv_mode_pos;
 492:../Libraries/XMCLib/src/xmc_vadc.c ****   uint32_t        sample_time_pos;
 493:../Libraries/XMCLib/src/xmc_vadc.c ****   uint32_t        conv_mode_mask;
 494:../Libraries/XMCLib/src/xmc_vadc.c ****   uint32_t        sample_time_mask;
 495:../Libraries/XMCLib/src/xmc_vadc.c ****   uint32_t        sample_time;
 496:../Libraries/XMCLib/src/xmc_vadc.c ****   XMC_VADC_CONVMODE_t conv_mode;
 497:../Libraries/XMCLib/src/xmc_vadc.c **** 
 498:../Libraries/XMCLib/src/xmc_vadc.c ****   XMC_ASSERT("XMC_VADC_GROUP_InputClassInit:Wrong Group Pointer", XMC_VADC_CHECK_GROUP_PTR(group_pt
 499:../Libraries/XMCLib/src/xmc_vadc.c ****   XMC_ASSERT("XMC_VADC_GROUP_InputClassInit:Wrong Conversion Type", ((conv_type) <= XMC_VADC_GROUP_
 500:../Libraries/XMCLib/src/xmc_vadc.c ****   XMC_ASSERT("XMC_VADC_GROUP_InputClassInit:Wrong ICLASS set number", (set_num < XMC_VADC_MAX_ICLAS
 501:../Libraries/XMCLib/src/xmc_vadc.c **** 
 502:../Libraries/XMCLib/src/xmc_vadc.c ****   /* 
 503:../Libraries/XMCLib/src/xmc_vadc.c ****    * Obtain the mask and position macros of the parameters based on what is being requested - Stand
 504:../Libraries/XMCLib/src/xmc_vadc.c ****    * external mux channels.
 505:../Libraries/XMCLib/src/xmc_vadc.c ****    */
 506:../Libraries/XMCLib/src/xmc_vadc.c ****   if (XMC_VADC_GROUP_CONV_STD == conv_type)
 470              	 .loc 1 506 0
 471 0002 42B9     	 cbnz r2,.L38
 472              	.LVL42:
 507:../Libraries/XMCLib/src/xmc_vadc.c ****   {
 508:../Libraries/XMCLib/src/xmc_vadc.c ****     conv_mode_pos    = (uint32_t) VADC_G_ICLASS_CMS_Pos;
 509:../Libraries/XMCLib/src/xmc_vadc.c ****     conv_mode_mask   = (uint32_t) VADC_G_ICLASS_CMS_Msk;
 510:../Libraries/XMCLib/src/xmc_vadc.c ****     sample_time_pos  = (uint32_t) VADC_G_ICLASS_STCS_Pos;
 511:../Libraries/XMCLib/src/xmc_vadc.c ****     sample_time_mask = (uint32_t) VADC_G_ICLASS_STCS_Msk;
 512:../Libraries/XMCLib/src/xmc_vadc.c ****     sample_time      = (uint32_t) config.sample_time_std_conv;
 473              	 .loc 1 512 0
 474 0004 01F01F05 	 and r5,r1,#31
 475              	.LVL43:
 511:../Libraries/XMCLib/src/xmc_vadc.c ****     sample_time      = (uint32_t) config.sample_time_std_conv;
 476              	 .loc 1 511 0
 477 0008 1F26     	 movs r6,#31
 513:../Libraries/XMCLib/src/xmc_vadc.c ****     conv_mode        = (XMC_VADC_CONVMODE_t)config.conversion_mode_standard;
 478              	 .loc 1 513 0
 479 000a C1F30221 	 ubfx r1,r1,#8,#3
 480              	.LVL44:
 509:../Libraries/XMCLib/src/xmc_vadc.c ****     sample_time_pos  = (uint32_t) VADC_G_ICLASS_STCS_Pos;
 481              	 .loc 1 509 0
 482 000e 4FF4E06E 	 mov lr,#1792
 508:../Libraries/XMCLib/src/xmc_vadc.c ****     conv_mode_mask   = (uint32_t) VADC_G_ICLASS_CMS_Msk;
 483              	 .loc 1 508 0
 484 0012 0827     	 movs r7,#8
 485 0014 09E0     	 b .L39
 486              	.LVL45:
 487              	.L38:
 514:../Libraries/XMCLib/src/xmc_vadc.c ****   }
 515:../Libraries/XMCLib/src/xmc_vadc.c ****   else
 516:../Libraries/XMCLib/src/xmc_vadc.c ****   {
 517:../Libraries/XMCLib/src/xmc_vadc.c ****     conv_mode_pos    = (uint32_t) VADC_G_ICLASS_CME_Pos;
 518:../Libraries/XMCLib/src/xmc_vadc.c ****     conv_mode_mask   = (uint32_t) VADC_G_ICLASS_CME_Msk;
 519:../Libraries/XMCLib/src/xmc_vadc.c ****     sample_time_pos  = (uint32_t) VADC_G_ICLASS_STCE_Pos;
 520:../Libraries/XMCLib/src/xmc_vadc.c ****     sample_time_mask = (uint32_t) VADC_G_ICLASS_STCE_Msk;
 521:../Libraries/XMCLib/src/xmc_vadc.c ****     sample_time      = (uint32_t) config.sampling_phase_emux_channel;
 488              	 .loc 1 521 0
 489 0016 C1F30445 	 ubfx r5,r1,#16,#5
 490              	.LVL46:
 520:../Libraries/XMCLib/src/xmc_vadc.c ****     sample_time      = (uint32_t) config.sampling_phase_emux_channel;
 491              	 .loc 1 520 0
 492 001a 4FF4F816 	 mov r6,#2031616
 522:../Libraries/XMCLib/src/xmc_vadc.c ****     conv_mode        = (XMC_VADC_CONVMODE_t)config.conversion_mode_emux;
 493              	 .loc 1 522 0
 494 001e C1F30261 	 ubfx r1,r1,#24,#3
 495              	.LVL47:
 518:../Libraries/XMCLib/src/xmc_vadc.c ****     sample_time_pos  = (uint32_t) VADC_G_ICLASS_STCE_Pos;
 496              	 .loc 1 518 0
 497 0022 4FF0E06E 	 mov lr,#117440512
 519:../Libraries/XMCLib/src/xmc_vadc.c ****     sample_time_mask = (uint32_t) VADC_G_ICLASS_STCE_Msk;
 498              	 .loc 1 519 0
 499 0026 1022     	 movs r2,#16
 500              	.LVL48:
 517:../Libraries/XMCLib/src/xmc_vadc.c ****     conv_mode_mask   = (uint32_t) VADC_G_ICLASS_CME_Msk;
 501              	 .loc 1 517 0
 502 0028 1827     	 movs r7,#24
 503              	.LVL49:
 504              	.L39:
 505 002a 00EB8303 	 add r3,r0,r3,lsl#2
 506              	.LVL50:
 523:../Libraries/XMCLib/src/xmc_vadc.c ****   }
 524:../Libraries/XMCLib/src/xmc_vadc.c **** 
 525:../Libraries/XMCLib/src/xmc_vadc.c ****   /* Determine the class */
 526:../Libraries/XMCLib/src/xmc_vadc.c ****   conv_class  = group_ptr->ICLASS[set_num];
 527:../Libraries/XMCLib/src/xmc_vadc.c **** 
 528:../Libraries/XMCLib/src/xmc_vadc.c ****   /* Program the class register */
 529:../Libraries/XMCLib/src/xmc_vadc.c ****   conv_class &= ~(conv_mode_mask);
 530:../Libraries/XMCLib/src/xmc_vadc.c ****   conv_class |= (uint32_t)((uint32_t) conv_mode << conv_mode_pos);
 507              	 .loc 1 530 0
 508 002e B940     	 lsls r1,r1,r7
 509              	.LVL51:
 526:../Libraries/XMCLib/src/xmc_vadc.c **** 
 510              	 .loc 1 526 0
 511 0030 D3F8A040 	 ldr r4,[r3,#160]
 512              	.LVL52:
 529:../Libraries/XMCLib/src/xmc_vadc.c ****   conv_class |= (uint32_t)((uint32_t) conv_mode << conv_mode_pos);
 513              	 .loc 1 529 0
 514 0034 24EA0E04 	 bic r4,r4,lr
 515              	.LVL53:
 516              	 .loc 1 530 0
 517 0038 2143     	 orrs r1,r1,r4
 518              	.LVL54:
 531:../Libraries/XMCLib/src/xmc_vadc.c ****   conv_class &= ~(sample_time_mask);
 519              	 .loc 1 531 0
 520 003a 21EA0601 	 bic r1,r1,r6
 521              	.LVL55:
 532:../Libraries/XMCLib/src/xmc_vadc.c ****   conv_class |= (uint32_t)(sample_time <<  sample_time_pos);
 522              	 .loc 1 532 0
 523 003e 9540     	 lsls r5,r5,r2
 524              	.LVL56:
 525 0040 2943     	 orrs r1,r1,r5
 526              	.LVL57:
 533:../Libraries/XMCLib/src/xmc_vadc.c ****   group_ptr->ICLASS[set_num] = conv_class;
 527              	 .loc 1 533 0
 528 0042 C3F8A010 	 str r1,[r3,#160]
 529 0046 F0BD     	 pop {r4,r5,r6,r7,pc}
 530              	 .cfi_endproc
 531              	.LFE268:
 533              	 .section .text.XMC_VADC_GROUP_Init,"ax",%progbits
 534              	 .align 1
 535              	 .global XMC_VADC_GROUP_Init
 536              	 .thumb
 537              	 .thumb_func
 539              	XMC_VADC_GROUP_Init:
 540              	.LFB267:
 468:../Libraries/XMCLib/src/xmc_vadc.c ****   XMC_ASSERT("XMC_VADC_GROUP_Init:Wrong Group Pointer", XMC_VADC_CHECK_GROUP_PTR(group_ptr))
 541              	 .loc 1 468 0
 542              	 .cfi_startproc
 543              	 
 544              	 
 545              	.LVL58:
 546 0000 F8B5     	 push {r3,r4,r5,r6,r7,lr}
 547              	.LCFI3:
 548              	 .cfi_def_cfa_offset 24
 549              	 .cfi_offset 3,-24
 550              	 .cfi_offset 4,-20
 551              	 .cfi_offset 5,-16
 552              	 .cfi_offset 6,-12
 553              	 .cfi_offset 7,-8
 554              	 .cfi_offset 14,-4
 472:../Libraries/XMCLib/src/xmc_vadc.c ****   XMC_VADC_GROUP_InputClassInit(group_ptr, config->class0, XMC_VADC_GROUP_CONV_EMUX, 0U);
 555              	 .loc 1 472 0
 556 0002 0022     	 movs r2,#0
 468:../Libraries/XMCLib/src/xmc_vadc.c ****   XMC_ASSERT("XMC_VADC_GROUP_Init:Wrong Group Pointer", XMC_VADC_CHECK_GROUP_PTR(group_ptr))
 557              	 .loc 1 468 0
 558 0004 0C46     	 mov r4,r1
 559 0006 0546     	 mov r5,r0
 472:../Libraries/XMCLib/src/xmc_vadc.c ****   XMC_VADC_GROUP_InputClassInit(group_ptr, config->class0, XMC_VADC_GROUP_CONV_EMUX, 0U);
 560              	 .loc 1 472 0
 561 0008 1346     	 mov r3,r2
 562 000a 4968     	 ldr r1,[r1,#4]
 563              	.LVL59:
 564 000c FFF7FEFF 	 bl XMC_VADC_GROUP_InputClassInit
 565              	.LVL60:
 473:../Libraries/XMCLib/src/xmc_vadc.c ****   XMC_VADC_GROUP_InputClassInit(group_ptr, config->class1, XMC_VADC_GROUP_CONV_STD, 1U);
 566              	 .loc 1 473 0
 567 0010 2846     	 mov r0,r5
 568 0012 6168     	 ldr r1,[r4,#4]
 569 0014 0122     	 movs r2,#1
 570 0016 0023     	 movs r3,#0
 571 0018 FFF7FEFF 	 bl XMC_VADC_GROUP_InputClassInit
 572              	.LVL61:
 474:../Libraries/XMCLib/src/xmc_vadc.c ****   XMC_VADC_GROUP_InputClassInit(group_ptr, config->class1, XMC_VADC_GROUP_CONV_EMUX, 1U);
 573              	 .loc 1 474 0
 574 001c 2846     	 mov r0,r5
 575 001e A168     	 ldr r1,[r4,#8]
 576 0020 0022     	 movs r2,#0
 577 0022 0123     	 movs r3,#1
 578 0024 FFF7FEFF 	 bl XMC_VADC_GROUP_InputClassInit
 579              	.LVL62:
 475:../Libraries/XMCLib/src/xmc_vadc.c **** 
 580              	 .loc 1 475 0
 581 0028 0122     	 movs r2,#1
 582 002a 1346     	 mov r3,r2
 583 002c 2846     	 mov r0,r5
 584 002e A168     	 ldr r1,[r4,#8]
 585 0030 FFF7FEFF 	 bl XMC_VADC_GROUP_InputClassInit
 586              	.LVL63:
 587 0034 A078     	 ldrb r0,[r4,#2]
 477:../Libraries/XMCLib/src/xmc_vadc.c **** 
 588              	 .loc 1 477 0
 589 0036 2369     	 ldr r3,[r4,#16]
 590 0038 C5F88030 	 str r3,[r5,#128]
 591              	.LBB26:
 592              	.LBB27:
 593              	 .file 2 "G:/dt_g1_balancing_plate_wise20192020/XMC/Libraries/XMCLib/inc/xmc_vadc.h"
   1:G:/dt_g1_balancing_plate_wise20192020/XMC/Libraries/XMCLib/inc\xmc_vadc.h **** /**
   2:G:/dt_g1_balancing_plate_wise20192020/XMC/Libraries/XMCLib/inc\xmc_vadc.h ****  * @file xmc_vadc.h
   3:G:/dt_g1_balancing_plate_wise20192020/XMC/Libraries/XMCLib/inc\xmc_vadc.h ****  * @date 2019-03-30
   4:G:/dt_g1_balancing_plate_wise20192020/XMC/Libraries/XMCLib/inc\xmc_vadc.h ****  *
   5:G:/dt_g1_balancing_plate_wise20192020/XMC/Libraries/XMCLib/inc\xmc_vadc.h ****  * @cond
   6:G:/dt_g1_balancing_plate_wise20192020/XMC/Libraries/XMCLib/inc\xmc_vadc.h ****  **************************************************************************************************
   7:G:/dt_g1_balancing_plate_wise20192020/XMC/Libraries/XMCLib/inc\xmc_vadc.h ****  * XMClib v2.1.22 - XMC Peripheral Driver Library 
   8:G:/dt_g1_balancing_plate_wise20192020/XMC/Libraries/XMCLib/inc\xmc_vadc.h ****  *
   9:G:/dt_g1_balancing_plate_wise20192020/XMC/Libraries/XMCLib/inc\xmc_vadc.h ****  * Copyright (c) 2015-2019, Infineon Technologies AG
  10:G:/dt_g1_balancing_plate_wise20192020/XMC/Libraries/XMCLib/inc\xmc_vadc.h ****  * All rights reserved.                        
  11:G:/dt_g1_balancing_plate_wise20192020/XMC/Libraries/XMCLib/inc\xmc_vadc.h ****  *                                             
  12:G:/dt_g1_balancing_plate_wise20192020/XMC/Libraries/XMCLib/inc\xmc_vadc.h ****  * Redistribution and use in source and binary forms, with or without modification,are permitted pr
  13:G:/dt_g1_balancing_plate_wise20192020/XMC/Libraries/XMCLib/inc\xmc_vadc.h ****  * following conditions are met:   
  14:G:/dt_g1_balancing_plate_wise20192020/XMC/Libraries/XMCLib/inc\xmc_vadc.h ****  *                                                                              
  15:G:/dt_g1_balancing_plate_wise20192020/XMC/Libraries/XMCLib/inc\xmc_vadc.h ****  * Redistributions of source code must retain the above copyright notice, this list of conditions a
  16:G:/dt_g1_balancing_plate_wise20192020/XMC/Libraries/XMCLib/inc\xmc_vadc.h ****  * disclaimer.                        
  17:G:/dt_g1_balancing_plate_wise20192020/XMC/Libraries/XMCLib/inc\xmc_vadc.h ****  * 
  18:G:/dt_g1_balancing_plate_wise20192020/XMC/Libraries/XMCLib/inc\xmc_vadc.h ****  * Redistributions in binary form must reproduce the above copyright notice, this list of condition
  19:G:/dt_g1_balancing_plate_wise20192020/XMC/Libraries/XMCLib/inc\xmc_vadc.h ****  * disclaimer in the documentation and/or other materials provided with the distribution.          
  20:G:/dt_g1_balancing_plate_wise20192020/XMC/Libraries/XMCLib/inc\xmc_vadc.h ****  * 
  21:G:/dt_g1_balancing_plate_wise20192020/XMC/Libraries/XMCLib/inc\xmc_vadc.h ****  * Neither the name of the copyright holders nor the names of its contributors may be used to endor
  22:G:/dt_g1_balancing_plate_wise20192020/XMC/Libraries/XMCLib/inc\xmc_vadc.h ****  * products derived from this software without specific prior written permission.                  
  23:G:/dt_g1_balancing_plate_wise20192020/XMC/Libraries/XMCLib/inc\xmc_vadc.h ****  *                                                                              
  24:G:/dt_g1_balancing_plate_wise20192020/XMC/Libraries/XMCLib/inc\xmc_vadc.h ****  * THIS SOFTWARE IS PROVIDED BY THE COPYRIGHT HOLDERS AND CONTRIBUTORS "AS IS" AND ANY EXPRESS OR I
  25:G:/dt_g1_balancing_plate_wise20192020/XMC/Libraries/XMCLib/inc\xmc_vadc.h ****  * INCLUDING, BUT NOT LIMITED TO, THE IMPLIED WARRANTIES OF MERCHANTABILITY AND FITNESS FOR A PARTI
  26:G:/dt_g1_balancing_plate_wise20192020/XMC/Libraries/XMCLib/inc\xmc_vadc.h ****  * DISCLAIMED. IN NO EVENT SHALL THE COPYRIGHT HOLDER OR CONTRIBUTORS BE LIABLE  FOR ANY DIRECT, IN
  27:G:/dt_g1_balancing_plate_wise20192020/XMC/Libraries/XMCLib/inc\xmc_vadc.h ****  * SPECIAL, EXEMPLARY, OR CONSEQUENTIAL DAMAGES (INCLUDING, BUT NOT LIMITED TO, PROCUREMENT OF SUBS
  28:G:/dt_g1_balancing_plate_wise20192020/XMC/Libraries/XMCLib/inc\xmc_vadc.h ****  * SERVICES; LOSS OF USE, DATA, OR PROFITS; OR BUSINESS INTERRUPTION) HOWEVER CAUSED AND ON ANY THE
  29:G:/dt_g1_balancing_plate_wise20192020/XMC/Libraries/XMCLib/inc\xmc_vadc.h ****  * WHETHER IN CONTRACT, STRICT LIABILITY,OR TORT (INCLUDING NEGLIGENCE OR OTHERWISE) ARISING IN ANY
  30:G:/dt_g1_balancing_plate_wise20192020/XMC/Libraries/XMCLib/inc\xmc_vadc.h ****  * OF THIS SOFTWARE, EVEN IF ADVISED OF THE POSSIBILITY OF SUCH DAMAGE.                            
  31:G:/dt_g1_balancing_plate_wise20192020/XMC/Libraries/XMCLib/inc\xmc_vadc.h ****  *                                                                              
  32:G:/dt_g1_balancing_plate_wise20192020/XMC/Libraries/XMCLib/inc\xmc_vadc.h ****  * To improve the quality of the software, users are encouraged to share modifications, enhancement
  33:G:/dt_g1_balancing_plate_wise20192020/XMC/Libraries/XMCLib/inc\xmc_vadc.h ****  * Infineon Technologies AG dave@infineon.com).                                                    
  34:G:/dt_g1_balancing_plate_wise20192020/XMC/Libraries/XMCLib/inc\xmc_vadc.h ****  **************************************************************************************************
  35:G:/dt_g1_balancing_plate_wise20192020/XMC/Libraries/XMCLib/inc\xmc_vadc.h ****  *
  36:G:/dt_g1_balancing_plate_wise20192020/XMC/Libraries/XMCLib/inc\xmc_vadc.h ****  * Change History
  37:G:/dt_g1_balancing_plate_wise20192020/XMC/Libraries/XMCLib/inc\xmc_vadc.h ****  * --------------
  38:G:/dt_g1_balancing_plate_wise20192020/XMC/Libraries/XMCLib/inc\xmc_vadc.h ****  *
  39:G:/dt_g1_balancing_plate_wise20192020/XMC/Libraries/XMCLib/inc\xmc_vadc.h ****  * 2015-02-15:
  40:G:/dt_g1_balancing_plate_wise20192020/XMC/Libraries/XMCLib/inc\xmc_vadc.h ****  *     - Initial <br>
  41:G:/dt_g1_balancing_plate_wise20192020/XMC/Libraries/XMCLib/inc\xmc_vadc.h ****  *      
  42:G:/dt_g1_balancing_plate_wise20192020/XMC/Libraries/XMCLib/inc\xmc_vadc.h ****  * 2015-02-20:
  43:G:/dt_g1_balancing_plate_wise20192020/XMC/Libraries/XMCLib/inc\xmc_vadc.h ****  *     - Revised for XMC1201 device.<br>
  44:G:/dt_g1_balancing_plate_wise20192020/XMC/Libraries/XMCLib/inc\xmc_vadc.h ****  *   
  45:G:/dt_g1_balancing_plate_wise20192020/XMC/Libraries/XMCLib/inc\xmc_vadc.h ****  * 2015-04-27:
  46:G:/dt_g1_balancing_plate_wise20192020/XMC/Libraries/XMCLib/inc\xmc_vadc.h ****  *     - Added new APIs for SHS.<br>
  47:G:/dt_g1_balancing_plate_wise20192020/XMC/Libraries/XMCLib/inc\xmc_vadc.h ****  *     - Added New APIs for trigger edge selection.<BR>
  48:G:/dt_g1_balancing_plate_wise20192020/XMC/Libraries/XMCLib/inc\xmc_vadc.h ****  *     - Added new APIs for Queue flush entries, boundary selection, Boundary node pointer.<BR>
  49:G:/dt_g1_balancing_plate_wise20192020/XMC/Libraries/XMCLib/inc\xmc_vadc.h ****  *     - Revised GatingMode APIs and EMUX Control Init API.<BR>
  50:G:/dt_g1_balancing_plate_wise20192020/XMC/Libraries/XMCLib/inc\xmc_vadc.h ****  *
  51:G:/dt_g1_balancing_plate_wise20192020/XMC/Libraries/XMCLib/inc\xmc_vadc.h ****  * 2015-06-20:
  52:G:/dt_g1_balancing_plate_wise20192020/XMC/Libraries/XMCLib/inc\xmc_vadc.h ****  *     - Removed version macros and declaration of GetDriverVersion API
  53:G:/dt_g1_balancing_plate_wise20192020/XMC/Libraries/XMCLib/inc\xmc_vadc.h ****  * 2015-06-25:
  54:G:/dt_g1_balancing_plate_wise20192020/XMC/Libraries/XMCLib/inc\xmc_vadc.h ****  *     - BFL configuration in channel initialization fixed.
  55:G:/dt_g1_balancing_plate_wise20192020/XMC/Libraries/XMCLib/inc\xmc_vadc.h ****  *
  56:G:/dt_g1_balancing_plate_wise20192020/XMC/Libraries/XMCLib/inc\xmc_vadc.h ****  * 2015-07-28:
  57:G:/dt_g1_balancing_plate_wise20192020/XMC/Libraries/XMCLib/inc\xmc_vadc.h ****  *     - CLOCK_GATING_SUPPORTED and PERIPHERAL_RESET_SUPPORTED macros used
  58:G:/dt_g1_balancing_plate_wise20192020/XMC/Libraries/XMCLib/inc\xmc_vadc.h ****  *     - Clubbed the macro definitions for XMC13 XMC12 and XMC14
  59:G:/dt_g1_balancing_plate_wise20192020/XMC/Libraries/XMCLib/inc\xmc_vadc.h ****  *     - Clubbed the macro definitions for XMC44 XMC47 and XMC48
  60:G:/dt_g1_balancing_plate_wise20192020/XMC/Libraries/XMCLib/inc\xmc_vadc.h ****  *     - New APIs Created.
  61:G:/dt_g1_balancing_plate_wise20192020/XMC/Libraries/XMCLib/inc\xmc_vadc.h ****  *           - XMC_VADC_GLOBAL_SetIndividualBoundary
  62:G:/dt_g1_balancing_plate_wise20192020/XMC/Libraries/XMCLib/inc\xmc_vadc.h ****  *           - XMC_VADC_GROUP_SetIndividualBoundary
  63:G:/dt_g1_balancing_plate_wise20192020/XMC/Libraries/XMCLib/inc\xmc_vadc.h ****  *           - XMC_VADC_GROUP_GetAlias
  64:G:/dt_g1_balancing_plate_wise20192020/XMC/Libraries/XMCLib/inc\xmc_vadc.h ****  *           - XMC_VADC_GROUP_GetInputClass
  65:G:/dt_g1_balancing_plate_wise20192020/XMC/Libraries/XMCLib/inc\xmc_vadc.h ****  *           - XMC_VADC_GROUP_ChannelSetIclass
  66:G:/dt_g1_balancing_plate_wise20192020/XMC/Libraries/XMCLib/inc\xmc_vadc.h ****  *           - XMC_VADC_GROUP_ChannelGetResultAlignment
  67:G:/dt_g1_balancing_plate_wise20192020/XMC/Libraries/XMCLib/inc\xmc_vadc.h ****  *           - XMC_VADC_GROUP_ChannelGetInputClass
  68:G:/dt_g1_balancing_plate_wise20192020/XMC/Libraries/XMCLib/inc\xmc_vadc.h ****  *           - XMC_VADC_GROUP_SetResultSubtractionValue
  69:G:/dt_g1_balancing_plate_wise20192020/XMC/Libraries/XMCLib/inc\xmc_vadc.h ****  *
  70:G:/dt_g1_balancing_plate_wise20192020/XMC/Libraries/XMCLib/inc\xmc_vadc.h ****  * 2015-12-01:
  71:G:/dt_g1_balancing_plate_wise20192020/XMC/Libraries/XMCLib/inc\xmc_vadc.h ****  *     - Added:
  72:G:/dt_g1_balancing_plate_wise20192020/XMC/Libraries/XMCLib/inc\xmc_vadc.h ****  *     - XMC4300 device supported
  73:G:/dt_g1_balancing_plate_wise20192020/XMC/Libraries/XMCLib/inc\xmc_vadc.h ****  *
  74:G:/dt_g1_balancing_plate_wise20192020/XMC/Libraries/XMCLib/inc\xmc_vadc.h ****  *     - Fixed:
  75:G:/dt_g1_balancing_plate_wise20192020/XMC/Libraries/XMCLib/inc\xmc_vadc.h ****  *     - XMC_VADC_GLOBAL_TriggerEvent API updated. OR operation removed. 
  76:G:/dt_g1_balancing_plate_wise20192020/XMC/Libraries/XMCLib/inc\xmc_vadc.h ****  *     - XMC_VADC_GLOBAL_ClearEvent API updated. Multiple events triggering on clearing the event i
  77:G:/dt_g1_balancing_plate_wise20192020/XMC/Libraries/XMCLib/inc\xmc_vadc.h ****  *     - Wrong MACRO name defined in xmc_vadc_map.h file corrected for XMC4200/4100 devices.
  78:G:/dt_g1_balancing_plate_wise20192020/XMC/Libraries/XMCLib/inc\xmc_vadc.h ****  *       XMC_VADC_G3_SAMPLE renamed to XMC_VADC_G1_SAMPLE
  79:G:/dt_g1_balancing_plate_wise20192020/XMC/Libraries/XMCLib/inc\xmc_vadc.h ****  *
  80:G:/dt_g1_balancing_plate_wise20192020/XMC/Libraries/XMCLib/inc\xmc_vadc.h ****  * 2015-12-01:
  81:G:/dt_g1_balancing_plate_wise20192020/XMC/Libraries/XMCLib/inc\xmc_vadc.h ****  *     - New APIs Created.
  82:G:/dt_g1_balancing_plate_wise20192020/XMC/Libraries/XMCLib/inc\xmc_vadc.h ****  *           - XMC_VADC_GROUP_ScanIsArbitrationSlotEnabled
  83:G:/dt_g1_balancing_plate_wise20192020/XMC/Libraries/XMCLib/inc\xmc_vadc.h ****  *           - XMC_VADC_GROUP_QueueIsArbitrationSlotEnabled
  84:G:/dt_g1_balancing_plate_wise20192020/XMC/Libraries/XMCLib/inc\xmc_vadc.h ****  *     - Fixed the analog calibration voltage for XMC1100 to external reference upper supply range.
  85:G:/dt_g1_balancing_plate_wise20192020/XMC/Libraries/XMCLib/inc\xmc_vadc.h ****  *     - Fixed the XMC_VADC_GLOBAL_StartupCalibration() for XMC1100.
  86:G:/dt_g1_balancing_plate_wise20192020/XMC/Libraries/XMCLib/inc\xmc_vadc.h ****  *
  87:G:/dt_g1_balancing_plate_wise20192020/XMC/Libraries/XMCLib/inc\xmc_vadc.h ****  * 2016-03-09:
  88:G:/dt_g1_balancing_plate_wise20192020/XMC/Libraries/XMCLib/inc\xmc_vadc.h ****  *     - Optimization of write only registers
  89:G:/dt_g1_balancing_plate_wise20192020/XMC/Libraries/XMCLib/inc\xmc_vadc.h ****  *
  90:G:/dt_g1_balancing_plate_wise20192020/XMC/Libraries/XMCLib/inc\xmc_vadc.h ****  * 2016-03-18:
  91:G:/dt_g1_balancing_plate_wise20192020/XMC/Libraries/XMCLib/inc\xmc_vadc.h ****  *     - Fixed XMC_VADC_GLOBAL_SHS_IsConverterReady(): API checks the STEPCFG register for the read
  92:G:/dt_g1_balancing_plate_wise20192020/XMC/Libraries/XMCLib/inc\xmc_vadc.h ****  *       SHSCFG SFR. 
  93:G:/dt_g1_balancing_plate_wise20192020/XMC/Libraries/XMCLib/inc\xmc_vadc.h ****  *
  94:G:/dt_g1_balancing_plate_wise20192020/XMC/Libraries/XMCLib/inc\xmc_vadc.h ****  * 2016-06-17:
  95:G:/dt_g1_balancing_plate_wise20192020/XMC/Libraries/XMCLib/inc\xmc_vadc.h ****  *     - New macros added XMC_VADC_SHS_FULL_SET_REG, XMC_VADC_RESULT_PRIORITY_AVAILABLE
  96:G:/dt_g1_balancing_plate_wise20192020/XMC/Libraries/XMCLib/inc\xmc_vadc.h ****  *     - New Enum added XMC_VADC_SHS_GAIN_LEVEL_t and XMC_VADC_SYNCTR_EVAL_t
  97:G:/dt_g1_balancing_plate_wise20192020/XMC/Libraries/XMCLib/inc\xmc_vadc.h ****  *     - New APIs added are:
  98:G:/dt_g1_balancing_plate_wise20192020/XMC/Libraries/XMCLib/inc\xmc_vadc.h ****  *           - XMC_VADC_GROUP_SetSyncSlaveReadySignal
  99:G:/dt_g1_balancing_plate_wise20192020/XMC/Libraries/XMCLib/inc\xmc_vadc.h ****  *           - XMC_VADC_GROUP_ChannelGetAssertedEvents
 100:G:/dt_g1_balancing_plate_wise20192020/XMC/Libraries/XMCLib/inc\xmc_vadc.h ****  *           - XMC_VADC_GROUP_GetAssertedResultEvents
 101:G:/dt_g1_balancing_plate_wise20192020/XMC/Libraries/XMCLib/inc\xmc_vadc.h ****  *           - XMC_VADC_GROUP_SetResultRegPriority
 102:G:/dt_g1_balancing_plate_wise20192020/XMC/Libraries/XMCLib/inc\xmc_vadc.h ****  *           - XMC_VADC_GROUP_SetSyncReadySignal
 103:G:/dt_g1_balancing_plate_wise20192020/XMC/Libraries/XMCLib/inc\xmc_vadc.h ****  *           - XMC_VADC_GROUP_GetSyncReadySignal
 104:G:/dt_g1_balancing_plate_wise20192020/XMC/Libraries/XMCLib/inc\xmc_vadc.h ****  *           - XMC_VADC_GROUP_GetResultRegPriority
 105:G:/dt_g1_balancing_plate_wise20192020/XMC/Libraries/XMCLib/inc\xmc_vadc.h ****  *
 106:G:/dt_g1_balancing_plate_wise20192020/XMC/Libraries/XMCLib/inc\xmc_vadc.h ****  * 2017-02-06:
 107:G:/dt_g1_balancing_plate_wise20192020/XMC/Libraries/XMCLib/inc\xmc_vadc.h ****  *     - Added new functions to remove channels from background request source, XMC_VADC_GLOBAL_Bac
 108:G:/dt_g1_balancing_plate_wise20192020/XMC/Libraries/XMCLib/inc\xmc_vadc.h ****  *
 109:G:/dt_g1_balancing_plate_wise20192020/XMC/Libraries/XMCLib/inc\xmc_vadc.h ****  * 2017-06-24:
 110:G:/dt_g1_balancing_plate_wise20192020/XMC/Libraries/XMCLib/inc\xmc_vadc.h ****  *     - Added new function XMC_VADC_GLOBAL_SHS_SetAnalogReference() for XMC1 family
 111:G:/dt_g1_balancing_plate_wise20192020/XMC/Libraries/XMCLib/inc\xmc_vadc.h ****  *
 112:G:/dt_g1_balancing_plate_wise20192020/XMC/Libraries/XMCLib/inc\xmc_vadc.h ****  * 2017-08-14:
 113:G:/dt_g1_balancing_plate_wise20192020/XMC/Libraries/XMCLib/inc\xmc_vadc.h ****  *     - Added XMC_VADC_GLOBAL_DETAILED_RESULT_t
 114:G:/dt_g1_balancing_plate_wise20192020/XMC/Libraries/XMCLib/inc\xmc_vadc.h ****  *       You can cast the return of XMC_VADC_GLOBAL_GetDetailedResult() to a varible of type XMC_VA
 115:G:/dt_g1_balancing_plate_wise20192020/XMC/Libraries/XMCLib/inc\xmc_vadc.h ****  *     - Fixed XMC_VADC_GLOBAL_SHS_SetAnalogReference() to update AREF bitfield correctly
 116:G:/dt_g1_balancing_plate_wise20192020/XMC/Libraries/XMCLib/inc\xmc_vadc.h ****  *
 117:G:/dt_g1_balancing_plate_wise20192020/XMC/Libraries/XMCLib/inc\xmc_vadc.h ****  * 2019-03-30:
 118:G:/dt_g1_balancing_plate_wise20192020/XMC/Libraries/XMCLib/inc\xmc_vadc.h ****  *     - Changed XMC_VADC_GROUP_SetChannelAlias() to inline function
 119:G:/dt_g1_balancing_plate_wise20192020/XMC/Libraries/XMCLib/inc\xmc_vadc.h ****  *     - Added XMC_VADC_GROUP_GetChannelAlias()
 120:G:/dt_g1_balancing_plate_wise20192020/XMC/Libraries/XMCLib/inc\xmc_vadc.h ****  * 
 121:G:/dt_g1_balancing_plate_wise20192020/XMC/Libraries/XMCLib/inc\xmc_vadc.h ****  * @endcond 
 122:G:/dt_g1_balancing_plate_wise20192020/XMC/Libraries/XMCLib/inc\xmc_vadc.h ****  *
 123:G:/dt_g1_balancing_plate_wise20192020/XMC/Libraries/XMCLib/inc\xmc_vadc.h ****  */
 124:G:/dt_g1_balancing_plate_wise20192020/XMC/Libraries/XMCLib/inc\xmc_vadc.h **** 
 125:G:/dt_g1_balancing_plate_wise20192020/XMC/Libraries/XMCLib/inc\xmc_vadc.h **** #ifndef XMC_VADC_H
 126:G:/dt_g1_balancing_plate_wise20192020/XMC/Libraries/XMCLib/inc\xmc_vadc.h **** #define XMC_VADC_H
 127:G:/dt_g1_balancing_plate_wise20192020/XMC/Libraries/XMCLib/inc\xmc_vadc.h ****  
 128:G:/dt_g1_balancing_plate_wise20192020/XMC/Libraries/XMCLib/inc\xmc_vadc.h **** /**************************************************************************************************
 129:G:/dt_g1_balancing_plate_wise20192020/XMC/Libraries/XMCLib/inc\xmc_vadc.h ****  * HEADER FILES
 130:G:/dt_g1_balancing_plate_wise20192020/XMC/Libraries/XMCLib/inc\xmc_vadc.h ****  **************************************************************************************************
 131:G:/dt_g1_balancing_plate_wise20192020/XMC/Libraries/XMCLib/inc\xmc_vadc.h **** #include <xmc_common.h>
 132:G:/dt_g1_balancing_plate_wise20192020/XMC/Libraries/XMCLib/inc\xmc_vadc.h **** #include <xmc_scu.h>
 133:G:/dt_g1_balancing_plate_wise20192020/XMC/Libraries/XMCLib/inc\xmc_vadc.h **** #include <xmc_vadc_map.h>
 134:G:/dt_g1_balancing_plate_wise20192020/XMC/Libraries/XMCLib/inc\xmc_vadc.h **** 
 135:G:/dt_g1_balancing_plate_wise20192020/XMC/Libraries/XMCLib/inc\xmc_vadc.h **** /**
 136:G:/dt_g1_balancing_plate_wise20192020/XMC/Libraries/XMCLib/inc\xmc_vadc.h ****  * @addtogroup XMClib XMC Peripheral Library
 137:G:/dt_g1_balancing_plate_wise20192020/XMC/Libraries/XMCLib/inc\xmc_vadc.h ****  * @{
 138:G:/dt_g1_balancing_plate_wise20192020/XMC/Libraries/XMCLib/inc\xmc_vadc.h ****  */
 139:G:/dt_g1_balancing_plate_wise20192020/XMC/Libraries/XMCLib/inc\xmc_vadc.h ****  
 140:G:/dt_g1_balancing_plate_wise20192020/XMC/Libraries/XMCLib/inc\xmc_vadc.h **** /**
 141:G:/dt_g1_balancing_plate_wise20192020/XMC/Libraries/XMCLib/inc\xmc_vadc.h ****  * @addtogroup VADC
 142:G:/dt_g1_balancing_plate_wise20192020/XMC/Libraries/XMCLib/inc\xmc_vadc.h ****  * @brief Versatile Analog to Digital Converter (VADC) driver for XMC microcontroller family.
 143:G:/dt_g1_balancing_plate_wise20192020/XMC/Libraries/XMCLib/inc\xmc_vadc.h ****  *
 144:G:/dt_g1_balancing_plate_wise20192020/XMC/Libraries/XMCLib/inc\xmc_vadc.h ****  * The XMC microcontroller provides a series of analog input channels connected to a cluster of Ana
 145:G:/dt_g1_balancing_plate_wise20192020/XMC/Libraries/XMCLib/inc\xmc_vadc.h ****  * Converters using the Successive Approximation Register (SAR) principle to convert analog input v
 146:G:/dt_g1_balancing_plate_wise20192020/XMC/Libraries/XMCLib/inc\xmc_vadc.h ****  * to discrete digital values.
 147:G:/dt_g1_balancing_plate_wise20192020/XMC/Libraries/XMCLib/inc\xmc_vadc.h ****  * \if XMC1
 148:G:/dt_g1_balancing_plate_wise20192020/XMC/Libraries/XMCLib/inc\xmc_vadc.h ****  * The XMC1x is based on Sample & Hold converters, where a cluster contains 2 Sample&Hold units whi
 149:G:/dt_g1_balancing_plate_wise20192020/XMC/Libraries/XMCLib/inc\xmc_vadc.h ****  * converter.
 150:G:/dt_g1_balancing_plate_wise20192020/XMC/Libraries/XMCLib/inc\xmc_vadc.h ****  * \endif
 151:G:/dt_g1_balancing_plate_wise20192020/XMC/Libraries/XMCLib/inc\xmc_vadc.h ****  *
 152:G:/dt_g1_balancing_plate_wise20192020/XMC/Libraries/XMCLib/inc\xmc_vadc.h ****  * Each converter of the ADC cluster can operate independent of the others, controlled by a dedicat
 153:G:/dt_g1_balancing_plate_wise20192020/XMC/Libraries/XMCLib/inc\xmc_vadc.h ****  * registers and triggered by a dedicated group request source. The results of each channel can be 
 154:G:/dt_g1_balancing_plate_wise20192020/XMC/Libraries/XMCLib/inc\xmc_vadc.h ****  * dedicated channel-specific result register or in a group-specific result register.<BR>
 155:G:/dt_g1_balancing_plate_wise20192020/XMC/Libraries/XMCLib/inc\xmc_vadc.h ****  *
 156:G:/dt_g1_balancing_plate_wise20192020/XMC/Libraries/XMCLib/inc\xmc_vadc.h ****  * The Versatile Analog to Digital Converter module (VADC) of the XMC comprises a set of converter 
 157:G:/dt_g1_balancing_plate_wise20192020/XMC/Libraries/XMCLib/inc\xmc_vadc.h ****  * can be operated either independently or via a common request source that emulates a background c
 158:G:/dt_g1_balancing_plate_wise20192020/XMC/Libraries/XMCLib/inc\xmc_vadc.h ****  * Each converter block is equipped with a dedicated input multiplexer and dedicated request source
 159:G:/dt_g1_balancing_plate_wise20192020/XMC/Libraries/XMCLib/inc\xmc_vadc.h ****  * which together build separate groups.
 160:G:/dt_g1_balancing_plate_wise20192020/XMC/Libraries/XMCLib/inc\xmc_vadc.h ****  *
 161:G:/dt_g1_balancing_plate_wise20192020/XMC/Libraries/XMCLib/inc\xmc_vadc.h ****  * \if XMC4
 162:G:/dt_g1_balancing_plate_wise20192020/XMC/Libraries/XMCLib/inc\xmc_vadc.h ****  * @image html "vadc_overview_xmc4x.png"
 163:G:/dt_g1_balancing_plate_wise20192020/XMC/Libraries/XMCLib/inc\xmc_vadc.h ****  * \else
 164:G:/dt_g1_balancing_plate_wise20192020/XMC/Libraries/XMCLib/inc\xmc_vadc.h ****  * @image html "vadc_overview_xmc1x.png"
 165:G:/dt_g1_balancing_plate_wise20192020/XMC/Libraries/XMCLib/inc\xmc_vadc.h ****  * \endif
 166:G:/dt_g1_balancing_plate_wise20192020/XMC/Libraries/XMCLib/inc\xmc_vadc.h ****  *
 167:G:/dt_g1_balancing_plate_wise20192020/XMC/Libraries/XMCLib/inc\xmc_vadc.h ****  * The VADC LLD is split into GLOBAL and GROUP related APIs.<BR>
 168:G:/dt_g1_balancing_plate_wise20192020/XMC/Libraries/XMCLib/inc\xmc_vadc.h ****  * <B>GLOBAL: </B><BR>
 169:G:/dt_g1_balancing_plate_wise20192020/XMC/Libraries/XMCLib/inc\xmc_vadc.h ****  * <UL>
 170:G:/dt_g1_balancing_plate_wise20192020/XMC/Libraries/XMCLib/inc\xmc_vadc.h ****  * <LI>Global APIs act on the entire ADC module. Configures global configuration registers</LI>
 171:G:/dt_g1_balancing_plate_wise20192020/XMC/Libraries/XMCLib/inc\xmc_vadc.h ****  * <LI>Allows configuration of the background request source of the VADC.</LI>
 172:G:/dt_g1_balancing_plate_wise20192020/XMC/Libraries/XMCLib/inc\xmc_vadc.h ****  * <LI>The clock related configurations for the VADC module are configured in the Global APIs/</LI>
 173:G:/dt_g1_balancing_plate_wise20192020/XMC/Libraries/XMCLib/inc\xmc_vadc.h ****  * <LI>The Global API names are prefixed by the \b XMC_VADC_GLOBAL_ and they accept ::XMC_VADC_GLOB
 174:G:/dt_g1_balancing_plate_wise20192020/XMC/Libraries/XMCLib/inc\xmc_vadc.h ****  *     one of its arguments.</LI>
 175:G:/dt_g1_balancing_plate_wise20192020/XMC/Libraries/XMCLib/inc\xmc_vadc.h ****  * <LI>Configures the background request source of the VADC. The APIs which act on the background r
 176:G:/dt_g1_balancing_plate_wise20192020/XMC/Libraries/XMCLib/inc\xmc_vadc.h ****  *     are prefixed by \b XMC_VADC_GLOBAL_Background</LI>
 177:G:/dt_g1_balancing_plate_wise20192020/XMC/Libraries/XMCLib/inc\xmc_vadc.h ****  * <LI>Configures the sample and hold unit of the VADC. The APIs which act on the SHS related regis
 178:G:/dt_g1_balancing_plate_wise20192020/XMC/Libraries/XMCLib/inc\xmc_vadc.h ****  *     are prefixed by \b XMC_VADC_GLOBAL_SHS_</LI>
 179:G:/dt_g1_balancing_plate_wise20192020/XMC/Libraries/XMCLib/inc\xmc_vadc.h ****  * </UL><BR>
 180:G:/dt_g1_balancing_plate_wise20192020/XMC/Libraries/XMCLib/inc\xmc_vadc.h ****  *
 181:G:/dt_g1_balancing_plate_wise20192020/XMC/Libraries/XMCLib/inc\xmc_vadc.h ****  * <B>GROUP: </B><BR>
 182:G:/dt_g1_balancing_plate_wise20192020/XMC/Libraries/XMCLib/inc\xmc_vadc.h ****  * <UL>
 183:G:/dt_g1_balancing_plate_wise20192020/XMC/Libraries/XMCLib/inc\xmc_vadc.h ****  * <LI>Group APIs act on a VADC group. Configures the group configuration registers</LI>
 184:G:/dt_g1_balancing_plate_wise20192020/XMC/Libraries/XMCLib/inc\xmc_vadc.h ****  * <LI>Configures the queue request source of the VADC. The APIs which act on the queue related reg
 185:G:/dt_g1_balancing_plate_wise20192020/XMC/Libraries/XMCLib/inc\xmc_vadc.h ****  *     are prefixed by \b XMC_VADC_GROUP_Queue</LI>
 186:G:/dt_g1_balancing_plate_wise20192020/XMC/Libraries/XMCLib/inc\xmc_vadc.h ****  * <LI>Configures the scan request source of the VADC. The APIs which act on the scan related regis
 187:G:/dt_g1_balancing_plate_wise20192020/XMC/Libraries/XMCLib/inc\xmc_vadc.h ****  *     are prefixed by \b XMC_VADC_GROUP_Scan</LI>
 188:G:/dt_g1_balancing_plate_wise20192020/XMC/Libraries/XMCLib/inc\xmc_vadc.h ****  * <LI>Configuration of the channels of each group are done by the API which have a prefix as
 189:G:/dt_g1_balancing_plate_wise20192020/XMC/Libraries/XMCLib/inc\xmc_vadc.h ****  *     \b XMC_VADC_GROUP_Channel.</LI>
 190:G:/dt_g1_balancing_plate_wise20192020/XMC/Libraries/XMCLib/inc\xmc_vadc.h ****  * <LI>The Group API names are prefixed by the \b XMC_VADC_GROUP_ and they accept ::XMC_VADC_GROUP_
 191:G:/dt_g1_balancing_plate_wise20192020/XMC/Libraries/XMCLib/inc\xmc_vadc.h ****  *     one of its arguments.</LI>
 192:G:/dt_g1_balancing_plate_wise20192020/XMC/Libraries/XMCLib/inc\xmc_vadc.h ****  * </UL><BR>
 193:G:/dt_g1_balancing_plate_wise20192020/XMC/Libraries/XMCLib/inc\xmc_vadc.h ****  * @{
 194:G:/dt_g1_balancing_plate_wise20192020/XMC/Libraries/XMCLib/inc\xmc_vadc.h ****  */
 195:G:/dt_g1_balancing_plate_wise20192020/XMC/Libraries/XMCLib/inc\xmc_vadc.h ****  
 196:G:/dt_g1_balancing_plate_wise20192020/XMC/Libraries/XMCLib/inc\xmc_vadc.h **** /**************************************************************************************************
 197:G:/dt_g1_balancing_plate_wise20192020/XMC/Libraries/XMCLib/inc\xmc_vadc.h ****  * MACROS
 198:G:/dt_g1_balancing_plate_wise20192020/XMC/Libraries/XMCLib/inc\xmc_vadc.h ****  **************************************************************************************************
 199:G:/dt_g1_balancing_plate_wise20192020/XMC/Libraries/XMCLib/inc\xmc_vadc.h **** 
 200:G:/dt_g1_balancing_plate_wise20192020/XMC/Libraries/XMCLib/inc\xmc_vadc.h **** #if ((UC_SERIES == XMC42)||(UC_SERIES == XMC41) || (UC_SERIES == XMC43))
 201:G:/dt_g1_balancing_plate_wise20192020/XMC/Libraries/XMCLib/inc\xmc_vadc.h **** #define XMC_VADC_GROUP_AVAILABLE           (1U) /*  Defines the availability of group resource in a
 202:G:/dt_g1_balancing_plate_wise20192020/XMC/Libraries/XMCLib/inc\xmc_vadc.h **** #define XMC_VADC_GSCAN_AVAILABLE           (1U) /*  Defines the availability of scan request resour
 203:G:/dt_g1_balancing_plate_wise20192020/XMC/Libraries/XMCLib/inc\xmc_vadc.h **** #define XMC_VADC_QUEUE_AVAILABLE           (1U) /*  Defines the availability of queue request resou
 204:G:/dt_g1_balancing_plate_wise20192020/XMC/Libraries/XMCLib/inc\xmc_vadc.h **** #define XMC_VADC_EMUX_AVAILABLE            (1U) /*  Defines the availability of external multiplexe
 205:G:/dt_g1_balancing_plate_wise20192020/XMC/Libraries/XMCLib/inc\xmc_vadc.h ****                                                     device*/
 206:G:/dt_g1_balancing_plate_wise20192020/XMC/Libraries/XMCLib/inc\xmc_vadc.h **** #define XMC_VADC_BOUNDARY_AVAILABLE        (1U) /*  Defines the availability of boundary check supp
 207:G:/dt_g1_balancing_plate_wise20192020/XMC/Libraries/XMCLib/inc\xmc_vadc.h **** #define XMC_VADC_MULTIPLE_SLAVEGROUPS      (1U) /*  Defines the availability of synchronous request
 208:G:/dt_g1_balancing_plate_wise20192020/XMC/Libraries/XMCLib/inc\xmc_vadc.h **** #define XMC_VADC_MAXIMUM_NUM_GROUPS        (2U) /*  Defines the maximum number of groups available 
 209:G:/dt_g1_balancing_plate_wise20192020/XMC/Libraries/XMCLib/inc\xmc_vadc.h **** #define XMC_VADC_BOUNDARY_FLAG_SELECT      (1U) /*  Defines the availability of boundary flags in a
 210:G:/dt_g1_balancing_plate_wise20192020/XMC/Libraries/XMCLib/inc\xmc_vadc.h **** #define XMC_VADC_EMUX_CH_SEL_STYLE         (1U) /*  Defines the external multiplexer channel select
 211:G:/dt_g1_balancing_plate_wise20192020/XMC/Libraries/XMCLib/inc\xmc_vadc.h ****                                                     operation for a particular device*/
 212:G:/dt_g1_balancing_plate_wise20192020/XMC/Libraries/XMCLib/inc\xmc_vadc.h **** #define XMC_VADC_SHS_AVAILABLE             (0U) /* Defines the availability of sample and hold modu
 213:G:/dt_g1_balancing_plate_wise20192020/XMC/Libraries/XMCLib/inc\xmc_vadc.h **** #define XMC_VADC_SHS_FULL_SET_REG          (0U) /* Defines the availability of sample and hold modu
 214:G:/dt_g1_balancing_plate_wise20192020/XMC/Libraries/XMCLib/inc\xmc_vadc.h **** #define XMC_VADC_GROUP_SRCREG_AVAILABLE    (1U) /* Define the availability of a source specific res
 215:G:/dt_g1_balancing_plate_wise20192020/XMC/Libraries/XMCLib/inc\xmc_vadc.h **** #define XMC_VADC_RESULT_PRIORITY_AVAILABLE (0U) /* Define the availability of a priority for result
 216:G:/dt_g1_balancing_plate_wise20192020/XMC/Libraries/XMCLib/inc\xmc_vadc.h **** #endif
 217:G:/dt_g1_balancing_plate_wise20192020/XMC/Libraries/XMCLib/inc\xmc_vadc.h **** 
 218:G:/dt_g1_balancing_plate_wise20192020/XMC/Libraries/XMCLib/inc\xmc_vadc.h **** #if (UC_SERIES == XMC44 || UC_SERIES == XMC47 || UC_SERIES == XMC48)
 219:G:/dt_g1_balancing_plate_wise20192020/XMC/Libraries/XMCLib/inc\xmc_vadc.h **** #define XMC_VADC_GROUP_AVAILABLE         (1U) /*  Defines the availability of group resource in a d
 220:G:/dt_g1_balancing_plate_wise20192020/XMC/Libraries/XMCLib/inc\xmc_vadc.h **** #define XMC_VADC_GSCAN_AVAILABLE         (1U) /*  Defines the availability of scan request resource
 221:G:/dt_g1_balancing_plate_wise20192020/XMC/Libraries/XMCLib/inc\xmc_vadc.h **** #define XMC_VADC_QUEUE_AVAILABLE         (1U) /*  Defines the availability of queue request resourc
 222:G:/dt_g1_balancing_plate_wise20192020/XMC/Libraries/XMCLib/inc\xmc_vadc.h **** #define XMC_VADC_EMUX_AVAILABLE          (1U) /*  Defines the availability of external multiplexer 
 223:G:/dt_g1_balancing_plate_wise20192020/XMC/Libraries/XMCLib/inc\xmc_vadc.h ****                                                     device*/
 224:G:/dt_g1_balancing_plate_wise20192020/XMC/Libraries/XMCLib/inc\xmc_vadc.h **** #define XMC_VADC_BOUNDARY_AVAILABLE      (1U) /*  Defines the availability of boundary check suppor
 225:G:/dt_g1_balancing_plate_wise20192020/XMC/Libraries/XMCLib/inc\xmc_vadc.h **** #define XMC_VADC_MULTIPLE_SLAVEGROUPS    (1U) /*  Defines the availability of synchronous request s
 226:G:/dt_g1_balancing_plate_wise20192020/XMC/Libraries/XMCLib/inc\xmc_vadc.h **** #define XMC_VADC_MAXIMUM_NUM_GROUPS      (4U) /*  Defines the maximum number of groups available in
 227:G:/dt_g1_balancing_plate_wise20192020/XMC/Libraries/XMCLib/inc\xmc_vadc.h **** #define XMC_VADC_BOUNDARY_FLAG_SELECT    (1U) /*  Defines the availability of boundary flags in a d
 228:G:/dt_g1_balancing_plate_wise20192020/XMC/Libraries/XMCLib/inc\xmc_vadc.h **** #define XMC_VADC_EMUX_CH_SEL_STYLE       (1U) /*  Defines the external multiplexer channel selectio
 229:G:/dt_g1_balancing_plate_wise20192020/XMC/Libraries/XMCLib/inc\xmc_vadc.h ****                                                     operation for a particular device*/
 230:G:/dt_g1_balancing_plate_wise20192020/XMC/Libraries/XMCLib/inc\xmc_vadc.h **** #define XMC_VADC_SHS_AVAILABLE           (0U) /* Defines the availability of sample and hold module
 231:G:/dt_g1_balancing_plate_wise20192020/XMC/Libraries/XMCLib/inc\xmc_vadc.h **** #define XMC_VADC_SHS_FULL_SET_REG        (0U) /* Defines the availability of sample and hold module
 232:G:/dt_g1_balancing_plate_wise20192020/XMC/Libraries/XMCLib/inc\xmc_vadc.h **** #define XMC_VADC_GROUP_SRCREG_AVAILABLE  (1U) /* Define the availability of a source specific resul
 233:G:/dt_g1_balancing_plate_wise20192020/XMC/Libraries/XMCLib/inc\xmc_vadc.h **** #define XMC_VADC_RESULT_PRIORITY_AVAILABLE (0U) /* Define the availability of a priority for result
 234:G:/dt_g1_balancing_plate_wise20192020/XMC/Libraries/XMCLib/inc\xmc_vadc.h **** #endif
 235:G:/dt_g1_balancing_plate_wise20192020/XMC/Libraries/XMCLib/inc\xmc_vadc.h **** 
 236:G:/dt_g1_balancing_plate_wise20192020/XMC/Libraries/XMCLib/inc\xmc_vadc.h **** #if (UC_SERIES == XMC45)
 237:G:/dt_g1_balancing_plate_wise20192020/XMC/Libraries/XMCLib/inc\xmc_vadc.h **** #define XMC_VADC_GROUP_AVAILABLE         (1U) /*  Defines the availability of group resource in a d
 238:G:/dt_g1_balancing_plate_wise20192020/XMC/Libraries/XMCLib/inc\xmc_vadc.h **** #define XMC_VADC_GSCAN_AVAILABLE         (1U) /*  Defines the availability of scan request resource
 239:G:/dt_g1_balancing_plate_wise20192020/XMC/Libraries/XMCLib/inc\xmc_vadc.h **** #define XMC_VADC_QUEUE_AVAILABLE         (1U) /*  Defines the availability of queue request resourc
 240:G:/dt_g1_balancing_plate_wise20192020/XMC/Libraries/XMCLib/inc\xmc_vadc.h **** #define XMC_VADC_EMUX_AVAILABLE          (1U) /*  Defines the availability of external multiplexer 
 241:G:/dt_g1_balancing_plate_wise20192020/XMC/Libraries/XMCLib/inc\xmc_vadc.h ****                                                     device*/
 242:G:/dt_g1_balancing_plate_wise20192020/XMC/Libraries/XMCLib/inc\xmc_vadc.h **** #define XMC_VADC_BOUNDARY_AVAILABLE      (1U) /*  Defines the availability of boundary check suppor
 243:G:/dt_g1_balancing_plate_wise20192020/XMC/Libraries/XMCLib/inc\xmc_vadc.h **** #define XMC_VADC_MULTIPLE_SLAVEGROUPS    (1U) /*  Defines the availability of synchronous request s
 244:G:/dt_g1_balancing_plate_wise20192020/XMC/Libraries/XMCLib/inc\xmc_vadc.h **** #define XMC_VADC_MAXIMUM_NUM_GROUPS      (4U) /*  Defines the maximum number of groups available in
 245:G:/dt_g1_balancing_plate_wise20192020/XMC/Libraries/XMCLib/inc\xmc_vadc.h **** #define XMC_VADC_BOUNDARY_FLAG_SELECT    (0U) /*  Defines the availability of boundary flags in a d
 246:G:/dt_g1_balancing_plate_wise20192020/XMC/Libraries/XMCLib/inc\xmc_vadc.h **** #define XMC_VADC_EMUX_CH_SEL_STYLE       (0U) /*  Defines the external multiplexer channel selectio
 247:G:/dt_g1_balancing_plate_wise20192020/XMC/Libraries/XMCLib/inc\xmc_vadc.h ****                                                     operation for a particular device*/
 248:G:/dt_g1_balancing_plate_wise20192020/XMC/Libraries/XMCLib/inc\xmc_vadc.h **** #define XMC_VADC_SHS_AVAILABLE           (0U) /* Defines the availability of sample and hold module
 249:G:/dt_g1_balancing_plate_wise20192020/XMC/Libraries/XMCLib/inc\xmc_vadc.h **** #define XMC_VADC_SHS_FULL_SET_REG        (0U) /* Defines the availability of sample and hold module
 250:G:/dt_g1_balancing_plate_wise20192020/XMC/Libraries/XMCLib/inc\xmc_vadc.h **** #define XMC_VADC_GROUP_SRCREG_AVAILABLE  (0U) /* Define the availability of a source specific resul
 251:G:/dt_g1_balancing_plate_wise20192020/XMC/Libraries/XMCLib/inc\xmc_vadc.h **** #define XMC_VADC_RESULT_PRIORITY_AVAILABLE (0U) /* Define the availability of a priority for result
 252:G:/dt_g1_balancing_plate_wise20192020/XMC/Libraries/XMCLib/inc\xmc_vadc.h **** #endif
 253:G:/dt_g1_balancing_plate_wise20192020/XMC/Libraries/XMCLib/inc\xmc_vadc.h **** 
 254:G:/dt_g1_balancing_plate_wise20192020/XMC/Libraries/XMCLib/inc\xmc_vadc.h **** #if (UC_SERIES == XMC14 || UC_SERIES == XMC13 || UC_SERIES == XMC12)
 255:G:/dt_g1_balancing_plate_wise20192020/XMC/Libraries/XMCLib/inc\xmc_vadc.h **** #define XMC_VADC_GROUP_AVAILABLE         (1U) /*  Defines the availability of group resource in a d
 256:G:/dt_g1_balancing_plate_wise20192020/XMC/Libraries/XMCLib/inc\xmc_vadc.h **** #define XMC_VADC_GSCAN_AVAILABLE         (1U) /*  Defines the availability of scan request resource
 257:G:/dt_g1_balancing_plate_wise20192020/XMC/Libraries/XMCLib/inc\xmc_vadc.h **** #define XMC_VADC_QUEUE_AVAILABLE         (1U) /*  Defines the availability of queue request resourc
 258:G:/dt_g1_balancing_plate_wise20192020/XMC/Libraries/XMCLib/inc\xmc_vadc.h **** #define XMC_VADC_EMUX_AVAILABLE          (1U) /*  Defines the availability of external multiplexer 
 259:G:/dt_g1_balancing_plate_wise20192020/XMC/Libraries/XMCLib/inc\xmc_vadc.h ****                                                     device*/
 260:G:/dt_g1_balancing_plate_wise20192020/XMC/Libraries/XMCLib/inc\xmc_vadc.h **** #define XMC_VADC_BOUNDARY_AVAILABLE      (1U) /*  Defines the availability of boundary check suppor
 261:G:/dt_g1_balancing_plate_wise20192020/XMC/Libraries/XMCLib/inc\xmc_vadc.h **** #define XMC_VADC_MULTIPLE_SLAVEGROUPS    (1U) /*  Defines the availability of synchronous request s
 262:G:/dt_g1_balancing_plate_wise20192020/XMC/Libraries/XMCLib/inc\xmc_vadc.h **** #define XMC_VADC_MAXIMUM_NUM_GROUPS      (2U) /*  Defines the maximum number of groups available in
 263:G:/dt_g1_balancing_plate_wise20192020/XMC/Libraries/XMCLib/inc\xmc_vadc.h **** #define XMC_VADC_BOUNDARY_FLAG_SELECT    (1U) /*  Defines the availability of boundary flags in a d
 264:G:/dt_g1_balancing_plate_wise20192020/XMC/Libraries/XMCLib/inc\xmc_vadc.h **** #define XMC_VADC_EMUX_CH_SEL_STYLE       (1U) /*  Defines the external multiplexer channel selectio
 265:G:/dt_g1_balancing_plate_wise20192020/XMC/Libraries/XMCLib/inc\xmc_vadc.h ****                                                     operation for a particular device*/
 266:G:/dt_g1_balancing_plate_wise20192020/XMC/Libraries/XMCLib/inc\xmc_vadc.h **** #define XMC_VADC_SHS_AVAILABLE           (1U) /* Defines the availability of sample and hold module
 267:G:/dt_g1_balancing_plate_wise20192020/XMC/Libraries/XMCLib/inc\xmc_vadc.h **** #define XMC_VADC_SHS_FULL_SET_REG        (1U) /* Defines the availability of sample and hold module
 268:G:/dt_g1_balancing_plate_wise20192020/XMC/Libraries/XMCLib/inc\xmc_vadc.h **** #define XMC_VADC_GROUP_SRCREG_AVAILABLE  (1U) /* Define the availability of a source specific resul
 269:G:/dt_g1_balancing_plate_wise20192020/XMC/Libraries/XMCLib/inc\xmc_vadc.h **** #define XMC_VADC_RESULT_PRIORITY_AVAILABLE (1U) /* Define the availability of a priority for result
 270:G:/dt_g1_balancing_plate_wise20192020/XMC/Libraries/XMCLib/inc\xmc_vadc.h **** #endif
 271:G:/dt_g1_balancing_plate_wise20192020/XMC/Libraries/XMCLib/inc\xmc_vadc.h **** 
 272:G:/dt_g1_balancing_plate_wise20192020/XMC/Libraries/XMCLib/inc\xmc_vadc.h **** #if (UC_SERIES == XMC11)
 273:G:/dt_g1_balancing_plate_wise20192020/XMC/Libraries/XMCLib/inc\xmc_vadc.h **** #define XMC_VADC_GROUP_AVAILABLE         (0U) /*  Defines the availability of group resource in a d
 274:G:/dt_g1_balancing_plate_wise20192020/XMC/Libraries/XMCLib/inc\xmc_vadc.h **** #define XMC_VADC_GSCAN_AVAILABLE         (0U) /*  Defines the availability of scan request resource
 275:G:/dt_g1_balancing_plate_wise20192020/XMC/Libraries/XMCLib/inc\xmc_vadc.h **** #define XMC_VADC_QUEUE_AVAILABLE         (0U) /*  Defines the availability of queue request resourc
 276:G:/dt_g1_balancing_plate_wise20192020/XMC/Libraries/XMCLib/inc\xmc_vadc.h **** #define XMC_VADC_EMUX_AVAILABLE          (0U) /*  Defines the availability of external multiplexer 
 277:G:/dt_g1_balancing_plate_wise20192020/XMC/Libraries/XMCLib/inc\xmc_vadc.h ****                                                     device*/
 278:G:/dt_g1_balancing_plate_wise20192020/XMC/Libraries/XMCLib/inc\xmc_vadc.h **** #define XMC_VADC_BOUNDARY_AVAILABLE      (0U) /*  Defines the availability of boundary check suppor
 279:G:/dt_g1_balancing_plate_wise20192020/XMC/Libraries/XMCLib/inc\xmc_vadc.h **** #define XMC_VADC_MULTIPLE_SLAVEGROUPS    (0U) /*  Defines the availability of synchronous request s
 280:G:/dt_g1_balancing_plate_wise20192020/XMC/Libraries/XMCLib/inc\xmc_vadc.h **** #define XMC_VADC_MAXIMUM_NUM_GROUPS      (2U) /*  Defines the maximum number of groups available in
 281:G:/dt_g1_balancing_plate_wise20192020/XMC/Libraries/XMCLib/inc\xmc_vadc.h **** #define XMC_VADC_BOUNDARY_FLAG_SELECT    (0U) /*  Defines the availability of boundary flags in a d
 282:G:/dt_g1_balancing_plate_wise20192020/XMC/Libraries/XMCLib/inc\xmc_vadc.h **** #define XMC_VADC_SHS_START_UP_CAL_ACTIVE (3U) /*  Defines the need for SHS startup calibration acti
 283:G:/dt_g1_balancing_plate_wise20192020/XMC/Libraries/XMCLib/inc\xmc_vadc.h ****                                                     XMC1100 devices */
 284:G:/dt_g1_balancing_plate_wise20192020/XMC/Libraries/XMCLib/inc\xmc_vadc.h **** #define XMC_VADC_CONV_ENABLE_FOR_XMC11   (*(uint32_t*) 0x40010500UL) /*  Defines the additional err
 285:G:/dt_g1_balancing_plate_wise20192020/XMC/Libraries/XMCLib/inc\xmc_vadc.h ****                                                     XMC1100 device for effective working*/ 
 286:G:/dt_g1_balancing_plate_wise20192020/XMC/Libraries/XMCLib/inc\xmc_vadc.h **** #define XMC_VADC_EMUX_CH_SEL_STYLE       (0U) /*  Defines the external multiplexer channel selectio
 287:G:/dt_g1_balancing_plate_wise20192020/XMC/Libraries/XMCLib/inc\xmc_vadc.h ****                                                     operation for a particular device*/
 288:G:/dt_g1_balancing_plate_wise20192020/XMC/Libraries/XMCLib/inc\xmc_vadc.h **** #define XMC_VADC_SHS_AVAILABLE           (1U) /* Defines the availability of sample and hold module
 289:G:/dt_g1_balancing_plate_wise20192020/XMC/Libraries/XMCLib/inc\xmc_vadc.h **** #define XMC_VADC_SHS_FULL_SET_REG        (0U) /* Defines the availability of sample and hold module
 290:G:/dt_g1_balancing_plate_wise20192020/XMC/Libraries/XMCLib/inc\xmc_vadc.h **** #define XMC_VADC_GROUP_SRCREG_AVAILABLE  (0U) /* Define the availability of a source specific resul
 291:G:/dt_g1_balancing_plate_wise20192020/XMC/Libraries/XMCLib/inc\xmc_vadc.h **** #define XMC_VADC_RESULT_PRIORITY_AVAILABLE (0U) /* Define the availability of a priority for result
 292:G:/dt_g1_balancing_plate_wise20192020/XMC/Libraries/XMCLib/inc\xmc_vadc.h **** #endif
 293:G:/dt_g1_balancing_plate_wise20192020/XMC/Libraries/XMCLib/inc\xmc_vadc.h **** 
 294:G:/dt_g1_balancing_plate_wise20192020/XMC/Libraries/XMCLib/inc\xmc_vadc.h **** #define XMC_VADC_NUM_PORTS               (16U) /* Defines the number of hardware ports that can be 
 295:G:/dt_g1_balancing_plate_wise20192020/XMC/Libraries/XMCLib/inc\xmc_vadc.h ****                                                     as triggers and gating signals */
 296:G:/dt_g1_balancing_plate_wise20192020/XMC/Libraries/XMCLib/inc\xmc_vadc.h **** 
 297:G:/dt_g1_balancing_plate_wise20192020/XMC/Libraries/XMCLib/inc\xmc_vadc.h **** #define XMC_VADC_NUM_RESULT_REGISTERS    (16U) /* Defines the number of result holding registers pe
 298:G:/dt_g1_balancing_plate_wise20192020/XMC/Libraries/XMCLib/inc\xmc_vadc.h **** 
 299:G:/dt_g1_balancing_plate_wise20192020/XMC/Libraries/XMCLib/inc\xmc_vadc.h **** #define XMC_VADC_NUM_CHANNELS_PER_GROUP  (8U)  /**< Defines the number of ADC channels per group */
 300:G:/dt_g1_balancing_plate_wise20192020/XMC/Libraries/XMCLib/inc\xmc_vadc.h **** 
 301:G:/dt_g1_balancing_plate_wise20192020/XMC/Libraries/XMCLib/inc\xmc_vadc.h **** /**************************************************************************************************
 302:G:/dt_g1_balancing_plate_wise20192020/XMC/Libraries/XMCLib/inc\xmc_vadc.h ****  * ENUMS
 303:G:/dt_g1_balancing_plate_wise20192020/XMC/Libraries/XMCLib/inc\xmc_vadc.h ****  **************************************************************************************************
 304:G:/dt_g1_balancing_plate_wise20192020/XMC/Libraries/XMCLib/inc\xmc_vadc.h **** typedef uint16_t XMC_VADC_RESULT_SIZE_t; /**< Type defined the converted result size to unsigned 16
 305:G:/dt_g1_balancing_plate_wise20192020/XMC/Libraries/XMCLib/inc\xmc_vadc.h **** typedef VADC_GLOBAL_TypeDef XMC_VADC_GLOBAL_t; /**< Type defined the device header file vadc global
 306:G:/dt_g1_balancing_plate_wise20192020/XMC/Libraries/XMCLib/inc\xmc_vadc.h ****                                              type to VADC type*/
 307:G:/dt_g1_balancing_plate_wise20192020/XMC/Libraries/XMCLib/inc\xmc_vadc.h **** 
 308:G:/dt_g1_balancing_plate_wise20192020/XMC/Libraries/XMCLib/inc\xmc_vadc.h **** #if(XMC_VADC_GROUP_AVAILABLE == 1U)
 309:G:/dt_g1_balancing_plate_wise20192020/XMC/Libraries/XMCLib/inc\xmc_vadc.h **** typedef VADC_G_TypeDef XMC_VADC_GROUP_t; /**< Type defined the device header file vadc group regist
 310:G:/dt_g1_balancing_plate_wise20192020/XMC/Libraries/XMCLib/inc\xmc_vadc.h ****                                              type to VADC Group type*/
 311:G:/dt_g1_balancing_plate_wise20192020/XMC/Libraries/XMCLib/inc\xmc_vadc.h **** #endif
 312:G:/dt_g1_balancing_plate_wise20192020/XMC/Libraries/XMCLib/inc\xmc_vadc.h **** 
 313:G:/dt_g1_balancing_plate_wise20192020/XMC/Libraries/XMCLib/inc\xmc_vadc.h **** #if(XMC_VADC_SHS_AVAILABLE == 1U)
 314:G:/dt_g1_balancing_plate_wise20192020/XMC/Libraries/XMCLib/inc\xmc_vadc.h **** typedef SHS_Type XMC_VADC_GLOBAL_SHS_t; /**< Type defined the sample and hold register structure*/
 315:G:/dt_g1_balancing_plate_wise20192020/XMC/Libraries/XMCLib/inc\xmc_vadc.h **** #endif
 316:G:/dt_g1_balancing_plate_wise20192020/XMC/Libraries/XMCLib/inc\xmc_vadc.h **** /**
 317:G:/dt_g1_balancing_plate_wise20192020/XMC/Libraries/XMCLib/inc\xmc_vadc.h ****  *  Defines the return status after execution of VADC specific API's. Use @ref XMC_VADC_STATUS_t fo
 318:G:/dt_g1_balancing_plate_wise20192020/XMC/Libraries/XMCLib/inc\xmc_vadc.h ****  */
 319:G:/dt_g1_balancing_plate_wise20192020/XMC/Libraries/XMCLib/inc\xmc_vadc.h **** typedef enum XMC_VADC_STATUS
 320:G:/dt_g1_balancing_plate_wise20192020/XMC/Libraries/XMCLib/inc\xmc_vadc.h **** {
 321:G:/dt_g1_balancing_plate_wise20192020/XMC/Libraries/XMCLib/inc\xmc_vadc.h ****   XMC_VADC_STATUS_SUCCESS = 0,   /**< Returned when the API has been able to fulfill the callers re
 322:G:/dt_g1_balancing_plate_wise20192020/XMC/Libraries/XMCLib/inc\xmc_vadc.h ****   XMC_VADC_STATUS_ERROR          /**< Returned when the API cannot fulfill the request */
 323:G:/dt_g1_balancing_plate_wise20192020/XMC/Libraries/XMCLib/inc\xmc_vadc.h **** } XMC_VADC_STATUS_t;
 324:G:/dt_g1_balancing_plate_wise20192020/XMC/Libraries/XMCLib/inc\xmc_vadc.h **** 
 325:G:/dt_g1_balancing_plate_wise20192020/XMC/Libraries/XMCLib/inc\xmc_vadc.h **** /**
 326:G:/dt_g1_balancing_plate_wise20192020/XMC/Libraries/XMCLib/inc\xmc_vadc.h ****  *  Defines the various service requests lines. Each group can raise up to 4 service requests indep
 327:G:/dt_g1_balancing_plate_wise20192020/XMC/Libraries/XMCLib/inc\xmc_vadc.h ****  *  all groups together have the possibility of raising 4 module wide service requests. Use @ref XM
 328:G:/dt_g1_balancing_plate_wise20192020/XMC/Libraries/XMCLib/inc\xmc_vadc.h ****  *  enumeration.
 329:G:/dt_g1_balancing_plate_wise20192020/XMC/Libraries/XMCLib/inc\xmc_vadc.h ****  */
 330:G:/dt_g1_balancing_plate_wise20192020/XMC/Libraries/XMCLib/inc\xmc_vadc.h **** typedef enum XMC_VADC_SR
 331:G:/dt_g1_balancing_plate_wise20192020/XMC/Libraries/XMCLib/inc\xmc_vadc.h **** {
 332:G:/dt_g1_balancing_plate_wise20192020/XMC/Libraries/XMCLib/inc\xmc_vadc.h ****   XMC_VADC_SR_GROUP_SR0 = 0, /**< Group specific Service Request-0 */
 333:G:/dt_g1_balancing_plate_wise20192020/XMC/Libraries/XMCLib/inc\xmc_vadc.h ****   XMC_VADC_SR_GROUP_SR1,     /**< Group specific Service Request-1 */
 334:G:/dt_g1_balancing_plate_wise20192020/XMC/Libraries/XMCLib/inc\xmc_vadc.h ****   XMC_VADC_SR_GROUP_SR2,     /**< Group specific Service Request-2 */
 335:G:/dt_g1_balancing_plate_wise20192020/XMC/Libraries/XMCLib/inc\xmc_vadc.h ****   XMC_VADC_SR_GROUP_SR3,     /**< Group specific Service Request-3 */
 336:G:/dt_g1_balancing_plate_wise20192020/XMC/Libraries/XMCLib/inc\xmc_vadc.h ****   XMC_VADC_SR_SHARED_SR0,    /**< Module Wide Common Service Request-0 */
 337:G:/dt_g1_balancing_plate_wise20192020/XMC/Libraries/XMCLib/inc\xmc_vadc.h ****   XMC_VADC_SR_SHARED_SR1,    /**< Module Wide Common Service Request-1 */
 338:G:/dt_g1_balancing_plate_wise20192020/XMC/Libraries/XMCLib/inc\xmc_vadc.h ****   XMC_VADC_SR_SHARED_SR2,    /**< Module Wide Common Service Request-2 */
 339:G:/dt_g1_balancing_plate_wise20192020/XMC/Libraries/XMCLib/inc\xmc_vadc.h ****   XMC_VADC_SR_SHARED_SR3    /**< Module Wide Common Service Request-3 */
 340:G:/dt_g1_balancing_plate_wise20192020/XMC/Libraries/XMCLib/inc\xmc_vadc.h **** } XMC_VADC_SR_t;
 341:G:/dt_g1_balancing_plate_wise20192020/XMC/Libraries/XMCLib/inc\xmc_vadc.h **** 
 342:G:/dt_g1_balancing_plate_wise20192020/XMC/Libraries/XMCLib/inc\xmc_vadc.h **** /**
 343:G:/dt_g1_balancing_plate_wise20192020/XMC/Libraries/XMCLib/inc\xmc_vadc.h ****  *  Defines the mode of operation of a channel, when an ongoing conversion gets interrupted in betw
 344:G:/dt_g1_balancing_plate_wise20192020/XMC/Libraries/XMCLib/inc\xmc_vadc.h ****  *  Use @ref XMC_VADC_STARTMODE_t for this enumeration.
 345:G:/dt_g1_balancing_plate_wise20192020/XMC/Libraries/XMCLib/inc\xmc_vadc.h ****  */
 346:G:/dt_g1_balancing_plate_wise20192020/XMC/Libraries/XMCLib/inc\xmc_vadc.h **** typedef enum XMC_VADC_STARTMODE
 347:G:/dt_g1_balancing_plate_wise20192020/XMC/Libraries/XMCLib/inc\xmc_vadc.h **** {
 348:G:/dt_g1_balancing_plate_wise20192020/XMC/Libraries/XMCLib/inc\xmc_vadc.h ****   XMC_VADC_STARTMODE_WFS = 0, /**< An ongoing conversion completes without interruption */
 349:G:/dt_g1_balancing_plate_wise20192020/XMC/Libraries/XMCLib/inc\xmc_vadc.h ****   XMC_VADC_STARTMODE_CIR,     /**< An ongoing conversion can be interrupted and resumed later*/
 350:G:/dt_g1_balancing_plate_wise20192020/XMC/Libraries/XMCLib/inc\xmc_vadc.h ****   XMC_VADC_STARTMODE_CNR     /**< An ongoing conversion can be interrupted and never resumed */
 351:G:/dt_g1_balancing_plate_wise20192020/XMC/Libraries/XMCLib/inc\xmc_vadc.h **** } XMC_VADC_STARTMODE_t;
 352:G:/dt_g1_balancing_plate_wise20192020/XMC/Libraries/XMCLib/inc\xmc_vadc.h **** 
 353:G:/dt_g1_balancing_plate_wise20192020/XMC/Libraries/XMCLib/inc\xmc_vadc.h **** /**
 354:G:/dt_g1_balancing_plate_wise20192020/XMC/Libraries/XMCLib/inc\xmc_vadc.h ****  *  Defines the edge sensitivity of the trigger signal which can assert a conversion.
 355:G:/dt_g1_balancing_plate_wise20192020/XMC/Libraries/XMCLib/inc\xmc_vadc.h ****  *  Use @ref XMC_VADC_TRIGGER_EDGE_t for this enumeration.
 356:G:/dt_g1_balancing_plate_wise20192020/XMC/Libraries/XMCLib/inc\xmc_vadc.h ****  */
 357:G:/dt_g1_balancing_plate_wise20192020/XMC/Libraries/XMCLib/inc\xmc_vadc.h **** typedef enum XMC_VADC_TRIGGER_EDGE
 358:G:/dt_g1_balancing_plate_wise20192020/XMC/Libraries/XMCLib/inc\xmc_vadc.h **** {
 359:G:/dt_g1_balancing_plate_wise20192020/XMC/Libraries/XMCLib/inc\xmc_vadc.h ****   XMC_VADC_TRIGGER_EDGE_NONE = 0, /**< No external trigger. Conversion request can be asserted by s
 360:G:/dt_g1_balancing_plate_wise20192020/XMC/Libraries/XMCLib/inc\xmc_vadc.h ****   XMC_VADC_TRIGGER_EDGE_FALLING,  /**< The falling edge of the external trigger can assert conversi
 361:G:/dt_g1_balancing_plate_wise20192020/XMC/Libraries/XMCLib/inc\xmc_vadc.h ****   XMC_VADC_TRIGGER_EDGE_RISING,   /**< The rising edge of the external trigger can assert conversio
 362:G:/dt_g1_balancing_plate_wise20192020/XMC/Libraries/XMCLib/inc\xmc_vadc.h ****   XMC_VADC_TRIGGER_EDGE_ANY       /**< Both the edges can assert conversion request */
 363:G:/dt_g1_balancing_plate_wise20192020/XMC/Libraries/XMCLib/inc\xmc_vadc.h **** } XMC_VADC_TRIGGER_EDGE_t;
 364:G:/dt_g1_balancing_plate_wise20192020/XMC/Libraries/XMCLib/inc\xmc_vadc.h **** 
 365:G:/dt_g1_balancing_plate_wise20192020/XMC/Libraries/XMCLib/inc\xmc_vadc.h **** /**
 366:G:/dt_g1_balancing_plate_wise20192020/XMC/Libraries/XMCLib/inc\xmc_vadc.h ****  *  Defines the external trigger input selection possibilities, to assert a conversion. Refer the V
 367:G:/dt_g1_balancing_plate_wise20192020/XMC/Libraries/XMCLib/inc\xmc_vadc.h ****  *  section of the reference manual for details of peripherals which can be used. Also refer xmc_va
 368:G:/dt_g1_balancing_plate_wise20192020/XMC/Libraries/XMCLib/inc\xmc_vadc.h ****  *  detailed definitions of the peripherals which can take the control of these enumeration items.
 369:G:/dt_g1_balancing_plate_wise20192020/XMC/Libraries/XMCLib/inc\xmc_vadc.h ****  *  Use @ref XMC_VADC_TRIGGER_INPUT_SELECT_t for this enumeration.
 370:G:/dt_g1_balancing_plate_wise20192020/XMC/Libraries/XMCLib/inc\xmc_vadc.h ****  */
 371:G:/dt_g1_balancing_plate_wise20192020/XMC/Libraries/XMCLib/inc\xmc_vadc.h **** typedef enum XMC_VADC_TRIGGER_INPUT_SELECT
 372:G:/dt_g1_balancing_plate_wise20192020/XMC/Libraries/XMCLib/inc\xmc_vadc.h **** {
 373:G:/dt_g1_balancing_plate_wise20192020/XMC/Libraries/XMCLib/inc\xmc_vadc.h ****   XMC_VADC_REQ_TR_A = 0, /**< Trigger select signal A */
 374:G:/dt_g1_balancing_plate_wise20192020/XMC/Libraries/XMCLib/inc\xmc_vadc.h ****   XMC_VADC_REQ_TR_B,     /**< Trigger select signal B */
 375:G:/dt_g1_balancing_plate_wise20192020/XMC/Libraries/XMCLib/inc\xmc_vadc.h ****   XMC_VADC_REQ_TR_C,     /**< Trigger select signal C */
 376:G:/dt_g1_balancing_plate_wise20192020/XMC/Libraries/XMCLib/inc\xmc_vadc.h ****   XMC_VADC_REQ_TR_D,     /**< Trigger select signal D */
 377:G:/dt_g1_balancing_plate_wise20192020/XMC/Libraries/XMCLib/inc\xmc_vadc.h ****   XMC_VADC_REQ_TR_E,     /**< Trigger select signal E */
 378:G:/dt_g1_balancing_plate_wise20192020/XMC/Libraries/XMCLib/inc\xmc_vadc.h ****   XMC_VADC_REQ_TR_F,     /**< Trigger select signal F */
 379:G:/dt_g1_balancing_plate_wise20192020/XMC/Libraries/XMCLib/inc\xmc_vadc.h ****   XMC_VADC_REQ_TR_G,     /**< Trigger select signal G */
 380:G:/dt_g1_balancing_plate_wise20192020/XMC/Libraries/XMCLib/inc\xmc_vadc.h ****   XMC_VADC_REQ_TR_H,     /**< Trigger select signal H */
 381:G:/dt_g1_balancing_plate_wise20192020/XMC/Libraries/XMCLib/inc\xmc_vadc.h ****   XMC_VADC_REQ_TR_I,     /**< Trigger select signal I */
 382:G:/dt_g1_balancing_plate_wise20192020/XMC/Libraries/XMCLib/inc\xmc_vadc.h ****   XMC_VADC_REQ_TR_J,     /**< Trigger select signal J */
 383:G:/dt_g1_balancing_plate_wise20192020/XMC/Libraries/XMCLib/inc\xmc_vadc.h ****   XMC_VADC_REQ_TR_K,     /**< Trigger select signal K */
 384:G:/dt_g1_balancing_plate_wise20192020/XMC/Libraries/XMCLib/inc\xmc_vadc.h ****   XMC_VADC_REQ_TR_L,     /**< Trigger select signal L */
 385:G:/dt_g1_balancing_plate_wise20192020/XMC/Libraries/XMCLib/inc\xmc_vadc.h ****   XMC_VADC_REQ_TR_M,     /**< Trigger select signal M */
 386:G:/dt_g1_balancing_plate_wise20192020/XMC/Libraries/XMCLib/inc\xmc_vadc.h ****   XMC_VADC_REQ_TR_N,     /**< Trigger select signal N */
 387:G:/dt_g1_balancing_plate_wise20192020/XMC/Libraries/XMCLib/inc\xmc_vadc.h ****   XMC_VADC_REQ_TR_O,     /**< Trigger select signal O */
 388:G:/dt_g1_balancing_plate_wise20192020/XMC/Libraries/XMCLib/inc\xmc_vadc.h ****   XMC_VADC_REQ_TR_P      /**< Trigger select signal P */
 389:G:/dt_g1_balancing_plate_wise20192020/XMC/Libraries/XMCLib/inc\xmc_vadc.h ****   
 390:G:/dt_g1_balancing_plate_wise20192020/XMC/Libraries/XMCLib/inc\xmc_vadc.h **** } XMC_VADC_TRIGGER_INPUT_SELECT_t;
 391:G:/dt_g1_balancing_plate_wise20192020/XMC/Libraries/XMCLib/inc\xmc_vadc.h **** 
 392:G:/dt_g1_balancing_plate_wise20192020/XMC/Libraries/XMCLib/inc\xmc_vadc.h **** /**
 393:G:/dt_g1_balancing_plate_wise20192020/XMC/Libraries/XMCLib/inc\xmc_vadc.h ****  *  Defines the external gating input selection possibilities, to gate the conversion requests. Ref
 394:G:/dt_g1_balancing_plate_wise20192020/XMC/Libraries/XMCLib/inc\xmc_vadc.h ****  *  interconnects section of the reference manual for details of peripherals which can be used. Als
 395:G:/dt_g1_balancing_plate_wise20192020/XMC/Libraries/XMCLib/inc\xmc_vadc.h ****  *  xmc_vadc_map.h file for detailed definitions of the peripherals which can take the control of t
 396:G:/dt_g1_balancing_plate_wise20192020/XMC/Libraries/XMCLib/inc\xmc_vadc.h ****  *  items. Use @ref XMC_VADC_GATE_INPUT_SELECT_t for this enumeration.
 397:G:/dt_g1_balancing_plate_wise20192020/XMC/Libraries/XMCLib/inc\xmc_vadc.h ****  */
 398:G:/dt_g1_balancing_plate_wise20192020/XMC/Libraries/XMCLib/inc\xmc_vadc.h **** typedef enum XMC_VADC_GATE_INPUT_SELECT
 399:G:/dt_g1_balancing_plate_wise20192020/XMC/Libraries/XMCLib/inc\xmc_vadc.h **** {
 400:G:/dt_g1_balancing_plate_wise20192020/XMC/Libraries/XMCLib/inc\xmc_vadc.h ****   XMC_VADC_REQ_GT_A = 0, /**< Gating select signal A */
 401:G:/dt_g1_balancing_plate_wise20192020/XMC/Libraries/XMCLib/inc\xmc_vadc.h ****   XMC_VADC_REQ_GT_B,     /**< Gating select signal B */
 402:G:/dt_g1_balancing_plate_wise20192020/XMC/Libraries/XMCLib/inc\xmc_vadc.h ****   XMC_VADC_REQ_GT_C,     /**< Gating select signal C */
 403:G:/dt_g1_balancing_plate_wise20192020/XMC/Libraries/XMCLib/inc\xmc_vadc.h ****   XMC_VADC_REQ_GT_D,     /**< Gating select signal D */
 404:G:/dt_g1_balancing_plate_wise20192020/XMC/Libraries/XMCLib/inc\xmc_vadc.h ****   XMC_VADC_REQ_GT_E,     /**< Gating select signal E */
 405:G:/dt_g1_balancing_plate_wise20192020/XMC/Libraries/XMCLib/inc\xmc_vadc.h ****   XMC_VADC_REQ_GT_F,     /**< Gating select signal F */
 406:G:/dt_g1_balancing_plate_wise20192020/XMC/Libraries/XMCLib/inc\xmc_vadc.h ****   XMC_VADC_REQ_GT_G,     /**< Gating select signal G */
 407:G:/dt_g1_balancing_plate_wise20192020/XMC/Libraries/XMCLib/inc\xmc_vadc.h ****   XMC_VADC_REQ_GT_H,     /**< Gating select signal H */
 408:G:/dt_g1_balancing_plate_wise20192020/XMC/Libraries/XMCLib/inc\xmc_vadc.h ****   XMC_VADC_REQ_GT_I,     /**< Gating select signal I */
 409:G:/dt_g1_balancing_plate_wise20192020/XMC/Libraries/XMCLib/inc\xmc_vadc.h ****   XMC_VADC_REQ_GT_J,     /**< Gating select signal J */
 410:G:/dt_g1_balancing_plate_wise20192020/XMC/Libraries/XMCLib/inc\xmc_vadc.h ****   XMC_VADC_REQ_GT_K,     /**< Gating select signal K */
 411:G:/dt_g1_balancing_plate_wise20192020/XMC/Libraries/XMCLib/inc\xmc_vadc.h ****   XMC_VADC_REQ_GT_L,     /**< Gating select signal L */
 412:G:/dt_g1_balancing_plate_wise20192020/XMC/Libraries/XMCLib/inc\xmc_vadc.h ****   XMC_VADC_REQ_GT_M,     /**< Gating select signal M */
 413:G:/dt_g1_balancing_plate_wise20192020/XMC/Libraries/XMCLib/inc\xmc_vadc.h ****   XMC_VADC_REQ_GT_N,     /**< Gating select signal N */
 414:G:/dt_g1_balancing_plate_wise20192020/XMC/Libraries/XMCLib/inc\xmc_vadc.h ****   XMC_VADC_REQ_GT_O,     /**< Gating select signal O */
 415:G:/dt_g1_balancing_plate_wise20192020/XMC/Libraries/XMCLib/inc\xmc_vadc.h ****   XMC_VADC_REQ_GT_P      /**< Gating select signal P */
 416:G:/dt_g1_balancing_plate_wise20192020/XMC/Libraries/XMCLib/inc\xmc_vadc.h ****   
 417:G:/dt_g1_balancing_plate_wise20192020/XMC/Libraries/XMCLib/inc\xmc_vadc.h **** } XMC_VADC_GATE_INPUT_SELECT_t;
 418:G:/dt_g1_balancing_plate_wise20192020/XMC/Libraries/XMCLib/inc\xmc_vadc.h **** 
 419:G:/dt_g1_balancing_plate_wise20192020/XMC/Libraries/XMCLib/inc\xmc_vadc.h **** /**
 420:G:/dt_g1_balancing_plate_wise20192020/XMC/Libraries/XMCLib/inc\xmc_vadc.h ****  * Defines the condition for gating the conversion requests. It can be used to set the ENGT field
 421:G:/dt_g1_balancing_plate_wise20192020/XMC/Libraries/XMCLib/inc\xmc_vadc.h ****  * of ASMR/BSMR/QMR register respectively for auto_scan/background_scan/queue request sources.
 422:G:/dt_g1_balancing_plate_wise20192020/XMC/Libraries/XMCLib/inc\xmc_vadc.h ****  * Use @ref XMC_VADC_GATEMODE_t for this enumeration.
 423:G:/dt_g1_balancing_plate_wise20192020/XMC/Libraries/XMCLib/inc\xmc_vadc.h ****  */
 424:G:/dt_g1_balancing_plate_wise20192020/XMC/Libraries/XMCLib/inc\xmc_vadc.h **** typedef enum XMC_VADC_GATEMODE
 425:G:/dt_g1_balancing_plate_wise20192020/XMC/Libraries/XMCLib/inc\xmc_vadc.h **** {
 426:G:/dt_g1_balancing_plate_wise20192020/XMC/Libraries/XMCLib/inc\xmc_vadc.h ****   XMC_VADC_GATEMODE_BLOCK = 0,  /**< External triggers are permanently blocked */
 427:G:/dt_g1_balancing_plate_wise20192020/XMC/Libraries/XMCLib/inc\xmc_vadc.h ****   XMC_VADC_GATEMODE_IGNORE,     /**< External triggers are unconditionally passed */
 428:G:/dt_g1_balancing_plate_wise20192020/XMC/Libraries/XMCLib/inc\xmc_vadc.h ****   XMC_VADC_GATEMODE_ACTIVEHIGH, /**< External trigger is passed only if the gate signal is high */
 429:G:/dt_g1_balancing_plate_wise20192020/XMC/Libraries/XMCLib/inc\xmc_vadc.h ****   XMC_VADC_GATEMODE_ACTIVELOW  /**< External trigger is passed only if the gate signal is low */
 430:G:/dt_g1_balancing_plate_wise20192020/XMC/Libraries/XMCLib/inc\xmc_vadc.h **** } XMC_VADC_GATEMODE_t;
 431:G:/dt_g1_balancing_plate_wise20192020/XMC/Libraries/XMCLib/inc\xmc_vadc.h **** 
 432:G:/dt_g1_balancing_plate_wise20192020/XMC/Libraries/XMCLib/inc\xmc_vadc.h **** /**
 433:G:/dt_g1_balancing_plate_wise20192020/XMC/Libraries/XMCLib/inc\xmc_vadc.h ****  * Defines the conversion result handling mode. Use @ref XMC_VADC_DMM_t for this enumeration.
 434:G:/dt_g1_balancing_plate_wise20192020/XMC/Libraries/XMCLib/inc\xmc_vadc.h ****  */
 435:G:/dt_g1_balancing_plate_wise20192020/XMC/Libraries/XMCLib/inc\xmc_vadc.h **** typedef enum XMC_VADC_DMM
 436:G:/dt_g1_balancing_plate_wise20192020/XMC/Libraries/XMCLib/inc\xmc_vadc.h **** {
 437:G:/dt_g1_balancing_plate_wise20192020/XMC/Libraries/XMCLib/inc\xmc_vadc.h ****   XMC_VADC_DMM_REDUCTION_MODE = 0, /**< Standard Data reduction mode*/
 438:G:/dt_g1_balancing_plate_wise20192020/XMC/Libraries/XMCLib/inc\xmc_vadc.h ****   XMC_VADC_DMM_FILTERING_MODE,     /**< Provide option to select Finite Impulse Response Filter (FI
 439:G:/dt_g1_balancing_plate_wise20192020/XMC/Libraries/XMCLib/inc\xmc_vadc.h ****                                         Infinite Impulse Response Filter (IIR)*/
 440:G:/dt_g1_balancing_plate_wise20192020/XMC/Libraries/XMCLib/inc\xmc_vadc.h ****   XMC_VADC_DMM_DIFFERENCE_MODE,    /**< Difference mode is selected*/
 441:G:/dt_g1_balancing_plate_wise20192020/XMC/Libraries/XMCLib/inc\xmc_vadc.h **** } XMC_VADC_DMM_t;
 442:G:/dt_g1_balancing_plate_wise20192020/XMC/Libraries/XMCLib/inc\xmc_vadc.h **** 
 443:G:/dt_g1_balancing_plate_wise20192020/XMC/Libraries/XMCLib/inc\xmc_vadc.h **** /**
 444:G:/dt_g1_balancing_plate_wise20192020/XMC/Libraries/XMCLib/inc\xmc_vadc.h ****  *  Defines the conversion mode. It defines the resolution of conversion. Use XMC_VADC_CONVMODE_t f
 445:G:/dt_g1_balancing_plate_wise20192020/XMC/Libraries/XMCLib/inc\xmc_vadc.h ****  */
 446:G:/dt_g1_balancing_plate_wise20192020/XMC/Libraries/XMCLib/inc\xmc_vadc.h **** typedef enum XMC_VADC_CONVMODE
 447:G:/dt_g1_balancing_plate_wise20192020/XMC/Libraries/XMCLib/inc\xmc_vadc.h **** {
 448:G:/dt_g1_balancing_plate_wise20192020/XMC/Libraries/XMCLib/inc\xmc_vadc.h ****   XMC_VADC_CONVMODE_12BIT       = 0,  /**< Results of conversion are 12bits wide */
 449:G:/dt_g1_balancing_plate_wise20192020/XMC/Libraries/XMCLib/inc\xmc_vadc.h ****   XMC_VADC_CONVMODE_10BIT       = 1,  /**< Results of conversion are 10bits wide */
 450:G:/dt_g1_balancing_plate_wise20192020/XMC/Libraries/XMCLib/inc\xmc_vadc.h ****   XMC_VADC_CONVMODE_8BIT        = 2,  /**< Results of conversion are 8bits wide */
 451:G:/dt_g1_balancing_plate_wise20192020/XMC/Libraries/XMCLib/inc\xmc_vadc.h ****   XMC_VADC_CONVMODE_FASTCOMPARE = 5  /**< Input signal compared with a preset range */
 452:G:/dt_g1_balancing_plate_wise20192020/XMC/Libraries/XMCLib/inc\xmc_vadc.h **** } XMC_VADC_CONVMODE_t;
 453:G:/dt_g1_balancing_plate_wise20192020/XMC/Libraries/XMCLib/inc\xmc_vadc.h **** 
 454:G:/dt_g1_balancing_plate_wise20192020/XMC/Libraries/XMCLib/inc\xmc_vadc.h **** /**
 455:G:/dt_g1_balancing_plate_wise20192020/XMC/Libraries/XMCLib/inc\xmc_vadc.h ****  *  Defines the output of a fast compare mode. Use @ref XMC_VADC_FAST_COMPARE_t for
 456:G:/dt_g1_balancing_plate_wise20192020/XMC/Libraries/XMCLib/inc\xmc_vadc.h ****  *  this enumeration.
 457:G:/dt_g1_balancing_plate_wise20192020/XMC/Libraries/XMCLib/inc\xmc_vadc.h ****  */
 458:G:/dt_g1_balancing_plate_wise20192020/XMC/Libraries/XMCLib/inc\xmc_vadc.h **** typedef enum XMC_VADC_FAST_COMPARE
 459:G:/dt_g1_balancing_plate_wise20192020/XMC/Libraries/XMCLib/inc\xmc_vadc.h **** {
 460:G:/dt_g1_balancing_plate_wise20192020/XMC/Libraries/XMCLib/inc\xmc_vadc.h ****   XMC_VADC_FAST_COMPARE_LOW = 0, /**< Input lower than than programmed reference */
 461:G:/dt_g1_balancing_plate_wise20192020/XMC/Libraries/XMCLib/inc\xmc_vadc.h ****   XMC_VADC_FAST_COMPARE_HIGH ,   /**< Input higher than than programmed reference */
 462:G:/dt_g1_balancing_plate_wise20192020/XMC/Libraries/XMCLib/inc\xmc_vadc.h ****   XMC_VADC_FAST_COMPARE_UNKNOWN  /**< Unknown, Conversion probably still ongoing */
 463:G:/dt_g1_balancing_plate_wise20192020/XMC/Libraries/XMCLib/inc\xmc_vadc.h **** } XMC_VADC_FAST_COMPARE_t;
 464:G:/dt_g1_balancing_plate_wise20192020/XMC/Libraries/XMCLib/inc\xmc_vadc.h ****  
 465:G:/dt_g1_balancing_plate_wise20192020/XMC/Libraries/XMCLib/inc\xmc_vadc.h **** /**
 466:G:/dt_g1_balancing_plate_wise20192020/XMC/Libraries/XMCLib/inc\xmc_vadc.h ****  * Defines the type of scan request source to be used. It can choose between auto scan and backgrou
 467:G:/dt_g1_balancing_plate_wise20192020/XMC/Libraries/XMCLib/inc\xmc_vadc.h ****  * source methods. Use @ref XMC_VADC_SCAN_TYPE_t for this enumeration.
 468:G:/dt_g1_balancing_plate_wise20192020/XMC/Libraries/XMCLib/inc\xmc_vadc.h ****  */
 469:G:/dt_g1_balancing_plate_wise20192020/XMC/Libraries/XMCLib/inc\xmc_vadc.h **** typedef enum XMC_VADC_SCAN_TYPE
 470:G:/dt_g1_balancing_plate_wise20192020/XMC/Libraries/XMCLib/inc\xmc_vadc.h **** {
 471:G:/dt_g1_balancing_plate_wise20192020/XMC/Libraries/XMCLib/inc\xmc_vadc.h ****   XMC_VADC_SCAN_TYPE_GROUPSCAN = 0, /**< Auto scan mode of operation selected. Also called as Group
 472:G:/dt_g1_balancing_plate_wise20192020/XMC/Libraries/XMCLib/inc\xmc_vadc.h ****   XMC_VADC_SCAN_TYPE_BACKGROUND    /**< Background scan mode of operation selected. Also called as 
 473:G:/dt_g1_balancing_plate_wise20192020/XMC/Libraries/XMCLib/inc\xmc_vadc.h **** } XMC_VADC_SCAN_TYPE_t;
 474:G:/dt_g1_balancing_plate_wise20192020/XMC/Libraries/XMCLib/inc\xmc_vadc.h **** 
 475:G:/dt_g1_balancing_plate_wise20192020/XMC/Libraries/XMCLib/inc\xmc_vadc.h **** /**
 476:G:/dt_g1_balancing_plate_wise20192020/XMC/Libraries/XMCLib/inc\xmc_vadc.h ****  * Defines the behavior of load event for the scan request source. Use @ref XMC_VADC_SCAN_LOAD_t fo
 477:G:/dt_g1_balancing_plate_wise20192020/XMC/Libraries/XMCLib/inc\xmc_vadc.h ****  */
 478:G:/dt_g1_balancing_plate_wise20192020/XMC/Libraries/XMCLib/inc\xmc_vadc.h **** typedef enum XMC_VADC_SCAN_LOAD
 479:G:/dt_g1_balancing_plate_wise20192020/XMC/Libraries/XMCLib/inc\xmc_vadc.h **** {
 480:G:/dt_g1_balancing_plate_wise20192020/XMC/Libraries/XMCLib/inc\xmc_vadc.h ****   XMC_VADC_SCAN_LOAD_OVERWRITE = 0, /**< The old set of channels is discarded in favor of the new s
 481:G:/dt_g1_balancing_plate_wise20192020/XMC/Libraries/XMCLib/inc\xmc_vadc.h ****                                          awaiting conversion */
 482:G:/dt_g1_balancing_plate_wise20192020/XMC/Libraries/XMCLib/inc\xmc_vadc.h ****   XMC_VADC_SCAN_LOAD_COMBINE       /**< The new set of channels are combined with the pending chann
 483:G:/dt_g1_balancing_plate_wise20192020/XMC/Libraries/XMCLib/inc\xmc_vadc.h ****                                          previous set */
 484:G:/dt_g1_balancing_plate_wise20192020/XMC/Libraries/XMCLib/inc\xmc_vadc.h **** } XMC_VADC_SCAN_LOAD_t;
 485:G:/dt_g1_balancing_plate_wise20192020/XMC/Libraries/XMCLib/inc\xmc_vadc.h **** 
 486:G:/dt_g1_balancing_plate_wise20192020/XMC/Libraries/XMCLib/inc\xmc_vadc.h **** /**
 487:G:/dt_g1_balancing_plate_wise20192020/XMC/Libraries/XMCLib/inc\xmc_vadc.h ****  * Defines the conversion classes that can be selected for each channel. The enumeration members ho
 488:G:/dt_g1_balancing_plate_wise20192020/XMC/Libraries/XMCLib/inc\xmc_vadc.h ****  * global classes. The conversion classes decides the properties of conversion, like resolution, sa
 489:G:/dt_g1_balancing_plate_wise20192020/XMC/Libraries/XMCLib/inc\xmc_vadc.h ****  * Use @ref XMC_VADC_CHANNEL_CONV_t for this enumeration.
 490:G:/dt_g1_balancing_plate_wise20192020/XMC/Libraries/XMCLib/inc\xmc_vadc.h ****  */
 491:G:/dt_g1_balancing_plate_wise20192020/XMC/Libraries/XMCLib/inc\xmc_vadc.h **** 
 492:G:/dt_g1_balancing_plate_wise20192020/XMC/Libraries/XMCLib/inc\xmc_vadc.h **** typedef enum XMC_VADC_CHANNEL_CONV
 493:G:/dt_g1_balancing_plate_wise20192020/XMC/Libraries/XMCLib/inc\xmc_vadc.h **** {
 494:G:/dt_g1_balancing_plate_wise20192020/XMC/Libraries/XMCLib/inc\xmc_vadc.h ****   XMC_VADC_CHANNEL_CONV_GROUP_CLASS0 = 0, /**< Conversion property set-0 specific to the group */
 495:G:/dt_g1_balancing_plate_wise20192020/XMC/Libraries/XMCLib/inc\xmc_vadc.h ****   XMC_VADC_CHANNEL_CONV_GROUP_CLASS1,     /**< Conversion property set-1 specific to the group */
 496:G:/dt_g1_balancing_plate_wise20192020/XMC/Libraries/XMCLib/inc\xmc_vadc.h ****   XMC_VADC_CHANNEL_CONV_GLOBAL_CLASS0,    /**< Conversion property set-0, Module wide */
 497:G:/dt_g1_balancing_plate_wise20192020/XMC/Libraries/XMCLib/inc\xmc_vadc.h ****   XMC_VADC_CHANNEL_CONV_GLOBAL_CLASS1    /**< Conversion property set-1, Module wide */
 498:G:/dt_g1_balancing_plate_wise20192020/XMC/Libraries/XMCLib/inc\xmc_vadc.h **** } XMC_VADC_CHANNEL_CONV_t;
 499:G:/dt_g1_balancing_plate_wise20192020/XMC/Libraries/XMCLib/inc\xmc_vadc.h **** 
 500:G:/dt_g1_balancing_plate_wise20192020/XMC/Libraries/XMCLib/inc\xmc_vadc.h **** /**
 501:G:/dt_g1_balancing_plate_wise20192020/XMC/Libraries/XMCLib/inc\xmc_vadc.h ****  * Defines the references to boundary values used for limit checking feature. Each of these can be 
 502:G:/dt_g1_balancing_plate_wise20192020/XMC/Libraries/XMCLib/inc\xmc_vadc.h ****  * either an upper bound or a lower bound. Use @ref XMC_VADC_CHANNEL_BOUNDARY_t for this enumeratio
 503:G:/dt_g1_balancing_plate_wise20192020/XMC/Libraries/XMCLib/inc\xmc_vadc.h ****  */
 504:G:/dt_g1_balancing_plate_wise20192020/XMC/Libraries/XMCLib/inc\xmc_vadc.h **** 
 505:G:/dt_g1_balancing_plate_wise20192020/XMC/Libraries/XMCLib/inc\xmc_vadc.h **** typedef enum XMC_VADC_CHANNEL_BOUNDARY
 506:G:/dt_g1_balancing_plate_wise20192020/XMC/Libraries/XMCLib/inc\xmc_vadc.h **** {
 507:G:/dt_g1_balancing_plate_wise20192020/XMC/Libraries/XMCLib/inc\xmc_vadc.h ****   XMC_VADC_CHANNEL_BOUNDARY_GROUP_BOUND0 = 0, /**< Group specific Boundary-0 value */
 508:G:/dt_g1_balancing_plate_wise20192020/XMC/Libraries/XMCLib/inc\xmc_vadc.h ****   XMC_VADC_CHANNEL_BOUNDARY_GROUP_BOUND1,     /**< Group specific Boundary-1 value */
 509:G:/dt_g1_balancing_plate_wise20192020/XMC/Libraries/XMCLib/inc\xmc_vadc.h ****   XMC_VADC_CHANNEL_BOUNDARY_GLOBAL_BOUND0,    /**< Module wide Boundary-0 value */
 510:G:/dt_g1_balancing_plate_wise20192020/XMC/Libraries/XMCLib/inc\xmc_vadc.h ****   XMC_VADC_CHANNEL_BOUNDARY_GLOBAL_BOUND1    /**< Module wide Boundary-1 value */
 511:G:/dt_g1_balancing_plate_wise20192020/XMC/Libraries/XMCLib/inc\xmc_vadc.h **** } XMC_VADC_CHANNEL_BOUNDARY_t;
 512:G:/dt_g1_balancing_plate_wise20192020/XMC/Libraries/XMCLib/inc\xmc_vadc.h **** 
 513:G:/dt_g1_balancing_plate_wise20192020/XMC/Libraries/XMCLib/inc\xmc_vadc.h **** /**
 514:G:/dt_g1_balancing_plate_wise20192020/XMC/Libraries/XMCLib/inc\xmc_vadc.h ****  * Defines the voltage which the capacitor is charged to. Used in Broken wire detection feature. Us
 515:G:/dt_g1_balancing_plate_wise20192020/XMC/Libraries/XMCLib/inc\xmc_vadc.h ****  * @ref XMC_VADC_CHANNEL_BWDCH_t for this enumeration.
 516:G:/dt_g1_balancing_plate_wise20192020/XMC/Libraries/XMCLib/inc\xmc_vadc.h ****  */
 517:G:/dt_g1_balancing_plate_wise20192020/XMC/Libraries/XMCLib/inc\xmc_vadc.h **** typedef enum XMC_VADC_CHANNEL_BWDCH
 518:G:/dt_g1_balancing_plate_wise20192020/XMC/Libraries/XMCLib/inc\xmc_vadc.h **** {
 519:G:/dt_g1_balancing_plate_wise20192020/XMC/Libraries/XMCLib/inc\xmc_vadc.h ****   XMC_VADC_CHANNEL_BWDCH_VAGND = 0, /**< Capacitor pre-charged to ground*/
 520:G:/dt_g1_balancing_plate_wise20192020/XMC/Libraries/XMCLib/inc\xmc_vadc.h ****   XMC_VADC_CHANNEL_BWDCH_VAREF     /**< Capacitor pre-charged to reference voltage*/
 521:G:/dt_g1_balancing_plate_wise20192020/XMC/Libraries/XMCLib/inc\xmc_vadc.h **** } XMC_VADC_CHANNEL_BWDCH_t;
 522:G:/dt_g1_balancing_plate_wise20192020/XMC/Libraries/XMCLib/inc\xmc_vadc.h **** 
 523:G:/dt_g1_balancing_plate_wise20192020/XMC/Libraries/XMCLib/inc\xmc_vadc.h **** /**
 524:G:/dt_g1_balancing_plate_wise20192020/XMC/Libraries/XMCLib/inc\xmc_vadc.h ****  *   Defines the criteria for event generation by the channel. Use @ref XMC_VADC_CHANNEL_EVGEN_t fo
 525:G:/dt_g1_balancing_plate_wise20192020/XMC/Libraries/XMCLib/inc\xmc_vadc.h ****  */
 526:G:/dt_g1_balancing_plate_wise20192020/XMC/Libraries/XMCLib/inc\xmc_vadc.h **** typedef enum XMC_VADC_CHANNEL_EVGEN
 527:G:/dt_g1_balancing_plate_wise20192020/XMC/Libraries/XMCLib/inc\xmc_vadc.h **** {
 528:G:/dt_g1_balancing_plate_wise20192020/XMC/Libraries/XMCLib/inc\xmc_vadc.h ****   XMC_VADC_CHANNEL_EVGEN_NEVER     = 0,  /**< No event generated */
 529:G:/dt_g1_balancing_plate_wise20192020/XMC/Libraries/XMCLib/inc\xmc_vadc.h ****   XMC_VADC_CHANNEL_EVGEN_INBOUND   = 1U, /**< Event generated when the result is within the normal 
 530:G:/dt_g1_balancing_plate_wise20192020/XMC/Libraries/XMCLib/inc\xmc_vadc.h ****   XMC_VADC_CHANNEL_EVGEN_COMPHIGH  = 1U, /**< Event generated when the result of fast compare opera
 531:G:/dt_g1_balancing_plate_wise20192020/XMC/Libraries/XMCLib/inc\xmc_vadc.h ****   XMC_VADC_CHANNEL_EVGEN_OUTBOUND  = 2U, /**< Event generated when the result is outside the normal
 532:G:/dt_g1_balancing_plate_wise20192020/XMC/Libraries/XMCLib/inc\xmc_vadc.h ****   XMC_VADC_CHANNEL_EVGEN_COMPLOW   = 2U, /**< Event generated when the result result of fast compar
 533:G:/dt_g1_balancing_plate_wise20192020/XMC/Libraries/XMCLib/inc\xmc_vadc.h ****   XMC_VADC_CHANNEL_EVGEN_ALWAYS    = 3U /**< Event generated always after conversion - unconditiona
 534:G:/dt_g1_balancing_plate_wise20192020/XMC/Libraries/XMCLib/inc\xmc_vadc.h **** } XMC_VADC_CHANNEL_EVGEN_t;
 535:G:/dt_g1_balancing_plate_wise20192020/XMC/Libraries/XMCLib/inc\xmc_vadc.h **** 
 536:G:/dt_g1_balancing_plate_wise20192020/XMC/Libraries/XMCLib/inc\xmc_vadc.h **** /**
 537:G:/dt_g1_balancing_plate_wise20192020/XMC/Libraries/XMCLib/inc\xmc_vadc.h ****  * Defines the reference voltage selection for conversion. Use @ref XMC_VADC_CHANNEL_REF_t for this
 538:G:/dt_g1_balancing_plate_wise20192020/XMC/Libraries/XMCLib/inc\xmc_vadc.h ****  */
 539:G:/dt_g1_balancing_plate_wise20192020/XMC/Libraries/XMCLib/inc\xmc_vadc.h **** typedef enum XMC_VADC_CHANNEL_REF
 540:G:/dt_g1_balancing_plate_wise20192020/XMC/Libraries/XMCLib/inc\xmc_vadc.h **** {
 541:G:/dt_g1_balancing_plate_wise20192020/XMC/Libraries/XMCLib/inc\xmc_vadc.h ****   XMC_VADC_CHANNEL_REF_INTREF = 0, /**< Internal VARef */
 542:G:/dt_g1_balancing_plate_wise20192020/XMC/Libraries/XMCLib/inc\xmc_vadc.h ****   XMC_VADC_CHANNEL_REF_ALT_CH0    /**< External voltage available on Channel-0 of the perticular gr
 543:G:/dt_g1_balancing_plate_wise20192020/XMC/Libraries/XMCLib/inc\xmc_vadc.h **** } XMC_VADC_CHANNEL_REF_t;
 544:G:/dt_g1_balancing_plate_wise20192020/XMC/Libraries/XMCLib/inc\xmc_vadc.h ****  
 545:G:/dt_g1_balancing_plate_wise20192020/XMC/Libraries/XMCLib/inc\xmc_vadc.h **** /**
 546:G:/dt_g1_balancing_plate_wise20192020/XMC/Libraries/XMCLib/inc\xmc_vadc.h ****  * Defines the criteria for boundary flag assertion. Use @ref XMC_VADC_CHANNEL_BOUNDARY_CONDITION_t
 547:G:/dt_g1_balancing_plate_wise20192020/XMC/Libraries/XMCLib/inc\xmc_vadc.h ****  * enumeration.
 548:G:/dt_g1_balancing_plate_wise20192020/XMC/Libraries/XMCLib/inc\xmc_vadc.h ****  */
 549:G:/dt_g1_balancing_plate_wise20192020/XMC/Libraries/XMCLib/inc\xmc_vadc.h **** typedef enum XMC_VADC_CHANNEL_BOUNDARY_CONDITION
 550:G:/dt_g1_balancing_plate_wise20192020/XMC/Libraries/XMCLib/inc\xmc_vadc.h **** {
 551:G:/dt_g1_balancing_plate_wise20192020/XMC/Libraries/XMCLib/inc\xmc_vadc.h ****   XMC_VADC_CHANNEL_BOUNDARY_CONDITION_ABOVE_BAND = 0, /**< Set Boundary condition criteria to asser
 552:G:/dt_g1_balancing_plate_wise20192020/XMC/Libraries/XMCLib/inc\xmc_vadc.h ****   XMC_VADC_CHANNEL_BOUNDARY_CONDITION_BELOW_BAND     /**< Set Boundary condition criteria to assert
 553:G:/dt_g1_balancing_plate_wise20192020/XMC/Libraries/XMCLib/inc\xmc_vadc.h **** } XMC_VADC_CHANNEL_BOUNDARY_CONDITION_t;
 554:G:/dt_g1_balancing_plate_wise20192020/XMC/Libraries/XMCLib/inc\xmc_vadc.h ****  
 555:G:/dt_g1_balancing_plate_wise20192020/XMC/Libraries/XMCLib/inc\xmc_vadc.h **** /**
 556:G:/dt_g1_balancing_plate_wise20192020/XMC/Libraries/XMCLib/inc\xmc_vadc.h ****  * Defines the event which can lead to a global service request assertion. Use @ref XMC_VADC_GLOBAL
 557:G:/dt_g1_balancing_plate_wise20192020/XMC/Libraries/XMCLib/inc\xmc_vadc.h ****  * enumeration.
 558:G:/dt_g1_balancing_plate_wise20192020/XMC/Libraries/XMCLib/inc\xmc_vadc.h ****  */
 559:G:/dt_g1_balancing_plate_wise20192020/XMC/Libraries/XMCLib/inc\xmc_vadc.h **** typedef enum XMC_VADC_GLOBAL_EVENT
 560:G:/dt_g1_balancing_plate_wise20192020/XMC/Libraries/XMCLib/inc\xmc_vadc.h **** {
 561:G:/dt_g1_balancing_plate_wise20192020/XMC/Libraries/XMCLib/inc\xmc_vadc.h ****   XMC_VADC_GLOBAL_EVENT_BKGNDSOURCE = VADC_GLOBEFLAG_SEVGLB_Msk, /**< Background scan request sourc
 562:G:/dt_g1_balancing_plate_wise20192020/XMC/Libraries/XMCLib/inc\xmc_vadc.h ****   XMC_VADC_GLOBAL_EVENT_RESULT      = VADC_GLOBEFLAG_REVGLB_Msk  /**< Global result event */
 563:G:/dt_g1_balancing_plate_wise20192020/XMC/Libraries/XMCLib/inc\xmc_vadc.h **** } XMC_VADC_GLOBAL_EVENT_t;
 564:G:/dt_g1_balancing_plate_wise20192020/XMC/Libraries/XMCLib/inc\xmc_vadc.h ****  
 565:G:/dt_g1_balancing_plate_wise20192020/XMC/Libraries/XMCLib/inc\xmc_vadc.h **** /**
 566:G:/dt_g1_balancing_plate_wise20192020/XMC/Libraries/XMCLib/inc\xmc_vadc.h ****  * Defines the power modes of a VADC Group. Use @ref XMC_VADC_GROUP_POWERMODE_t for this enumeratio
 567:G:/dt_g1_balancing_plate_wise20192020/XMC/Libraries/XMCLib/inc\xmc_vadc.h ****  */
 568:G:/dt_g1_balancing_plate_wise20192020/XMC/Libraries/XMCLib/inc\xmc_vadc.h **** typedef enum XMC_VADC_GROUP_POWERMODE
 569:G:/dt_g1_balancing_plate_wise20192020/XMC/Libraries/XMCLib/inc\xmc_vadc.h **** {
 570:G:/dt_g1_balancing_plate_wise20192020/XMC/Libraries/XMCLib/inc\xmc_vadc.h ****   XMC_VADC_GROUP_POWERMODE_OFF       = 0, /**< Group is powered down */
 571:G:/dt_g1_balancing_plate_wise20192020/XMC/Libraries/XMCLib/inc\xmc_vadc.h ****   XMC_VADC_GROUP_POWERMODE_RESERVED1,     /**< Reserved */
 572:G:/dt_g1_balancing_plate_wise20192020/XMC/Libraries/XMCLib/inc\xmc_vadc.h ****   XMC_VADC_GROUP_POWERMODE_RESERVED2,     /**< Reserved */
 573:G:/dt_g1_balancing_plate_wise20192020/XMC/Libraries/XMCLib/inc\xmc_vadc.h ****   XMC_VADC_GROUP_POWERMODE_NORMAL        /**< Group is powered up */
 574:G:/dt_g1_balancing_plate_wise20192020/XMC/Libraries/XMCLib/inc\xmc_vadc.h **** } XMC_VADC_GROUP_POWERMODE_t;
 575:G:/dt_g1_balancing_plate_wise20192020/XMC/Libraries/XMCLib/inc\xmc_vadc.h **** 
 576:G:/dt_g1_balancing_plate_wise20192020/XMC/Libraries/XMCLib/inc\xmc_vadc.h **** /**
 577:G:/dt_g1_balancing_plate_wise20192020/XMC/Libraries/XMCLib/inc\xmc_vadc.h ****  *  Defines the status of a VADC group (also known as kernel). Use @ref XMC_VADC_GROUP_STATE_t for 
 578:G:/dt_g1_balancing_plate_wise20192020/XMC/Libraries/XMCLib/inc\xmc_vadc.h ****  */
 579:G:/dt_g1_balancing_plate_wise20192020/XMC/Libraries/XMCLib/inc\xmc_vadc.h **** typedef enum XMC_VADC_GROUP_STATE
 580:G:/dt_g1_balancing_plate_wise20192020/XMC/Libraries/XMCLib/inc\xmc_vadc.h **** {
 581:G:/dt_g1_balancing_plate_wise20192020/XMC/Libraries/XMCLib/inc\xmc_vadc.h ****   XMC_VADC_GROUP_STATE_IDLE = 0, /**< Idle and can convert if requested */
 582:G:/dt_g1_balancing_plate_wise20192020/XMC/Libraries/XMCLib/inc\xmc_vadc.h ****   XMC_VADC_GROUP_STATE_BUSY      /**< Busy with an ongoing conversion */
 583:G:/dt_g1_balancing_plate_wise20192020/XMC/Libraries/XMCLib/inc\xmc_vadc.h **** } XMC_VADC_GROUP_STATE_t;
 584:G:/dt_g1_balancing_plate_wise20192020/XMC/Libraries/XMCLib/inc\xmc_vadc.h **** 
 585:G:/dt_g1_balancing_plate_wise20192020/XMC/Libraries/XMCLib/inc\xmc_vadc.h **** /**
 586:G:/dt_g1_balancing_plate_wise20192020/XMC/Libraries/XMCLib/inc\xmc_vadc.h ****  *  Defines the reference to sample time and conversion mode settings. Use @ref XMC_VADC_GROUP_CONV
 587:G:/dt_g1_balancing_plate_wise20192020/XMC/Libraries/XMCLib/inc\xmc_vadc.h ****  *  enumeration.
 588:G:/dt_g1_balancing_plate_wise20192020/XMC/Libraries/XMCLib/inc\xmc_vadc.h ****  */
 589:G:/dt_g1_balancing_plate_wise20192020/XMC/Libraries/XMCLib/inc\xmc_vadc.h **** typedef enum XMC_VADC_GROUP_CONV
 590:G:/dt_g1_balancing_plate_wise20192020/XMC/Libraries/XMCLib/inc\xmc_vadc.h **** {
 591:G:/dt_g1_balancing_plate_wise20192020/XMC/Libraries/XMCLib/inc\xmc_vadc.h ****   XMC_VADC_GROUP_CONV_STD = 0, /**< Settings pertaining to channels directly attached to VADC modul
 592:G:/dt_g1_balancing_plate_wise20192020/XMC/Libraries/XMCLib/inc\xmc_vadc.h ****   XMC_VADC_GROUP_CONV_EMUX    /**< Settings pertaining to channels connected to VADC via EMUX */
 593:G:/dt_g1_balancing_plate_wise20192020/XMC/Libraries/XMCLib/inc\xmc_vadc.h **** } XMC_VADC_GROUP_CONV_t;
 594:G:/dt_g1_balancing_plate_wise20192020/XMC/Libraries/XMCLib/inc\xmc_vadc.h **** 
 595:G:/dt_g1_balancing_plate_wise20192020/XMC/Libraries/XMCLib/inc\xmc_vadc.h **** /**
 596:G:/dt_g1_balancing_plate_wise20192020/XMC/Libraries/XMCLib/inc\xmc_vadc.h ****  *  Defines the request source arbiter behavior. Use @ref XMC_VADC_GROUP_ARBMODE_t for this enumera
 597:G:/dt_g1_balancing_plate_wise20192020/XMC/Libraries/XMCLib/inc\xmc_vadc.h ****  */
 598:G:/dt_g1_balancing_plate_wise20192020/XMC/Libraries/XMCLib/inc\xmc_vadc.h **** typedef enum XMC_VADC_GROUP_ARBMODE
 599:G:/dt_g1_balancing_plate_wise20192020/XMC/Libraries/XMCLib/inc\xmc_vadc.h **** {
 600:G:/dt_g1_balancing_plate_wise20192020/XMC/Libraries/XMCLib/inc\xmc_vadc.h ****   XMC_VADC_GROUP_ARBMODE_ALWAYS = 0, /**< Arbiter runs all the time */
 601:G:/dt_g1_balancing_plate_wise20192020/XMC/Libraries/XMCLib/inc\xmc_vadc.h ****   XMC_VADC_GROUP_ARBMODE_ONDEMAND    /**< Arbiter runs only if a conversion request is asserted by 
 602:G:/dt_g1_balancing_plate_wise20192020/XMC/Libraries/XMCLib/inc\xmc_vadc.h ****                                           request sources */
 603:G:/dt_g1_balancing_plate_wise20192020/XMC/Libraries/XMCLib/inc\xmc_vadc.h **** } XMC_VADC_GROUP_ARBMODE_t;
 604:G:/dt_g1_balancing_plate_wise20192020/XMC/Libraries/XMCLib/inc\xmc_vadc.h **** 
 605:G:/dt_g1_balancing_plate_wise20192020/XMC/Libraries/XMCLib/inc\xmc_vadc.h **** /**
 606:G:/dt_g1_balancing_plate_wise20192020/XMC/Libraries/XMCLib/inc\xmc_vadc.h ****  *  Defines the EMUX mode of operation. Use @ref XMC_VADC_GROUP_EMUXMODE_t for this enumeration.
 607:G:/dt_g1_balancing_plate_wise20192020/XMC/Libraries/XMCLib/inc\xmc_vadc.h ****  */
 608:G:/dt_g1_balancing_plate_wise20192020/XMC/Libraries/XMCLib/inc\xmc_vadc.h **** typedef enum XMC_VADC_GROUP_EMUXMODE
 609:G:/dt_g1_balancing_plate_wise20192020/XMC/Libraries/XMCLib/inc\xmc_vadc.h **** {
 610:G:/dt_g1_balancing_plate_wise20192020/XMC/Libraries/XMCLib/inc\xmc_vadc.h ****   XMC_VADC_GROUP_EMUXMODE_SWCTRL = 0,     /**< Perform EMUX in Software control mode*/
 611:G:/dt_g1_balancing_plate_wise20192020/XMC/Libraries/XMCLib/inc\xmc_vadc.h ****   XMC_VADC_GROUP_EMUXMODE_STEADYMODE,     /**< Perform EMUX in Steady mode (Use EMUX set value)*/
 612:G:/dt_g1_balancing_plate_wise20192020/XMC/Libraries/XMCLib/inc\xmc_vadc.h ****   XMC_VADC_GROUP_EMUXMODE_SINGLEMODE,     /**< Perform EMUX in Single step mode*/
 613:G:/dt_g1_balancing_plate_wise20192020/XMC/Libraries/XMCLib/inc\xmc_vadc.h ****   XMC_VADC_GROUP_EMUXMODE_SEQUENCEMODE,   /**< Perform EMUX in Sequence mode*/
 614:G:/dt_g1_balancing_plate_wise20192020/XMC/Libraries/XMCLib/inc\xmc_vadc.h **** } XMC_VADC_GROUP_EMUXMODE_t;
 615:G:/dt_g1_balancing_plate_wise20192020/XMC/Libraries/XMCLib/inc\xmc_vadc.h **** 
 616:G:/dt_g1_balancing_plate_wise20192020/XMC/Libraries/XMCLib/inc\xmc_vadc.h **** /**
 617:G:/dt_g1_balancing_plate_wise20192020/XMC/Libraries/XMCLib/inc\xmc_vadc.h ****  *  Defines the EMUX channel selection encoding scheme. Use @ref XMC_VADC_GROUP_EMUXCODE_t for this
 618:G:/dt_g1_balancing_plate_wise20192020/XMC/Libraries/XMCLib/inc\xmc_vadc.h ****  */
 619:G:/dt_g1_balancing_plate_wise20192020/XMC/Libraries/XMCLib/inc\xmc_vadc.h **** typedef enum XMC_VADC_GROUP_EMUXCODE
 620:G:/dt_g1_balancing_plate_wise20192020/XMC/Libraries/XMCLib/inc\xmc_vadc.h **** {
 621:G:/dt_g1_balancing_plate_wise20192020/XMC/Libraries/XMCLib/inc\xmc_vadc.h ****   XMC_VADC_GROUP_EMUXCODE_BINARY = 0, /**< A linearly incrementing code serves are MUX-SEL */
 622:G:/dt_g1_balancing_plate_wise20192020/XMC/Libraries/XMCLib/inc\xmc_vadc.h ****   XMC_VADC_GROUP_EMUXCODE_GRAY       /**< The MUX-SEL is gray encoded */
 623:G:/dt_g1_balancing_plate_wise20192020/XMC/Libraries/XMCLib/inc\xmc_vadc.h **** } XMC_VADC_GROUP_EMUXCODE_t;
 624:G:/dt_g1_balancing_plate_wise20192020/XMC/Libraries/XMCLib/inc\xmc_vadc.h **** 
 625:G:/dt_g1_balancing_plate_wise20192020/XMC/Libraries/XMCLib/inc\xmc_vadc.h **** /**
 626:G:/dt_g1_balancing_plate_wise20192020/XMC/Libraries/XMCLib/inc\xmc_vadc.h ****  *  Defines the service request set used. Use @ref XMC_VADC_GROUP_IRQ_t for this enumeration.
 627:G:/dt_g1_balancing_plate_wise20192020/XMC/Libraries/XMCLib/inc\xmc_vadc.h ****  */
 628:G:/dt_g1_balancing_plate_wise20192020/XMC/Libraries/XMCLib/inc\xmc_vadc.h **** typedef enum XMC_VADC_GROUP_IRQ
 629:G:/dt_g1_balancing_plate_wise20192020/XMC/Libraries/XMCLib/inc\xmc_vadc.h **** {
 630:G:/dt_g1_balancing_plate_wise20192020/XMC/Libraries/XMCLib/inc\xmc_vadc.h ****   XMC_VADC_GROUP_IRQ_KERNEL = 0, /**< Refers to Group specific service request */
 631:G:/dt_g1_balancing_plate_wise20192020/XMC/Libraries/XMCLib/inc\xmc_vadc.h ****   XMC_VADC_GROUP_IRQ_SHARED     /**< Refers to Module wide service request */
 632:G:/dt_g1_balancing_plate_wise20192020/XMC/Libraries/XMCLib/inc\xmc_vadc.h **** } XMC_VADC_GROUP_IRQ_t;
 633:G:/dt_g1_balancing_plate_wise20192020/XMC/Libraries/XMCLib/inc\xmc_vadc.h **** 
 634:G:/dt_g1_balancing_plate_wise20192020/XMC/Libraries/XMCLib/inc\xmc_vadc.h **** /**
 635:G:/dt_g1_balancing_plate_wise20192020/XMC/Libraries/XMCLib/inc\xmc_vadc.h ****  *  Defines the alignment of the converted result. Use @ref XMC_VADC_RESULT_ALIGN_t for this enumer
 636:G:/dt_g1_balancing_plate_wise20192020/XMC/Libraries/XMCLib/inc\xmc_vadc.h ****  */
 637:G:/dt_g1_balancing_plate_wise20192020/XMC/Libraries/XMCLib/inc\xmc_vadc.h **** typedef enum XMC_VADC_RESULT_ALIGN
 638:G:/dt_g1_balancing_plate_wise20192020/XMC/Libraries/XMCLib/inc\xmc_vadc.h **** {
 639:G:/dt_g1_balancing_plate_wise20192020/XMC/Libraries/XMCLib/inc\xmc_vadc.h ****   XMC_VADC_RESULT_ALIGN_LEFT = 0,  /**< Always align result to left */
 640:G:/dt_g1_balancing_plate_wise20192020/XMC/Libraries/XMCLib/inc\xmc_vadc.h ****   XMC_VADC_RESULT_ALIGN_RIGHT      /**< Always align result to right */
 641:G:/dt_g1_balancing_plate_wise20192020/XMC/Libraries/XMCLib/inc\xmc_vadc.h **** } XMC_VADC_RESULT_ALIGN_t;
 642:G:/dt_g1_balancing_plate_wise20192020/XMC/Libraries/XMCLib/inc\xmc_vadc.h **** 
 643:G:/dt_g1_balancing_plate_wise20192020/XMC/Libraries/XMCLib/inc\xmc_vadc.h **** typedef enum XMC_VADC_RESULT_SUBTRATION 
 644:G:/dt_g1_balancing_plate_wise20192020/XMC/Libraries/XMCLib/inc\xmc_vadc.h **** {
 645:G:/dt_g1_balancing_plate_wise20192020/XMC/Libraries/XMCLib/inc\xmc_vadc.h ****   XMC_VADC_RESULT_SUBTRATION_12BIT_LEFT_ALIGN  = 0U,  /**< Always align result to left */
 646:G:/dt_g1_balancing_plate_wise20192020/XMC/Libraries/XMCLib/inc\xmc_vadc.h ****   XMC_VADC_RESULT_SUBTRATION_12BIT_RIGHT_ALIGN = 0U,  /**< Always align result to right */
 647:G:/dt_g1_balancing_plate_wise20192020/XMC/Libraries/XMCLib/inc\xmc_vadc.h ****   XMC_VADC_RESULT_SUBTRATION_10BIT_LEFT_ALIGN  = 2U,  /**< Always align result to left */
 648:G:/dt_g1_balancing_plate_wise20192020/XMC/Libraries/XMCLib/inc\xmc_vadc.h ****   XMC_VADC_RESULT_SUBTRATION_10BIT_RIGHT_ALIGN = 0U,  /**< Always align result to right */
 649:G:/dt_g1_balancing_plate_wise20192020/XMC/Libraries/XMCLib/inc\xmc_vadc.h ****   XMC_VADC_RESULT_SUBTRATION_8BIT_LEFT_ALIGN   = 4U,  /**< Always align result to left */
 650:G:/dt_g1_balancing_plate_wise20192020/XMC/Libraries/XMCLib/inc\xmc_vadc.h ****   XMC_VADC_RESULT_SUBTRATION_8BIT_RIGHT_ALIGN  = 0U,  /**< Always align result to right */
 651:G:/dt_g1_balancing_plate_wise20192020/XMC/Libraries/XMCLib/inc\xmc_vadc.h **** } XMC_VADC_RESULT_SUBTRATION_t;
 652:G:/dt_g1_balancing_plate_wise20192020/XMC/Libraries/XMCLib/inc\xmc_vadc.h **** 
 653:G:/dt_g1_balancing_plate_wise20192020/XMC/Libraries/XMCLib/inc\xmc_vadc.h **** /**
 654:G:/dt_g1_balancing_plate_wise20192020/XMC/Libraries/XMCLib/inc\xmc_vadc.h ****  *  Defines the request source arbitration priority. Use @ref XMC_VADC_GROUP_RS_PRIORITY_t for this
 655:G:/dt_g1_balancing_plate_wise20192020/XMC/Libraries/XMCLib/inc\xmc_vadc.h ****  */
 656:G:/dt_g1_balancing_plate_wise20192020/XMC/Libraries/XMCLib/inc\xmc_vadc.h **** typedef enum XMC_VADC_GROUP_RS_PRIORITY
 657:G:/dt_g1_balancing_plate_wise20192020/XMC/Libraries/XMCLib/inc\xmc_vadc.h **** {
 658:G:/dt_g1_balancing_plate_wise20192020/XMC/Libraries/XMCLib/inc\xmc_vadc.h ****     XMC_VADC_GROUP_RS_PRIORITY_0 = 0, /**< Lowest priority for the request source*/
 659:G:/dt_g1_balancing_plate_wise20192020/XMC/Libraries/XMCLib/inc\xmc_vadc.h ****     XMC_VADC_GROUP_RS_PRIORITY_1,     /**< Second lowest priority for the request source*/
 660:G:/dt_g1_balancing_plate_wise20192020/XMC/Libraries/XMCLib/inc\xmc_vadc.h ****     XMC_VADC_GROUP_RS_PRIORITY_2,     /**< Second highest priority for the request source*/
 661:G:/dt_g1_balancing_plate_wise20192020/XMC/Libraries/XMCLib/inc\xmc_vadc.h ****     XMC_VADC_GROUP_RS_PRIORITY_3,     /**< Highest priority for the request source*/
 662:G:/dt_g1_balancing_plate_wise20192020/XMC/Libraries/XMCLib/inc\xmc_vadc.h **** }XMC_VADC_GROUP_RS_PRIORITY_t;
 663:G:/dt_g1_balancing_plate_wise20192020/XMC/Libraries/XMCLib/inc\xmc_vadc.h **** 
 664:G:/dt_g1_balancing_plate_wise20192020/XMC/Libraries/XMCLib/inc\xmc_vadc.h **** /**
 665:G:/dt_g1_balancing_plate_wise20192020/XMC/Libraries/XMCLib/inc\xmc_vadc.h ****  *  Defines the various modes for the boundary flag. Use @ref XMC_VADC_GROUP_BOUNDARY_FLAG_MODE_t f
 666:G:/dt_g1_balancing_plate_wise20192020/XMC/Libraries/XMCLib/inc\xmc_vadc.h ****  */
 667:G:/dt_g1_balancing_plate_wise20192020/XMC/Libraries/XMCLib/inc\xmc_vadc.h **** typedef enum XMC_VADC_GROUP_BOUNDARY_FLAG_MODE
 668:G:/dt_g1_balancing_plate_wise20192020/XMC/Libraries/XMCLib/inc\xmc_vadc.h **** {
 669:G:/dt_g1_balancing_plate_wise20192020/XMC/Libraries/XMCLib/inc\xmc_vadc.h ****     XMC_VADC_GROUP_BOUNDARY_FLAG_MODE_DISABLED = 0,       /**< Disable boundary flag*/
 670:G:/dt_g1_balancing_plate_wise20192020/XMC/Libraries/XMCLib/inc\xmc_vadc.h ****     XMC_VADC_GROUP_BOUNDARY_FLAG_MODE_ENABLED,            /**< Always enable boundary*/
 671:G:/dt_g1_balancing_plate_wise20192020/XMC/Libraries/XMCLib/inc\xmc_vadc.h ****     XMC_VADC_GROUP_BOUNDARY_FLAG_MODE_ENABLED_ACTIVE_LOW, /**< Enable boundary flag when gate level
 672:G:/dt_g1_balancing_plate_wise20192020/XMC/Libraries/XMCLib/inc\xmc_vadc.h ****     XMC_VADC_GROUP_BOUNDARY_FLAG_MODE_ENABLED_ACTIVE_HIGH /**< Enable boundary flag when gate level
 673:G:/dt_g1_balancing_plate_wise20192020/XMC/Libraries/XMCLib/inc\xmc_vadc.h **** }XMC_VADC_GROUP_BOUNDARY_FLAG_MODE_t;
 674:G:/dt_g1_balancing_plate_wise20192020/XMC/Libraries/XMCLib/inc\xmc_vadc.h **** 
 675:G:/dt_g1_balancing_plate_wise20192020/XMC/Libraries/XMCLib/inc\xmc_vadc.h **** 
 676:G:/dt_g1_balancing_plate_wise20192020/XMC/Libraries/XMCLib/inc\xmc_vadc.h **** /**
 677:G:/dt_g1_balancing_plate_wise20192020/XMC/Libraries/XMCLib/inc\xmc_vadc.h ****  *  Defines the boundary select for Channel. Use @ref XMC_VADC_GROUP_BOUNDARY_FLAG_MODE_t for this 
 678:G:/dt_g1_balancing_plate_wise20192020/XMC/Libraries/XMCLib/inc\xmc_vadc.h ****  */
 679:G:/dt_g1_balancing_plate_wise20192020/XMC/Libraries/XMCLib/inc\xmc_vadc.h **** typedef enum XMC_VADC_BOUNDARY_SELECT
 680:G:/dt_g1_balancing_plate_wise20192020/XMC/Libraries/XMCLib/inc\xmc_vadc.h **** {
 681:G:/dt_g1_balancing_plate_wise20192020/XMC/Libraries/XMCLib/inc\xmc_vadc.h ****   XMC_VADC_BOUNDARY_SELECT_LOWER_BOUND = 0U,       /**< Select the lower boundary*/
 682:G:/dt_g1_balancing_plate_wise20192020/XMC/Libraries/XMCLib/inc\xmc_vadc.h ****   XMC_VADC_BOUNDARY_SELECT_UPPER_BOUND = 2U        /**< Selects the upper boundary*/
 683:G:/dt_g1_balancing_plate_wise20192020/XMC/Libraries/XMCLib/inc\xmc_vadc.h **** }XMC_VADC_BOUNDARY_SELECT_t;
 684:G:/dt_g1_balancing_plate_wise20192020/XMC/Libraries/XMCLib/inc\xmc_vadc.h **** 
 685:G:/dt_g1_balancing_plate_wise20192020/XMC/Libraries/XMCLib/inc\xmc_vadc.h **** 
 686:G:/dt_g1_balancing_plate_wise20192020/XMC/Libraries/XMCLib/inc\xmc_vadc.h **** /**
 687:G:/dt_g1_balancing_plate_wise20192020/XMC/Libraries/XMCLib/inc\xmc_vadc.h ****  * Defines the group indices. Use @ref XMC_VADC_GROUP_INDEX_t for this enumeration.
 688:G:/dt_g1_balancing_plate_wise20192020/XMC/Libraries/XMCLib/inc\xmc_vadc.h ****  */
 689:G:/dt_g1_balancing_plate_wise20192020/XMC/Libraries/XMCLib/inc\xmc_vadc.h **** typedef enum XMC_VADC_GROUP_INDEX
 690:G:/dt_g1_balancing_plate_wise20192020/XMC/Libraries/XMCLib/inc\xmc_vadc.h **** {
 691:G:/dt_g1_balancing_plate_wise20192020/XMC/Libraries/XMCLib/inc\xmc_vadc.h ****     XMC_VADC_GROUP_INDEX_0   = 0,
 692:G:/dt_g1_balancing_plate_wise20192020/XMC/Libraries/XMCLib/inc\xmc_vadc.h ****     XMC_VADC_GROUP_INDEX_1,
 693:G:/dt_g1_balancing_plate_wise20192020/XMC/Libraries/XMCLib/inc\xmc_vadc.h **** #if (XMC_VADC_MAXIMUM_NUM_GROUPS > 2U)
 694:G:/dt_g1_balancing_plate_wise20192020/XMC/Libraries/XMCLib/inc\xmc_vadc.h ****     XMC_VADC_GROUP_INDEX_2,
 695:G:/dt_g1_balancing_plate_wise20192020/XMC/Libraries/XMCLib/inc\xmc_vadc.h ****     XMC_VADC_GROUP_INDEX_3
 696:G:/dt_g1_balancing_plate_wise20192020/XMC/Libraries/XMCLib/inc\xmc_vadc.h **** #endif
 697:G:/dt_g1_balancing_plate_wise20192020/XMC/Libraries/XMCLib/inc\xmc_vadc.h **** }XMC_VADC_GROUP_INDEX_t;
 698:G:/dt_g1_balancing_plate_wise20192020/XMC/Libraries/XMCLib/inc\xmc_vadc.h **** 
 699:G:/dt_g1_balancing_plate_wise20192020/XMC/Libraries/XMCLib/inc\xmc_vadc.h **** /**
 700:G:/dt_g1_balancing_plate_wise20192020/XMC/Libraries/XMCLib/inc\xmc_vadc.h **** * Defines channel alias.
 701:G:/dt_g1_balancing_plate_wise20192020/XMC/Libraries/XMCLib/inc\xmc_vadc.h **** * All enum items are available for channels 0 and 1. Other Channels can accept only XMC_VADC_CHANNE
 702:G:/dt_g1_balancing_plate_wise20192020/XMC/Libraries/XMCLib/inc\xmc_vadc.h **** */
 703:G:/dt_g1_balancing_plate_wise20192020/XMC/Libraries/XMCLib/inc\xmc_vadc.h **** typedef enum XMC_VADC_CHANNEL_ALIAS
 704:G:/dt_g1_balancing_plate_wise20192020/XMC/Libraries/XMCLib/inc\xmc_vadc.h **** {
 705:G:/dt_g1_balancing_plate_wise20192020/XMC/Libraries/XMCLib/inc\xmc_vadc.h ****   XMC_VADC_CHANNEL_ALIAS_DISABLED = -1,
 706:G:/dt_g1_balancing_plate_wise20192020/XMC/Libraries/XMCLib/inc\xmc_vadc.h ****   XMC_VADC_CHANNEL_ALIAS_CH0 = 0,
 707:G:/dt_g1_balancing_plate_wise20192020/XMC/Libraries/XMCLib/inc\xmc_vadc.h ****   XMC_VADC_CHANNEL_ALIAS_CH1 = 1,
 708:G:/dt_g1_balancing_plate_wise20192020/XMC/Libraries/XMCLib/inc\xmc_vadc.h ****   XMC_VADC_CHANNEL_ALIAS_CH2 = 2,
 709:G:/dt_g1_balancing_plate_wise20192020/XMC/Libraries/XMCLib/inc\xmc_vadc.h ****   XMC_VADC_CHANNEL_ALIAS_CH3 = 3,
 710:G:/dt_g1_balancing_plate_wise20192020/XMC/Libraries/XMCLib/inc\xmc_vadc.h ****   XMC_VADC_CHANNEL_ALIAS_CH4 = 4,
 711:G:/dt_g1_balancing_plate_wise20192020/XMC/Libraries/XMCLib/inc\xmc_vadc.h ****   XMC_VADC_CHANNEL_ALIAS_CH5 = 5,
 712:G:/dt_g1_balancing_plate_wise20192020/XMC/Libraries/XMCLib/inc\xmc_vadc.h ****   XMC_VADC_CHANNEL_ALIAS_CH6 = 6,
 713:G:/dt_g1_balancing_plate_wise20192020/XMC/Libraries/XMCLib/inc\xmc_vadc.h ****   XMC_VADC_CHANNEL_ALIAS_CH7 = 7
 714:G:/dt_g1_balancing_plate_wise20192020/XMC/Libraries/XMCLib/inc\xmc_vadc.h **** } XMC_VADC_CHANNEL_ALIAS_t;
 715:G:/dt_g1_balancing_plate_wise20192020/XMC/Libraries/XMCLib/inc\xmc_vadc.h **** 
 716:G:/dt_g1_balancing_plate_wise20192020/XMC/Libraries/XMCLib/inc\xmc_vadc.h **** #if(XMC_VADC_SHS_AVAILABLE == 1U)
 717:G:/dt_g1_balancing_plate_wise20192020/XMC/Libraries/XMCLib/inc\xmc_vadc.h **** 
 718:G:/dt_g1_balancing_plate_wise20192020/XMC/Libraries/XMCLib/inc\xmc_vadc.h **** /**
 719:G:/dt_g1_balancing_plate_wise20192020/XMC/Libraries/XMCLib/inc\xmc_vadc.h ****  * Selection of the reference voltage that is required for conversions (VREF).
 720:G:/dt_g1_balancing_plate_wise20192020/XMC/Libraries/XMCLib/inc\xmc_vadc.h ****  */
 721:G:/dt_g1_balancing_plate_wise20192020/XMC/Libraries/XMCLib/inc\xmc_vadc.h **** typedef enum XMC_VADC_GLOBAL_SHS_AREF
 722:G:/dt_g1_balancing_plate_wise20192020/XMC/Libraries/XMCLib/inc\xmc_vadc.h **** {
 723:G:/dt_g1_balancing_plate_wise20192020/XMC/Libraries/XMCLib/inc\xmc_vadc.h ****   XMC_VADC_GLOBAL_SHS_AREF_EXTERNAL_VDD_UPPER_RANGE = 0 << SHS_SHSCFG_AREF_Pos, /**< External refer
 724:G:/dt_g1_balancing_plate_wise20192020/XMC/Libraries/XMCLib/inc\xmc_vadc.h ****   XMC_VADC_GLOBAL_SHS_AREF_INTERNAL_VDD_UPPER_RANGE = 2 << SHS_SHSCFG_AREF_Pos, /**< Internal refer
 725:G:/dt_g1_balancing_plate_wise20192020/XMC/Libraries/XMCLib/inc\xmc_vadc.h ****   XMC_VADC_GLOBAL_SHS_AREF_INTERNAL_VDD_LOWER_RANGE = 3 << SHS_SHSCFG_AREF_Pos, /**< Internal refer
 726:G:/dt_g1_balancing_plate_wise20192020/XMC/Libraries/XMCLib/inc\xmc_vadc.h **** } XMC_VADC_GLOBAL_SHS_AREF_t;
 727:G:/dt_g1_balancing_plate_wise20192020/XMC/Libraries/XMCLib/inc\xmc_vadc.h **** 
 728:G:/dt_g1_balancing_plate_wise20192020/XMC/Libraries/XMCLib/inc\xmc_vadc.h **** #if(XMC_VADC_SHS_FULL_SET_REG == 1U)
 729:G:/dt_g1_balancing_plate_wise20192020/XMC/Libraries/XMCLib/inc\xmc_vadc.h **** /**
 730:G:/dt_g1_balancing_plate_wise20192020/XMC/Libraries/XMCLib/inc\xmc_vadc.h ****  * Defines the gain calibration selection.
 731:G:/dt_g1_balancing_plate_wise20192020/XMC/Libraries/XMCLib/inc\xmc_vadc.h ****  */
 732:G:/dt_g1_balancing_plate_wise20192020/XMC/Libraries/XMCLib/inc\xmc_vadc.h **** typedef enum XMC_VADC_SHS_GAIN_LEVEL
 733:G:/dt_g1_balancing_plate_wise20192020/XMC/Libraries/XMCLib/inc\xmc_vadc.h **** {
 734:G:/dt_g1_balancing_plate_wise20192020/XMC/Libraries/XMCLib/inc\xmc_vadc.h ****   XMC_VADC_SHS_GAIN_LEVEL_0 = SHS_CALOC0_CALOFFVAL0_Pos, /**< Select the calibration value for gain
 735:G:/dt_g1_balancing_plate_wise20192020/XMC/Libraries/XMCLib/inc\xmc_vadc.h ****   XMC_VADC_SHS_GAIN_LEVEL_1 = SHS_CALOC0_CALOFFVAL1_Pos, /**< Select the calibration value for gain
 736:G:/dt_g1_balancing_plate_wise20192020/XMC/Libraries/XMCLib/inc\xmc_vadc.h ****   XMC_VADC_SHS_GAIN_LEVEL_2 = SHS_CALOC0_CALOFFVAL2_Pos, /**< Select the calibration value for gain
 737:G:/dt_g1_balancing_plate_wise20192020/XMC/Libraries/XMCLib/inc\xmc_vadc.h ****   XMC_VADC_SHS_GAIN_LEVEL_3 = SHS_CALOC0_CALOFFVAL3_Pos  /**< Select the calibration value for gain
 738:G:/dt_g1_balancing_plate_wise20192020/XMC/Libraries/XMCLib/inc\xmc_vadc.h **** }XMC_VADC_SHS_GAIN_LEVEL_t;
 739:G:/dt_g1_balancing_plate_wise20192020/XMC/Libraries/XMCLib/inc\xmc_vadc.h **** #endif
 740:G:/dt_g1_balancing_plate_wise20192020/XMC/Libraries/XMCLib/inc\xmc_vadc.h **** 
 741:G:/dt_g1_balancing_plate_wise20192020/XMC/Libraries/XMCLib/inc\xmc_vadc.h **** /**
 742:G:/dt_g1_balancing_plate_wise20192020/XMC/Libraries/XMCLib/inc\xmc_vadc.h ****  * Defines the Delta sigma loop.
 743:G:/dt_g1_balancing_plate_wise20192020/XMC/Libraries/XMCLib/inc\xmc_vadc.h ****  */
 744:G:/dt_g1_balancing_plate_wise20192020/XMC/Libraries/XMCLib/inc\xmc_vadc.h **** typedef enum XMC_VADC_SHS_LOOP_CH
 745:G:/dt_g1_balancing_plate_wise20192020/XMC/Libraries/XMCLib/inc\xmc_vadc.h **** {
 746:G:/dt_g1_balancing_plate_wise20192020/XMC/Libraries/XMCLib/inc\xmc_vadc.h ****   XMC_VADC_SHS_LOOP_CH_0 = SHS_LOOP_LPCH0_Pos, /**< Select Delta-sigma loop 0*/
 747:G:/dt_g1_balancing_plate_wise20192020/XMC/Libraries/XMCLib/inc\xmc_vadc.h ****   XMC_VADC_SHS_LOOP_CH_1 = SHS_LOOP_LPCH1_Pos /**< Select Delta-sigma loop 1*/
 748:G:/dt_g1_balancing_plate_wise20192020/XMC/Libraries/XMCLib/inc\xmc_vadc.h **** }XMC_VADC_SHS_LOOP_CH_t;
 749:G:/dt_g1_balancing_plate_wise20192020/XMC/Libraries/XMCLib/inc\xmc_vadc.h **** 
 750:G:/dt_g1_balancing_plate_wise20192020/XMC/Libraries/XMCLib/inc\xmc_vadc.h **** /**
 751:G:/dt_g1_balancing_plate_wise20192020/XMC/Libraries/XMCLib/inc\xmc_vadc.h ****  * Provides the order in which the SHS should do the calibration
 752:G:/dt_g1_balancing_plate_wise20192020/XMC/Libraries/XMCLib/inc\xmc_vadc.h ****  */
 753:G:/dt_g1_balancing_plate_wise20192020/XMC/Libraries/XMCLib/inc\xmc_vadc.h **** typedef enum XMC_VADC_GLOBAL_SHS_CALIBRATION_ORDER
 754:G:/dt_g1_balancing_plate_wise20192020/XMC/Libraries/XMCLib/inc\xmc_vadc.h **** {
 755:G:/dt_g1_balancing_plate_wise20192020/XMC/Libraries/XMCLib/inc\xmc_vadc.h ****   XMC_VADC_GLOBAL_SHS_CALIBRATION_ORDER_POST_CONV = 0, /**< Calibration occur after conversion take
 756:G:/dt_g1_balancing_plate_wise20192020/XMC/Libraries/XMCLib/inc\xmc_vadc.h ****   XMC_VADC_GLOBAL_SHS_CALIBRATION_ORDER_PRE_CONV   /**< Calibration occur before conversion takes p
 757:G:/dt_g1_balancing_plate_wise20192020/XMC/Libraries/XMCLib/inc\xmc_vadc.h **** }XMC_VADC_GLOBAL_SHS_CALIBRATION_ORDER_t;
 758:G:/dt_g1_balancing_plate_wise20192020/XMC/Libraries/XMCLib/inc\xmc_vadc.h **** #endif
 759:G:/dt_g1_balancing_plate_wise20192020/XMC/Libraries/XMCLib/inc\xmc_vadc.h **** 
 760:G:/dt_g1_balancing_plate_wise20192020/XMC/Libraries/XMCLib/inc\xmc_vadc.h **** #if (XMC_VADC_BOUNDARY_FLAG_SELECT == 1U)
 761:G:/dt_g1_balancing_plate_wise20192020/XMC/Libraries/XMCLib/inc\xmc_vadc.h **** /**
 762:G:/dt_g1_balancing_plate_wise20192020/XMC/Libraries/XMCLib/inc\xmc_vadc.h ****  * Provides possible routing values for the boundary flag.
 763:G:/dt_g1_balancing_plate_wise20192020/XMC/Libraries/XMCLib/inc\xmc_vadc.h ****  */
 764:G:/dt_g1_balancing_plate_wise20192020/XMC/Libraries/XMCLib/inc\xmc_vadc.h **** typedef enum XMC_VADC_BOUNDARY_NODE
 765:G:/dt_g1_balancing_plate_wise20192020/XMC/Libraries/XMCLib/inc\xmc_vadc.h **** {
 766:G:/dt_g1_balancing_plate_wise20192020/XMC/Libraries/XMCLib/inc\xmc_vadc.h ****   XMC_VADC_BOUNDARY_NODE_COMMON_BOUNDARY_FLAG_0 = 0U, /**<Route the Group boundary flag to Common b
 767:G:/dt_g1_balancing_plate_wise20192020/XMC/Libraries/XMCLib/inc\xmc_vadc.h ****   XMC_VADC_BOUNDARY_NODE_COMMON_BOUNDARY_FLAG_1,      /**<Route the Group boundary flag to Common b
 768:G:/dt_g1_balancing_plate_wise20192020/XMC/Libraries/XMCLib/inc\xmc_vadc.h ****   XMC_VADC_BOUNDARY_NODE_COMMON_BOUNDARY_FLAG_2,      /**<Route the Group boundary flag to Common b
 769:G:/dt_g1_balancing_plate_wise20192020/XMC/Libraries/XMCLib/inc\xmc_vadc.h ****   XMC_VADC_BOUNDARY_NODE_COMMON_BOUNDARY_FLAG_3,      /**<Route the Group boundary flag to Common b
 770:G:/dt_g1_balancing_plate_wise20192020/XMC/Libraries/XMCLib/inc\xmc_vadc.h ****   XMC_VADC_BOUNDARY_NODE_COMMON_SR_LINE_0,  /**<Route the Group boundary flag to Common Service Req
 771:G:/dt_g1_balancing_plate_wise20192020/XMC/Libraries/XMCLib/inc\xmc_vadc.h ****   XMC_VADC_BOUNDARY_NODE_COMMON_SR_LINE_1,  /**<Route the Group boundary flag to Common Service Req
 772:G:/dt_g1_balancing_plate_wise20192020/XMC/Libraries/XMCLib/inc\xmc_vadc.h ****   XMC_VADC_BOUNDARY_NODE_COMMON_SR_LINE_2,  /**<Route the Group boundary flag to Common Service Req
 773:G:/dt_g1_balancing_plate_wise20192020/XMC/Libraries/XMCLib/inc\xmc_vadc.h ****   XMC_VADC_BOUNDARY_NODE_COMMON_SR_LINE_3   /**<Route the Group boundary flag to Common Service Req
 774:G:/dt_g1_balancing_plate_wise20192020/XMC/Libraries/XMCLib/inc\xmc_vadc.h **** }XMC_VADC_BOUNDARY_NODE_t;
 775:G:/dt_g1_balancing_plate_wise20192020/XMC/Libraries/XMCLib/inc\xmc_vadc.h **** #endif
 776:G:/dt_g1_balancing_plate_wise20192020/XMC/Libraries/XMCLib/inc\xmc_vadc.h **** 
 777:G:/dt_g1_balancing_plate_wise20192020/XMC/Libraries/XMCLib/inc\xmc_vadc.h **** #if (XMC_VADC_GROUP_AVAILABLE == 1U)
 778:G:/dt_g1_balancing_plate_wise20192020/XMC/Libraries/XMCLib/inc\xmc_vadc.h **** /**
 779:G:/dt_g1_balancing_plate_wise20192020/XMC/Libraries/XMCLib/inc\xmc_vadc.h ****  * Defines the ready signal selection
 780:G:/dt_g1_balancing_plate_wise20192020/XMC/Libraries/XMCLib/inc\xmc_vadc.h ****  */
 781:G:/dt_g1_balancing_plate_wise20192020/XMC/Libraries/XMCLib/inc\xmc_vadc.h **** typedef enum XMC_VADC_SYNCTR_EVAL
 782:G:/dt_g1_balancing_plate_wise20192020/XMC/Libraries/XMCLib/inc\xmc_vadc.h **** {
 783:G:/dt_g1_balancing_plate_wise20192020/XMC/Libraries/XMCLib/inc\xmc_vadc.h ****   XMC_VADC_SYNCTR_EVAL_1 = VADC_G_SYNCTR_EVALR1_Msk, /**<Mask to set the EVAL1 bits of SYNCTR */
 784:G:/dt_g1_balancing_plate_wise20192020/XMC/Libraries/XMCLib/inc\xmc_vadc.h **** #if (XMC_VADC_MAXIMUM_NUM_GROUPS > 2U)
 785:G:/dt_g1_balancing_plate_wise20192020/XMC/Libraries/XMCLib/inc\xmc_vadc.h ****   XMC_VADC_SYNCTR_EVAL_2 = VADC_G_SYNCTR_EVALR2_Msk, /**<Mask to set the EVAL2 bits of SYNCTR */
 786:G:/dt_g1_balancing_plate_wise20192020/XMC/Libraries/XMCLib/inc\xmc_vadc.h ****   XMC_VADC_SYNCTR_EVAL_3 = VADC_G_SYNCTR_EVALR3_Msk  /**<Mask to set the EVAL3 bits of SYNCTR */
 787:G:/dt_g1_balancing_plate_wise20192020/XMC/Libraries/XMCLib/inc\xmc_vadc.h **** #endif
 788:G:/dt_g1_balancing_plate_wise20192020/XMC/Libraries/XMCLib/inc\xmc_vadc.h **** }XMC_VADC_SYNCTR_EVAL_t;
 789:G:/dt_g1_balancing_plate_wise20192020/XMC/Libraries/XMCLib/inc\xmc_vadc.h **** #endif
 790:G:/dt_g1_balancing_plate_wise20192020/XMC/Libraries/XMCLib/inc\xmc_vadc.h **** /**************************************************************************************************
 791:G:/dt_g1_balancing_plate_wise20192020/XMC/Libraries/XMCLib/inc\xmc_vadc.h ****  * DATA STRUCTURES
 792:G:/dt_g1_balancing_plate_wise20192020/XMC/Libraries/XMCLib/inc\xmc_vadc.h ****  **************************************************************************************************
 793:G:/dt_g1_balancing_plate_wise20192020/XMC/Libraries/XMCLib/inc\xmc_vadc.h **** /*Anonymous structure/union guard start*/
 794:G:/dt_g1_balancing_plate_wise20192020/XMC/Libraries/XMCLib/inc\xmc_vadc.h **** #if defined(__CC_ARM)
 795:G:/dt_g1_balancing_plate_wise20192020/XMC/Libraries/XMCLib/inc\xmc_vadc.h ****   #pragma push
 796:G:/dt_g1_balancing_plate_wise20192020/XMC/Libraries/XMCLib/inc\xmc_vadc.h ****   #pragma anon_unions
 797:G:/dt_g1_balancing_plate_wise20192020/XMC/Libraries/XMCLib/inc\xmc_vadc.h **** #elif defined(__TASKING__)
 798:G:/dt_g1_balancing_plate_wise20192020/XMC/Libraries/XMCLib/inc\xmc_vadc.h ****   #pragma warning 586
 799:G:/dt_g1_balancing_plate_wise20192020/XMC/Libraries/XMCLib/inc\xmc_vadc.h **** #endif
 800:G:/dt_g1_balancing_plate_wise20192020/XMC/Libraries/XMCLib/inc\xmc_vadc.h **** 
 801:G:/dt_g1_balancing_plate_wise20192020/XMC/Libraries/XMCLib/inc\xmc_vadc.h **** /**
 802:G:/dt_g1_balancing_plate_wise20192020/XMC/Libraries/XMCLib/inc\xmc_vadc.h ****  *  Structure initializing the VADC scan request source. Use type @ref XMC_VADC_SCAN_CONFIG_t for t
 803:G:/dt_g1_balancing_plate_wise20192020/XMC/Libraries/XMCLib/inc\xmc_vadc.h ****  */
 804:G:/dt_g1_balancing_plate_wise20192020/XMC/Libraries/XMCLib/inc\xmc_vadc.h **** typedef struct XMC_VADC_SCAN_CONFIG
 805:G:/dt_g1_balancing_plate_wise20192020/XMC/Libraries/XMCLib/inc\xmc_vadc.h **** {
 806:G:/dt_g1_balancing_plate_wise20192020/XMC/Libraries/XMCLib/inc\xmc_vadc.h ****     uint32_t conv_start_mode  : 2;  /**< One converter is shared between the queue and scan request
 807:G:/dt_g1_balancing_plate_wise20192020/XMC/Libraries/XMCLib/inc\xmc_vadc.h ****                                          group. This field determines how scan request source would
 808:G:/dt_g1_balancing_plate_wise20192020/XMC/Libraries/XMCLib/inc\xmc_vadc.h ****                                          conversion. Uses @ref XMC_VADC_STARTMODE_t */
 809:G:/dt_g1_balancing_plate_wise20192020/XMC/Libraries/XMCLib/inc\xmc_vadc.h ****     uint32_t req_src_priority : 2;  /**< Request source priority for the arbiter. If the Conversion
 810:G:/dt_g1_balancing_plate_wise20192020/XMC/Libraries/XMCLib/inc\xmc_vadc.h ****                                          selected as Cancel inject repeat/Never mode then this fiel
 811:G:/dt_g1_balancing_plate_wise20192020/XMC/Libraries/XMCLib/inc\xmc_vadc.h ****                                          priority of scan request source. Uses @ref XMC_VADC_GROUP_
 812:G:/dt_g1_balancing_plate_wise20192020/XMC/Libraries/XMCLib/inc\xmc_vadc.h ****     union
 813:G:/dt_g1_balancing_plate_wise20192020/XMC/Libraries/XMCLib/inc\xmc_vadc.h ****     {
 814:G:/dt_g1_balancing_plate_wise20192020/XMC/Libraries/XMCLib/inc\xmc_vadc.h ****        struct
 815:G:/dt_g1_balancing_plate_wise20192020/XMC/Libraries/XMCLib/inc\xmc_vadc.h ****        {
 816:G:/dt_g1_balancing_plate_wise20192020/XMC/Libraries/XMCLib/inc\xmc_vadc.h **** #if(XMC_VADC_GROUP_SRCREG_AVAILABLE == (1U))
 817:G:/dt_g1_balancing_plate_wise20192020/XMC/Libraries/XMCLib/inc\xmc_vadc.h ****           uint32_t src_specific_result_reg : 4;  /**< Use any one Group related result register as 
 818:G:/dt_g1_balancing_plate_wise20192020/XMC/Libraries/XMCLib/inc\xmc_vadc.h ****                                                     for all conversions results. To use the  indivi
 819:G:/dt_g1_balancing_plate_wise20192020/XMC/Libraries/XMCLib/inc\xmc_vadc.h ****                                                     from each channel configuration, configure this
 820:G:/dt_g1_balancing_plate_wise20192020/XMC/Libraries/XMCLib/inc\xmc_vadc.h **** #else
 821:G:/dt_g1_balancing_plate_wise20192020/XMC/Libraries/XMCLib/inc\xmc_vadc.h ****           uint32_t                         : 4;
 822:G:/dt_g1_balancing_plate_wise20192020/XMC/Libraries/XMCLib/inc\xmc_vadc.h **** #endif
 823:G:/dt_g1_balancing_plate_wise20192020/XMC/Libraries/XMCLib/inc\xmc_vadc.h ****           uint32_t                         : 4;
 824:G:/dt_g1_balancing_plate_wise20192020/XMC/Libraries/XMCLib/inc\xmc_vadc.h ****           uint32_t trigger_signal          : 4;  /**< Select one of the 16 possibilities for trigge
 825:G:/dt_g1_balancing_plate_wise20192020/XMC/Libraries/XMCLib/inc\xmc_vadc.h ****                                                       XMC_VADC_TRIGGER_INPUT_SELECT_t enumeration*/
 826:G:/dt_g1_balancing_plate_wise20192020/XMC/Libraries/XMCLib/inc\xmc_vadc.h ****           uint32_t                         : 1;
 827:G:/dt_g1_balancing_plate_wise20192020/XMC/Libraries/XMCLib/inc\xmc_vadc.h ****           uint32_t trigger_edge            : 2;  /**< Edge selection for trigger signal. Uses @ref
 828:G:/dt_g1_balancing_plate_wise20192020/XMC/Libraries/XMCLib/inc\xmc_vadc.h ****                                                       XMC_VADC_TRIGGER_EDGE_t */
 829:G:/dt_g1_balancing_plate_wise20192020/XMC/Libraries/XMCLib/inc\xmc_vadc.h ****           uint32_t                         : 1;
 830:G:/dt_g1_balancing_plate_wise20192020/XMC/Libraries/XMCLib/inc\xmc_vadc.h ****           uint32_t gate_signal             : 4;  /**< Select one of the 16 possibilities for gating
 831:G:/dt_g1_balancing_plate_wise20192020/XMC/Libraries/XMCLib/inc\xmc_vadc.h ****                                                       XMC_VADC_GATE_INPUT_SELECT_t */
 832:G:/dt_g1_balancing_plate_wise20192020/XMC/Libraries/XMCLib/inc\xmc_vadc.h ****           uint32_t                         : 8;
 833:G:/dt_g1_balancing_plate_wise20192020/XMC/Libraries/XMCLib/inc\xmc_vadc.h ****           uint32_t timer_mode              : 1;  /**< Decides whether timer mode for equi-distant s
 834:G:/dt_g1_balancing_plate_wise20192020/XMC/Libraries/XMCLib/inc\xmc_vadc.h ****                                                       activated or not.*/
 835:G:/dt_g1_balancing_plate_wise20192020/XMC/Libraries/XMCLib/inc\xmc_vadc.h ****           uint32_t                         : 3;
 836:G:/dt_g1_balancing_plate_wise20192020/XMC/Libraries/XMCLib/inc\xmc_vadc.h ****        };
 837:G:/dt_g1_balancing_plate_wise20192020/XMC/Libraries/XMCLib/inc\xmc_vadc.h ****        uint32_t asctrl;
 838:G:/dt_g1_balancing_plate_wise20192020/XMC/Libraries/XMCLib/inc\xmc_vadc.h ****     };
 839:G:/dt_g1_balancing_plate_wise20192020/XMC/Libraries/XMCLib/inc\xmc_vadc.h ****     union
 840:G:/dt_g1_balancing_plate_wise20192020/XMC/Libraries/XMCLib/inc\xmc_vadc.h ****     {
 841:G:/dt_g1_balancing_plate_wise20192020/XMC/Libraries/XMCLib/inc\xmc_vadc.h ****        struct
 842:G:/dt_g1_balancing_plate_wise20192020/XMC/Libraries/XMCLib/inc\xmc_vadc.h ****        {
 843:G:/dt_g1_balancing_plate_wise20192020/XMC/Libraries/XMCLib/inc\xmc_vadc.h ****           uint32_t                    : 2;
 844:G:/dt_g1_balancing_plate_wise20192020/XMC/Libraries/XMCLib/inc\xmc_vadc.h ****           uint32_t external_trigger   : 1;  /**< Conversions be initiated by external hardware trig
 845:G:/dt_g1_balancing_plate_wise20192020/XMC/Libraries/XMCLib/inc\xmc_vadc.h ****           uint32_t req_src_interrupt  : 1;  /**< Request source event can be generated after a conv
 846:G:/dt_g1_balancing_plate_wise20192020/XMC/Libraries/XMCLib/inc\xmc_vadc.h ****           uint32_t enable_auto_scan   : 1;  /**< Enables the continuous conversion mode. Conversion
 847:G:/dt_g1_balancing_plate_wise20192020/XMC/Libraries/XMCLib/inc\xmc_vadc.h ****                                                  of the last channel in a scan sequence will cause 
 848:G:/dt_g1_balancing_plate_wise20192020/XMC/Libraries/XMCLib/inc\xmc_vadc.h ****           uint32_t load_mode          : 1;  /**< Selects load event mode. Uses @ref XMC_VADC_SCAN_L
 849:G:/dt_g1_balancing_plate_wise20192020/XMC/Libraries/XMCLib/inc\xmc_vadc.h ****           uint32_t                    : 26;
 850:G:/dt_g1_balancing_plate_wise20192020/XMC/Libraries/XMCLib/inc\xmc_vadc.h ****        };
 851:G:/dt_g1_balancing_plate_wise20192020/XMC/Libraries/XMCLib/inc\xmc_vadc.h ****        uint32_t asmr;
 852:G:/dt_g1_balancing_plate_wise20192020/XMC/Libraries/XMCLib/inc\xmc_vadc.h ****     };
 853:G:/dt_g1_balancing_plate_wise20192020/XMC/Libraries/XMCLib/inc\xmc_vadc.h **** } XMC_VADC_SCAN_CONFIG_t;
 854:G:/dt_g1_balancing_plate_wise20192020/XMC/Libraries/XMCLib/inc\xmc_vadc.h **** 
 855:G:/dt_g1_balancing_plate_wise20192020/XMC/Libraries/XMCLib/inc\xmc_vadc.h **** 
 856:G:/dt_g1_balancing_plate_wise20192020/XMC/Libraries/XMCLib/inc\xmc_vadc.h **** typedef XMC_VADC_SCAN_CONFIG_t XMC_VADC_BACKGROUND_CONFIG_t; /**< Type defined the scan configurati
 857:G:/dt_g1_balancing_plate_wise20192020/XMC/Libraries/XMCLib/inc\xmc_vadc.h ****                                                                  structure for background Request S
 858:G:/dt_g1_balancing_plate_wise20192020/XMC/Libraries/XMCLib/inc\xmc_vadc.h **** 
 859:G:/dt_g1_balancing_plate_wise20192020/XMC/Libraries/XMCLib/inc\xmc_vadc.h **** /**
 860:G:/dt_g1_balancing_plate_wise20192020/XMC/Libraries/XMCLib/inc\xmc_vadc.h ****  *  Structure initializing the VADC channel. Use type XMC_VADC_CHANNEL_CONFIG_t for this enumeratio
 861:G:/dt_g1_balancing_plate_wise20192020/XMC/Libraries/XMCLib/inc\xmc_vadc.h ****  */
 862:G:/dt_g1_balancing_plate_wise20192020/XMC/Libraries/XMCLib/inc\xmc_vadc.h **** typedef struct XMC_VADC_CHANNEL_CONFIG
 863:G:/dt_g1_balancing_plate_wise20192020/XMC/Libraries/XMCLib/inc\xmc_vadc.h **** {
 864:G:/dt_g1_balancing_plate_wise20192020/XMC/Libraries/XMCLib/inc\xmc_vadc.h ****     union
 865:G:/dt_g1_balancing_plate_wise20192020/XMC/Libraries/XMCLib/inc\xmc_vadc.h ****     {
 866:G:/dt_g1_balancing_plate_wise20192020/XMC/Libraries/XMCLib/inc\xmc_vadc.h ****        struct
 867:G:/dt_g1_balancing_plate_wise20192020/XMC/Libraries/XMCLib/inc\xmc_vadc.h ****        {
 868:G:/dt_g1_balancing_plate_wise20192020/XMC/Libraries/XMCLib/inc\xmc_vadc.h ****           uint32_t input_class                : 2;  /**< Input conversion class selection.
 869:G:/dt_g1_balancing_plate_wise20192020/XMC/Libraries/XMCLib/inc\xmc_vadc.h ****                                                          Uses @ref XMC_VADC_CHANNEL_CONV_t */
 870:G:/dt_g1_balancing_plate_wise20192020/XMC/Libraries/XMCLib/inc\xmc_vadc.h ****           uint32_t                            : 2;
 871:G:/dt_g1_balancing_plate_wise20192020/XMC/Libraries/XMCLib/inc\xmc_vadc.h ****           uint32_t lower_boundary_select      : 2;  /**< Which boundary register serves as lower bo
 872:G:/dt_g1_balancing_plate_wise20192020/XMC/Libraries/XMCLib/inc\xmc_vadc.h ****                                                          Accepts enum @ref XMC_VADC_CHANNEL_BOUNDAR
 873:G:/dt_g1_balancing_plate_wise20192020/XMC/Libraries/XMCLib/inc\xmc_vadc.h ****           uint32_t upper_boundary_select      : 2;  /**< Which boundary register serves as upper bo
 874:G:/dt_g1_balancing_plate_wise20192020/XMC/Libraries/XMCLib/inc\xmc_vadc.h ****                                                          Accepts enum @ref XMC_VADC_CHANNEL_BOUNDAR
 875:G:/dt_g1_balancing_plate_wise20192020/XMC/Libraries/XMCLib/inc\xmc_vadc.h ****           uint32_t event_gen_criteria         : 2;  /**< When should an event be generated?
 876:G:/dt_g1_balancing_plate_wise20192020/XMC/Libraries/XMCLib/inc\xmc_vadc.h ****                                                          Uses @ref XMC_VADC_CHANNEL_EVGEN_t */
 877:G:/dt_g1_balancing_plate_wise20192020/XMC/Libraries/XMCLib/inc\xmc_vadc.h ****           uint32_t sync_conversion            : 1;  /**< Enables synchronous conversion for the con
 878:G:/dt_g1_balancing_plate_wise20192020/XMC/Libraries/XMCLib/inc\xmc_vadc.h ****           uint32_t alternate_reference        : 1;  /**< Input reference voltage selection either V
 879:G:/dt_g1_balancing_plate_wise20192020/XMC/Libraries/XMCLib/inc\xmc_vadc.h ****                                                          Uses @ref XMC_VADC_CHANNEL_REF_t*/
 880:G:/dt_g1_balancing_plate_wise20192020/XMC/Libraries/XMCLib/inc\xmc_vadc.h ****           uint32_t                            : 4;
 881:G:/dt_g1_balancing_plate_wise20192020/XMC/Libraries/XMCLib/inc\xmc_vadc.h ****           uint32_t result_reg_number          : 4;  /**< Group result register number */
 882:G:/dt_g1_balancing_plate_wise20192020/XMC/Libraries/XMCLib/inc\xmc_vadc.h ****           uint32_t use_global_result          : 1;  /**< Use global result register for background 
 883:G:/dt_g1_balancing_plate_wise20192020/XMC/Libraries/XMCLib/inc\xmc_vadc.h ****           uint32_t result_alignment           : 1;  /**< Alignment of the results read in the resul
 884:G:/dt_g1_balancing_plate_wise20192020/XMC/Libraries/XMCLib/inc\xmc_vadc.h ****                                                          Uses @ref XMC_VADC_RESULT_ALIGN_t */
 885:G:/dt_g1_balancing_plate_wise20192020/XMC/Libraries/XMCLib/inc\xmc_vadc.h ****           uint32_t                            : 6;
 886:G:/dt_g1_balancing_plate_wise20192020/XMC/Libraries/XMCLib/inc\xmc_vadc.h ****           uint32_t broken_wire_detect_channel : 2;  /**< Source to be used to charge the capacitor 
 887:G:/dt_g1_balancing_plate_wise20192020/XMC/Libraries/XMCLib/inc\xmc_vadc.h ****                                                          Uses @ref XMC_VADC_CHANNEL_BWDCH_t. */
 888:G:/dt_g1_balancing_plate_wise20192020/XMC/Libraries/XMCLib/inc\xmc_vadc.h ****           uint32_t broken_wire_detect         : 1;  /**< Configures extra phase before the capacito
 889:G:/dt_g1_balancing_plate_wise20192020/XMC/Libraries/XMCLib/inc\xmc_vadc.h ****        };
 890:G:/dt_g1_balancing_plate_wise20192020/XMC/Libraries/XMCLib/inc\xmc_vadc.h ****        uint32_t chctr;
 891:G:/dt_g1_balancing_plate_wise20192020/XMC/Libraries/XMCLib/inc\xmc_vadc.h ****     };
 892:G:/dt_g1_balancing_plate_wise20192020/XMC/Libraries/XMCLib/inc\xmc_vadc.h ****     union
 893:G:/dt_g1_balancing_plate_wise20192020/XMC/Libraries/XMCLib/inc\xmc_vadc.h ****     {
 894:G:/dt_g1_balancing_plate_wise20192020/XMC/Libraries/XMCLib/inc\xmc_vadc.h ****        struct
 895:G:/dt_g1_balancing_plate_wise20192020/XMC/Libraries/XMCLib/inc\xmc_vadc.h ****        {
 896:G:/dt_g1_balancing_plate_wise20192020/XMC/Libraries/XMCLib/inc\xmc_vadc.h ****           uint32_t                           : 8;
 897:G:/dt_g1_balancing_plate_wise20192020/XMC/Libraries/XMCLib/inc\xmc_vadc.h **** #if (XMC_VADC_BOUNDARY_FLAG_SELECT == 1U)
 898:G:/dt_g1_balancing_plate_wise20192020/XMC/Libraries/XMCLib/inc\xmc_vadc.h ****           uint32_t flag_output_condition_ch0 : 1; /**< Condition for which the boundary flag should
 899:G:/dt_g1_balancing_plate_wise20192020/XMC/Libraries/XMCLib/inc\xmc_vadc.h ****                                                        Uses @ref XMC_VADC_CHANNEL_BOUNDARY_CONDITIO
 900:G:/dt_g1_balancing_plate_wise20192020/XMC/Libraries/XMCLib/inc\xmc_vadc.h ****           uint32_t flag_output_condition_ch1 : 1; /**< Condition for which the boundary flag should
 901:G:/dt_g1_balancing_plate_wise20192020/XMC/Libraries/XMCLib/inc\xmc_vadc.h ****                                                          Uses @ref XMC_VADC_CHANNEL_BOUNDARY_CONDIT
 902:G:/dt_g1_balancing_plate_wise20192020/XMC/Libraries/XMCLib/inc\xmc_vadc.h ****           uint32_t flag_output_condition_ch2 : 1; /**< Condition for which the boundary flag should
 903:G:/dt_g1_balancing_plate_wise20192020/XMC/Libraries/XMCLib/inc\xmc_vadc.h ****                                                          Uses @ref XMC_VADC_CHANNEL_BOUNDARY_CONDIT
 904:G:/dt_g1_balancing_plate_wise20192020/XMC/Libraries/XMCLib/inc\xmc_vadc.h ****           uint32_t flag_output_condition_ch3 : 1; /**< Condition for which the boundary flag should
 905:G:/dt_g1_balancing_plate_wise20192020/XMC/Libraries/XMCLib/inc\xmc_vadc.h ****                                                          Uses @ref XMC_VADC_CHANNEL_BOUNDARY_CONDIT
 906:G:/dt_g1_balancing_plate_wise20192020/XMC/Libraries/XMCLib/inc\xmc_vadc.h **** #else
 907:G:/dt_g1_balancing_plate_wise20192020/XMC/Libraries/XMCLib/inc\xmc_vadc.h ****           uint32_t                           : 4;
 908:G:/dt_g1_balancing_plate_wise20192020/XMC/Libraries/XMCLib/inc\xmc_vadc.h **** #endif
 909:G:/dt_g1_balancing_plate_wise20192020/XMC/Libraries/XMCLib/inc\xmc_vadc.h ****           uint32_t                           : 4;
 910:G:/dt_g1_balancing_plate_wise20192020/XMC/Libraries/XMCLib/inc\xmc_vadc.h **** #if (XMC_VADC_BOUNDARY_FLAG_SELECT == 1U)
 911:G:/dt_g1_balancing_plate_wise20192020/XMC/Libraries/XMCLib/inc\xmc_vadc.h ****           uint32_t invert_boundary_flag_ch0  : 1; /**< Inverts boundary flag output.*/
 912:G:/dt_g1_balancing_plate_wise20192020/XMC/Libraries/XMCLib/inc\xmc_vadc.h ****           uint32_t invert_boundary_flag_ch1  : 1; /**< Inverts boundary flag output.*/
 913:G:/dt_g1_balancing_plate_wise20192020/XMC/Libraries/XMCLib/inc\xmc_vadc.h ****           uint32_t invert_boundary_flag_ch2  : 1; /**< Inverts boundary flag output.*/
 914:G:/dt_g1_balancing_plate_wise20192020/XMC/Libraries/XMCLib/inc\xmc_vadc.h ****           uint32_t invert_boundary_flag_ch3  : 1; /**< Inverts boundary flag output.*/
 915:G:/dt_g1_balancing_plate_wise20192020/XMC/Libraries/XMCLib/inc\xmc_vadc.h **** 
 916:G:/dt_g1_balancing_plate_wise20192020/XMC/Libraries/XMCLib/inc\xmc_vadc.h **** #else
 917:G:/dt_g1_balancing_plate_wise20192020/XMC/Libraries/XMCLib/inc\xmc_vadc.h ****           uint32_t boundary_flag_output_ch0  : 1; /**< Enable the boundary flag output on the speci
 918:G:/dt_g1_balancing_plate_wise20192020/XMC/Libraries/XMCLib/inc\xmc_vadc.h ****           uint32_t boundary_flag_output_ch1  : 1; /**< Enable the boundary flag output on the speci
 919:G:/dt_g1_balancing_plate_wise20192020/XMC/Libraries/XMCLib/inc\xmc_vadc.h ****           uint32_t boundary_flag_output_ch2  : 1; /**< Enable the boundary flag output on the speci
 920:G:/dt_g1_balancing_plate_wise20192020/XMC/Libraries/XMCLib/inc\xmc_vadc.h ****           uint32_t boundary_flag_output_ch3  : 1; /**< Enable the boundary flag output on the speci
 921:G:/dt_g1_balancing_plate_wise20192020/XMC/Libraries/XMCLib/inc\xmc_vadc.h **** #endif
 922:G:/dt_g1_balancing_plate_wise20192020/XMC/Libraries/XMCLib/inc\xmc_vadc.h ****           uint32_t                           : 12;
 923:G:/dt_g1_balancing_plate_wise20192020/XMC/Libraries/XMCLib/inc\xmc_vadc.h ****        };
 924:G:/dt_g1_balancing_plate_wise20192020/XMC/Libraries/XMCLib/inc\xmc_vadc.h ****        uint32_t bfl;
 925:G:/dt_g1_balancing_plate_wise20192020/XMC/Libraries/XMCLib/inc\xmc_vadc.h ****     };
 926:G:/dt_g1_balancing_plate_wise20192020/XMC/Libraries/XMCLib/inc\xmc_vadc.h **** #if (XMC_VADC_BOUNDARY_FLAG_SELECT == 1U)
 927:G:/dt_g1_balancing_plate_wise20192020/XMC/Libraries/XMCLib/inc\xmc_vadc.h ****     union
 928:G:/dt_g1_balancing_plate_wise20192020/XMC/Libraries/XMCLib/inc\xmc_vadc.h ****     {
 929:G:/dt_g1_balancing_plate_wise20192020/XMC/Libraries/XMCLib/inc\xmc_vadc.h ****        struct
 930:G:/dt_g1_balancing_plate_wise20192020/XMC/Libraries/XMCLib/inc\xmc_vadc.h ****        {
 931:G:/dt_g1_balancing_plate_wise20192020/XMC/Libraries/XMCLib/inc\xmc_vadc.h ****          uint32_t boundary_flag_mode_ch0    : 4; /**< Specify the basic operation of boundary flag 
 932:G:/dt_g1_balancing_plate_wise20192020/XMC/Libraries/XMCLib/inc\xmc_vadc.h ****                                                       Uses @ref  XMC_VADC_GROUP_BOUNDARY_FLAG_MODE_
 933:G:/dt_g1_balancing_plate_wise20192020/XMC/Libraries/XMCLib/inc\xmc_vadc.h ****          uint32_t boundary_flag_mode_ch1    : 4; /**< Specify the basic operation of boundary flag 
 934:G:/dt_g1_balancing_plate_wise20192020/XMC/Libraries/XMCLib/inc\xmc_vadc.h ****                                                       Uses @ref  XMC_VADC_GROUP_BOUNDARY_FLAG_MODE_
 935:G:/dt_g1_balancing_plate_wise20192020/XMC/Libraries/XMCLib/inc\xmc_vadc.h ****          uint32_t boundary_flag_mode_ch2    : 4; /**< Specify the basic operation of boundary flag 
 936:G:/dt_g1_balancing_plate_wise20192020/XMC/Libraries/XMCLib/inc\xmc_vadc.h ****                                                       Uses @ref  XMC_VADC_GROUP_BOUNDARY_FLAG_MODE_
 937:G:/dt_g1_balancing_plate_wise20192020/XMC/Libraries/XMCLib/inc\xmc_vadc.h ****          uint32_t boundary_flag_mode_ch3    : 4; /**< Specify the basic operation of boundary flag 
 938:G:/dt_g1_balancing_plate_wise20192020/XMC/Libraries/XMCLib/inc\xmc_vadc.h ****                                                       Uses @ref  XMC_VADC_GROUP_BOUNDARY_FLAG_MODE_
 939:G:/dt_g1_balancing_plate_wise20192020/XMC/Libraries/XMCLib/inc\xmc_vadc.h ****          uint32_t                           : 16;
 940:G:/dt_g1_balancing_plate_wise20192020/XMC/Libraries/XMCLib/inc\xmc_vadc.h ****        };
 941:G:/dt_g1_balancing_plate_wise20192020/XMC/Libraries/XMCLib/inc\xmc_vadc.h ****        uint32_t bflc;
 942:G:/dt_g1_balancing_plate_wise20192020/XMC/Libraries/XMCLib/inc\xmc_vadc.h ****     };
 943:G:/dt_g1_balancing_plate_wise20192020/XMC/Libraries/XMCLib/inc\xmc_vadc.h **** #endif
 944:G:/dt_g1_balancing_plate_wise20192020/XMC/Libraries/XMCLib/inc\xmc_vadc.h ****     bool    channel_priority;  /**< Only non priority channels can be converted by Background Reque
 945:G:/dt_g1_balancing_plate_wise20192020/XMC/Libraries/XMCLib/inc\xmc_vadc.h ****     int8_t  alias_channel;     /**< Specifies the channel which has to be aliased with CH0/CH1 (whi
 946:G:/dt_g1_balancing_plate_wise20192020/XMC/Libraries/XMCLib/inc\xmc_vadc.h ****                                     Force the value to \b(int8_t)-1 to bypass alias feature.
 947:G:/dt_g1_balancing_plate_wise20192020/XMC/Libraries/XMCLib/inc\xmc_vadc.h ****                                     Uses @ref XMC_VADC_CHANNEL_ALIAS_t  for configuration.*/
 948:G:/dt_g1_balancing_plate_wise20192020/XMC/Libraries/XMCLib/inc\xmc_vadc.h **** } XMC_VADC_CHANNEL_CONFIG_t;
 949:G:/dt_g1_balancing_plate_wise20192020/XMC/Libraries/XMCLib/inc\xmc_vadc.h **** 
 950:G:/dt_g1_balancing_plate_wise20192020/XMC/Libraries/XMCLib/inc\xmc_vadc.h **** /**
 951:G:/dt_g1_balancing_plate_wise20192020/XMC/Libraries/XMCLib/inc\xmc_vadc.h ****  *  Structure to initialize a queue entry. Use type @ref XMC_VADC_QUEUE_ENTRY_t.
 952:G:/dt_g1_balancing_plate_wise20192020/XMC/Libraries/XMCLib/inc\xmc_vadc.h ****  */
 953:G:/dt_g1_balancing_plate_wise20192020/XMC/Libraries/XMCLib/inc\xmc_vadc.h **** typedef struct XMC_VADC_QUEUE_ENTRY
 954:G:/dt_g1_balancing_plate_wise20192020/XMC/Libraries/XMCLib/inc\xmc_vadc.h **** {
 955:G:/dt_g1_balancing_plate_wise20192020/XMC/Libraries/XMCLib/inc\xmc_vadc.h ****     union
 956:G:/dt_g1_balancing_plate_wise20192020/XMC/Libraries/XMCLib/inc\xmc_vadc.h ****     {
 957:G:/dt_g1_balancing_plate_wise20192020/XMC/Libraries/XMCLib/inc\xmc_vadc.h ****        struct
 958:G:/dt_g1_balancing_plate_wise20192020/XMC/Libraries/XMCLib/inc\xmc_vadc.h ****        {
 959:G:/dt_g1_balancing_plate_wise20192020/XMC/Libraries/XMCLib/inc\xmc_vadc.h ****           uint32_t channel_num        : 5;  /**< Channel number associated with this queue entry.<B
 960:G:/dt_g1_balancing_plate_wise20192020/XMC/Libraries/XMCLib/inc\xmc_vadc.h ****           uint32_t refill_needed      : 1;  /**< Conversion completed channel gets inserted back in
 961:G:/dt_g1_balancing_plate_wise20192020/XMC/Libraries/XMCLib/inc\xmc_vadc.h ****           uint32_t generate_interrupt : 1;  /**< Generates a queue request source event */
 962:G:/dt_g1_balancing_plate_wise20192020/XMC/Libraries/XMCLib/inc\xmc_vadc.h ****           uint32_t external_trigger   : 1;  /**< Conversion requests are raised on an external trig
 963:G:/dt_g1_balancing_plate_wise20192020/XMC/Libraries/XMCLib/inc\xmc_vadc.h ****           uint32_t                    : 24;
 964:G:/dt_g1_balancing_plate_wise20192020/XMC/Libraries/XMCLib/inc\xmc_vadc.h **** 
 965:G:/dt_g1_balancing_plate_wise20192020/XMC/Libraries/XMCLib/inc\xmc_vadc.h ****        };
 966:G:/dt_g1_balancing_plate_wise20192020/XMC/Libraries/XMCLib/inc\xmc_vadc.h ****        uint32_t qinr0;
 967:G:/dt_g1_balancing_plate_wise20192020/XMC/Libraries/XMCLib/inc\xmc_vadc.h ****     };
 968:G:/dt_g1_balancing_plate_wise20192020/XMC/Libraries/XMCLib/inc\xmc_vadc.h **** } XMC_VADC_QUEUE_ENTRY_t;
 969:G:/dt_g1_balancing_plate_wise20192020/XMC/Libraries/XMCLib/inc\xmc_vadc.h **** 
 970:G:/dt_g1_balancing_plate_wise20192020/XMC/Libraries/XMCLib/inc\xmc_vadc.h **** /**
 971:G:/dt_g1_balancing_plate_wise20192020/XMC/Libraries/XMCLib/inc\xmc_vadc.h ****  *  Structure initializing a VADC queue request source. Use type @ref XMC_VADC_QUEUE_CONFIG_t.
 972:G:/dt_g1_balancing_plate_wise20192020/XMC/Libraries/XMCLib/inc\xmc_vadc.h ****  */
 973:G:/dt_g1_balancing_plate_wise20192020/XMC/Libraries/XMCLib/inc\xmc_vadc.h **** typedef struct XMC_VADC_QUEUE_CONFIG
 974:G:/dt_g1_balancing_plate_wise20192020/XMC/Libraries/XMCLib/inc\xmc_vadc.h **** {
 975:G:/dt_g1_balancing_plate_wise20192020/XMC/Libraries/XMCLib/inc\xmc_vadc.h ****     uint32_t conv_start_mode  : 2;  /**< One converter is shared between the queue and scan request
 976:G:/dt_g1_balancing_plate_wise20192020/XMC/Libraries/XMCLib/inc\xmc_vadc.h ****                                          group. This field determines how queue request source woul
 977:G:/dt_g1_balancing_plate_wise20192020/XMC/Libraries/XMCLib/inc\xmc_vadc.h ****                                          conversion. Uses @ref XMC_VADC_STARTMODE_t */
 978:G:/dt_g1_balancing_plate_wise20192020/XMC/Libraries/XMCLib/inc\xmc_vadc.h ****     uint32_t req_src_priority : 2;  /**< Request source priority for the arbiter.Uses @ref XMC_VADC
 979:G:/dt_g1_balancing_plate_wise20192020/XMC/Libraries/XMCLib/inc\xmc_vadc.h ****     union
 980:G:/dt_g1_balancing_plate_wise20192020/XMC/Libraries/XMCLib/inc\xmc_vadc.h ****     {
 981:G:/dt_g1_balancing_plate_wise20192020/XMC/Libraries/XMCLib/inc\xmc_vadc.h ****        struct
 982:G:/dt_g1_balancing_plate_wise20192020/XMC/Libraries/XMCLib/inc\xmc_vadc.h ****        {
 983:G:/dt_g1_balancing_plate_wise20192020/XMC/Libraries/XMCLib/inc\xmc_vadc.h **** #if(XMC_VADC_GROUP_SRCREG_AVAILABLE == (1U))
 984:G:/dt_g1_balancing_plate_wise20192020/XMC/Libraries/XMCLib/inc\xmc_vadc.h ****           uint32_t src_specific_result_reg : 4;  /**< Uses any one Group related result register as
 985:G:/dt_g1_balancing_plate_wise20192020/XMC/Libraries/XMCLib/inc\xmc_vadc.h ****                                                     for all conversions results. To use the  indivi
 986:G:/dt_g1_balancing_plate_wise20192020/XMC/Libraries/XMCLib/inc\xmc_vadc.h ****                                                     from each channel configuration, configure this
 987:G:/dt_g1_balancing_plate_wise20192020/XMC/Libraries/XMCLib/inc\xmc_vadc.h **** #else
 988:G:/dt_g1_balancing_plate_wise20192020/XMC/Libraries/XMCLib/inc\xmc_vadc.h ****           uint32_t                         : 4;
 989:G:/dt_g1_balancing_plate_wise20192020/XMC/Libraries/XMCLib/inc\xmc_vadc.h **** #endif
 990:G:/dt_g1_balancing_plate_wise20192020/XMC/Libraries/XMCLib/inc\xmc_vadc.h ****           uint32_t                         : 4;
 991:G:/dt_g1_balancing_plate_wise20192020/XMC/Libraries/XMCLib/inc\xmc_vadc.h ****           uint32_t trigger_signal          : 4;  /**< Select one of the 16 possibilities for trigge
 992:G:/dt_g1_balancing_plate_wise20192020/XMC/Libraries/XMCLib/inc\xmc_vadc.h ****                                                       Uses @ref XMC_VADC_TRIGGER_INPUT_SELECT_t */
 993:G:/dt_g1_balancing_plate_wise20192020/XMC/Libraries/XMCLib/inc\xmc_vadc.h ****           uint32_t                         : 1;
 994:G:/dt_g1_balancing_plate_wise20192020/XMC/Libraries/XMCLib/inc\xmc_vadc.h ****           uint32_t trigger_edge            : 2;  /**< Edge selection for trigger signal.
 995:G:/dt_g1_balancing_plate_wise20192020/XMC/Libraries/XMCLib/inc\xmc_vadc.h ****                                                       Uses @ref XMC_VADC_TRIGGER_EDGE_t */
 996:G:/dt_g1_balancing_plate_wise20192020/XMC/Libraries/XMCLib/inc\xmc_vadc.h ****           uint32_t                         : 1;
 997:G:/dt_g1_balancing_plate_wise20192020/XMC/Libraries/XMCLib/inc\xmc_vadc.h ****           uint32_t gate_signal             : 4;  /**< Select one of the 16 possibilities for gating
 998:G:/dt_g1_balancing_plate_wise20192020/XMC/Libraries/XMCLib/inc\xmc_vadc.h ****                                                       Uses @ref XMC_VADC_GATE_INPUT_SELECT_t */
 999:G:/dt_g1_balancing_plate_wise20192020/XMC/Libraries/XMCLib/inc\xmc_vadc.h ****           uint32_t                         : 8;
1000:G:/dt_g1_balancing_plate_wise20192020/XMC/Libraries/XMCLib/inc\xmc_vadc.h ****           uint32_t timer_mode              : 1;  /**< Timer mode for equi-distant sampling shall be
1001:G:/dt_g1_balancing_plate_wise20192020/XMC/Libraries/XMCLib/inc\xmc_vadc.h ****           uint32_t                         : 3;
1002:G:/dt_g1_balancing_plate_wise20192020/XMC/Libraries/XMCLib/inc\xmc_vadc.h ****        };
1003:G:/dt_g1_balancing_plate_wise20192020/XMC/Libraries/XMCLib/inc\xmc_vadc.h ****        uint32_t qctrl0;
1004:G:/dt_g1_balancing_plate_wise20192020/XMC/Libraries/XMCLib/inc\xmc_vadc.h ****     };
1005:G:/dt_g1_balancing_plate_wise20192020/XMC/Libraries/XMCLib/inc\xmc_vadc.h ****     union
1006:G:/dt_g1_balancing_plate_wise20192020/XMC/Libraries/XMCLib/inc\xmc_vadc.h ****     {
1007:G:/dt_g1_balancing_plate_wise20192020/XMC/Libraries/XMCLib/inc\xmc_vadc.h ****        struct
1008:G:/dt_g1_balancing_plate_wise20192020/XMC/Libraries/XMCLib/inc\xmc_vadc.h ****        {
1009:G:/dt_g1_balancing_plate_wise20192020/XMC/Libraries/XMCLib/inc\xmc_vadc.h ****           uint32_t                   : 2;
1010:G:/dt_g1_balancing_plate_wise20192020/XMC/Libraries/XMCLib/inc\xmc_vadc.h ****           uint32_t external_trigger  : 1;  /**< Are external triggers supported? */
1011:G:/dt_g1_balancing_plate_wise20192020/XMC/Libraries/XMCLib/inc\xmc_vadc.h ****           uint32_t                   : 29;
1012:G:/dt_g1_balancing_plate_wise20192020/XMC/Libraries/XMCLib/inc\xmc_vadc.h ****        };
1013:G:/dt_g1_balancing_plate_wise20192020/XMC/Libraries/XMCLib/inc\xmc_vadc.h ****        uint32_t qmr0;
1014:G:/dt_g1_balancing_plate_wise20192020/XMC/Libraries/XMCLib/inc\xmc_vadc.h ****     };
1015:G:/dt_g1_balancing_plate_wise20192020/XMC/Libraries/XMCLib/inc\xmc_vadc.h **** } XMC_VADC_QUEUE_CONFIG_t;
1016:G:/dt_g1_balancing_plate_wise20192020/XMC/Libraries/XMCLib/inc\xmc_vadc.h **** 
1017:G:/dt_g1_balancing_plate_wise20192020/XMC/Libraries/XMCLib/inc\xmc_vadc.h **** 
1018:G:/dt_g1_balancing_plate_wise20192020/XMC/Libraries/XMCLib/inc\xmc_vadc.h **** /**
1019:G:/dt_g1_balancing_plate_wise20192020/XMC/Libraries/XMCLib/inc\xmc_vadc.h ****  *  Structure to initialize the global input class configuration. Configured parameters are sample 
1020:G:/dt_g1_balancing_plate_wise20192020/XMC/Libraries/XMCLib/inc\xmc_vadc.h ****  *  conversion Mode.
1021:G:/dt_g1_balancing_plate_wise20192020/XMC/Libraries/XMCLib/inc\xmc_vadc.h ****  */
1022:G:/dt_g1_balancing_plate_wise20192020/XMC/Libraries/XMCLib/inc\xmc_vadc.h **** typedef struct XMC_VADC_GLOBAL_CLASS
1023:G:/dt_g1_balancing_plate_wise20192020/XMC/Libraries/XMCLib/inc\xmc_vadc.h **** {
1024:G:/dt_g1_balancing_plate_wise20192020/XMC/Libraries/XMCLib/inc\xmc_vadc.h ****     union
1025:G:/dt_g1_balancing_plate_wise20192020/XMC/Libraries/XMCLib/inc\xmc_vadc.h ****     {
1026:G:/dt_g1_balancing_plate_wise20192020/XMC/Libraries/XMCLib/inc\xmc_vadc.h ****        struct
1027:G:/dt_g1_balancing_plate_wise20192020/XMC/Libraries/XMCLib/inc\xmc_vadc.h ****        {
1028:G:/dt_g1_balancing_plate_wise20192020/XMC/Libraries/XMCLib/inc\xmc_vadc.h ****           uint32_t sample_time_std_conv            : 5;  /**< Sample time for channels directly con
1029:G:/dt_g1_balancing_plate_wise20192020/XMC/Libraries/XMCLib/inc\xmc_vadc.h ****                                                               <BR>Range: [0x0 to 0x1F] */
1030:G:/dt_g1_balancing_plate_wise20192020/XMC/Libraries/XMCLib/inc\xmc_vadc.h ****           uint32_t                                 : 3;
1031:G:/dt_g1_balancing_plate_wise20192020/XMC/Libraries/XMCLib/inc\xmc_vadc.h ****           uint32_t conversion_mode_standard        : 3;  /**< Conversion mode for channels directly
1032:G:/dt_g1_balancing_plate_wise20192020/XMC/Libraries/XMCLib/inc\xmc_vadc.h ****                                                               Uses @ref XMC_VADC_CONVMODE_t */
1033:G:/dt_g1_balancing_plate_wise20192020/XMC/Libraries/XMCLib/inc\xmc_vadc.h ****           uint32_t                                 : 5;
1034:G:/dt_g1_balancing_plate_wise20192020/XMC/Libraries/XMCLib/inc\xmc_vadc.h **** #if(XMC_VADC_EMUX_AVAILABLE == 1U)
1035:G:/dt_g1_balancing_plate_wise20192020/XMC/Libraries/XMCLib/inc\xmc_vadc.h ****           uint32_t sampling_phase_emux_channel     : 5;  /**< Sample time for channels connected vi
1036:G:/dt_g1_balancing_plate_wise20192020/XMC/Libraries/XMCLib/inc\xmc_vadc.h ****                                                               <BR>Range: [0x0 to 0x1F] */
1037:G:/dt_g1_balancing_plate_wise20192020/XMC/Libraries/XMCLib/inc\xmc_vadc.h ****           uint32_t                                 : 3;
1038:G:/dt_g1_balancing_plate_wise20192020/XMC/Libraries/XMCLib/inc\xmc_vadc.h ****           uint32_t conversion_mode_emux            : 3;  /**< Conversion mode for channels connecte
1039:G:/dt_g1_balancing_plate_wise20192020/XMC/Libraries/XMCLib/inc\xmc_vadc.h ****                                                               Uses @ref XMC_VADC_CONVMODE_t */
1040:G:/dt_g1_balancing_plate_wise20192020/XMC/Libraries/XMCLib/inc\xmc_vadc.h ****           uint32_t                                 : 5;
1041:G:/dt_g1_balancing_plate_wise20192020/XMC/Libraries/XMCLib/inc\xmc_vadc.h **** #else
1042:G:/dt_g1_balancing_plate_wise20192020/XMC/Libraries/XMCLib/inc\xmc_vadc.h ****           uint32_t                                 : 16;
1043:G:/dt_g1_balancing_plate_wise20192020/XMC/Libraries/XMCLib/inc\xmc_vadc.h **** #endif
1044:G:/dt_g1_balancing_plate_wise20192020/XMC/Libraries/XMCLib/inc\xmc_vadc.h ****        };
1045:G:/dt_g1_balancing_plate_wise20192020/XMC/Libraries/XMCLib/inc\xmc_vadc.h ****        uint32_t globiclass;
1046:G:/dt_g1_balancing_plate_wise20192020/XMC/Libraries/XMCLib/inc\xmc_vadc.h ****     };
1047:G:/dt_g1_balancing_plate_wise20192020/XMC/Libraries/XMCLib/inc\xmc_vadc.h **** } XMC_VADC_GLOBAL_CLASS_t;
1048:G:/dt_g1_balancing_plate_wise20192020/XMC/Libraries/XMCLib/inc\xmc_vadc.h **** 
1049:G:/dt_g1_balancing_plate_wise20192020/XMC/Libraries/XMCLib/inc\xmc_vadc.h **** #if (XMC_VADC_GROUP_AVAILABLE != 0U)
1050:G:/dt_g1_balancing_plate_wise20192020/XMC/Libraries/XMCLib/inc\xmc_vadc.h **** /**
1051:G:/dt_g1_balancing_plate_wise20192020/XMC/Libraries/XMCLib/inc\xmc_vadc.h ****  *   Structure to initialize converter and arbiter clock configuration
1052:G:/dt_g1_balancing_plate_wise20192020/XMC/Libraries/XMCLib/inc\xmc_vadc.h ****  */
1053:G:/dt_g1_balancing_plate_wise20192020/XMC/Libraries/XMCLib/inc\xmc_vadc.h **** typedef struct XMC_VADC_GLOBAL_CLOCK
1054:G:/dt_g1_balancing_plate_wise20192020/XMC/Libraries/XMCLib/inc\xmc_vadc.h **** {
1055:G:/dt_g1_balancing_plate_wise20192020/XMC/Libraries/XMCLib/inc\xmc_vadc.h ****     union
1056:G:/dt_g1_balancing_plate_wise20192020/XMC/Libraries/XMCLib/inc\xmc_vadc.h ****     {
1057:G:/dt_g1_balancing_plate_wise20192020/XMC/Libraries/XMCLib/inc\xmc_vadc.h ****        struct
1058:G:/dt_g1_balancing_plate_wise20192020/XMC/Libraries/XMCLib/inc\xmc_vadc.h ****        {
1059:G:/dt_g1_balancing_plate_wise20192020/XMC/Libraries/XMCLib/inc\xmc_vadc.h **** 
1060:G:/dt_g1_balancing_plate_wise20192020/XMC/Libraries/XMCLib/inc\xmc_vadc.h ****           uint32_t analog_clock_divider     : 5;  /**< Clock for the converter. <BR>Range: [0x0 to 
1061:G:/dt_g1_balancing_plate_wise20192020/XMC/Libraries/XMCLib/inc\xmc_vadc.h ****           uint32_t                          : 2;
1062:G:/dt_g1_balancing_plate_wise20192020/XMC/Libraries/XMCLib/inc\xmc_vadc.h ****           uint32_t msb_conversion_clock     : 1;  /**< Additional clock cycle for analog converter 
1063:G:/dt_g1_balancing_plate_wise20192020/XMC/Libraries/XMCLib/inc\xmc_vadc.h ****           uint32_t arbiter_clock_divider    : 2;  /**< Request source arbiter clock divider. <BR>Ra
1064:G:/dt_g1_balancing_plate_wise20192020/XMC/Libraries/XMCLib/inc\xmc_vadc.h ****           uint32_t                          : 5;
1065:G:/dt_g1_balancing_plate_wise20192020/XMC/Libraries/XMCLib/inc\xmc_vadc.h ****           uint32_t                          : 17;
1066:G:/dt_g1_balancing_plate_wise20192020/XMC/Libraries/XMCLib/inc\xmc_vadc.h ****        };
1067:G:/dt_g1_balancing_plate_wise20192020/XMC/Libraries/XMCLib/inc\xmc_vadc.h ****        uint32_t globcfg;
1068:G:/dt_g1_balancing_plate_wise20192020/XMC/Libraries/XMCLib/inc\xmc_vadc.h ****     };
1069:G:/dt_g1_balancing_plate_wise20192020/XMC/Libraries/XMCLib/inc\xmc_vadc.h **** } XMC_VADC_GLOBAL_CLOCK_t;
1070:G:/dt_g1_balancing_plate_wise20192020/XMC/Libraries/XMCLib/inc\xmc_vadc.h **** #endif
1071:G:/dt_g1_balancing_plate_wise20192020/XMC/Libraries/XMCLib/inc\xmc_vadc.h **** 
1072:G:/dt_g1_balancing_plate_wise20192020/XMC/Libraries/XMCLib/inc\xmc_vadc.h **** 
1073:G:/dt_g1_balancing_plate_wise20192020/XMC/Libraries/XMCLib/inc\xmc_vadc.h **** /**
1074:G:/dt_g1_balancing_plate_wise20192020/XMC/Libraries/XMCLib/inc\xmc_vadc.h ****  *   Structure to initialize the VADC Global functions
1075:G:/dt_g1_balancing_plate_wise20192020/XMC/Libraries/XMCLib/inc\xmc_vadc.h ****  */
1076:G:/dt_g1_balancing_plate_wise20192020/XMC/Libraries/XMCLib/inc\xmc_vadc.h **** typedef struct XMC_VADC_GLOBAL_CONFIG
1077:G:/dt_g1_balancing_plate_wise20192020/XMC/Libraries/XMCLib/inc\xmc_vadc.h **** {
1078:G:/dt_g1_balancing_plate_wise20192020/XMC/Libraries/XMCLib/inc\xmc_vadc.h ****     union
1079:G:/dt_g1_balancing_plate_wise20192020/XMC/Libraries/XMCLib/inc\xmc_vadc.h ****     {
1080:G:/dt_g1_balancing_plate_wise20192020/XMC/Libraries/XMCLib/inc\xmc_vadc.h ****        struct
1081:G:/dt_g1_balancing_plate_wise20192020/XMC/Libraries/XMCLib/inc\xmc_vadc.h ****        {
1082:G:/dt_g1_balancing_plate_wise20192020/XMC/Libraries/XMCLib/inc\xmc_vadc.h ****           uint32_t boundary0  : 12;  /**< Boundary value for results comparison*/
1083:G:/dt_g1_balancing_plate_wise20192020/XMC/Libraries/XMCLib/inc\xmc_vadc.h ****           uint32_t            : 4;
1084:G:/dt_g1_balancing_plate_wise20192020/XMC/Libraries/XMCLib/inc\xmc_vadc.h ****           uint32_t boundary1  : 12;  /**< Boundary value for results comparison*/
1085:G:/dt_g1_balancing_plate_wise20192020/XMC/Libraries/XMCLib/inc\xmc_vadc.h ****           uint32_t            : 4;
1086:G:/dt_g1_balancing_plate_wise20192020/XMC/Libraries/XMCLib/inc\xmc_vadc.h ****        };
1087:G:/dt_g1_balancing_plate_wise20192020/XMC/Libraries/XMCLib/inc\xmc_vadc.h ****        uint32_t globbound;
1088:G:/dt_g1_balancing_plate_wise20192020/XMC/Libraries/XMCLib/inc\xmc_vadc.h ****     };
1089:G:/dt_g1_balancing_plate_wise20192020/XMC/Libraries/XMCLib/inc\xmc_vadc.h **** #if (XMC_VADC_GROUP_AVAILABLE != 0U)
1090:G:/dt_g1_balancing_plate_wise20192020/XMC/Libraries/XMCLib/inc\xmc_vadc.h ****     XMC_VADC_GLOBAL_CLOCK_t clock_config; /**< ADC clock configurations*/
1091:G:/dt_g1_balancing_plate_wise20192020/XMC/Libraries/XMCLib/inc\xmc_vadc.h **** #endif
1092:G:/dt_g1_balancing_plate_wise20192020/XMC/Libraries/XMCLib/inc\xmc_vadc.h ****     XMC_VADC_GLOBAL_CLASS_t  class0;      /**< ADC input conversion configurations for GLOBICLASS[0
1093:G:/dt_g1_balancing_plate_wise20192020/XMC/Libraries/XMCLib/inc\xmc_vadc.h ****     XMC_VADC_GLOBAL_CLASS_t  class1;      /**< ADC input conversion configurations for GLOBICLASS[1
1094:G:/dt_g1_balancing_plate_wise20192020/XMC/Libraries/XMCLib/inc\xmc_vadc.h ****     union
1095:G:/dt_g1_balancing_plate_wise20192020/XMC/Libraries/XMCLib/inc\xmc_vadc.h ****     {
1096:G:/dt_g1_balancing_plate_wise20192020/XMC/Libraries/XMCLib/inc\xmc_vadc.h ****        struct
1097:G:/dt_g1_balancing_plate_wise20192020/XMC/Libraries/XMCLib/inc\xmc_vadc.h ****        {
1098:G:/dt_g1_balancing_plate_wise20192020/XMC/Libraries/XMCLib/inc\xmc_vadc.h ****           uint32_t                         : 16;
1099:G:/dt_g1_balancing_plate_wise20192020/XMC/Libraries/XMCLib/inc\xmc_vadc.h ****           uint32_t data_reduction_control  : 4;  /**< Data reduction stages */
1100:G:/dt_g1_balancing_plate_wise20192020/XMC/Libraries/XMCLib/inc\xmc_vadc.h ****           uint32_t                         : 4;
1101:G:/dt_g1_balancing_plate_wise20192020/XMC/Libraries/XMCLib/inc\xmc_vadc.h ****           uint32_t wait_for_read_mode      : 1;  /**< Results of the next conversion will not be ov
1102:G:/dt_g1_balancing_plate_wise20192020/XMC/Libraries/XMCLib/inc\xmc_vadc.h ****                                                       result register until the previous value is r
1103:G:/dt_g1_balancing_plate_wise20192020/XMC/Libraries/XMCLib/inc\xmc_vadc.h ****           uint32_t                         : 6;
1104:G:/dt_g1_balancing_plate_wise20192020/XMC/Libraries/XMCLib/inc\xmc_vadc.h ****           uint32_t event_gen_enable        : 1;  /**< Generates an event on availability of new res
1105:G:/dt_g1_balancing_plate_wise20192020/XMC/Libraries/XMCLib/inc\xmc_vadc.h ****        };
1106:G:/dt_g1_balancing_plate_wise20192020/XMC/Libraries/XMCLib/inc\xmc_vadc.h ****        uint32_t globrcr;
1107:G:/dt_g1_balancing_plate_wise20192020/XMC/Libraries/XMCLib/inc\xmc_vadc.h ****     };
1108:G:/dt_g1_balancing_plate_wise20192020/XMC/Libraries/XMCLib/inc\xmc_vadc.h ****     union
1109:G:/dt_g1_balancing_plate_wise20192020/XMC/Libraries/XMCLib/inc\xmc_vadc.h ****     {
1110:G:/dt_g1_balancing_plate_wise20192020/XMC/Libraries/XMCLib/inc\xmc_vadc.h ****        struct
1111:G:/dt_g1_balancing_plate_wise20192020/XMC/Libraries/XMCLib/inc\xmc_vadc.h ****        {
1112:G:/dt_g1_balancing_plate_wise20192020/XMC/Libraries/XMCLib/inc\xmc_vadc.h ****           uint32_t module_disable              : 1;  /**< Disables the module clock.*/
1113:G:/dt_g1_balancing_plate_wise20192020/XMC/Libraries/XMCLib/inc\xmc_vadc.h ****           uint32_t                             : 2;
1114:G:/dt_g1_balancing_plate_wise20192020/XMC/Libraries/XMCLib/inc\xmc_vadc.h ****           uint32_t disable_sleep_mode_control  : 1;  /**< Set it to true in order to disable the Sl
1115:G:/dt_g1_balancing_plate_wise20192020/XMC/Libraries/XMCLib/inc\xmc_vadc.h ****           uint32_t                             : 28;
1116:G:/dt_g1_balancing_plate_wise20192020/XMC/Libraries/XMCLib/inc\xmc_vadc.h ****        };
1117:G:/dt_g1_balancing_plate_wise20192020/XMC/Libraries/XMCLib/inc\xmc_vadc.h ****        uint32_t clc;
1118:G:/dt_g1_balancing_plate_wise20192020/XMC/Libraries/XMCLib/inc\xmc_vadc.h ****     };
1119:G:/dt_g1_balancing_plate_wise20192020/XMC/Libraries/XMCLib/inc\xmc_vadc.h **** } XMC_VADC_GLOBAL_CONFIG_t;
1120:G:/dt_g1_balancing_plate_wise20192020/XMC/Libraries/XMCLib/inc\xmc_vadc.h **** 
1121:G:/dt_g1_balancing_plate_wise20192020/XMC/Libraries/XMCLib/inc\xmc_vadc.h **** 
1122:G:/dt_g1_balancing_plate_wise20192020/XMC/Libraries/XMCLib/inc\xmc_vadc.h **** /**
1123:G:/dt_g1_balancing_plate_wise20192020/XMC/Libraries/XMCLib/inc\xmc_vadc.h ****  *  Structure to initialize the group input class configuration. Configured parameters are sample t
1124:G:/dt_g1_balancing_plate_wise20192020/XMC/Libraries/XMCLib/inc\xmc_vadc.h ****  *  conversion Mode.
1125:G:/dt_g1_balancing_plate_wise20192020/XMC/Libraries/XMCLib/inc\xmc_vadc.h ****  */
1126:G:/dt_g1_balancing_plate_wise20192020/XMC/Libraries/XMCLib/inc\xmc_vadc.h **** typedef struct XMC_VADC_GROUP_CLASS
1127:G:/dt_g1_balancing_plate_wise20192020/XMC/Libraries/XMCLib/inc\xmc_vadc.h **** {
1128:G:/dt_g1_balancing_plate_wise20192020/XMC/Libraries/XMCLib/inc\xmc_vadc.h ****     union
1129:G:/dt_g1_balancing_plate_wise20192020/XMC/Libraries/XMCLib/inc\xmc_vadc.h ****     {
1130:G:/dt_g1_balancing_plate_wise20192020/XMC/Libraries/XMCLib/inc\xmc_vadc.h ****        struct
1131:G:/dt_g1_balancing_plate_wise20192020/XMC/Libraries/XMCLib/inc\xmc_vadc.h ****        {
1132:G:/dt_g1_balancing_plate_wise20192020/XMC/Libraries/XMCLib/inc\xmc_vadc.h ****           uint32_t sample_time_std_conv            : 5;  /**< Sample time for channels directly con
1133:G:/dt_g1_balancing_plate_wise20192020/XMC/Libraries/XMCLib/inc\xmc_vadc.h ****                                                               <BR>Range: [0x0 to 0x1F] */
1134:G:/dt_g1_balancing_plate_wise20192020/XMC/Libraries/XMCLib/inc\xmc_vadc.h ****           uint32_t                                 : 3;
1135:G:/dt_g1_balancing_plate_wise20192020/XMC/Libraries/XMCLib/inc\xmc_vadc.h ****           uint32_t conversion_mode_standard        : 3;  /**< Conversion mode for channels directly
1136:G:/dt_g1_balancing_plate_wise20192020/XMC/Libraries/XMCLib/inc\xmc_vadc.h ****                                                               Uses @ref XMC_VADC_CONVMODE_t */
1137:G:/dt_g1_balancing_plate_wise20192020/XMC/Libraries/XMCLib/inc\xmc_vadc.h ****           uint32_t                                 : 5;
1138:G:/dt_g1_balancing_plate_wise20192020/XMC/Libraries/XMCLib/inc\xmc_vadc.h ****           uint32_t sampling_phase_emux_channel     : 5;  /**< Sample time for channels connected vi
1139:G:/dt_g1_balancing_plate_wise20192020/XMC/Libraries/XMCLib/inc\xmc_vadc.h ****                                                               <BR>Range: [0x0 to 0x1F] */
1140:G:/dt_g1_balancing_plate_wise20192020/XMC/Libraries/XMCLib/inc\xmc_vadc.h ****           uint32_t                                 : 3;
1141:G:/dt_g1_balancing_plate_wise20192020/XMC/Libraries/XMCLib/inc\xmc_vadc.h ****           uint32_t conversion_mode_emux            : 3;  /**< Conversion mode for channels connecte
1142:G:/dt_g1_balancing_plate_wise20192020/XMC/Libraries/XMCLib/inc\xmc_vadc.h ****                                                               Uses @ref XMC_VADC_CONVMODE_t */
1143:G:/dt_g1_balancing_plate_wise20192020/XMC/Libraries/XMCLib/inc\xmc_vadc.h ****           uint32_t                                 : 5;
1144:G:/dt_g1_balancing_plate_wise20192020/XMC/Libraries/XMCLib/inc\xmc_vadc.h ****        };
1145:G:/dt_g1_balancing_plate_wise20192020/XMC/Libraries/XMCLib/inc\xmc_vadc.h ****        uint32_t g_iclass0;
1146:G:/dt_g1_balancing_plate_wise20192020/XMC/Libraries/XMCLib/inc\xmc_vadc.h ****     };
1147:G:/dt_g1_balancing_plate_wise20192020/XMC/Libraries/XMCLib/inc\xmc_vadc.h **** } XMC_VADC_GROUP_CLASS_t;
1148:G:/dt_g1_balancing_plate_wise20192020/XMC/Libraries/XMCLib/inc\xmc_vadc.h **** 
1149:G:/dt_g1_balancing_plate_wise20192020/XMC/Libraries/XMCLib/inc\xmc_vadc.h **** 
1150:G:/dt_g1_balancing_plate_wise20192020/XMC/Libraries/XMCLib/inc\xmc_vadc.h **** /**
1151:G:/dt_g1_balancing_plate_wise20192020/XMC/Libraries/XMCLib/inc\xmc_vadc.h ****  *  EMUX related configuration structure.
1152:G:/dt_g1_balancing_plate_wise20192020/XMC/Libraries/XMCLib/inc\xmc_vadc.h ****  */
1153:G:/dt_g1_balancing_plate_wise20192020/XMC/Libraries/XMCLib/inc\xmc_vadc.h **** typedef struct XMC_VADC_GROUP_EMUXCFG
1154:G:/dt_g1_balancing_plate_wise20192020/XMC/Libraries/XMCLib/inc\xmc_vadc.h **** {
1155:G:/dt_g1_balancing_plate_wise20192020/XMC/Libraries/XMCLib/inc\xmc_vadc.h ****     union
1156:G:/dt_g1_balancing_plate_wise20192020/XMC/Libraries/XMCLib/inc\xmc_vadc.h ****     {
1157:G:/dt_g1_balancing_plate_wise20192020/XMC/Libraries/XMCLib/inc\xmc_vadc.h ****        struct
1158:G:/dt_g1_balancing_plate_wise20192020/XMC/Libraries/XMCLib/inc\xmc_vadc.h ****        {
1159:G:/dt_g1_balancing_plate_wise20192020/XMC/Libraries/XMCLib/inc\xmc_vadc.h ****           uint32_t starting_external_channel : 3;  /**< External channel number to which the VADC w
1160:G:/dt_g1_balancing_plate_wise20192020/XMC/Libraries/XMCLib/inc\xmc_vadc.h ****                                                         generate a control signal (needed to select
1161:G:/dt_g1_balancing_plate_wise20192020/XMC/Libraries/XMCLib/inc\xmc_vadc.h ****                                                         the analog multiplexer)*/
1162:G:/dt_g1_balancing_plate_wise20192020/XMC/Libraries/XMCLib/inc\xmc_vadc.h ****           uint32_t                           : 13;
1163:G:/dt_g1_balancing_plate_wise20192020/XMC/Libraries/XMCLib/inc\xmc_vadc.h **** #if (XMC_VADC_EMUX_CH_SEL_STYLE == 1U)
1164:G:/dt_g1_balancing_plate_wise20192020/XMC/Libraries/XMCLib/inc\xmc_vadc.h ****           uint32_t connected_channel         : 10; /**< The Channel to which the EMUX is connected.
1165:G:/dt_g1_balancing_plate_wise20192020/XMC/Libraries/XMCLib/inc\xmc_vadc.h **** #else
1166:G:/dt_g1_balancing_plate_wise20192020/XMC/Libraries/XMCLib/inc\xmc_vadc.h ****           uint32_t connected_channel         : 5;  /**< The Channel to which the EMUX is connected.
1167:G:/dt_g1_balancing_plate_wise20192020/XMC/Libraries/XMCLib/inc\xmc_vadc.h ****           uint32_t                           : 5;
1168:G:/dt_g1_balancing_plate_wise20192020/XMC/Libraries/XMCLib/inc\xmc_vadc.h **** #endif
1169:G:/dt_g1_balancing_plate_wise20192020/XMC/Libraries/XMCLib/inc\xmc_vadc.h ****           uint32_t emux_mode                 : 2;  /**< Selects the external multiplexer modes: Ste
1170:G:/dt_g1_balancing_plate_wise20192020/XMC/Libraries/XMCLib/inc\xmc_vadc.h ****                                                         Uses @ref XMC_VADC_GROUP_EMUXMODE_t*/
1171:G:/dt_g1_balancing_plate_wise20192020/XMC/Libraries/XMCLib/inc\xmc_vadc.h ****           uint32_t emux_coding               : 1;  /**< Select Binary or Gray coding. Uses @ref XMC
1172:G:/dt_g1_balancing_plate_wise20192020/XMC/Libraries/XMCLib/inc\xmc_vadc.h ****           uint32_t stce_usage                : 1;  /**< Use STCE for each conversion of an external
1173:G:/dt_g1_balancing_plate_wise20192020/XMC/Libraries/XMCLib/inc\xmc_vadc.h **** #if (XMC_VADC_EMUX_CH_SEL_STYLE == 1U)
1174:G:/dt_g1_balancing_plate_wise20192020/XMC/Libraries/XMCLib/inc\xmc_vadc.h ****           uint32_t emux_channel_select_style : 1;  /**< Selects the style of configuring the \b con
1175:G:/dt_g1_balancing_plate_wise20192020/XMC/Libraries/XMCLib/inc\xmc_vadc.h ****                                                         (Each bit represents the channel or entire 
1176:G:/dt_g1_balancing_plate_wise20192020/XMC/Libraries/XMCLib/inc\xmc_vadc.h ****           uint32_t                           : 1;
1177:G:/dt_g1_balancing_plate_wise20192020/XMC/Libraries/XMCLib/inc\xmc_vadc.h **** #else
1178:G:/dt_g1_balancing_plate_wise20192020/XMC/Libraries/XMCLib/inc\xmc_vadc.h ****           uint32_t                           : 2;
1179:G:/dt_g1_balancing_plate_wise20192020/XMC/Libraries/XMCLib/inc\xmc_vadc.h **** #endif
1180:G:/dt_g1_balancing_plate_wise20192020/XMC/Libraries/XMCLib/inc\xmc_vadc.h ****        };
1181:G:/dt_g1_balancing_plate_wise20192020/XMC/Libraries/XMCLib/inc\xmc_vadc.h ****        uint32_t g_emuxctr;
1182:G:/dt_g1_balancing_plate_wise20192020/XMC/Libraries/XMCLib/inc\xmc_vadc.h ****     };
1183:G:/dt_g1_balancing_plate_wise20192020/XMC/Libraries/XMCLib/inc\xmc_vadc.h **** } XMC_VADC_GROUP_EMUXCFG_t;
1184:G:/dt_g1_balancing_plate_wise20192020/XMC/Libraries/XMCLib/inc\xmc_vadc.h **** 
1185:G:/dt_g1_balancing_plate_wise20192020/XMC/Libraries/XMCLib/inc\xmc_vadc.h **** 
1186:G:/dt_g1_balancing_plate_wise20192020/XMC/Libraries/XMCLib/inc\xmc_vadc.h **** /**
1187:G:/dt_g1_balancing_plate_wise20192020/XMC/Libraries/XMCLib/inc\xmc_vadc.h ****  *   Group Configuration Data Structures
1188:G:/dt_g1_balancing_plate_wise20192020/XMC/Libraries/XMCLib/inc\xmc_vadc.h ****  */
1189:G:/dt_g1_balancing_plate_wise20192020/XMC/Libraries/XMCLib/inc\xmc_vadc.h **** 
1190:G:/dt_g1_balancing_plate_wise20192020/XMC/Libraries/XMCLib/inc\xmc_vadc.h **** typedef struct XMC_VADC_GROUP_CONFIG
1191:G:/dt_g1_balancing_plate_wise20192020/XMC/Libraries/XMCLib/inc\xmc_vadc.h **** {
1192:G:/dt_g1_balancing_plate_wise20192020/XMC/Libraries/XMCLib/inc\xmc_vadc.h ****     XMC_VADC_GROUP_EMUXCFG_t emux_config;    /**< External multiplexer related configurations */
1193:G:/dt_g1_balancing_plate_wise20192020/XMC/Libraries/XMCLib/inc\xmc_vadc.h ****     XMC_VADC_GROUP_CLASS_t class0;           /**< ADC input conversion configurations for GxICLASS[
1194:G:/dt_g1_balancing_plate_wise20192020/XMC/Libraries/XMCLib/inc\xmc_vadc.h ****     XMC_VADC_GROUP_CLASS_t class1;           /**< ADC input conversion configurations for GxICLASS[
1195:G:/dt_g1_balancing_plate_wise20192020/XMC/Libraries/XMCLib/inc\xmc_vadc.h ****     union
1196:G:/dt_g1_balancing_plate_wise20192020/XMC/Libraries/XMCLib/inc\xmc_vadc.h ****     {
1197:G:/dt_g1_balancing_plate_wise20192020/XMC/Libraries/XMCLib/inc\xmc_vadc.h ****        struct
1198:G:/dt_g1_balancing_plate_wise20192020/XMC/Libraries/XMCLib/inc\xmc_vadc.h ****        {
1199:G:/dt_g1_balancing_plate_wise20192020/XMC/Libraries/XMCLib/inc\xmc_vadc.h ****           uint32_t boundary0  : 12;  /**< Boundary value for results comparison*/
1200:G:/dt_g1_balancing_plate_wise20192020/XMC/Libraries/XMCLib/inc\xmc_vadc.h ****           uint32_t            : 4;
1201:G:/dt_g1_balancing_plate_wise20192020/XMC/Libraries/XMCLib/inc\xmc_vadc.h ****           uint32_t boundary1  : 12;  /**< Boundary value for results comparison*/
1202:G:/dt_g1_balancing_plate_wise20192020/XMC/Libraries/XMCLib/inc\xmc_vadc.h ****           uint32_t            : 4;
1203:G:/dt_g1_balancing_plate_wise20192020/XMC/Libraries/XMCLib/inc\xmc_vadc.h ****        };
1204:G:/dt_g1_balancing_plate_wise20192020/XMC/Libraries/XMCLib/inc\xmc_vadc.h ****        uint32_t g_bound;
1205:G:/dt_g1_balancing_plate_wise20192020/XMC/Libraries/XMCLib/inc\xmc_vadc.h ****     };
1206:G:/dt_g1_balancing_plate_wise20192020/XMC/Libraries/XMCLib/inc\xmc_vadc.h ****     union
1207:G:/dt_g1_balancing_plate_wise20192020/XMC/Libraries/XMCLib/inc\xmc_vadc.h ****     {
1208:G:/dt_g1_balancing_plate_wise20192020/XMC/Libraries/XMCLib/inc\xmc_vadc.h ****        struct
1209:G:/dt_g1_balancing_plate_wise20192020/XMC/Libraries/XMCLib/inc\xmc_vadc.h ****        {
1210:G:/dt_g1_balancing_plate_wise20192020/XMC/Libraries/XMCLib/inc\xmc_vadc.h ****           uint32_t                          : 4;
1211:G:/dt_g1_balancing_plate_wise20192020/XMC/Libraries/XMCLib/inc\xmc_vadc.h ****           uint32_t arbitration_round_length : 2;  /**< Number of arbiter slots to be considered */
1212:G:/dt_g1_balancing_plate_wise20192020/XMC/Libraries/XMCLib/inc\xmc_vadc.h ****           uint32_t                          : 1;
1213:G:/dt_g1_balancing_plate_wise20192020/XMC/Libraries/XMCLib/inc\xmc_vadc.h ****           uint32_t arbiter_mode             : 1;  /**< Arbiter mode - Select either Continuous mode
1214:G:/dt_g1_balancing_plate_wise20192020/XMC/Libraries/XMCLib/inc\xmc_vadc.h ****                                                       Uses @ref XMC_VADC_GROUP_ARBMODE_t */
1215:G:/dt_g1_balancing_plate_wise20192020/XMC/Libraries/XMCLib/inc\xmc_vadc.h ****           uint32_t                          : 24;
1216:G:/dt_g1_balancing_plate_wise20192020/XMC/Libraries/XMCLib/inc\xmc_vadc.h ****        };
1217:G:/dt_g1_balancing_plate_wise20192020/XMC/Libraries/XMCLib/inc\xmc_vadc.h ****        uint32_t g_arbcfg;
1218:G:/dt_g1_balancing_plate_wise20192020/XMC/Libraries/XMCLib/inc\xmc_vadc.h ****     };
1219:G:/dt_g1_balancing_plate_wise20192020/XMC/Libraries/XMCLib/inc\xmc_vadc.h **** } XMC_VADC_GROUP_CONFIG_t;
1220:G:/dt_g1_balancing_plate_wise20192020/XMC/Libraries/XMCLib/inc\xmc_vadc.h **** 
1221:G:/dt_g1_balancing_plate_wise20192020/XMC/Libraries/XMCLib/inc\xmc_vadc.h **** /**
1222:G:/dt_g1_balancing_plate_wise20192020/XMC/Libraries/XMCLib/inc\xmc_vadc.h ****  *   Structure to initialize VADC Group result register.
1223:G:/dt_g1_balancing_plate_wise20192020/XMC/Libraries/XMCLib/inc\xmc_vadc.h ****  */
1224:G:/dt_g1_balancing_plate_wise20192020/XMC/Libraries/XMCLib/inc\xmc_vadc.h **** 
1225:G:/dt_g1_balancing_plate_wise20192020/XMC/Libraries/XMCLib/inc\xmc_vadc.h **** typedef struct XMC_VADC_RESULT_CONFIG
1226:G:/dt_g1_balancing_plate_wise20192020/XMC/Libraries/XMCLib/inc\xmc_vadc.h **** {
1227:G:/dt_g1_balancing_plate_wise20192020/XMC/Libraries/XMCLib/inc\xmc_vadc.h ****     union
1228:G:/dt_g1_balancing_plate_wise20192020/XMC/Libraries/XMCLib/inc\xmc_vadc.h ****     {
1229:G:/dt_g1_balancing_plate_wise20192020/XMC/Libraries/XMCLib/inc\xmc_vadc.h ****        struct
1230:G:/dt_g1_balancing_plate_wise20192020/XMC/Libraries/XMCLib/inc\xmc_vadc.h ****        {
1231:G:/dt_g1_balancing_plate_wise20192020/XMC/Libraries/XMCLib/inc\xmc_vadc.h ****           uint32_t                         : 16;
1232:G:/dt_g1_balancing_plate_wise20192020/XMC/Libraries/XMCLib/inc\xmc_vadc.h ****           uint32_t data_reduction_control  : 4;  /**< Configures the data reduction stages */
1233:G:/dt_g1_balancing_plate_wise20192020/XMC/Libraries/XMCLib/inc\xmc_vadc.h ****           uint32_t post_processing_mode    : 2;  /**< Result data processing mode. Uses @ref  XMC_V
1234:G:/dt_g1_balancing_plate_wise20192020/XMC/Libraries/XMCLib/inc\xmc_vadc.h ****                                                       For normal operation select
1235:G:/dt_g1_balancing_plate_wise20192020/XMC/Libraries/XMCLib/inc\xmc_vadc.h ****                                                       XMC_VADC_DMM_t::XMC_VADC_DMM_REDUCTION_MODE
1236:G:/dt_g1_balancing_plate_wise20192020/XMC/Libraries/XMCLib/inc\xmc_vadc.h ****                                                       and data_reduction_control as 0*/
1237:G:/dt_g1_balancing_plate_wise20192020/XMC/Libraries/XMCLib/inc\xmc_vadc.h ****           uint32_t                         : 2;
1238:G:/dt_g1_balancing_plate_wise20192020/XMC/Libraries/XMCLib/inc\xmc_vadc.h ****           uint32_t wait_for_read_mode      : 1;  /**< Allow the conversion only after previous resu
1239:G:/dt_g1_balancing_plate_wise20192020/XMC/Libraries/XMCLib/inc\xmc_vadc.h ****           uint32_t part_of_fifo            : 2;  /**< Make the result register a part of Result FIF
1240:G:/dt_g1_balancing_plate_wise20192020/XMC/Libraries/XMCLib/inc\xmc_vadc.h ****           uint32_t                         : 4;
1241:G:/dt_g1_balancing_plate_wise20192020/XMC/Libraries/XMCLib/inc\xmc_vadc.h ****           uint32_t event_gen_enable        : 1;  /**< Generates an event on availability of new res
1242:G:/dt_g1_balancing_plate_wise20192020/XMC/Libraries/XMCLib/inc\xmc_vadc.h ****        };
1243:G:/dt_g1_balancing_plate_wise20192020/XMC/Libraries/XMCLib/inc\xmc_vadc.h ****        uint32_t g_rcr;
1244:G:/dt_g1_balancing_plate_wise20192020/XMC/Libraries/XMCLib/inc\xmc_vadc.h ****     };
1245:G:/dt_g1_balancing_plate_wise20192020/XMC/Libraries/XMCLib/inc\xmc_vadc.h **** } XMC_VADC_RESULT_CONFIG_t;
1246:G:/dt_g1_balancing_plate_wise20192020/XMC/Libraries/XMCLib/inc\xmc_vadc.h **** 
1247:G:/dt_g1_balancing_plate_wise20192020/XMC/Libraries/XMCLib/inc\xmc_vadc.h **** #if(XMC_VADC_SHS_AVAILABLE == 1U)
1248:G:/dt_g1_balancing_plate_wise20192020/XMC/Libraries/XMCLib/inc\xmc_vadc.h **** #if(XMC_VADC_SHS_FULL_SET_REG == 1U)
1249:G:/dt_g1_balancing_plate_wise20192020/XMC/Libraries/XMCLib/inc\xmc_vadc.h **** /**
1250:G:/dt_g1_balancing_plate_wise20192020/XMC/Libraries/XMCLib/inc\xmc_vadc.h ****  * Structure to initialize the Stepper configurations
1251:G:/dt_g1_balancing_plate_wise20192020/XMC/Libraries/XMCLib/inc\xmc_vadc.h ****  */
1252:G:/dt_g1_balancing_plate_wise20192020/XMC/Libraries/XMCLib/inc\xmc_vadc.h **** typedef struct XMC_VADC_GLOBAL_SHS_STEP_CONFIG
1253:G:/dt_g1_balancing_plate_wise20192020/XMC/Libraries/XMCLib/inc\xmc_vadc.h **** {
1254:G:/dt_g1_balancing_plate_wise20192020/XMC/Libraries/XMCLib/inc\xmc_vadc.h ****   union
1255:G:/dt_g1_balancing_plate_wise20192020/XMC/Libraries/XMCLib/inc\xmc_vadc.h ****   {
1256:G:/dt_g1_balancing_plate_wise20192020/XMC/Libraries/XMCLib/inc\xmc_vadc.h ****     struct
1257:G:/dt_g1_balancing_plate_wise20192020/XMC/Libraries/XMCLib/inc\xmc_vadc.h ****     {
1258:G:/dt_g1_balancing_plate_wise20192020/XMC/Libraries/XMCLib/inc\xmc_vadc.h ****       uint32_t sh_unit_step0            :3;  /**< Select a Sample and hold unit for the stepper's s
1259:G:/dt_g1_balancing_plate_wise20192020/XMC/Libraries/XMCLib/inc\xmc_vadc.h ****                                                       Uses @ref XMC_VADC_GROUP_INDEX_t*/
1260:G:/dt_g1_balancing_plate_wise20192020/XMC/Libraries/XMCLib/inc\xmc_vadc.h ****       uint32_t enable_step0             :1;  /**< Should the step be added to the sequence */
1261:G:/dt_g1_balancing_plate_wise20192020/XMC/Libraries/XMCLib/inc\xmc_vadc.h ****       uint32_t sh_unit_step1            :3;  /**< Select a Sample and hold unit for the stepper's s
1262:G:/dt_g1_balancing_plate_wise20192020/XMC/Libraries/XMCLib/inc\xmc_vadc.h ****                                                       Uses @ref XMC_VADC_GROUP_INDEX_t*/
1263:G:/dt_g1_balancing_plate_wise20192020/XMC/Libraries/XMCLib/inc\xmc_vadc.h ****       uint32_t enable_step1             :1;  /**< Should the step be added to the sequence */
1264:G:/dt_g1_balancing_plate_wise20192020/XMC/Libraries/XMCLib/inc\xmc_vadc.h ****       uint32_t sh_unit_step2            :3;  /**< Select a Sample and hold unit for the stepper's s
1265:G:/dt_g1_balancing_plate_wise20192020/XMC/Libraries/XMCLib/inc\xmc_vadc.h ****                                                       Uses @ref XMC_VADC_GROUP_INDEX_t*/
1266:G:/dt_g1_balancing_plate_wise20192020/XMC/Libraries/XMCLib/inc\xmc_vadc.h ****       uint32_t enable_step2             :1;  /**< Should the step be added to the sequence */
1267:G:/dt_g1_balancing_plate_wise20192020/XMC/Libraries/XMCLib/inc\xmc_vadc.h ****       uint32_t sh_unit_step3            :3;  /**< Select a Sample and hold unit for the stepper's s
1268:G:/dt_g1_balancing_plate_wise20192020/XMC/Libraries/XMCLib/inc\xmc_vadc.h ****                                                       Uses @ref XMC_VADC_GROUP_INDEX_t*/
1269:G:/dt_g1_balancing_plate_wise20192020/XMC/Libraries/XMCLib/inc\xmc_vadc.h ****       uint32_t enable_step3             :1;  /**< Should the step be added to the sequence */
1270:G:/dt_g1_balancing_plate_wise20192020/XMC/Libraries/XMCLib/inc\xmc_vadc.h ****       uint32_t sh_unit_step4            :3;  /**< Select a Sample and hold unit for the stepper's s
1271:G:/dt_g1_balancing_plate_wise20192020/XMC/Libraries/XMCLib/inc\xmc_vadc.h ****                                                       Uses @ref XMC_VADC_GROUP_INDEX_t*/
1272:G:/dt_g1_balancing_plate_wise20192020/XMC/Libraries/XMCLib/inc\xmc_vadc.h ****       uint32_t enable_step4             :1;  /**< Should the step be added to the sequence */
1273:G:/dt_g1_balancing_plate_wise20192020/XMC/Libraries/XMCLib/inc\xmc_vadc.h ****       uint32_t sh_unit_step5            :3;  /**< Select a Sample and hold unit for the stepper's s
1274:G:/dt_g1_balancing_plate_wise20192020/XMC/Libraries/XMCLib/inc\xmc_vadc.h ****                                                       Uses @ref XMC_VADC_GROUP_INDEX_t*/
1275:G:/dt_g1_balancing_plate_wise20192020/XMC/Libraries/XMCLib/inc\xmc_vadc.h ****       uint32_t enable_step5             :1;  /**< Should the step be added to the sequence */
1276:G:/dt_g1_balancing_plate_wise20192020/XMC/Libraries/XMCLib/inc\xmc_vadc.h ****       uint32_t sh_unit_step6            :3;  /**< Select a Sample and hold unit for the stepper's s
1277:G:/dt_g1_balancing_plate_wise20192020/XMC/Libraries/XMCLib/inc\xmc_vadc.h ****                                                       Uses @ref XMC_VADC_GROUP_INDEX_t*/
1278:G:/dt_g1_balancing_plate_wise20192020/XMC/Libraries/XMCLib/inc\xmc_vadc.h ****       uint32_t enable_step6             :1;  /**< Should the step be added to the sequence */
1279:G:/dt_g1_balancing_plate_wise20192020/XMC/Libraries/XMCLib/inc\xmc_vadc.h ****       uint32_t sh_unit_step7            :3;  /**< Select a Sample and hold unit for the stepper's s
1280:G:/dt_g1_balancing_plate_wise20192020/XMC/Libraries/XMCLib/inc\xmc_vadc.h ****                                                       Uses @ref XMC_VADC_GROUP_INDEX_t*/
1281:G:/dt_g1_balancing_plate_wise20192020/XMC/Libraries/XMCLib/inc\xmc_vadc.h ****       uint32_t enable_step7             :1;  /**< Should the step be added to the sequence */
1282:G:/dt_g1_balancing_plate_wise20192020/XMC/Libraries/XMCLib/inc\xmc_vadc.h **** 
1283:G:/dt_g1_balancing_plate_wise20192020/XMC/Libraries/XMCLib/inc\xmc_vadc.h ****     };
1284:G:/dt_g1_balancing_plate_wise20192020/XMC/Libraries/XMCLib/inc\xmc_vadc.h ****     uint32_t stepcfg;
1285:G:/dt_g1_balancing_plate_wise20192020/XMC/Libraries/XMCLib/inc\xmc_vadc.h ****   };
1286:G:/dt_g1_balancing_plate_wise20192020/XMC/Libraries/XMCLib/inc\xmc_vadc.h **** }XMC_VADC_GLOBAL_SHS_STEP_CONFIG_t;
1287:G:/dt_g1_balancing_plate_wise20192020/XMC/Libraries/XMCLib/inc\xmc_vadc.h **** #endif
1288:G:/dt_g1_balancing_plate_wise20192020/XMC/Libraries/XMCLib/inc\xmc_vadc.h **** /**
1289:G:/dt_g1_balancing_plate_wise20192020/XMC/Libraries/XMCLib/inc\xmc_vadc.h ****  * Sample and hold Initialization structure
1290:G:/dt_g1_balancing_plate_wise20192020/XMC/Libraries/XMCLib/inc\xmc_vadc.h ****  */
1291:G:/dt_g1_balancing_plate_wise20192020/XMC/Libraries/XMCLib/inc\xmc_vadc.h **** typedef struct XMC_VADC_GLOBAL_SHS_CONFIG
1292:G:/dt_g1_balancing_plate_wise20192020/XMC/Libraries/XMCLib/inc\xmc_vadc.h **** {
1293:G:/dt_g1_balancing_plate_wise20192020/XMC/Libraries/XMCLib/inc\xmc_vadc.h ****   union
1294:G:/dt_g1_balancing_plate_wise20192020/XMC/Libraries/XMCLib/inc\xmc_vadc.h ****   {
1295:G:/dt_g1_balancing_plate_wise20192020/XMC/Libraries/XMCLib/inc\xmc_vadc.h ****     struct
1296:G:/dt_g1_balancing_plate_wise20192020/XMC/Libraries/XMCLib/inc\xmc_vadc.h ****     {
1297:G:/dt_g1_balancing_plate_wise20192020/XMC/Libraries/XMCLib/inc\xmc_vadc.h **** #if(XMC_VADC_SHS_FULL_SET_REG == 1U)
1298:G:/dt_g1_balancing_plate_wise20192020/XMC/Libraries/XMCLib/inc\xmc_vadc.h ****       uint32_t shs_clock_divider        :4; /**< The divider value for the SHS clock. Range: [0x0 t
1299:G:/dt_g1_balancing_plate_wise20192020/XMC/Libraries/XMCLib/inc\xmc_vadc.h ****       uint32_t                          :6;
1300:G:/dt_g1_balancing_plate_wise20192020/XMC/Libraries/XMCLib/inc\xmc_vadc.h **** #else
1301:G:/dt_g1_balancing_plate_wise20192020/XMC/Libraries/XMCLib/inc\xmc_vadc.h ****       uint32_t                          :10;
1302:G:/dt_g1_balancing_plate_wise20192020/XMC/Libraries/XMCLib/inc\xmc_vadc.h **** #endif      
1303:G:/dt_g1_balancing_plate_wise20192020/XMC/Libraries/XMCLib/inc\xmc_vadc.h ****       uint32_t analog_reference_select  :2; /**< It is possible to different reference voltage for 
1304:G:/dt_g1_balancing_plate_wise20192020/XMC/Libraries/XMCLib/inc\xmc_vadc.h ****       uint32_t                          :20;
1305:G:/dt_g1_balancing_plate_wise20192020/XMC/Libraries/XMCLib/inc\xmc_vadc.h ****     };
1306:G:/dt_g1_balancing_plate_wise20192020/XMC/Libraries/XMCLib/inc\xmc_vadc.h ****     uint32_t shscfg;
1307:G:/dt_g1_balancing_plate_wise20192020/XMC/Libraries/XMCLib/inc\xmc_vadc.h ****   };
1308:G:/dt_g1_balancing_plate_wise20192020/XMC/Libraries/XMCLib/inc\xmc_vadc.h **** #if(XMC_VADC_SHS_FULL_SET_REG == 1U)
1309:G:/dt_g1_balancing_plate_wise20192020/XMC/Libraries/XMCLib/inc\xmc_vadc.h ****   XMC_VADC_GLOBAL_SHS_CALIBRATION_ORDER_t calibration_order; /**< order in which the calibration sh
1310:G:/dt_g1_balancing_plate_wise20192020/XMC/Libraries/XMCLib/inc\xmc_vadc.h **** #endif
1311:G:/dt_g1_balancing_plate_wise20192020/XMC/Libraries/XMCLib/inc\xmc_vadc.h **** }XMC_VADC_GLOBAL_SHS_CONFIG_t;
1312:G:/dt_g1_balancing_plate_wise20192020/XMC/Libraries/XMCLib/inc\xmc_vadc.h **** 
1313:G:/dt_g1_balancing_plate_wise20192020/XMC/Libraries/XMCLib/inc\xmc_vadc.h **** #endif
1314:G:/dt_g1_balancing_plate_wise20192020/XMC/Libraries/XMCLib/inc\xmc_vadc.h **** 
1315:G:/dt_g1_balancing_plate_wise20192020/XMC/Libraries/XMCLib/inc\xmc_vadc.h **** /**
1316:G:/dt_g1_balancing_plate_wise20192020/XMC/Libraries/XMCLib/inc\xmc_vadc.h ****  * Detailed global result structure
1317:G:/dt_g1_balancing_plate_wise20192020/XMC/Libraries/XMCLib/inc\xmc_vadc.h ****  */
1318:G:/dt_g1_balancing_plate_wise20192020/XMC/Libraries/XMCLib/inc\xmc_vadc.h **** typedef struct XMC_VADC_GLOBAL_DETAILED_RESULT
1319:G:/dt_g1_balancing_plate_wise20192020/XMC/Libraries/XMCLib/inc\xmc_vadc.h **** {
1320:G:/dt_g1_balancing_plate_wise20192020/XMC/Libraries/XMCLib/inc\xmc_vadc.h ****   union
1321:G:/dt_g1_balancing_plate_wise20192020/XMC/Libraries/XMCLib/inc\xmc_vadc.h ****   {
1322:G:/dt_g1_balancing_plate_wise20192020/XMC/Libraries/XMCLib/inc\xmc_vadc.h ****     struct
1323:G:/dt_g1_balancing_plate_wise20192020/XMC/Libraries/XMCLib/inc\xmc_vadc.h ****     {
1324:G:/dt_g1_balancing_plate_wise20192020/XMC/Libraries/XMCLib/inc\xmc_vadc.h ****       uint32_t result                   :16;  /**< Result of the Analog to digital conversion*/
1325:G:/dt_g1_balancing_plate_wise20192020/XMC/Libraries/XMCLib/inc\xmc_vadc.h ****       uint32_t group_number             :4;   /**< Indicates the group to which the channel_number 
1326:G:/dt_g1_balancing_plate_wise20192020/XMC/Libraries/XMCLib/inc\xmc_vadc.h ****       uint32_t channel_number           :5;   /**< Converted channel number*/
1327:G:/dt_g1_balancing_plate_wise20192020/XMC/Libraries/XMCLib/inc\xmc_vadc.h ****       uint32_t emux_channel_number      :3;   /**< Converted external multiplexer channel number.
1328:G:/dt_g1_balancing_plate_wise20192020/XMC/Libraries/XMCLib/inc\xmc_vadc.h ****                                                  Only applicable for GxRES[0] result register*/
1329:G:/dt_g1_balancing_plate_wise20192020/XMC/Libraries/XMCLib/inc\xmc_vadc.h ****       uint32_t converted_request_source :2;   /**< Converted request source*/
1330:G:/dt_g1_balancing_plate_wise20192020/XMC/Libraries/XMCLib/inc\xmc_vadc.h ****       uint32_t fast_compare_result      :1;   /**< Fast compare result if conversion mode is fast c
1331:G:/dt_g1_balancing_plate_wise20192020/XMC/Libraries/XMCLib/inc\xmc_vadc.h ****       uint32_t vaild_result             :1;   /**< Valid flag is set when a new result is available
1332:G:/dt_g1_balancing_plate_wise20192020/XMC/Libraries/XMCLib/inc\xmc_vadc.h ****     };
1333:G:/dt_g1_balancing_plate_wise20192020/XMC/Libraries/XMCLib/inc\xmc_vadc.h ****     uint32_t res;
1334:G:/dt_g1_balancing_plate_wise20192020/XMC/Libraries/XMCLib/inc\xmc_vadc.h ****   };
1335:G:/dt_g1_balancing_plate_wise20192020/XMC/Libraries/XMCLib/inc\xmc_vadc.h **** } XMC_VADC_GLOBAL_DETAILED_RESULT_t;
1336:G:/dt_g1_balancing_plate_wise20192020/XMC/Libraries/XMCLib/inc\xmc_vadc.h **** 
1337:G:/dt_g1_balancing_plate_wise20192020/XMC/Libraries/XMCLib/inc\xmc_vadc.h **** /**
1338:G:/dt_g1_balancing_plate_wise20192020/XMC/Libraries/XMCLib/inc\xmc_vadc.h ****  * Detailed channel result structure
1339:G:/dt_g1_balancing_plate_wise20192020/XMC/Libraries/XMCLib/inc\xmc_vadc.h ****  */
1340:G:/dt_g1_balancing_plate_wise20192020/XMC/Libraries/XMCLib/inc\xmc_vadc.h **** typedef struct XMC_VADC_DETAILED_RESULT
1341:G:/dt_g1_balancing_plate_wise20192020/XMC/Libraries/XMCLib/inc\xmc_vadc.h **** {
1342:G:/dt_g1_balancing_plate_wise20192020/XMC/Libraries/XMCLib/inc\xmc_vadc.h ****   union
1343:G:/dt_g1_balancing_plate_wise20192020/XMC/Libraries/XMCLib/inc\xmc_vadc.h ****   {
1344:G:/dt_g1_balancing_plate_wise20192020/XMC/Libraries/XMCLib/inc\xmc_vadc.h ****     struct
1345:G:/dt_g1_balancing_plate_wise20192020/XMC/Libraries/XMCLib/inc\xmc_vadc.h ****     {
1346:G:/dt_g1_balancing_plate_wise20192020/XMC/Libraries/XMCLib/inc\xmc_vadc.h ****       uint32_t result                   :16;  /**< Result of the Analog to digital conversion*/
1347:G:/dt_g1_balancing_plate_wise20192020/XMC/Libraries/XMCLib/inc\xmc_vadc.h ****       uint32_t data_reduction_counter   :4;   /**< Results reduction counter value*/
1348:G:/dt_g1_balancing_plate_wise20192020/XMC/Libraries/XMCLib/inc\xmc_vadc.h ****       uint32_t channel_number           :5;   /**< Converted channel number*/
1349:G:/dt_g1_balancing_plate_wise20192020/XMC/Libraries/XMCLib/inc\xmc_vadc.h ****       uint32_t emux_channel_number      :3;   /**< Converted external multiplexer channel number.
1350:G:/dt_g1_balancing_plate_wise20192020/XMC/Libraries/XMCLib/inc\xmc_vadc.h ****                                                  Only applicable for GxRES[0] result register*/
1351:G:/dt_g1_balancing_plate_wise20192020/XMC/Libraries/XMCLib/inc\xmc_vadc.h ****       uint32_t converted_request_source :2;   /**< Converted request source*/
1352:G:/dt_g1_balancing_plate_wise20192020/XMC/Libraries/XMCLib/inc\xmc_vadc.h ****       uint32_t fast_compare_result      :1;   /**< Fast compare result if conversion mode is fast c
1353:G:/dt_g1_balancing_plate_wise20192020/XMC/Libraries/XMCLib/inc\xmc_vadc.h ****       uint32_t vaild_result             :1;   /**< Valid flag is set when a new result is available
1354:G:/dt_g1_balancing_plate_wise20192020/XMC/Libraries/XMCLib/inc\xmc_vadc.h ****     };
1355:G:/dt_g1_balancing_plate_wise20192020/XMC/Libraries/XMCLib/inc\xmc_vadc.h ****     uint32_t res;
1356:G:/dt_g1_balancing_plate_wise20192020/XMC/Libraries/XMCLib/inc\xmc_vadc.h ****   };
1357:G:/dt_g1_balancing_plate_wise20192020/XMC/Libraries/XMCLib/inc\xmc_vadc.h **** } XMC_VADC_DETAILED_RESULT_t;
1358:G:/dt_g1_balancing_plate_wise20192020/XMC/Libraries/XMCLib/inc\xmc_vadc.h ****  
1359:G:/dt_g1_balancing_plate_wise20192020/XMC/Libraries/XMCLib/inc\xmc_vadc.h **** 
1360:G:/dt_g1_balancing_plate_wise20192020/XMC/Libraries/XMCLib/inc\xmc_vadc.h **** /*Anonymous structure/union guard end*/
1361:G:/dt_g1_balancing_plate_wise20192020/XMC/Libraries/XMCLib/inc\xmc_vadc.h **** #if defined(__CC_ARM)
1362:G:/dt_g1_balancing_plate_wise20192020/XMC/Libraries/XMCLib/inc\xmc_vadc.h ****   #pragma pop
1363:G:/dt_g1_balancing_plate_wise20192020/XMC/Libraries/XMCLib/inc\xmc_vadc.h **** #elif defined(__TASKING__)
1364:G:/dt_g1_balancing_plate_wise20192020/XMC/Libraries/XMCLib/inc\xmc_vadc.h ****   #pragma warning restore
1365:G:/dt_g1_balancing_plate_wise20192020/XMC/Libraries/XMCLib/inc\xmc_vadc.h **** #endif
1366:G:/dt_g1_balancing_plate_wise20192020/XMC/Libraries/XMCLib/inc\xmc_vadc.h **** /**************************************************************************************************
1367:G:/dt_g1_balancing_plate_wise20192020/XMC/Libraries/XMCLib/inc\xmc_vadc.h ****  * static inline functions
1368:G:/dt_g1_balancing_plate_wise20192020/XMC/Libraries/XMCLib/inc\xmc_vadc.h ****  **************************************************************************************************
1369:G:/dt_g1_balancing_plate_wise20192020/XMC/Libraries/XMCLib/inc\xmc_vadc.h **** 
1370:G:/dt_g1_balancing_plate_wise20192020/XMC/Libraries/XMCLib/inc\xmc_vadc.h **** #if (XMC_VADC_GROUP_AVAILABLE == 1U) 
1371:G:/dt_g1_balancing_plate_wise20192020/XMC/Libraries/XMCLib/inc\xmc_vadc.h **** __STATIC_INLINE bool XMC_VADC_CHECK_GROUP_PTR(XMC_VADC_GROUP_t *const group_ptr)
1372:G:/dt_g1_balancing_plate_wise20192020/XMC/Libraries/XMCLib/inc\xmc_vadc.h **** {
1373:G:/dt_g1_balancing_plate_wise20192020/XMC/Libraries/XMCLib/inc\xmc_vadc.h **** #if (XMC_VADC_MAXIMUM_NUM_GROUPS == 4U)
1374:G:/dt_g1_balancing_plate_wise20192020/XMC/Libraries/XMCLib/inc\xmc_vadc.h ****   return((group_ptr == VADC_G0) || (group_ptr == VADC_G1) || (group_ptr == VADC_G2) || (group_ptr =
1375:G:/dt_g1_balancing_plate_wise20192020/XMC/Libraries/XMCLib/inc\xmc_vadc.h **** #else
1376:G:/dt_g1_balancing_plate_wise20192020/XMC/Libraries/XMCLib/inc\xmc_vadc.h ****   return((group_ptr == VADC_G0) || (group_ptr == VADC_G1));
1377:G:/dt_g1_balancing_plate_wise20192020/XMC/Libraries/XMCLib/inc\xmc_vadc.h **** #endif
1378:G:/dt_g1_balancing_plate_wise20192020/XMC/Libraries/XMCLib/inc\xmc_vadc.h **** }
1379:G:/dt_g1_balancing_plate_wise20192020/XMC/Libraries/XMCLib/inc\xmc_vadc.h **** #endif
1380:G:/dt_g1_balancing_plate_wise20192020/XMC/Libraries/XMCLib/inc\xmc_vadc.h **** /**************************************************************************************************
1381:G:/dt_g1_balancing_plate_wise20192020/XMC/Libraries/XMCLib/inc\xmc_vadc.h ****  * API Prototypes
1382:G:/dt_g1_balancing_plate_wise20192020/XMC/Libraries/XMCLib/inc\xmc_vadc.h ****  **************************************************************************************************
1383:G:/dt_g1_balancing_plate_wise20192020/XMC/Libraries/XMCLib/inc\xmc_vadc.h **** 
1384:G:/dt_g1_balancing_plate_wise20192020/XMC/Libraries/XMCLib/inc\xmc_vadc.h **** #ifdef __cplusplus
1385:G:/dt_g1_balancing_plate_wise20192020/XMC/Libraries/XMCLib/inc\xmc_vadc.h **** extern "C" {
1386:G:/dt_g1_balancing_plate_wise20192020/XMC/Libraries/XMCLib/inc\xmc_vadc.h **** #endif
1387:G:/dt_g1_balancing_plate_wise20192020/XMC/Libraries/XMCLib/inc\xmc_vadc.h **** 
1388:G:/dt_g1_balancing_plate_wise20192020/XMC/Libraries/XMCLib/inc\xmc_vadc.h **** /**
1389:G:/dt_g1_balancing_plate_wise20192020/XMC/Libraries/XMCLib/inc\xmc_vadc.h ****  * @param None
1390:G:/dt_g1_balancing_plate_wise20192020/XMC/Libraries/XMCLib/inc\xmc_vadc.h ****  *
1391:G:/dt_g1_balancing_plate_wise20192020/XMC/Libraries/XMCLib/inc\xmc_vadc.h ****  * @return None
1392:G:/dt_g1_balancing_plate_wise20192020/XMC/Libraries/XMCLib/inc\xmc_vadc.h ****  *
1393:G:/dt_g1_balancing_plate_wise20192020/XMC/Libraries/XMCLib/inc\xmc_vadc.h ****  * \par<b>Description:</b><br>
1394:G:/dt_g1_balancing_plate_wise20192020/XMC/Libraries/XMCLib/inc\xmc_vadc.h ****  * Enables the VADC module.<BR>\n
1395:G:/dt_g1_balancing_plate_wise20192020/XMC/Libraries/XMCLib/inc\xmc_vadc.h ****  * This API would ungate the clock to the VADC module (if applicable). Also this API would bring
1396:G:/dt_g1_balancing_plate_wise20192020/XMC/Libraries/XMCLib/inc\xmc_vadc.h ****  * the VADC module out of reset state(if applicable), by asserting the appropriate registers.
1397:G:/dt_g1_balancing_plate_wise20192020/XMC/Libraries/XMCLib/inc\xmc_vadc.h ****  * This API would invoke XMC_SCU_CLOCK_UngatePeripheralClock() and XMC_SCU_RESET_DeassertPeripheral
1398:G:/dt_g1_balancing_plate_wise20192020/XMC/Libraries/XMCLib/inc\xmc_vadc.h ****  * if needed. Directly accessed register is  COMPARATOR.ORCCTRL (Refer to the errata for XMC1100).
1399:G:/dt_g1_balancing_plate_wise20192020/XMC/Libraries/XMCLib/inc\xmc_vadc.h ****  *
1400:G:/dt_g1_balancing_plate_wise20192020/XMC/Libraries/XMCLib/inc\xmc_vadc.h ****  * \par<b>Related APIs:</b><BR>
